///////////////////////////////////////////////////////////////////////////////
//
// IAR C/C++ Compiler V10.10.1.4655 for 8051              21/Jul/2021  15:47:02
// Copyright 2004-2017 IAR Systems AB.
// Standalone license - IAR Embedded Workbench for 8051
//
//    Core               =  plain
//    Code model         =  banked
//    Data model         =  large
//    Calling convention =  xdata reentrant
//    Constant location  =  data_rom
//    Dptr setup         =  1,16
//                          
//    Source file        =  
//        D:\work\zigbee\ti_cc2530_zstack\Z-Stack
//        3.0.2\Components\stack\bdb\bdb.c
//    Command line       =  
//        -f C:\Users\WenHao\AppData\Local\Temp\EWBB14.tmp
//        ("D:\work\zigbee\ti_cc2530_zstack\Z-Stack
//        3.0.2\Components\stack\bdb\bdb.c" -D CSTX_BOARD -D SECURE=1 -D
//        TC_LINKKEY_JOIN -D NV_INIT -D NV_RESTORE -D xPOWER_SAVING -D
//        NWK_AUTO_POLL -D xZTOOL_P1 -D xMT_TASK -D xMT_APP_FUNC -D
//        xMT_SYS_FUNC -D xMT_ZDO_FUNC -D xMT_ZDO_MGMT -D xMT_APP_CNF_FUNC -D
//        LCD_SUPPORTED=DEBUG -D MULTICAST_ENABLED=FALSE -D ZCL_IDENTIFY -D
//        ZCL_READ -D ZCL_DISCOVER -D ZCL_WRITE -D ZCL_BASIC -D
//        ZCL_REPORTING_DEVICE -D HAL_LED=TRUE -D HAL_UART=TRUE -D HAL_KEY=TRUE
//        -D ISR_KEYINTERRUPT -lC "D:\work\zigbee\ti_cc2530_zstack\Z-Stack
//        3.0.2\Projects\zstack\HomeAutomation\AcoinfoZigBeeSampleLight\CC2530DB\EndDeviceEB\List"
//        -lA "D:\work\zigbee\ti_cc2530_zstack\Z-Stack
//        3.0.2\Projects\zstack\HomeAutomation\AcoinfoZigBeeSampleLight\CC2530DB\EndDeviceEB\List"
//        --diag_suppress Pe001,Pa010 -o
//        "D:\work\zigbee\ti_cc2530_zstack\Z-Stack
//        3.0.2\Projects\zstack\HomeAutomation\AcoinfoZigBeeSampleLight\CC2530DB\EndDeviceEB\Obj"
//        -e --debug --core=plain --dptr=16,1 --data_model=large
//        --code_model=banked --calling_convention=xdata_reentrant
//        --place_constants=data_rom --nr_virtual_regs 16 -f
//        "D:\work\zigbee\ti_cc2530_zstack\Z-Stack
//        3.0.2\Projects\zstack\HomeAutomation\AcoinfoZigBeeSampleLight\CC2530DB\..\..\..\Tools\CC2530DB\f8wEndev.cfg"
//        (-DCPU32MHZ -DROOT=__near_func -DMAC_CFG_TX_DATA_MAX=3
//        -DMAC_CFG_TX_MAX=6 -DMAC_CFG_RX_MAX=3) -f
//        "D:\work\zigbee\ti_cc2530_zstack\Z-Stack
//        3.0.2\Projects\zstack\HomeAutomation\AcoinfoZigBeeSampleLight\CC2530DB\..\..\..\Tools\CC2530DB\f8wConfig.cfg"
//        (-DZIGBEEPRO -DSECURE=1 -DZG_SECURE_DYNAMIC=0 -DREFLECTOR
//        -DDEFAULT_CHANLIST=0x00100000 -DZDAPP_CONFIG_PAN_ID=0xFFFF
//        -DNWK_START_DELAY=100 -DEXTENDED_JOINING_RANDOM_MASK=0x007F
//        -DBEACON_REQUEST_DELAY=100 -DBEACON_REQ_DELAY_MASK=0x00FF
//        -DLINK_STATUS_JITTER_MASK=0x007F -DROUTE_EXPIRY_TIME=30
//        -DAPSC_ACK_WAIT_DURATION_POLLED=3000 -DNWK_INDIRECT_MSG_TIMEOUT=7
//        -DMAX_RREQ_ENTRIES=8 -DAPSC_MAX_FRAME_RETRIES=3
//        -DNWK_MAX_DATA_RETRIES=2 -DMAX_POLL_FAILURE_RETRIES=2 -DMAX_BCAST=9
//        -DAPS_MAX_GROUPS=16 -DMAX_RTG_ENTRIES=40 -DNWK_MAX_BINDING_ENTRIES=4
//        -DMAX_BINDING_CLUSTER_IDS=4 -DDEFAULT_KEY={0}
//        -DMAC_MAX_FRAME_SIZE=116 -DZDNWKMGR_MIN_TRANSMISSIONS=20
//        "-DCONST=const __code" -DGENERIC=__generic -DRFD_RCVC_ALWAYS_ON=FALSE
//        -DPOLL_RATE=1000 -DQUEUED_POLL_RATE=100 -DRESPONSE_POLL_RATE=100
//        -DREJOIN_POLL_RATE=440 -DREJOIN_BACKOFF=900000 -DREJOIN_SCAN=900000
//        -DENABLE_LED4_DISABLE_S1) -f "D:\work\zigbee\ti_cc2530_zstack\Z-Stack
//        3.0.2\Projects\zstack\HomeAutomation\AcoinfoZigBeeSampleLight\CC2530DB\..\..\..\Tools\CC2530DB\f8wZCL.cfg"
//        -I "D:\work\zigbee\ti_cc2530_zstack\Z-Stack
//        3.0.2\Projects\zstack\HomeAutomation\AcoinfoZigBeeSampleLight\CC2530DB\"
//        -I "D:\work\zigbee\ti_cc2530_zstack\Z-Stack
//        3.0.2\Projects\zstack\HomeAutomation\AcoinfoZigBeeSampleLight\CC2530DB\..\Source\"
//        -I "D:\work\zigbee\ti_cc2530_zstack\Z-Stack
//        3.0.2\Projects\zstack\HomeAutomation\AcoinfoZigBeeSampleLight\CC2530DB\..\..\Source\"
//        -I "D:\work\zigbee\ti_cc2530_zstack\Z-Stack
//        3.0.2\Projects\zstack\HomeAutomation\AcoinfoZigBeeSampleLight\CC2530DB\..\..\..\ZMain\TI2530DB\"
//        -I "D:\work\zigbee\ti_cc2530_zstack\Z-Stack
//        3.0.2\Projects\zstack\HomeAutomation\AcoinfoZigBeeSampleLight\CC2530DB\..\..\..\..\..\Components\hal\include\"
//        -I "D:\work\zigbee\ti_cc2530_zstack\Z-Stack
//        3.0.2\Projects\zstack\HomeAutomation\AcoinfoZigBeeSampleLight\CC2530DB\..\..\..\..\..\Components\hal\target\CC2530EB\"
//        -I "D:\work\zigbee\ti_cc2530_zstack\Z-Stack
//        3.0.2\Projects\zstack\HomeAutomation\AcoinfoZigBeeSampleLight\CC2530DB\..\..\..\..\..\Components\mac\include\"
//        -I "D:\work\zigbee\ti_cc2530_zstack\Z-Stack
//        3.0.2\Projects\zstack\HomeAutomation\AcoinfoZigBeeSampleLight\CC2530DB\..\..\..\..\..\Components\mac\high_level\"
//        -I "D:\work\zigbee\ti_cc2530_zstack\Z-Stack
//        3.0.2\Projects\zstack\HomeAutomation\AcoinfoZigBeeSampleLight\CC2530DB\..\..\..\..\..\Components\mac\low_level\srf04\"
//        -I "D:\work\zigbee\ti_cc2530_zstack\Z-Stack
//        3.0.2\Projects\zstack\HomeAutomation\AcoinfoZigBeeSampleLight\CC2530DB\..\..\..\..\..\Components\mac\low_level\srf04\single_chip\"
//        -I "D:\work\zigbee\ti_cc2530_zstack\Z-Stack
//        3.0.2\Projects\zstack\HomeAutomation\AcoinfoZigBeeSampleLight\CC2530DB\..\..\..\..\..\Components\mt\"
//        -I "D:\work\zigbee\ti_cc2530_zstack\Z-Stack
//        3.0.2\Projects\zstack\HomeAutomation\AcoinfoZigBeeSampleLight\CC2530DB\..\..\..\..\..\Components\osal\include\"
//        -I "D:\work\zigbee\ti_cc2530_zstack\Z-Stack
//        3.0.2\Projects\zstack\HomeAutomation\AcoinfoZigBeeSampleLight\CC2530DB\..\..\..\..\..\Components\services\saddr\"
//        -I "D:\work\zigbee\ti_cc2530_zstack\Z-Stack
//        3.0.2\Projects\zstack\HomeAutomation\AcoinfoZigBeeSampleLight\CC2530DB\..\..\..\..\..\Components\services\sdata\"
//        -I "D:\work\zigbee\ti_cc2530_zstack\Z-Stack
//        3.0.2\Projects\zstack\HomeAutomation\AcoinfoZigBeeSampleLight\CC2530DB\..\..\..\..\..\Components\stack\af\"
//        -I "D:\work\zigbee\ti_cc2530_zstack\Z-Stack
//        3.0.2\Projects\zstack\HomeAutomation\AcoinfoZigBeeSampleLight\CC2530DB\..\..\..\..\..\Components\stack\bdb\"
//        -I "D:\work\zigbee\ti_cc2530_zstack\Z-Stack
//        3.0.2\Projects\zstack\HomeAutomation\AcoinfoZigBeeSampleLight\CC2530DB\..\..\..\..\..\Components\stack\gp\"
//        -I "D:\work\zigbee\ti_cc2530_zstack\Z-Stack
//        3.0.2\Projects\zstack\HomeAutomation\AcoinfoZigBeeSampleLight\CC2530DB\..\..\..\..\..\Components\stack\nwk\"
//        -I "D:\work\zigbee\ti_cc2530_zstack\Z-Stack
//        3.0.2\Projects\zstack\HomeAutomation\AcoinfoZigBeeSampleLight\CC2530DB\..\..\..\..\..\Components\stack\sapi\"
//        -I "D:\work\zigbee\ti_cc2530_zstack\Z-Stack
//        3.0.2\Projects\zstack\HomeAutomation\AcoinfoZigBeeSampleLight\CC2530DB\..\..\..\..\..\Components\stack\sec\"
//        -I "D:\work\zigbee\ti_cc2530_zstack\Z-Stack
//        3.0.2\Projects\zstack\HomeAutomation\AcoinfoZigBeeSampleLight\CC2530DB\..\..\..\..\..\Components\stack\sys\"
//        -I "D:\work\zigbee\ti_cc2530_zstack\Z-Stack
//        3.0.2\Projects\zstack\HomeAutomation\AcoinfoZigBeeSampleLight\CC2530DB\..\..\..\..\..\Components\stack\zcl\"
//        -I "D:\work\zigbee\ti_cc2530_zstack\Z-Stack
//        3.0.2\Projects\zstack\HomeAutomation\AcoinfoZigBeeSampleLight\CC2530DB\..\..\..\..\..\Components\stack\zdo\"
//        -I "D:\work\zigbee\ti_cc2530_zstack\Z-Stack
//        3.0.2\Projects\zstack\HomeAutomation\AcoinfoZigBeeSampleLight\CC2530DB\..\..\..\..\..\Components\zmac\"
//        -I "D:\work\zigbee\ti_cc2530_zstack\Z-Stack
//        3.0.2\Projects\zstack\HomeAutomation\AcoinfoZigBeeSampleLight\CC2530DB\..\..\..\..\..\Components\zmac\f8w\"
//        -Ohz --require_prototypes)
//    Locale             =  Chinese (Simplified)_China.936
//    List file          =  
//        D:\work\zigbee\ti_cc2530_zstack\Z-Stack
//        3.0.2\Projects\zstack\HomeAutomation\AcoinfoZigBeeSampleLight\CC2530DB\EndDeviceEB\List\bdb.s51
//
///////////////////////////////////////////////////////////////////////////////

        NAME bdb

        RTMODEL "__SystemLibrary", "CLib"
        RTMODEL "__calling_convention", "xdata_reentrant"
        RTMODEL "__code_model", "banked"
        RTMODEL "__core", "plain"
        RTMODEL "__data_model", "large"
        RTMODEL "__dptr_size", "16"
        RTMODEL "__extended_stack", "disabled"
        RTMODEL "__location_for_constants", "data"
        RTMODEL "__number_of_dptrs", "1"
        RTMODEL "__register_banks", "*"
        RTMODEL "__rt_version", "1"

        RSEG DOVERLAY:DATA:NOROOT(0)
        RSEG IOVERLAY:IDATA:NOROOT(0)
        RSEG ISTACK:IDATA:NOROOT(0)
        RSEG PSTACK:XDATA:NOROOT(0)
        RSEG XSTACK:XDATA:NOROOT(0)

        EXTERN ?V0
        EXTERN ?V1
        EXTERN ?V2
        EXTERN ?V3
        EXTERN ?V4
        EXTERN ?V5
        EXTERN ?V6
        EXTERN ?V7
        EXTERN ?V8
        EXTERN ?V9
        EXTERN ?V10
        EXTERN ?V11
        EXTERN ?ALLOC_XSTACK8
        EXTERN ?BANKED_ENTER_XDATA
        EXTERN ?BANKED_LEAVE_XDATA
        EXTERN ?BDISPATCH
        EXTERN ?BRET
        EXTERN ?CALL_IND
        EXTERN ?DEALLOC_XSTACK8
        EXTERN ?L_MOV_TO_X
        EXTERN ?L_MOV_X
        EXTERN ?PUSH_XSTACK8_X_FOUR
        EXTERN ?PUSH_XSTACK8_X_TWO
        EXTERN ?PUSH_XSTACK_I_ONE
        EXTERN ?PUSH_XSTACK_I_THREE
        EXTERN ?PUSH_XSTACK_I_TWO
        EXTERN ?S_SHL
        EXTERN ?UL_GT
        EXTERN ?US_SHR
        EXTERN ?US_SWITCH_DENSE
        EXTERN ?XLOAD_R0123
        EXTERN ?XLOAD_R2345
        EXTERN ?XSP
        EXTERN ?XSTACK_DISP0_8
        EXTERN ?XSTACK_DISP100_8
        EXTERN ?XSTACK_DISP101_8
        EXTERN ?XSTACK_DISP102_8
        EXTERN ?XSTORE_R0123
        EXTERN __INIT_XDATA_I
        EXTERN __INIT_XDATA_Z

        PUBLIC `??bdb_AddRespondentNode::?relay`
        FUNCTION `??bdb_AddRespondentNode::?relay`,0203H
        PUBLIC `??bdb_CBKETCLinkKeyExchangeAttempt::?relay`
        FUNCTION `??bdb_CBKETCLinkKeyExchangeAttempt::?relay`,0203H
        PUBLIC `??bdb_ClearNetworkParams::?relay`
        FUNCTION `??bdb_ClearNetworkParams::?relay`,0203H
        PUBLIC `??bdb_CreateRespondentList::?relay`
        FUNCTION `??bdb_CreateRespondentList::?relay`,0203H
        PUBLIC `??bdb_GenerateInstallCodeCRC::?relay`
        FUNCTION `??bdb_GenerateInstallCodeCRC::?relay`,0203H
        PUBLIC `??bdb_Init::?relay`
        FUNCTION `??bdb_Init::?relay`,0203H
        PUBLIC `??bdb_NetworkRestoredResumeState::?relay`
        FUNCTION `??bdb_NetworkRestoredResumeState::?relay`,0203H
        PUBLIC `??bdb_NotifyCommissioningModeStart::?relay`
        FUNCTION `??bdb_NotifyCommissioningModeStart::?relay`,0203H
        PUBLIC `??bdb_ProcessNodeDescRsp::?relay`
        FUNCTION `??bdb_ProcessNodeDescRsp::?relay`,0203H
        FUNCTION `??bdb_ProcessOSALMsg::?relay`,0203H
        PUBLIC `??bdb_RegisterCBKETCLinkKeyExchangeCB::?relay`
        FUNCTION `??bdb_RegisterCBKETCLinkKeyExchangeCB::?relay`,0203H
        PUBLIC `??bdb_RegisterCommissioningStatusCB::?relay`
        FUNCTION `??bdb_RegisterCommissioningStatusCB::?relay`,0203H
        PUBLIC `??bdb_RegisterForFilterNwkDescCB::?relay`
        FUNCTION `??bdb_RegisterForFilterNwkDescCB::?relay`,0203H
        PUBLIC `??bdb_RegisterSimpleDescriptor::?relay`
        FUNCTION `??bdb_RegisterSimpleDescriptor::?relay`,0203H
        PUBLIC `??bdb_SendMsg::?relay`
        FUNCTION `??bdb_SendMsg::?relay`,0203H
        PUBLIC `??bdb_StartCommissioning::?relay`
        FUNCTION `??bdb_StartCommissioning::?relay`,0203H
        PUBLIC `??bdb_ZclIdentifyCmdInd::?relay`
        FUNCTION `??bdb_ZclIdentifyCmdInd::?relay`,0203H
        PUBLIC `??bdb_ZedAttemptRecoverNwk::?relay`
        FUNCTION `??bdb_ZedAttemptRecoverNwk::?relay`,0203H
        PUBLIC `??bdb_addInstallCode::?relay`
        FUNCTION `??bdb_addInstallCode::?relay`,0203H
        PUBLIC `??bdb_calculateCCITT_CRC::?relay`
        FUNCTION `??bdb_calculateCCITT_CRC::?relay`,0203H
        PUBLIC `??bdb_crcBitByBitFast::?relay`
        FUNCTION `??bdb_crcBitByBitFast::?relay`,0203H
        PUBLIC `??bdb_crcInit::?relay`
        FUNCTION `??bdb_crcInit::?relay`,0203H
        PUBLIC `??bdb_crcReflect::?relay`
        FUNCTION `??bdb_crcReflect::?relay`,0203H
        PUBLIC `??bdb_doTrustCenterRequireKeyExchange::?relay`
        FUNCTION `??bdb_doTrustCenterRequireKeyExchange::?relay`,0203H
        PUBLIC `??bdb_event_loop::?relay`
        FUNCTION `??bdb_event_loop::?relay`,0203H
        PUBLIC `??bdb_filterNwkDisc::?relay`
        FUNCTION `??bdb_filterNwkDisc::?relay`,0203H
        PUBLIC `??bdb_getZCLFrameCounter::?relay`
        FUNCTION `??bdb_getZCLFrameCounter::?relay`,0203H
        PUBLIC `??bdb_isDeviceNonFactoryNew::?relay`
        FUNCTION `??bdb_isDeviceNonFactoryNew::?relay`,0203H
        PUBLIC `??bdb_joinProcess::?relay`
        FUNCTION `??bdb_joinProcess::?relay`,0203H
        PUBLIC `??bdb_nwkAssocAttemt::?relay`
        FUNCTION `??bdb_nwkAssocAttemt::?relay`,0203H
        PUBLIC `??bdb_nwkDescFree::?relay`
        FUNCTION `??bdb_nwkDescFree::?relay`,0203H
        PUBLIC `??bdb_nwkDiscoveryAttempt::?relay`
        FUNCTION `??bdb_nwkDiscoveryAttempt::?relay`,0203H
        PUBLIC `??bdb_nwkFormationAttempt::?relay`
        FUNCTION `??bdb_nwkFormationAttempt::?relay`,0203H
        FUNCTION `??bdb_nwkJoiningFormation::?relay`,0203H
        FUNCTION `??bdb_nwkSteeringDeviceOnNwk::?relay`,0203H
        PUBLIC `??bdb_parentLost::?relay`
        FUNCTION `??bdb_parentLost::?relay`,0203H
        PUBLIC `??bdb_rejoinNwk::?relay`
        FUNCTION `??bdb_rejoinNwk::?relay`,0203H
        PUBLIC `??bdb_reportCommissioningState::?relay`
        FUNCTION `??bdb_reportCommissioningState::?relay`,0203H
        PUBLIC `??bdb_resetLocalAction::?relay`
        FUNCTION `??bdb_resetLocalAction::?relay`,0203H
        PUBLIC `??bdb_setActiveCentralizedLinkKey::?relay`
        FUNCTION `??bdb_setActiveCentralizedLinkKey::?relay`,0203H
        PUBLIC `??bdb_setChannel::?relay`
        FUNCTION `??bdb_setChannel::?relay`,0203H
        PUBLIC `??bdb_setChannelAttribute::?relay`
        FUNCTION `??bdb_setChannelAttribute::?relay`,0203H
        PUBLIC `??bdb_setCommissioningGroupID::?relay`
        FUNCTION `??bdb_setCommissioningGroupID::?relay`,0203H
        PUBLIC `??bdb_setFN::?relay`
        FUNCTION `??bdb_setFN::?relay`,0203H
        PUBLIC `??bdb_setNodeIsOnANetwork::?relay`
        FUNCTION `??bdb_setNodeIsOnANetwork::?relay`,0203H
        PUBLIC `??bdb_setNodeJoinLinkKeyType::?relay`
        FUNCTION `??bdb_setNodeJoinLinkKeyType::?relay`,0203H
        FUNCTION `??bdb_startResumeCommissioningProcess::?relay`,0203H
        PUBLIC `??bdb_tcLinkKeyExchangeAttempt::?relay`
        FUNCTION `??bdb_tcLinkKeyExchangeAttempt::?relay`,0203H
        PUBLIC `??bdb_touchlinkSendFNReset::?relay`
        FUNCTION `??bdb_touchlinkSendFNReset::?relay`,0203H
        FUNCTION `??bdb_tryNwkAssoc::?relay`,0203H
        PUBLIC `??bdb_zclRespondentListClean::?relay`
        FUNCTION `??bdb_zclRespondentListClean::?relay`,0203H
        PUBWEAK __Constant_0
        PUBWEAK __Constant_10
        PUBWEAK __Constant_1388
        PUBWEAK __Constant_32
        PUBWEAK __Constant_3a98
        PUBWEAK __Constant_3e8
        PUBWEAK __Constant_bb8
        PUBWEAK __Constant_c8
        PUBLIC bdbAttributes
        PUBLIC bdbCommissioningProcedureState
        PUBLIC bdb_AddRespondentNode
        FUNCTION bdb_AddRespondentNode,0a1203H
        ARGFRAME XSTACK, 0, STACK
        LOCFRAME XSTACK, 10, STACK
        PUBLIC bdb_CBKETCLinkKeyExchangeAttempt
        FUNCTION bdb_CBKETCLinkKeyExchangeAttempt,021203H
        ARGFRAME XSTACK, 0, STACK
        LOCFRAME XSTACK, 9, STACK
        PUBLIC bdb_ClearNetworkParams
        FUNCTION bdb_ClearNetworkParams,0203H
        ARGFRAME XSTACK, 0, STACK
        PUBLIC bdb_CreateRespondentList
        FUNCTION bdb_CreateRespondentList,0a1203H
        ARGFRAME XSTACK, 10, STACK
        ARGFRAME IOVERLAY, 0, STATIC
        ARGFRAME DOVERLAY, 0, STATIC
        LOCFRAME XSTACK, 10, STACK
        PUBLIC bdb_CurrEpDescriptorList
        PUBLIC bdb_FB_InitiatorCurrentCyclesNumber
        PUBLIC bdb_GenerateInstallCodeCRC
        FUNCTION bdb_GenerateInstallCodeCRC,021203H
        ARGFRAME XSTACK, 30, STACK
        ARGFRAME IOVERLAY, 0, STATIC
        ARGFRAME DOVERLAY, 0, STATIC
        LOCFRAME ISTACK, 2, STACK
        LOCFRAME XSTACK, 6, STACK
        PUBLIC bdb_HeadEpDescriptorList
        PUBLIC bdb_Init
        FUNCTION bdb_Init,021203H
        ARGFRAME XSTACK, 0, STACK
        LOCFRAME XSTACK, 9, STACK
        PUBLIC bdb_NetworkRestoredResumeState
        FUNCTION bdb_NetworkRestoredResumeState,021203H
        ARGFRAME XSTACK, 14, STACK
        ARGFRAME IOVERLAY, 0, STATIC
        ARGFRAME DOVERLAY, 0, STATIC
        LOCFRAME ISTACK, 2, STACK
        LOCFRAME XSTACK, 4, STACK
        PUBLIC bdb_NotifyCommissioningModeStart
        FUNCTION bdb_NotifyCommissioningModeStart,0a1203H
        ARGFRAME XSTACK, 21, STACK
        ARGFRAME IOVERLAY, 0, STATIC
        ARGFRAME DOVERLAY, 0, STATIC
        LOCFRAME ISTACK, 1, STACK
        LOCFRAME XSTACK, 15, STACK
        PUBLIC bdb_ProcessNodeDescRsp
        FUNCTION bdb_ProcessNodeDescRsp,0a1203H
        ARGFRAME XSTACK, 29, STACK
        ARGFRAME IOVERLAY, 0, STATIC
        ARGFRAME DOVERLAY, 0, STATIC
        LOCFRAME XSTACK, 49, STACK
        FUNCTION bdb_ProcessOSALMsg,0a1203H
        ARGFRAME XSTACK, 29, STACK
        ARGFRAME IOVERLAY, 0, STATIC
        ARGFRAME DOVERLAY, 0, STATIC
        LOCFRAME XSTACK, 40, STACK
        PUBLIC bdb_RegisterCBKETCLinkKeyExchangeCB
        FUNCTION bdb_RegisterCBKETCLinkKeyExchangeCB,0203H
        ARGFRAME XSTACK, 0, STACK
        LOCFRAME ISTACK, 2, STACK
        PUBLIC bdb_RegisterCommissioningStatusCB
        FUNCTION bdb_RegisterCommissioningStatusCB,0203H
        ARGFRAME XSTACK, 0, STACK
        LOCFRAME ISTACK, 2, STACK
        PUBLIC bdb_RegisterForFilterNwkDescCB
        FUNCTION bdb_RegisterForFilterNwkDescCB,0203H
        ARGFRAME XSTACK, 0, STACK
        LOCFRAME ISTACK, 2, STACK
        PUBLIC bdb_RegisterSimpleDescriptor
        FUNCTION bdb_RegisterSimpleDescriptor,0a1203H
        ARGFRAME XSTACK, 0, STACK
        LOCFRAME ISTACK, 1, STACK
        LOCFRAME XSTACK, 10, STACK
        PUBLIC bdb_SendMsg
        FUNCTION bdb_SendMsg,0a1203H
        ARGFRAME XSTACK, 23, STACK
        ARGFRAME IOVERLAY, 0, STATIC
        ARGFRAME DOVERLAY, 0, STATIC
        LOCFRAME ISTACK, 1, STACK
        LOCFRAME XSTACK, 20, STACK
        PUBLIC bdb_StartCommissioning
        FUNCTION bdb_StartCommissioning,0a1203H
        ARGFRAME XSTACK, 0, STACK
        LOCFRAME XSTACK, 36, STACK
        PUBLIC bdb_TaskID
        PUBLIC bdb_ZclIdentifyCmdInd
        FUNCTION bdb_ZclIdentifyCmdInd,0a1203H
        ARGFRAME XSTACK, 0, STACK
        LOCFRAME XSTACK, 24, STACK
        PUBLIC bdb_ZclTransactionSequenceNumber
        PUBLIC bdb_ZedAttemptRecoverNwk
        FUNCTION bdb_ZedAttemptRecoverNwk,021203H
        ARGFRAME XSTACK, 0, STACK
        LOCFRAME ISTACK, 2, STACK
        PUBLIC bdb_addInstallCode
        FUNCTION bdb_addInstallCode,0a1203H
        ARGFRAME XSTACK, 17, STACK
        ARGFRAME IOVERLAY, 0, STATIC
        ARGFRAME DOVERLAY, 0, STATIC
        LOCFRAME XSTACK, 34, STACK
        PUBLIC bdb_calculateCCITT_CRC
        FUNCTION bdb_calculateCCITT_CRC,0a1203H
        ARGFRAME XSTACK, 6, STACK
        ARGFRAME IOVERLAY, 0, STATIC
        ARGFRAME DOVERLAY, 0, STATIC
        LOCFRAME XSTACK, 22, STACK
        PUBLIC bdb_crcBitByBitFast
        FUNCTION bdb_crcBitByBitFast,0a1203H
        ARGFRAME XSTACK, 22, STACK
        ARGFRAME IOVERLAY, 0, STATIC
        ARGFRAME DOVERLAY, 0, STATIC
        LOCFRAME XSTACK, 20, STACK
        PUBLIC bdb_crcInit
        FUNCTION bdb_crcInit,0203H
        ARGFRAME XSTACK, 18, STACK
        ARGFRAME IOVERLAY, 0, STATIC
        ARGFRAME DOVERLAY, 0, STATIC
        LOCFRAME XSTACK, 9, STACK
        PUBLIC bdb_crcReflect
        FUNCTION bdb_crcReflect,080203H
        ARGFRAME XSTACK, 20, STACK
        ARGFRAME IOVERLAY, 0, STATIC
        ARGFRAME DOVERLAY, 0, STATIC
        LOCFRAME XSTACK, 12, STACK
        PUBLIC bdb_doTrustCenterRequireKeyExchange
        FUNCTION bdb_doTrustCenterRequireKeyExchange,0203H
        ARGFRAME XSTACK, 0, STACK
        PUBLIC bdb_event_loop
        FUNCTION bdb_event_loop,0a1203H
        ARGFRAME XSTACK, 0, STACK
        LOCFRAME ISTACK, 1, STACK
        LOCFRAME XSTACK, 33, STACK
        PUBLIC bdb_filterNwkDisc
        FUNCTION bdb_filterNwkDisc,0a1203H
        ARGFRAME XSTACK, 36, STACK
        ARGFRAME IOVERLAY, 0, STATIC
        ARGFRAME DOVERLAY, 0, STATIC
        LOCFRAME XSTACK, 11, STACK
        PUBLIC bdb_getZCLFrameCounter
        FUNCTION bdb_getZCLFrameCounter,0203H
        ARGFRAME XSTACK, 0, STACK
        LOCFRAME ISTACK, 2, STACK
        PUBLIC bdb_initialization
        PUBLIC bdb_isDeviceNonFactoryNew
        FUNCTION bdb_isDeviceNonFactoryNew,0203H
        ARGFRAME XSTACK, 0, STACK
        LOCFRAME ISTACK, 2, STACK
        PUBLIC bdb_joinProcess
        FUNCTION bdb_joinProcess,0a1203H
        ARGFRAME XSTACK, 11, STACK
        ARGFRAME IOVERLAY, 0, STATIC
        ARGFRAME DOVERLAY, 0, STATIC
        LOCFRAME XSTACK, 14, STACK
        PUBLIC bdb_nwkAssocAttemt
        FUNCTION bdb_nwkAssocAttemt,0a1203H
        ARGFRAME XSTACK, 29, STACK
        ARGFRAME IOVERLAY, 0, STATIC
        ARGFRAME DOVERLAY, 0, STATIC
        LOCFRAME XSTACK, 13, STACK
        PUBLIC bdb_nwkDescFree
        FUNCTION bdb_nwkDescFree,021203H
        ARGFRAME XSTACK, 14, STACK
        ARGFRAME IOVERLAY, 0, STATIC
        ARGFRAME DOVERLAY, 0, STATIC
        LOCFRAME ISTACK, 2, STACK
        PUBLIC bdb_nwkDiscoveryAttempt
        FUNCTION bdb_nwkDiscoveryAttempt,0a1203H
        ARGFRAME XSTACK, 36, STACK
        ARGFRAME IOVERLAY, 0, STATIC
        ARGFRAME DOVERLAY, 0, STATIC
        LOCFRAME XSTACK, 13, STACK
        PUBLIC bdb_nwkFormationAttempt
        FUNCTION bdb_nwkFormationAttempt,021203H
        ARGFRAME XSTACK, 0, STACK
        LOCFRAME XSTACK, 9, STACK
        FUNCTION bdb_nwkJoiningFormation,0a1203H
        ARGFRAME XSTACK, 21, STACK
        ARGFRAME IOVERLAY, 0, STATIC
        ARGFRAME DOVERLAY, 0, STATIC
        LOCFRAME XSTACK, 12, STACK
        FUNCTION bdb_nwkSteeringDeviceOnNwk,021203H
        ARGFRAME XSTACK, 32, STACK
        ARGFRAME IOVERLAY, 0, STATIC
        ARGFRAME DOVERLAY, 0, STATIC
        LOCFRAME ISTACK, 2, STACK
        LOCFRAME XSTACK, 9, STACK
        PUBLIC bdb_parentLost
        FUNCTION bdb_parentLost,021203H
        ARGFRAME XSTACK, 0, STACK
        LOCFRAME ISTACK, 2, STACK
        LOCFRAME XSTACK, 1, STACK
        PUBLIC bdb_rejoinNwk
        FUNCTION bdb_rejoinNwk,0a1203H
        ARGFRAME XSTACK, 0, STACK
        LOCFRAME XSTACK, 15, STACK
        PUBLIC bdb_reportCommissioningState
        FUNCTION bdb_reportCommissioningState,0a1203H
        ARGFRAME XSTACK, 45, STACK
        ARGFRAME IOVERLAY, 0, STATIC
        ARGFRAME DOVERLAY, 0, STATIC
        LOCFRAME ISTACK, 1, STACK
        LOCFRAME XSTACK, 18, STACK
        PUBLIC bdb_resetLocalAction
        FUNCTION bdb_resetLocalAction,021203H
        ARGFRAME XSTACK, 0, STACK
        LOCFRAME ISTACK, 2, STACK
        LOCFRAME XSTACK, 5, STACK
        PUBLIC bdb_setActiveCentralizedLinkKey
        FUNCTION bdb_setActiveCentralizedLinkKey,0a1203H
        ARGFRAME XSTACK, 0, STACK
        LOCFRAME XSTACK, 17, STACK
        PUBLIC bdb_setChannel
        FUNCTION bdb_setChannel,0a1203H
        ARGFRAME XSTACK, 12, STACK
        ARGFRAME IOVERLAY, 0, STATIC
        ARGFRAME DOVERLAY, 0, STATIC
        LOCFRAME XSTACK, 16, STACK
        PUBLIC bdb_setChannelAttribute
        FUNCTION bdb_setChannelAttribute,080203H
        ARGFRAME XSTACK, 0, STACK
        LOCFRAME XSTACK, 12, STACK
        PUBLIC bdb_setCommissioningGroupID
        FUNCTION bdb_setCommissioningGroupID,0203H
        ARGFRAME XSTACK, 0, STACK
        LOCFRAME ISTACK, 2, STACK
        PUBLIC bdb_setFN
        FUNCTION bdb_setFN,021203H
        ARGFRAME XSTACK, 14, STACK
        ARGFRAME IOVERLAY, 0, STATIC
        ARGFRAME DOVERLAY, 0, STATIC
        LOCFRAME ISTACK, 2, STACK
        PUBLIC bdb_setNodeIsOnANetwork
        FUNCTION bdb_setNodeIsOnANetwork,0a1203H
        ARGFRAME XSTACK, 32, STACK
        ARGFRAME IOVERLAY, 0, STATIC
        ARGFRAME DOVERLAY, 0, STATIC
        LOCFRAME XSTACK, 14, STACK
        PUBLIC bdb_setNodeJoinLinkKeyType
        FUNCTION bdb_setNodeJoinLinkKeyType,0203H
        ARGFRAME XSTACK, 45, STACK
        ARGFRAME IOVERLAY, 0, STATIC
        ARGFRAME DOVERLAY, 0, STATIC
        LOCFRAME ISTACK, 2, STACK
        FUNCTION bdb_startResumeCommissioningProcess,0a1203H
        ARGFRAME XSTACK, 29, STACK
        ARGFRAME IOVERLAY, 0, STATIC
        ARGFRAME DOVERLAY, 0, STATIC
        LOCFRAME XSTACK, 25, STACK
        PUBLIC bdb_tcLinkKeyExchangeAttempt
        FUNCTION bdb_tcLinkKeyExchangeAttempt,0a1203H
        ARGFRAME XSTACK, 45, STACK
        ARGFRAME IOVERLAY, 0, STATIC
        ARGFRAME DOVERLAY, 0, STATIC
        LOCFRAME XSTACK, 15, STACK
        PUBLIC bdb_touchlinkSendFNReset
        FUNCTION bdb_touchlinkSendFNReset,0203H
        ARGFRAME XSTACK, 0, STACK
        FUNCTION bdb_tryNwkAssoc,0a1203H
        ARGFRAME XSTACK, 36, STACK
        ARGFRAME IOVERLAY, 0, STATIC
        ARGFRAME DOVERLAY, 0, STATIC
        LOCFRAME XSTACK, 13, STACK
        PUBLIC bdb_zclRespondentListClean
        FUNCTION bdb_zclRespondentListClean,0a1203H
        ARGFRAME XSTACK, 14, STACK
        ARGFRAME IOVERLAY, 0, STATIC
        ARGFRAME DOVERLAY, 0, STATIC
        LOCFRAME XSTACK, 12, STACK
        PUBLIC pRespondentCurr
        PUBLIC pRespondentHead
        PUBLIC pRespondentNext
        PUBLIC touchLinkTargetEnabled
        PUBLIC vDoPrimaryScan
        PUBLIC zgBdbInstallCodeCRC
        
          CFI Names cfiNames0
          CFI StackFrame CFA_SP SP IDATA
          CFI StackFrame CFA_PSP16 PSP16 XDATA
          CFI StackFrame CFA_XSP16 XSP16 XDATA
          CFI StaticOverlayFrame CFA_IOVERLAY IOVERLAY
          CFI StaticOverlayFrame CFA_DOVERLAY DOVERLAY
          CFI Resource `PSW.CY`:1, `B.BR0`:1, `B.BR1`:1, `B.BR2`:1, `B.BR3`:1
          CFI Resource `B.BR4`:1, `B.BR5`:1, `B.BR6`:1, `B.BR7`:1, `VB.BR8`:1
          CFI Resource `VB.BR9`:1, `VB.BR10`:1, `VB.BR11`:1, `VB.BR12`:1
          CFI Resource `VB.BR13`:1, `VB.BR14`:1, `VB.BR15`:1, VB:8, B:8, A:8
          CFI Resource PSW:8, DPL0:8, DPH0:8, R0:8, R1:8, R2:8, R3:8, R4:8, R5:8
          CFI Resource R6:8, R7:8, V0:8, V1:8, V2:8, V3:8, V4:8, V5:8, V6:8, V7:8
          CFI Resource V8:8, V9:8, V10:8, V11:8, V12:8, V13:8, V14:8, V15:8, SP:8
          CFI Resource PSPH:8, PSPL:8, PSP16:16, XSPH:8, XSPL:8, XSP16:16
          CFI VirtualResource ?RET:24
          CFI Resource ?BRET_EXT:8
          CFI VirtualResource ?RET_HIGH:8, ?RET_LOW:8
          CFI ResourceParts PSP16 PSPH, PSPL
          CFI ResourceParts XSP16 XSPH, XSPL
          CFI ResourceParts ?RET ?BRET_EXT, ?RET_HIGH, ?RET_LOW
          CFI EndNames cfiNames0
        
          CFI Common cfiCommon0 Using cfiNames0
          CFI CodeAlign 1
          CFI DataAlign -1
          CFI ReturnAddress ?RET CODE
          CFI CFA_DOVERLAY Used
          CFI CFA_IOVERLAY Used
          CFI CFA_SP SP+-3
          CFI CFA_PSP16 PSP16+0
          CFI CFA_XSP16 XSP16+0
          CFI `PSW.CY` SameValue
          CFI `B.BR0` SameValue
          CFI `B.BR1` SameValue
          CFI `B.BR2` SameValue
          CFI `B.BR3` SameValue
          CFI `B.BR4` SameValue
          CFI `B.BR5` SameValue
          CFI `B.BR6` SameValue
          CFI `B.BR7` SameValue
          CFI `VB.BR8` SameValue
          CFI `VB.BR9` SameValue
          CFI `VB.BR10` SameValue
          CFI `VB.BR11` SameValue
          CFI `VB.BR12` SameValue
          CFI `VB.BR13` SameValue
          CFI `VB.BR14` SameValue
          CFI `VB.BR15` SameValue
          CFI VB SameValue
          CFI B Undefined
          CFI A Undefined
          CFI PSW SameValue
          CFI DPL0 SameValue
          CFI DPH0 SameValue
          CFI R0 Undefined
          CFI R1 Undefined
          CFI R2 Undefined
          CFI R3 Undefined
          CFI R4 Undefined
          CFI R5 Undefined
          CFI R6 SameValue
          CFI R7 SameValue
          CFI V0 SameValue
          CFI V1 SameValue
          CFI V2 SameValue
          CFI V3 SameValue
          CFI V4 SameValue
          CFI V5 SameValue
          CFI V6 SameValue
          CFI V7 SameValue
          CFI V8 SameValue
          CFI V9 SameValue
          CFI V10 SameValue
          CFI V11 SameValue
          CFI V12 SameValue
          CFI V13 SameValue
          CFI V14 SameValue
          CFI V15 SameValue
          CFI PSPH Undefined
          CFI PSPL Undefined
          CFI XSPH Undefined
          CFI XSPL Undefined
          CFI ?RET Concat
          CFI ?BRET_EXT Frame(CFA_SP, 3)
          CFI ?RET_HIGH Frame(CFA_SP, 2)
          CFI ?RET_LOW Frame(CFA_SP, 1)
          CFI EndCommon cfiCommon0
        
        
          CFI Common cfiCommon1 Using cfiNames0
          CFI CodeAlign 1
          CFI DataAlign -1
          CFI ReturnAddress ?RET CODE
          CFI CFA_DOVERLAY Used
          CFI CFA_IOVERLAY Used
          CFI CFA_SP SP+-2
          CFI CFA_PSP16 PSP16+0
          CFI CFA_XSP16 XSP16+0
          CFI `PSW.CY` SameValue
          CFI `B.BR0` SameValue
          CFI `B.BR1` SameValue
          CFI `B.BR2` SameValue
          CFI `B.BR3` SameValue
          CFI `B.BR4` SameValue
          CFI `B.BR5` SameValue
          CFI `B.BR6` SameValue
          CFI `B.BR7` SameValue
          CFI `VB.BR8` SameValue
          CFI `VB.BR9` SameValue
          CFI `VB.BR10` SameValue
          CFI `VB.BR11` SameValue
          CFI `VB.BR12` SameValue
          CFI `VB.BR13` SameValue
          CFI `VB.BR14` SameValue
          CFI `VB.BR15` SameValue
          CFI VB SameValue
          CFI B SameValue
          CFI A SameValue
          CFI PSW SameValue
          CFI DPL0 SameValue
          CFI DPH0 SameValue
          CFI R0 SameValue
          CFI R1 SameValue
          CFI R2 SameValue
          CFI R3 SameValue
          CFI R4 SameValue
          CFI R5 SameValue
          CFI R6 SameValue
          CFI R7 SameValue
          CFI V0 SameValue
          CFI V1 SameValue
          CFI V2 SameValue
          CFI V3 SameValue
          CFI V4 SameValue
          CFI V5 SameValue
          CFI V6 SameValue
          CFI V7 SameValue
          CFI V8 SameValue
          CFI V9 SameValue
          CFI V10 SameValue
          CFI V11 SameValue
          CFI V12 SameValue
          CFI V13 SameValue
          CFI V14 SameValue
          CFI V15 SameValue
          CFI PSPH Undefined
          CFI PSPL Undefined
          CFI XSPH Undefined
          CFI XSPL Undefined
          CFI ?RET Concat
          CFI ?BRET_EXT SameValue
          CFI ?RET_HIGH Frame(CFA_SP, 2)
          CFI ?RET_LOW Frame(CFA_SP, 1)
          CFI EndCommon cfiCommon1
        
APSME_AddTCLinkKey  SYMBOL "APSME_AddTCLinkKey"
`??APSME_AddTCLinkKey::?relay` SYMBOL "?relay", APSME_AddTCLinkKey
APSME_GetRequest    SYMBOL "APSME_GetRequest"
`??APSME_GetRequest::?relay` SYMBOL "?relay", APSME_GetRequest
APSME_IsDistributedSecurity SYMBOL "APSME_IsDistributedSecurity"
`??APSME_IsDistributedSecurity::?relay` SYMBOL "?relay", APSME_IsDistributedSecurity
APSME_RequestKeyReq SYMBOL "APSME_RequestKeyReq"
`??APSME_RequestKeyReq::?relay` SYMBOL "?relay", APSME_RequestKeyReq
APSME_SetDefaultKey SYMBOL "APSME_SetDefaultKey"
`??APSME_SetDefaultKey::?relay` SYMBOL "?relay", APSME_SetDefaultKey
APSME_VerifyKeyReq  SYMBOL "APSME_VerifyKeyReq"
`??APSME_VerifyKeyReq::?relay` SYMBOL "?relay", APSME_VerifyKeyReq
NLME_GetShortAddr   SYMBOL "NLME_GetShortAddr"
`??NLME_GetShortAddr::?relay` SYMBOL "?relay", NLME_GetShortAddr
NLME_JoinRequest    SYMBOL "NLME_JoinRequest"
`??NLME_JoinRequest::?relay` SYMBOL "?relay", NLME_JoinRequest
NLME_LeaveReq       SYMBOL "NLME_LeaveReq"
`??NLME_LeaveReq::?relay` SYMBOL "?relay", NLME_LeaveReq
NLME_NwkDiscTerm    SYMBOL "NLME_NwkDiscTerm"
`??NLME_NwkDiscTerm::?relay` SYMBOL "?relay", NLME_NwkDiscTerm
NLME_OrphanStateSet SYMBOL "NLME_OrphanStateSet"
`??NLME_OrphanStateSet::?relay` SYMBOL "?relay", NLME_OrphanStateSet
NLME_ReJoinRequest  SYMBOL "NLME_ReJoinRequest"
`??NLME_ReJoinRequest::?relay` SYMBOL "?relay", NLME_ReJoinRequest
NLME_ReJoinRequestUnsecure SYMBOL "NLME_ReJoinRequestUnsecure"
`??NLME_ReJoinRequestUnsecure::?relay` SYMBOL "?relay", NLME_ReJoinRequestUnsecure
NLME_ResetRequest   SYMBOL "NLME_ResetRequest"
`??NLME_ResetRequest::?relay` SYMBOL "?relay", NLME_ResetRequest
NLME_SetPollRate    SYMBOL "NLME_SetPollRate"
`??NLME_SetPollRate::?relay` SYMBOL "?relay", NLME_SetPollRate
NLME_SetQueuedPollRate SYMBOL "NLME_SetQueuedPollRate"
`??NLME_SetQueuedPollRate::?relay` SYMBOL "?relay", NLME_SetQueuedPollRate
NLME_SetResponseRate SYMBOL "NLME_SetResponseRate"
`??NLME_SetResponseRate::?relay` SYMBOL "?relay", NLME_SetResponseRate
ZDApp_ChangeState   SYMBOL "ZDApp_ChangeState"
`??ZDApp_ChangeState::?relay` SYMBOL "?relay", ZDApp_ChangeState
ZDApp_NetworkInit   SYMBOL "ZDApp_NetworkInit"
`??ZDApp_NetworkInit::?relay` SYMBOL "?relay", ZDApp_NetworkInit
ZDApp_NodeProfileSync SYMBOL "ZDApp_NodeProfileSync"
`??ZDApp_NodeProfileSync::?relay` SYMBOL "?relay", ZDApp_NodeProfileSync
ZDApp_ResetTimerStart SYMBOL "ZDApp_ResetTimerStart"
`??ZDApp_ResetTimerStart::?relay` SYMBOL "?relay", ZDApp_ResetTimerStart
ZDApp_RestoreNwkKey SYMBOL "ZDApp_RestoreNwkKey"
`??ZDApp_RestoreNwkKey::?relay` SYMBOL "?relay", ZDApp_RestoreNwkKey
ZDApp_RestoreNwkSecMaterial SYMBOL "ZDApp_RestoreNwkSecMaterial"
`??ZDApp_RestoreNwkSecMaterial::?relay` SYMBOL "?relay", ZDApp_RestoreNwkSecMaterial
ZDOInitDeviceEx     SYMBOL "ZDOInitDeviceEx"
`??ZDOInitDeviceEx::?relay` SYMBOL "?relay", ZDOInitDeviceEx
ZDO_ParseNodeDescRsp SYMBOL "ZDO_ParseNodeDescRsp"
`??ZDO_ParseNodeDescRsp::?relay` SYMBOL "?relay", ZDO_ParseNodeDescRsp
ZDO_RegisterForZDOMsg SYMBOL "ZDO_RegisterForZDOMsg"
`??ZDO_RegisterForZDOMsg::?relay` SYMBOL "?relay", ZDO_RegisterForZDOMsg
ZDP_MgmtPermitJoinReq SYMBOL "ZDP_MgmtPermitJoinReq"
`??ZDP_MgmtPermitJoinReq::?relay` SYMBOL "?relay", ZDP_MgmtPermitJoinReq
ZDP_NWKAddrOfInterestReq SYMBOL "ZDP_NWKAddrOfInterestReq"
`??ZDP_NWKAddrOfInterestReq::?relay` SYMBOL "?relay", ZDP_NWKAddrOfInterestReq
ZMacSetReq          SYMBOL "ZMacSetReq"
`??ZMacSetReq::?relay` SYMBOL "?relay", ZMacSetReq
afRegister          SYMBOL "afRegister"
`??afRegister::?relay` SYMBOL "?relay", afRegister
bdb_ProcessIEEEAddrRsp SYMBOL "bdb_ProcessIEEEAddrRsp"
`??bdb_ProcessIEEEAddrRsp::?relay` SYMBOL "?relay", bdb_ProcessIEEEAddrRsp
bdb_ProcessRespondentList SYMBOL "bdb_ProcessRespondentList"
`??bdb_ProcessRespondentList::?relay` SYMBOL "?relay", bdb_ProcessRespondentList
bdb_ProcessSimpleDesc SYMBOL "bdb_ProcessSimpleDesc"
`??bdb_ProcessSimpleDesc::?relay` SYMBOL "?relay", bdb_ProcessSimpleDesc
bdb_SendIdentifyQuery SYMBOL "bdb_SendIdentifyQuery"
`??bdb_SendIdentifyQuery::?relay` SYMBOL "?relay", bdb_SendIdentifyQuery
bdb_exitFindingBindingWStatus SYMBOL "bdb_exitFindingBindingWStatus"
`??bdb_exitFindingBindingWStatus::?relay` SYMBOL "?relay", bdb_exitFindingBindingWStatus
bdb_getRespondentRetry SYMBOL "bdb_getRespondentRetry"
`??bdb_getRespondentRetry::?relay` SYMBOL "?relay", bdb_getRespondentRetry
bdb_setEpDescListToActiveEndpoint SYMBOL "bdb_setEpDescListToActiveEndpoint"
`??bdb_setEpDescListToActiveEndpoint::?relay` SYMBOL "?relay", bdb_setEpDescListToActiveEndpoint
nwkNeighborInitTable SYMBOL "nwkNeighborInitTable"
`??nwkNeighborInitTable::?relay` SYMBOL "?relay", nwkNeighborInitTable
nwk_ExtPANIDValid   SYMBOL "nwk_ExtPANIDValid"
`??nwk_ExtPANIDValid::?relay` SYMBOL "?relay", nwk_ExtPANIDValid
nwk_desc_list_free  SYMBOL "nwk_desc_list_free"
`??nwk_desc_list_free::?relay` SYMBOL "?relay", nwk_desc_list_free
nwk_desc_list_release SYMBOL "nwk_desc_list_release"
`??nwk_desc_list_release::?relay` SYMBOL "?relay", nwk_desc_list_release
nwk_getNwkDescList  SYMBOL "nwk_getNwkDescList"
`??nwk_getNwkDescList::?relay` SYMBOL "?relay", nwk_getNwkDescList
nwk_setStateIdle    SYMBOL "nwk_setStateIdle"
`??nwk_setStateIdle::?relay` SYMBOL "?relay", nwk_setStateIdle
osal_build_uint16   SYMBOL "osal_build_uint16"
`??osal_build_uint16::?relay` SYMBOL "?relay", osal_build_uint16
osal_get_timeoutEx  SYMBOL "osal_get_timeoutEx"
`??osal_get_timeoutEx::?relay` SYMBOL "?relay", osal_get_timeoutEx
osal_isbufset       SYMBOL "osal_isbufset"
`??osal_isbufset::?relay` SYMBOL "?relay", osal_isbufset
osal_mem_alloc      SYMBOL "osal_mem_alloc"
`??osal_mem_alloc::?relay` SYMBOL "?relay", osal_mem_alloc
osal_mem_free       SYMBOL "osal_mem_free"
`??osal_mem_free::?relay` SYMBOL "?relay", osal_mem_free
osal_memcpy         SYMBOL "osal_memcpy"
`??osal_memcpy::?relay` SYMBOL "?relay", osal_memcpy
osal_memset         SYMBOL "osal_memset"
`??osal_memset::?relay` SYMBOL "?relay", osal_memset
osal_msg_allocate   SYMBOL "osal_msg_allocate"
`??osal_msg_allocate::?relay` SYMBOL "?relay", osal_msg_allocate
osal_msg_deallocate SYMBOL "osal_msg_deallocate"
`??osal_msg_deallocate::?relay` SYMBOL "?relay", osal_msg_deallocate
osal_msg_receive    SYMBOL "osal_msg_receive"
`??osal_msg_receive::?relay` SYMBOL "?relay", osal_msg_receive
osal_msg_send       SYMBOL "osal_msg_send"
`??osal_msg_send::?relay` SYMBOL "?relay", osal_msg_send
osal_nv_read        SYMBOL "osal_nv_read"
`??osal_nv_read::?relay` SYMBOL "?relay", osal_nv_read
osal_nv_write       SYMBOL "osal_nv_write"
`??osal_nv_write::?relay` SYMBOL "?relay", osal_nv_write
osal_set_event      SYMBOL "osal_set_event"
`??osal_set_event::?relay` SYMBOL "?relay", osal_set_event
osal_start_timerEx  SYMBOL "osal_start_timerEx"
`??osal_start_timerEx::?relay` SYMBOL "?relay", osal_start_timerEx
osal_stop_timerEx   SYMBOL "osal_stop_timerEx"
`??osal_stop_timerEx::?relay` SYMBOL "?relay", osal_stop_timerEx
sAddrExtCmp         SYMBOL "sAddrExtCmp"
`??sAddrExtCmp::?relay` SYMBOL "?relay", sAddrExtCmp
sspMMOHash          SYMBOL "sspMMOHash"
`??sspMMOHash::?relay` SYMBOL "?relay", sspMMOHash
zclFindAttrRec      SYMBOL "zclFindAttrRec"
`??zclFindAttrRec::?relay` SYMBOL "?relay", zclFindAttrRec
zgWriteStartupOptions SYMBOL "zgWriteStartupOptions"
`??zgWriteStartupOptions::?relay` SYMBOL "?relay", zgWriteStartupOptions
bdb_AddRespondentNode SYMBOL "bdb_AddRespondentNode"
`??bdb_AddRespondentNode::?relay` SYMBOL "?relay", bdb_AddRespondentNode
bdb_CBKETCLinkKeyExchangeAttempt SYMBOL "bdb_CBKETCLinkKeyExchangeAttempt"
`??bdb_CBKETCLinkKeyExchangeAttempt::?relay` SYMBOL "?relay", bdb_CBKETCLinkKeyExchangeAttempt
bdb_ClearNetworkParams SYMBOL "bdb_ClearNetworkParams"
`??bdb_ClearNetworkParams::?relay` SYMBOL "?relay", bdb_ClearNetworkParams
bdb_CreateRespondentList SYMBOL "bdb_CreateRespondentList"
`??bdb_CreateRespondentList::?relay` SYMBOL "?relay", bdb_CreateRespondentList
bdb_GenerateInstallCodeCRC SYMBOL "bdb_GenerateInstallCodeCRC"
`??bdb_GenerateInstallCodeCRC::?relay` SYMBOL "?relay", bdb_GenerateInstallCodeCRC
bdb_Init            SYMBOL "bdb_Init"
`??bdb_Init::?relay` SYMBOL "?relay", bdb_Init
bdb_NetworkRestoredResumeState SYMBOL "bdb_NetworkRestoredResumeState"
`??bdb_NetworkRestoredResumeState::?relay` SYMBOL "?relay", bdb_NetworkRestoredResumeState
bdb_NotifyCommissioningModeStart SYMBOL "bdb_NotifyCommissioningModeStart"
`??bdb_NotifyCommissioningModeStart::?relay` SYMBOL "?relay", bdb_NotifyCommissioningModeStart
bdb_ProcessNodeDescRsp SYMBOL "bdb_ProcessNodeDescRsp"
`??bdb_ProcessNodeDescRsp::?relay` SYMBOL "?relay", bdb_ProcessNodeDescRsp
bdb_RegisterCBKETCLinkKeyExchangeCB SYMBOL "bdb_RegisterCBKETCLinkKeyExchangeCB"
`??bdb_RegisterCBKETCLinkKeyExchangeCB::?relay` SYMBOL "?relay", bdb_RegisterCBKETCLinkKeyExchangeCB
bdb_RegisterCommissioningStatusCB SYMBOL "bdb_RegisterCommissioningStatusCB"
`??bdb_RegisterCommissioningStatusCB::?relay` SYMBOL "?relay", bdb_RegisterCommissioningStatusCB
bdb_RegisterForFilterNwkDescCB SYMBOL "bdb_RegisterForFilterNwkDescCB"
`??bdb_RegisterForFilterNwkDescCB::?relay` SYMBOL "?relay", bdb_RegisterForFilterNwkDescCB
bdb_RegisterSimpleDescriptor SYMBOL "bdb_RegisterSimpleDescriptor"
`??bdb_RegisterSimpleDescriptor::?relay` SYMBOL "?relay", bdb_RegisterSimpleDescriptor
bdb_SendMsg         SYMBOL "bdb_SendMsg"
`??bdb_SendMsg::?relay` SYMBOL "?relay", bdb_SendMsg
bdb_StartCommissioning SYMBOL "bdb_StartCommissioning"
`??bdb_StartCommissioning::?relay` SYMBOL "?relay", bdb_StartCommissioning
bdb_ZclIdentifyCmdInd SYMBOL "bdb_ZclIdentifyCmdInd"
`??bdb_ZclIdentifyCmdInd::?relay` SYMBOL "?relay", bdb_ZclIdentifyCmdInd
bdb_ZedAttemptRecoverNwk SYMBOL "bdb_ZedAttemptRecoverNwk"
`??bdb_ZedAttemptRecoverNwk::?relay` SYMBOL "?relay", bdb_ZedAttemptRecoverNwk
bdb_addInstallCode  SYMBOL "bdb_addInstallCode"
`??bdb_addInstallCode::?relay` SYMBOL "?relay", bdb_addInstallCode
bdb_calculateCCITT_CRC SYMBOL "bdb_calculateCCITT_CRC"
`??bdb_calculateCCITT_CRC::?relay` SYMBOL "?relay", bdb_calculateCCITT_CRC
bdb_crcBitByBitFast SYMBOL "bdb_crcBitByBitFast"
`??bdb_crcBitByBitFast::?relay` SYMBOL "?relay", bdb_crcBitByBitFast
bdb_crcInit         SYMBOL "bdb_crcInit"
`??bdb_crcInit::?relay` SYMBOL "?relay", bdb_crcInit
bdb_crcReflect      SYMBOL "bdb_crcReflect"
`??bdb_crcReflect::?relay` SYMBOL "?relay", bdb_crcReflect
bdb_doTrustCenterRequireKeyExchange SYMBOL "bdb_doTrustCenterRequireKeyExchange"
`??bdb_doTrustCenterRequireKeyExchange::?relay` SYMBOL "?relay", bdb_doTrustCenterRequireKeyExchange
bdb_event_loop      SYMBOL "bdb_event_loop"
`??bdb_event_loop::?relay` SYMBOL "?relay", bdb_event_loop
bdb_filterNwkDisc   SYMBOL "bdb_filterNwkDisc"
`??bdb_filterNwkDisc::?relay` SYMBOL "?relay", bdb_filterNwkDisc
bdb_getZCLFrameCounter SYMBOL "bdb_getZCLFrameCounter"
`??bdb_getZCLFrameCounter::?relay` SYMBOL "?relay", bdb_getZCLFrameCounter
bdb_isDeviceNonFactoryNew SYMBOL "bdb_isDeviceNonFactoryNew"
`??bdb_isDeviceNonFactoryNew::?relay` SYMBOL "?relay", bdb_isDeviceNonFactoryNew
bdb_joinProcess     SYMBOL "bdb_joinProcess"
`??bdb_joinProcess::?relay` SYMBOL "?relay", bdb_joinProcess
bdb_nwkAssocAttemt  SYMBOL "bdb_nwkAssocAttemt"
`??bdb_nwkAssocAttemt::?relay` SYMBOL "?relay", bdb_nwkAssocAttemt
bdb_nwkDescFree     SYMBOL "bdb_nwkDescFree"
`??bdb_nwkDescFree::?relay` SYMBOL "?relay", bdb_nwkDescFree
bdb_nwkDiscoveryAttempt SYMBOL "bdb_nwkDiscoveryAttempt"
`??bdb_nwkDiscoveryAttempt::?relay` SYMBOL "?relay", bdb_nwkDiscoveryAttempt
bdb_nwkFormationAttempt SYMBOL "bdb_nwkFormationAttempt"
`??bdb_nwkFormationAttempt::?relay` SYMBOL "?relay", bdb_nwkFormationAttempt
bdb_parentLost      SYMBOL "bdb_parentLost"
`??bdb_parentLost::?relay` SYMBOL "?relay", bdb_parentLost
bdb_rejoinNwk       SYMBOL "bdb_rejoinNwk"
`??bdb_rejoinNwk::?relay` SYMBOL "?relay", bdb_rejoinNwk
bdb_reportCommissioningState SYMBOL "bdb_reportCommissioningState"
`??bdb_reportCommissioningState::?relay` SYMBOL "?relay", bdb_reportCommissioningState
bdb_resetLocalAction SYMBOL "bdb_resetLocalAction"
`??bdb_resetLocalAction::?relay` SYMBOL "?relay", bdb_resetLocalAction
bdb_setActiveCentralizedLinkKey SYMBOL "bdb_setActiveCentralizedLinkKey"
`??bdb_setActiveCentralizedLinkKey::?relay` SYMBOL "?relay", bdb_setActiveCentralizedLinkKey
bdb_setChannel      SYMBOL "bdb_setChannel"
`??bdb_setChannel::?relay` SYMBOL "?relay", bdb_setChannel
bdb_setChannelAttribute SYMBOL "bdb_setChannelAttribute"
`??bdb_setChannelAttribute::?relay` SYMBOL "?relay", bdb_setChannelAttribute
bdb_setCommissioningGroupID SYMBOL "bdb_setCommissioningGroupID"
`??bdb_setCommissioningGroupID::?relay` SYMBOL "?relay", bdb_setCommissioningGroupID
bdb_setFN           SYMBOL "bdb_setFN"
`??bdb_setFN::?relay` SYMBOL "?relay", bdb_setFN
bdb_setNodeIsOnANetwork SYMBOL "bdb_setNodeIsOnANetwork"
`??bdb_setNodeIsOnANetwork::?relay` SYMBOL "?relay", bdb_setNodeIsOnANetwork
bdb_setNodeJoinLinkKeyType SYMBOL "bdb_setNodeJoinLinkKeyType"
`??bdb_setNodeJoinLinkKeyType::?relay` SYMBOL "?relay", bdb_setNodeJoinLinkKeyType
bdb_tcLinkKeyExchangeAttempt SYMBOL "bdb_tcLinkKeyExchangeAttempt"
`??bdb_tcLinkKeyExchangeAttempt::?relay` SYMBOL "?relay", bdb_tcLinkKeyExchangeAttempt
bdb_touchlinkSendFNReset SYMBOL "bdb_touchlinkSendFNReset"
`??bdb_touchlinkSendFNReset::?relay` SYMBOL "?relay", bdb_touchlinkSendFNReset
bdb_zclRespondentListClean SYMBOL "bdb_zclRespondentListClean"
`??bdb_zclRespondentListClean::?relay` SYMBOL "?relay", bdb_zclRespondentListClean

        EXTERN `??APSME_AddTCLinkKey::?relay`
        FUNCTION `??APSME_AddTCLinkKey::?relay`,00H
        EXTERN `??APSME_GetRequest::?relay`
        FUNCTION `??APSME_GetRequest::?relay`,00H
        EXTERN `??APSME_IsDistributedSecurity::?relay`
        FUNCTION `??APSME_IsDistributedSecurity::?relay`,00H
        EXTERN `??APSME_RequestKeyReq::?relay`
        FUNCTION `??APSME_RequestKeyReq::?relay`,00H
        EXTERN `??APSME_SetDefaultKey::?relay`
        FUNCTION `??APSME_SetDefaultKey::?relay`,00H
        EXTERN `??APSME_VerifyKeyReq::?relay`
        FUNCTION `??APSME_VerifyKeyReq::?relay`,00H
        EXTERN `??NLME_GetShortAddr::?relay`
        FUNCTION `??NLME_GetShortAddr::?relay`,00H
        EXTERN `??NLME_JoinRequest::?relay`
        FUNCTION `??NLME_JoinRequest::?relay`,00H
        EXTERN `??NLME_LeaveReq::?relay`
        FUNCTION `??NLME_LeaveReq::?relay`,00H
        EXTERN `??NLME_NwkDiscTerm::?relay`
        FUNCTION `??NLME_NwkDiscTerm::?relay`,00H
        EXTERN `??NLME_OrphanStateSet::?relay`
        FUNCTION `??NLME_OrphanStateSet::?relay`,00H
        EXTERN `??NLME_ReJoinRequest::?relay`
        FUNCTION `??NLME_ReJoinRequest::?relay`,00H
        EXTERN `??NLME_ReJoinRequestUnsecure::?relay`
        FUNCTION `??NLME_ReJoinRequestUnsecure::?relay`,00H
        EXTERN `??NLME_ResetRequest::?relay`
        FUNCTION `??NLME_ResetRequest::?relay`,00H
        EXTERN `??NLME_SetPollRate::?relay`
        FUNCTION `??NLME_SetPollRate::?relay`,00H
        EXTERN `??NLME_SetQueuedPollRate::?relay`
        FUNCTION `??NLME_SetQueuedPollRate::?relay`,00H
        EXTERN `??NLME_SetResponseRate::?relay`
        FUNCTION `??NLME_SetResponseRate::?relay`,00H
        EXTERN `??ZDApp_ChangeState::?relay`
        FUNCTION `??ZDApp_ChangeState::?relay`,00H
        EXTERN `??ZDApp_NetworkInit::?relay`
        FUNCTION `??ZDApp_NetworkInit::?relay`,00H
        EXTERN `??ZDApp_NodeProfileSync::?relay`
        FUNCTION `??ZDApp_NodeProfileSync::?relay`,00H
        EXTERN `??ZDApp_ResetTimerStart::?relay`
        FUNCTION `??ZDApp_ResetTimerStart::?relay`,00H
        EXTERN `??ZDApp_RestoreNwkKey::?relay`
        FUNCTION `??ZDApp_RestoreNwkKey::?relay`,00H
        EXTERN `??ZDApp_RestoreNwkSecMaterial::?relay`
        FUNCTION `??ZDApp_RestoreNwkSecMaterial::?relay`,00H
        EXTERN `??ZDOInitDeviceEx::?relay`
        FUNCTION `??ZDOInitDeviceEx::?relay`,00H
        EXTERN `??ZDO_ParseNodeDescRsp::?relay`
        FUNCTION `??ZDO_ParseNodeDescRsp::?relay`,00H
        EXTERN `??ZDO_RegisterForZDOMsg::?relay`
        FUNCTION `??ZDO_RegisterForZDOMsg::?relay`,00H
        EXTERN `??ZDP_MgmtPermitJoinReq::?relay`
        FUNCTION `??ZDP_MgmtPermitJoinReq::?relay`,00H
        EXTERN `??ZDP_NWKAddrOfInterestReq::?relay`
        FUNCTION `??ZDP_NWKAddrOfInterestReq::?relay`,00H
        EXTERN `??ZMacSetReq::?relay`
        FUNCTION `??ZMacSetReq::?relay`,00H
        EXTERN `??afRegister::?relay`
        FUNCTION `??afRegister::?relay`,00H
        EXTERN `??bdb_ProcessIEEEAddrRsp::?relay`
        FUNCTION `??bdb_ProcessIEEEAddrRsp::?relay`,00H
        EXTERN `??bdb_ProcessRespondentList::?relay`
        FUNCTION `??bdb_ProcessRespondentList::?relay`,00H
        EXTERN `??bdb_ProcessSimpleDesc::?relay`
        FUNCTION `??bdb_ProcessSimpleDesc::?relay`,00H
        EXTERN `??bdb_SendIdentifyQuery::?relay`
        FUNCTION `??bdb_SendIdentifyQuery::?relay`,00H
        EXTERN `??bdb_exitFindingBindingWStatus::?relay`
        FUNCTION `??bdb_exitFindingBindingWStatus::?relay`,00H
        EXTERN `??bdb_getRespondentRetry::?relay`
        FUNCTION `??bdb_getRespondentRetry::?relay`,00H
        EXTERN `??bdb_setEpDescListToActiveEndpoint::?relay`
        FUNCTION `??bdb_setEpDescListToActiveEndpoint::?relay`,00H
        EXTERN `??nwkNeighborInitTable::?relay`
        FUNCTION `??nwkNeighborInitTable::?relay`,00H
        EXTERN `??nwk_ExtPANIDValid::?relay`
        FUNCTION `??nwk_ExtPANIDValid::?relay`,00H
        EXTERN `??nwk_desc_list_free::?relay`
        FUNCTION `??nwk_desc_list_free::?relay`,00H
        EXTERN `??nwk_desc_list_release::?relay`
        FUNCTION `??nwk_desc_list_release::?relay`,00H
        EXTERN `??nwk_getNwkDescList::?relay`
        FUNCTION `??nwk_getNwkDescList::?relay`,00H
        EXTERN `??nwk_setStateIdle::?relay`
        FUNCTION `??nwk_setStateIdle::?relay`,00H
        EXTERN `??osal_build_uint16::?relay`
        FUNCTION `??osal_build_uint16::?relay`,00H
        EXTERN `??osal_get_timeoutEx::?relay`
        FUNCTION `??osal_get_timeoutEx::?relay`,00H
        EXTERN `??osal_isbufset::?relay`
        FUNCTION `??osal_isbufset::?relay`,00H
        EXTERN `??osal_mem_alloc::?relay`
        FUNCTION `??osal_mem_alloc::?relay`,00H
        EXTERN `??osal_mem_free::?relay`
        FUNCTION `??osal_mem_free::?relay`,00H
        EXTERN `??osal_memcpy::?relay`
        FUNCTION `??osal_memcpy::?relay`,00H
        EXTERN `??osal_memset::?relay`
        FUNCTION `??osal_memset::?relay`,00H
        EXTERN `??osal_msg_allocate::?relay`
        FUNCTION `??osal_msg_allocate::?relay`,00H
        EXTERN `??osal_msg_deallocate::?relay`
        FUNCTION `??osal_msg_deallocate::?relay`,00H
        EXTERN `??osal_msg_receive::?relay`
        FUNCTION `??osal_msg_receive::?relay`,00H
        EXTERN `??osal_msg_send::?relay`
        FUNCTION `??osal_msg_send::?relay`,00H
        EXTERN `??osal_nv_read::?relay`
        FUNCTION `??osal_nv_read::?relay`,00H
        EXTERN `??osal_nv_write::?relay`
        FUNCTION `??osal_nv_write::?relay`,00H
        EXTERN `??osal_set_event::?relay`
        FUNCTION `??osal_set_event::?relay`,00H
        EXTERN `??osal_start_timerEx::?relay`
        FUNCTION `??osal_start_timerEx::?relay`,00H
        EXTERN `??osal_stop_timerEx::?relay`
        FUNCTION `??osal_stop_timerEx::?relay`,00H
        EXTERN `??sAddrExtCmp::?relay`
        FUNCTION `??sAddrExtCmp::?relay`,00H
        EXTERN `??sspMMOHash::?relay`
        FUNCTION `??sspMMOHash::?relay`,00H
        EXTERN `??zclFindAttrRec::?relay`
        FUNCTION `??zclFindAttrRec::?relay`,00H
        EXTERN `??zgWriteStartupOptions::?relay`
        FUNCTION `??zgWriteStartupOptions::?relay`,00H
        EXTERN AIB_apsTrustCenterAddress
        EXTERN APSME_AddTCLinkKey
        FUNCTION APSME_AddTCLinkKey,0202H
        ARGFRAME ISTACK, 0, STACK
        ARGFRAME PSTACK, 0, STACK
        ARGFRAME XSTACK, 30, STACK
        ARGFRAME IOVERLAY, 0, STATIC
        ARGFRAME DOVERLAY, 0, STATIC
        EXTERN APSME_GetRequest
        FUNCTION APSME_GetRequest,0202H
        ARGFRAME ISTACK, 0, STACK
        ARGFRAME PSTACK, 0, STACK
        ARGFRAME XSTACK, 36, STACK
        ARGFRAME IOVERLAY, 0, STATIC
        ARGFRAME DOVERLAY, 0, STATIC
        EXTERN APSME_IsDistributedSecurity
        FUNCTION APSME_IsDistributedSecurity,0202H
        ARGFRAME ISTACK, 0, STACK
        ARGFRAME PSTACK, 0, STACK
        ARGFRAME XSTACK, 45, STACK
        ARGFRAME IOVERLAY, 0, STATIC
        ARGFRAME DOVERLAY, 0, STATIC
        EXTERN APSME_RequestKeyReq
        FUNCTION APSME_RequestKeyReq,0202H
        ARGFRAME ISTACK, 0, STACK
        ARGFRAME PSTACK, 0, STACK
        ARGFRAME XSTACK, 36, STACK
        ARGFRAME IOVERLAY, 0, STATIC
        ARGFRAME DOVERLAY, 0, STATIC
        EXTERN APSME_SetDefaultKey
        FUNCTION APSME_SetDefaultKey,0202H
        ARGFRAME ISTACK, 0, STACK
        ARGFRAME PSTACK, 0, STACK
        ARGFRAME XSTACK, 17, STACK
        ARGFRAME IOVERLAY, 0, STATIC
        ARGFRAME DOVERLAY, 0, STATIC
        EXTERN APSME_VerifyKeyReq
        FUNCTION APSME_VerifyKeyReq,0202H
        ARGFRAME ISTACK, 0, STACK
        ARGFRAME PSTACK, 0, STACK
        ARGFRAME XSTACK, 36, STACK
        ARGFRAME IOVERLAY, 0, STATIC
        ARGFRAME DOVERLAY, 0, STATIC
        EXTERN NLME_GetShortAddr
        FUNCTION NLME_GetShortAddr,0202H
        ARGFRAME ISTACK, 0, STACK
        ARGFRAME PSTACK, 0, STACK
        ARGFRAME XSTACK, 36, STACK
        ARGFRAME IOVERLAY, 0, STATIC
        ARGFRAME DOVERLAY, 0, STATIC
        EXTERN NLME_JoinRequest
        FUNCTION NLME_JoinRequest,0202H
        ARGFRAME ISTACK, 0, STACK
        ARGFRAME PSTACK, 0, STACK
        ARGFRAME XSTACK, 14, STACK
        ARGFRAME IOVERLAY, 0, STATIC
        ARGFRAME DOVERLAY, 0, STATIC
        EXTERN NLME_LeaveReq
        FUNCTION NLME_LeaveReq,0202H
        ARGFRAME ISTACK, 2, STACK
        ARGFRAME PSTACK, 0, STACK
        ARGFRAME XSTACK, 29, STACK
        ARGFRAME IOVERLAY, 0, STATIC
        ARGFRAME DOVERLAY, 0, STATIC
        EXTERN NLME_NwkDiscTerm
        FUNCTION NLME_NwkDiscTerm,0202H
        ARGFRAME ISTACK, 0, STACK
        ARGFRAME PSTACK, 0, STACK
        ARGFRAME XSTACK, 36, STACK
        ARGFRAME IOVERLAY, 0, STATIC
        ARGFRAME DOVERLAY, 0, STATIC
        EXTERN NLME_OrphanStateSet
        FUNCTION NLME_OrphanStateSet,0202H
        ARGFRAME ISTACK, 2, STACK
        ARGFRAME PSTACK, 0, STACK
        ARGFRAME XSTACK, 1, STACK
        ARGFRAME IOVERLAY, 0, STATIC
        ARGFRAME DOVERLAY, 0, STATIC
        EXTERN NLME_ReJoinRequest
        FUNCTION NLME_ReJoinRequest,0202H
        ARGFRAME ISTACK, 0, STACK
        ARGFRAME PSTACK, 0, STACK
        ARGFRAME XSTACK, 11, STACK
        ARGFRAME IOVERLAY, 0, STATIC
        ARGFRAME DOVERLAY, 0, STATIC
        EXTERN NLME_ReJoinRequestUnsecure
        FUNCTION NLME_ReJoinRequestUnsecure,0202H
        ARGFRAME ISTACK, 0, STACK
        ARGFRAME PSTACK, 0, STACK
        ARGFRAME XSTACK, 11, STACK
        ARGFRAME IOVERLAY, 0, STATIC
        ARGFRAME DOVERLAY, 0, STATIC
        EXTERN NLME_ResetRequest
        FUNCTION NLME_ResetRequest,0202H
        ARGFRAME ISTACK, 0, STACK
        ARGFRAME PSTACK, 0, STACK
        ARGFRAME XSTACK, 14, STACK
        ARGFRAME IOVERLAY, 0, STATIC
        ARGFRAME DOVERLAY, 0, STATIC
        EXTERN NLME_SetPollRate
        FUNCTION NLME_SetPollRate,0202H
        ARGFRAME ISTACK, 0, STACK
        ARGFRAME PSTACK, 0, STACK
        ARGFRAME XSTACK, 14, STACK
        ARGFRAME IOVERLAY, 0, STATIC
        ARGFRAME DOVERLAY, 0, STATIC
        EXTERN NLME_SetQueuedPollRate
        FUNCTION NLME_SetQueuedPollRate,0202H
        ARGFRAME ISTACK, 0, STACK
        ARGFRAME PSTACK, 0, STACK
        ARGFRAME XSTACK, 10, STACK
        ARGFRAME IOVERLAY, 0, STATIC
        ARGFRAME DOVERLAY, 0, STATIC
        EXTERN NLME_SetResponseRate
        FUNCTION NLME_SetResponseRate,0202H
        ARGFRAME ISTACK, 0, STACK
        ARGFRAME PSTACK, 0, STACK
        ARGFRAME XSTACK, 10, STACK
        ARGFRAME IOVERLAY, 0, STATIC
        ARGFRAME DOVERLAY, 0, STATIC
        EXTERN TCLinkKeyFrmCntr
        EXTERN ZDApp_ChangeState
        FUNCTION ZDApp_ChangeState,0202H
        ARGFRAME ISTACK, 2, STACK
        ARGFRAME PSTACK, 0, STACK
        ARGFRAME XSTACK, 14, STACK
        ARGFRAME IOVERLAY, 0, STATIC
        ARGFRAME DOVERLAY, 0, STATIC
        EXTERN ZDApp_NetworkInit
        FUNCTION ZDApp_NetworkInit,0202H
        ARGFRAME ISTACK, 0, STACK
        ARGFRAME PSTACK, 0, STACK
        ARGFRAME XSTACK, 11, STACK
        ARGFRAME IOVERLAY, 0, STATIC
        ARGFRAME DOVERLAY, 0, STATIC
        EXTERN ZDApp_NodeProfileSync
        FUNCTION ZDApp_NodeProfileSync,0202H
        ARGFRAME ISTACK, 0, STACK
        ARGFRAME PSTACK, 0, STACK
        ARGFRAME XSTACK, 10, STACK
        ARGFRAME IOVERLAY, 0, STATIC
        ARGFRAME DOVERLAY, 0, STATIC
        EXTERN ZDApp_ResetTimerStart
        FUNCTION ZDApp_ResetTimerStart,0202H
        ARGFRAME ISTACK, 2, STACK
        ARGFRAME PSTACK, 0, STACK
        ARGFRAME XSTACK, 5, STACK
        ARGFRAME IOVERLAY, 0, STATIC
        ARGFRAME DOVERLAY, 0, STATIC
        EXTERN ZDApp_RestoreNwkKey
        FUNCTION ZDApp_RestoreNwkKey,0202H
        ARGFRAME ISTACK, 0, STACK
        ARGFRAME PSTACK, 0, STACK
        ARGFRAME XSTACK, 11, STACK
        ARGFRAME IOVERLAY, 0, STATIC
        ARGFRAME DOVERLAY, 0, STATIC
        EXTERN ZDApp_RestoreNwkSecMaterial
        FUNCTION ZDApp_RestoreNwkSecMaterial,0202H
        ARGFRAME ISTACK, 0, STACK
        ARGFRAME PSTACK, 0, STACK
        ARGFRAME XSTACK, 14, STACK
        ARGFRAME IOVERLAY, 0, STATIC
        ARGFRAME DOVERLAY, 0, STATIC
        EXTERN ZDApp_SavedPollRate
        EXTERN ZDOInitDeviceEx
        FUNCTION ZDOInitDeviceEx,0202H
        ARGFRAME ISTACK, 2, STACK
        ARGFRAME PSTACK, 0, STACK
        ARGFRAME XSTACK, 32, STACK
        ARGFRAME IOVERLAY, 0, STATIC
        ARGFRAME DOVERLAY, 0, STATIC
        EXTERN ZDO_Config_Node_Descriptor
        EXTERN ZDO_ParseNodeDescRsp
        FUNCTION ZDO_ParseNodeDescRsp,0202H
        ARGFRAME ISTACK, 0, STACK
        ARGFRAME PSTACK, 0, STACK
        ARGFRAME XSTACK, 45, STACK
        ARGFRAME IOVERLAY, 0, STATIC
        ARGFRAME DOVERLAY, 0, STATIC
        EXTERN ZDO_RegisterForZDOMsg
        FUNCTION ZDO_RegisterForZDOMsg,0202H
        ARGFRAME ISTACK, 0, STACK
        ARGFRAME PSTACK, 0, STACK
        ARGFRAME XSTACK, 9, STACK
        ARGFRAME IOVERLAY, 0, STATIC
        ARGFRAME DOVERLAY, 0, STATIC
        EXTERN ZDO_UseExtendedPANID
        EXTERN ZDP_MgmtPermitJoinReq
        FUNCTION ZDP_MgmtPermitJoinReq,0202H
        ARGFRAME ISTACK, 2, STACK
        ARGFRAME PSTACK, 0, STACK
        ARGFRAME XSTACK, 9, STACK
        ARGFRAME IOVERLAY, 0, STATIC
        ARGFRAME DOVERLAY, 0, STATIC
        EXTERN ZDP_NWKAddrOfInterestReq
        FUNCTION ZDP_NWKAddrOfInterestReq,0202H
        ARGFRAME ISTACK, 0, STACK
        ARGFRAME PSTACK, 0, STACK
        ARGFRAME XSTACK, 37, STACK
        ARGFRAME IOVERLAY, 0, STATIC
        ARGFRAME DOVERLAY, 0, STATIC
        EXTERN ZMacSetReq
        FUNCTION ZMacSetReq,0202H
        ARGFRAME ISTACK, 2, STACK
        ARGFRAME PSTACK, 0, STACK
        ARGFRAME XSTACK, 36, STACK
        ARGFRAME IOVERLAY, 0, STATIC
        ARGFRAME DOVERLAY, 0, STATIC
        EXTERN _NIB
        EXTERN afRegister
        FUNCTION afRegister,0202H
        ARGFRAME ISTACK, 0, STACK
        ARGFRAME PSTACK, 0, STACK
        ARGFRAME XSTACK, 10, STACK
        ARGFRAME IOVERLAY, 0, STATIC
        ARGFRAME DOVERLAY, 0, STATIC
        EXTERN bdbIndentifyActiveEndpoint
        EXTERN bdb_ProcessIEEEAddrRsp
        FUNCTION bdb_ProcessIEEEAddrRsp,0202H
        ARGFRAME ISTACK, 0, STACK
        ARGFRAME PSTACK, 0, STACK
        ARGFRAME XSTACK, 29, STACK
        ARGFRAME IOVERLAY, 0, STATIC
        ARGFRAME DOVERLAY, 0, STATIC
        EXTERN bdb_ProcessRespondentList
        FUNCTION bdb_ProcessRespondentList,0202H
        ARGFRAME ISTACK, 0, STACK
        ARGFRAME PSTACK, 0, STACK
        ARGFRAME XSTACK, 29, STACK
        ARGFRAME IOVERLAY, 0, STATIC
        ARGFRAME DOVERLAY, 0, STATIC
        EXTERN bdb_ProcessSimpleDesc
        FUNCTION bdb_ProcessSimpleDesc,0202H
        ARGFRAME ISTACK, 0, STACK
        ARGFRAME PSTACK, 0, STACK
        ARGFRAME XSTACK, 29, STACK
        ARGFRAME IOVERLAY, 0, STATIC
        ARGFRAME DOVERLAY, 0, STATIC
        EXTERN bdb_SendIdentifyQuery
        FUNCTION bdb_SendIdentifyQuery,0202H
        ARGFRAME ISTACK, 0, STACK
        ARGFRAME PSTACK, 0, STACK
        ARGFRAME XSTACK, 29, STACK
        ARGFRAME IOVERLAY, 0, STATIC
        ARGFRAME DOVERLAY, 0, STATIC
        EXTERN bdb_exitFindingBindingWStatus
        FUNCTION bdb_exitFindingBindingWStatus,0202H
        ARGFRAME ISTACK, 0, STACK
        ARGFRAME PSTACK, 0, STACK
        ARGFRAME XSTACK, 29, STACK
        ARGFRAME IOVERLAY, 0, STATIC
        ARGFRAME DOVERLAY, 0, STATIC
        EXTERN bdb_getRespondentRetry
        FUNCTION bdb_getRespondentRetry,0202H
        ARGFRAME ISTACK, 0, STACK
        ARGFRAME PSTACK, 0, STACK
        ARGFRAME XSTACK, 29, STACK
        ARGFRAME IOVERLAY, 0, STATIC
        ARGFRAME DOVERLAY, 0, STATIC
        EXTERN bdb_setEpDescListToActiveEndpoint
        FUNCTION bdb_setEpDescListToActiveEndpoint,0202H
        ARGFRAME ISTACK, 0, STACK
        ARGFRAME PSTACK, 0, STACK
        ARGFRAME XSTACK, 29, STACK
        ARGFRAME IOVERLAY, 0, STATIC
        ARGFRAME DOVERLAY, 0, STATIC
        EXTERN devStartMode
        EXTERN gZDSECMGR_TC_ATTEMPT_DEFAULT_KEY
        EXTERN nwkNeighborInitTable
        FUNCTION nwkNeighborInitTable,0202H
        ARGFRAME ISTACK, 0, STACK
        ARGFRAME PSTACK, 0, STACK
        ARGFRAME XSTACK, 36, STACK
        ARGFRAME IOVERLAY, 0, STATIC
        ARGFRAME DOVERLAY, 0, STATIC
        EXTERN nwk_ExtPANIDValid
        FUNCTION nwk_ExtPANIDValid,0202H
        ARGFRAME ISTACK, 0, STACK
        ARGFRAME PSTACK, 0, STACK
        ARGFRAME XSTACK, 11, STACK
        ARGFRAME IOVERLAY, 0, STATIC
        ARGFRAME DOVERLAY, 0, STATIC
        EXTERN nwk_desc_list_free
        FUNCTION nwk_desc_list_free,0202H
        ARGFRAME ISTACK, 2, STACK
        ARGFRAME PSTACK, 0, STACK
        ARGFRAME XSTACK, 1, STACK
        ARGFRAME IOVERLAY, 0, STATIC
        ARGFRAME DOVERLAY, 0, STATIC
        EXTERN nwk_desc_list_release
        FUNCTION nwk_desc_list_release,0202H
        ARGFRAME ISTACK, 0, STACK
        ARGFRAME PSTACK, 0, STACK
        ARGFRAME XSTACK, 11, STACK
        ARGFRAME IOVERLAY, 0, STATIC
        ARGFRAME DOVERLAY, 0, STATIC
        EXTERN nwk_getNwkDescList
        FUNCTION nwk_getNwkDescList,0202H
        ARGFRAME ISTACK, 0, STACK
        ARGFRAME PSTACK, 0, STACK
        ARGFRAME XSTACK, 11, STACK
        ARGFRAME IOVERLAY, 0, STATIC
        ARGFRAME DOVERLAY, 0, STATIC
        EXTERN nwk_setStateIdle
        FUNCTION nwk_setStateIdle,0202H
        ARGFRAME ISTACK, 0, STACK
        ARGFRAME PSTACK, 0, STACK
        ARGFRAME XSTACK, 14, STACK
        ARGFRAME IOVERLAY, 0, STATIC
        ARGFRAME DOVERLAY, 0, STATIC
        EXTERN osal_build_uint16
        FUNCTION osal_build_uint16,0202H
        ARGFRAME ISTACK, 0, STACK
        ARGFRAME PSTACK, 0, STACK
        ARGFRAME XSTACK, 30, STACK
        ARGFRAME IOVERLAY, 0, STATIC
        ARGFRAME DOVERLAY, 0, STATIC
        EXTERN osal_get_timeoutEx
        FUNCTION osal_get_timeoutEx,0202H
        ARGFRAME ISTACK, 0, STACK
        ARGFRAME PSTACK, 0, STACK
        ARGFRAME XSTACK, 32, STACK
        ARGFRAME IOVERLAY, 0, STATIC
        ARGFRAME DOVERLAY, 0, STATIC
        EXTERN osal_isbufset
        FUNCTION osal_isbufset,0202H
        ARGFRAME ISTACK, 0, STACK
        ARGFRAME PSTACK, 0, STACK
        ARGFRAME XSTACK, 32, STACK
        ARGFRAME IOVERLAY, 0, STATIC
        ARGFRAME DOVERLAY, 0, STATIC
        EXTERN osal_mem_alloc
        FUNCTION osal_mem_alloc,0202H
        ARGFRAME ISTACK, 0, STACK
        ARGFRAME PSTACK, 0, STACK
        ARGFRAME XSTACK, 10, STACK
        ARGFRAME IOVERLAY, 0, STATIC
        ARGFRAME DOVERLAY, 0, STATIC
        EXTERN osal_mem_free
        FUNCTION osal_mem_free,0202H
        ARGFRAME ISTACK, 2, STACK
        ARGFRAME PSTACK, 0, STACK
        ARGFRAME XSTACK, 12, STACK
        ARGFRAME IOVERLAY, 0, STATIC
        ARGFRAME DOVERLAY, 0, STATIC
        EXTERN osal_memcpy
        FUNCTION osal_memcpy,0202H
        ARGFRAME ISTACK, 0, STACK
        ARGFRAME PSTACK, 0, STACK
        ARGFRAME XSTACK, 20, STACK
        ARGFRAME IOVERLAY, 0, STATIC
        ARGFRAME DOVERLAY, 0, STATIC
        EXTERN osal_memset
        FUNCTION osal_memset,0202H
        ARGFRAME ISTACK, 2, STACK
        ARGFRAME PSTACK, 0, STACK
        ARGFRAME XSTACK, 32, STACK
        ARGFRAME IOVERLAY, 0, STATIC
        ARGFRAME DOVERLAY, 0, STATIC
        EXTERN osal_msg_allocate
        FUNCTION osal_msg_allocate,0202H
        ARGFRAME ISTACK, 0, STACK
        ARGFRAME PSTACK, 0, STACK
        ARGFRAME XSTACK, 17, STACK
        ARGFRAME IOVERLAY, 0, STATIC
        ARGFRAME DOVERLAY, 0, STATIC
        EXTERN osal_msg_deallocate
        FUNCTION osal_msg_deallocate,0202H
        ARGFRAME ISTACK, 0, STACK
        ARGFRAME PSTACK, 0, STACK
        ARGFRAME XSTACK, 29, STACK
        ARGFRAME IOVERLAY, 0, STATIC
        ARGFRAME DOVERLAY, 0, STATIC
        EXTERN osal_msg_receive
        FUNCTION osal_msg_receive,0202H
        ARGFRAME ISTACK, 0, STACK
        ARGFRAME PSTACK, 0, STACK
        ARGFRAME XSTACK, 29, STACK
        ARGFRAME IOVERLAY, 0, STATIC
        ARGFRAME DOVERLAY, 0, STATIC
        EXTERN osal_msg_send
        FUNCTION osal_msg_send,0202H
        ARGFRAME ISTACK, 0, STACK
        ARGFRAME PSTACK, 0, STACK
        ARGFRAME XSTACK, 17, STACK
        ARGFRAME IOVERLAY, 0, STATIC
        ARGFRAME DOVERLAY, 0, STATIC
        EXTERN osal_nv_read
        FUNCTION osal_nv_read,0202H
        ARGFRAME ISTACK, 0, STACK
        ARGFRAME PSTACK, 0, STACK
        ARGFRAME XSTACK, 36, STACK
        ARGFRAME IOVERLAY, 0, STATIC
        ARGFRAME DOVERLAY, 0, STATIC
        EXTERN osal_nv_write
        FUNCTION osal_nv_write,0202H
        ARGFRAME ISTACK, 0, STACK
        ARGFRAME PSTACK, 0, STACK
        ARGFRAME XSTACK, 49, STACK
        ARGFRAME IOVERLAY, 0, STATIC
        ARGFRAME DOVERLAY, 0, STATIC
        EXTERN osal_set_event
        FUNCTION osal_set_event,0202H
        ARGFRAME ISTACK, 0, STACK
        ARGFRAME PSTACK, 0, STACK
        ARGFRAME XSTACK, 32, STACK
        ARGFRAME IOVERLAY, 0, STATIC
        ARGFRAME DOVERLAY, 0, STATIC
        EXTERN osal_start_timerEx
        FUNCTION osal_start_timerEx,0202H
        ARGFRAME ISTACK, 2, STACK
        ARGFRAME PSTACK, 0, STACK
        ARGFRAME XSTACK, 40, STACK
        ARGFRAME IOVERLAY, 0, STATIC
        ARGFRAME DOVERLAY, 0, STATIC
        EXTERN osal_stop_timerEx
        FUNCTION osal_stop_timerEx,0202H
        ARGFRAME ISTACK, 0, STACK
        ARGFRAME PSTACK, 0, STACK
        ARGFRAME XSTACK, 45, STACK
        ARGFRAME IOVERLAY, 0, STATIC
        ARGFRAME DOVERLAY, 0, STATIC
        EXTERN pbindAddEntry
        EXTERN pfnIdentifyTimeChangeCB
        EXTERN requestLinkKeyTimeout
        EXTERN requestNewTrustCenterLinkKey
        EXTERN runtimeChannel
        EXTERN sAddrExtCmp
        FUNCTION sAddrExtCmp,0202H
        ARGFRAME ISTACK, 0, STACK
        ARGFRAME PSTACK, 0, STACK
        ARGFRAME XSTACK, 11, STACK
        ARGFRAME IOVERLAY, 0, STATIC
        ARGFRAME DOVERLAY, 0, STATIC
        EXTERN sspMMOHash
        FUNCTION sspMMOHash,0202H
        ARGFRAME ISTACK, 0, STACK
        ARGFRAME PSTACK, 0, STACK
        ARGFRAME XSTACK, 34, STACK
        ARGFRAME IOVERLAY, 0, STATIC
        ARGFRAME DOVERLAY, 0, STATIC
        EXTERN zclFindAttrRec
        FUNCTION zclFindAttrRec,0202H
        ARGFRAME ISTACK, 0, STACK
        ARGFRAME PSTACK, 0, STACK
        ARGFRAME XSTACK, 31, STACK
        ARGFRAME IOVERLAY, 0, STATIC
        ARGFRAME DOVERLAY, 0, STATIC
        EXTERN zcl_TaskID
        EXTERN zgChildAgingEnable
        EXTERN zgConfigPANID
        EXTERN zgDefaultChannelList
        EXTERN zgDeviceLogicalType
        EXTERN zgPollRate
        EXTERN zgRejoinPollRate
        EXTERN zgStackProfile
        EXTERN zgWriteStartupOptions
        FUNCTION zgWriteStartupOptions,0202H
        ARGFRAME ISTACK, 2, STACK
        ARGFRAME PSTACK, 0, STACK
        ARGFRAME XSTACK, 32, STACK
        ARGFRAME IOVERLAY, 0, STATIC
        ARGFRAME DOVERLAY, 0, STATIC

// D:\work\zigbee\ti_cc2530_zstack\Z-Stack 3.0.2\Components\stack\bdb\bdb.c
//    1 /**************************************************************************************************
//    2   Filename:       bdb.c
//    3   Revised:        $Date: 2016-02-25 11:51:49 -0700 (Thu, 25 Feb 2016) $
//    4   Revision:       $Revision: - $
//    5 
//    6   Description:    This file contains the Base Device Behavior functions and attributes.
//    7 
//    8 
//    9   Copyright 2006-2015 Texas Instruments Incorporated. All rights reserved.
//   10 
//   11   IMPORTANT: Your use of this Software is limited to those specific rights
//   12   granted under the terms of a software license agreement between the user
//   13   who downloaded the software, his/her employer (which must be your employer)
//   14   and Texas Instruments Incorporated (the "License").  You may not use this
//   15   Software unless you agree to abide by the terms of the License. The License
//   16   limits your use, and you acknowledge, that the Software may not be modified,
//   17   copied or distributed unless embedded on a Texas Instruments microcontroller
//   18   or used solely and exclusively in conjunction with a Texas Instruments radio
//   19   frequency transceiver, which is integrated into your product.  Other than for
//   20   the foregoing purpose, you may not use, reproduce, copy, prepare derivative
//   21   works of, modify, distribute, perform, display or sell this Software and/or
//   22   its documentation for any purpose.
//   23 
//   24   YOU FURTHER ACKNOWLEDGE AND AGREE THAT THE SOFTWARE AND DOCUMENTATION ARE
//   25   PROVIDED "AS IS" WITHOUT WARRANTY OF ANY KIND, EITHER EXPRESS OR IMPLIED,
//   26   INCLUDING WITHOUT LIMITATION, ANY WARRANTY OF MERCHANTABILITY, TITLE,
//   27   NON-INFRINGEMENT AND FITNESS FOR A PARTICULAR PURPOSE. IN NO EVENT SHALL
//   28   TEXAS INSTRUMENTS OR ITS LICENSORS BE LIABLE OR OBLIGATED UNDER CONTRACT,
//   29   NEGLIGENCE, STRICT LIABILITY, CONTRIBUTION, BREACH OF WARRANTY, OR OTHER
//   30   LEGAL EQUITABLE THEORY ANY DIRECT OR INDIRECT DAMAGES OR EXPENSES
//   31   INCLUDING BUT NOT LIMITED TO ANY INCIDENTAL, SPECIAL, INDIRECT, PUNITIVE
//   32   OR CONSEQUENTIAL DAMAGES, LOST PROFITS OR LOST DATA, COST OF PROCUREMENT
//   33   OF SUBSTITUTE GOODS, TECHNOLOGY, SERVICES, OR ANY CLAIMS BY THIRD PARTIES
//   34   (INCLUDING BUT NOT LIMITED TO ANY DEFENSE THEREOF), OR OTHER SIMILAR COSTS.
//   35 
//   36   Should you have any questions regarding your right to use this Software,
//   37   contact Texas Instruments Incorporated at www.TI.com.
//   38 **************************************************************************************************/
//   39 
//   40 /*********************************************************************
//   41  * INCLUDES
//   42  */
//   43 
//   44 #include "bdb.h"
//   45 #include "ZDApp.h"
//   46 #include "OSAL.h"
//   47 #include "ZDConfig.h"
//   48 #include "hal_led.h"
//   49 #include "ZDObject.h"
//   50 #include "OSAL_Nv.h"
//   51 #include "AddrMgr.h"
//   52 #include "ZDSecMgr.h"
//   53 #include "nwk.h"
//   54 #include "nwk_util.h"
//   55 #include "ssp_hash.h"
//   56 #ifdef BDB_REPORTING
//   57 #include "bdb_Reporting.h"
//   58 #endif 
//   59 
//   60 #if !defined (DISABLE_GREENPOWER_BASIC_PROXY) && (ZG_BUILD_RTR_TYPE)
//   61 #include "gp_interface.h"
//   62 #include "gp_common.h"
//   63 #include "dgp_stub.h"
//   64 #endif
//   65 
//   66 #include "bdb_interface.h"
//   67 
//   68 #if defined ( INTER_PAN ) 
//   69 #if defined ( BDB_TL_INITIATOR )  
//   70 #include "bdb_touchlink_initiator.h"
//   71 #endif
//   72 #if defined ( BDB_TL_TARGET )  
//   73 #include "bdb_touchlink_target.h"
//   74 #endif
//   75 #endif
//   76    
//   77 #if defined ( INTER_PAN ) && ( defined ( BDB_TL_INITIATOR ) || defined ( BDB_TL_TARGET ) )
//   78   #include "bdb_touchlink.h"
//   79 #endif
//   80  
//   81 #ifdef MT_APP_CNF_FUNC
//   82 #include "MT_APP_CONFIG.h"
//   83 #endif
//   84    
//   85  /*********************************************************************
//   86  * MACROS
//   87  */
//   88 //This is actually the channels used
//   89 #define vScanChannels  zgDefaultChannelList
//   90    
//   91  /*********************************************************************
//   92  * CONSTANTS
//   93  */
//   94 
//   95 #define NUMBER_OF_CHANNELS     16
//   96 
//   97 #define CHANNEL_11_MASK_POS    11
//   98 #define CHANNEL_26_MASK_POS    26
//   99    

        RSEG XDATA_Z:XDATA:NOROOT(0)
        DATA8
//  100 uint8 bdb_FB_InitiatorCurrentCyclesNumber = 0; //last cycle is #1 (i.e. cycles-left = (bdb_FB_InitiatorCurrentCyclesNumber - 1))
bdb_FB_InitiatorCurrentCyclesNumber:
        DS 1
        REQUIRE __INIT_XDATA_Z
//  101 
//  102 /*********************************************************************
//  103  * TYPEDEFS
//  104  */
//  105  
//  106  
//  107  /*********************************************************************
//  108  * GLOBAL VARIABLES
//  109  */
//  110 

        RSEG XDATA_Z:XDATA:NOROOT(0)
        DATA8
//  111 byte bdb_TaskID;
bdb_TaskID:
        DS 1
        REQUIRE __INIT_XDATA_Z

        RSEG XDATA_I:XDATA:NOROOT(0)
//  112 bdbAttributes_t bdbAttributes = BDB_ATTRIBUTES_DEFAULT_CONFIG;
bdbAttributes:
        DATA8
        DS 19
        REQUIRE `?<Initializer for bdbAttributes>`
        REQUIRE __INIT_XDATA_I

        RSEG XDATA_Z:XDATA:NOROOT(0)
        DATA16
//  113 epList_t *bdb_HeadEpDescriptorList = NULL;
bdb_HeadEpDescriptorList:
        DS 2
        REQUIRE __INIT_XDATA_Z

        RSEG XDATA_Z:XDATA:NOROOT(0)
        DATA16
//  114 epList_t *bdb_CurrEpDescriptorList = NULL;
bdb_CurrEpDescriptorList:
        DS 2
        REQUIRE __INIT_XDATA_Z
//  115 

        RSEG XDATA_Z:XDATA:NOROOT(0)
        DATA16
//  116 bdbFindingBindingRespondent_t *pRespondentHead = NULL;
pRespondentHead:
        DS 2
        REQUIRE __INIT_XDATA_Z

        RSEG XDATA_Z:XDATA:NOROOT(0)
        DATA16
//  117 bdbFindingBindingRespondent_t *pRespondentCurr = NULL;
pRespondentCurr:
        DS 2
        REQUIRE __INIT_XDATA_Z

        RSEG XDATA_Z:XDATA:NOROOT(0)
        DATA16
//  118 bdbFindingBindingRespondent_t *pRespondentNext = NULL;
pRespondentNext:
        DS 2
        REQUIRE __INIT_XDATA_Z
//  119 

        RSEG XDATA_Z:XDATA:NOROOT(0)
        DATA32
//  120 bdbCommissioningProcedureState_t bdbCommissioningProcedureState; 
bdbCommissioningProcedureState:
        DS 4
        REQUIRE __INIT_XDATA_Z

        RSEG XDATA_Z:XDATA:NOROOT(0)
        DATA8
//  121 bool bdb_initialization = FALSE;  //Variable to tell if the initialization process has been started
bdb_initialization:
        DS 1
        REQUIRE __INIT_XDATA_Z
//  122 
//  123 //Nwk formation and nwk steering for nodes not in nwk

        RSEG XDATA_I:XDATA:NOROOT(0)
//  124 bool vDoPrimaryScan = TRUE;
vDoPrimaryScan:
        DATA8
        DS 1
        REQUIRE `?<Initializer for vDoPrimaryScan>`
        REQUIRE __INIT_XDATA_I
//  125 

        RSEG XDATA_I:XDATA:NOROOT(0)
//  126 uint8 zgBdbInstallCodeCRC[INSTALL_CODE_LEN + INSTALL_CODE_CRC_LEN] = {0x83,0xFE,0xD3,0x40,0x7A,0x93,0x97,0x23,0xA5,0xC6,0x39,0xB2,0x69,0x16,0xD5,0x05,0xC3,0xB5};
zgBdbInstallCodeCRC:
        DATA8
        DS 18
        REQUIRE `?<Initializer for zgBdbInstallCodeCRC>`
        REQUIRE __INIT_XDATA_I
//  127 
//  128 //Pointer of the nwk being tried in association process
//  129 #if (ZG_BUILD_JOINING_TYPE)

        RSEG XDATA_Z:XDATA:NOROOT(0)
        DATA16
//  130 static networkDesc_t *pBDBListNwk = NULL;
pBDBListNwk:
        DS 2
        REQUIRE __INIT_XDATA_Z
//  131 #endif
//  132 

        RSEG XDATA_Z:XDATA:NOROOT(0)
        DATA8
//  133 uint8 bdb_ZclTransactionSequenceNumber=0x00;
bdb_ZclTransactionSequenceNumber:
        DS 1
        REQUIRE __INIT_XDATA_Z
//  134 

        RSEG XDATA_Z:XDATA:NOROOT(0)
        DATA8
//  135 bool touchLinkTargetEnabled = FALSE;
touchLinkTargetEnabled:
        DS 1
        REQUIRE __INIT_XDATA_Z
//  136 
//  137  /*********************************************************************
//  138  * EXTERNAL VARIABLES
//  139  */
//  140 
//  141 extern devStartModes_t devStartMode;
//  142 extern bool  requestNewTrustCenterLinkKey;
//  143 extern uint32 requestLinkKeyTimeout;
//  144 extern uint32 ZDApp_SavedPollRate;
//  145 
//  146 #if (BDB_FINDING_BINDING_CAPABILITY_ENABLED==1)
//  147 extern bdbGCB_IdentifyTimeChange_t pfnIdentifyTimeChangeCB;
//  148 extern uint8 bdbIndentifyActiveEndpoint;
//  149 #endif
//  150 
//  151 extern bdbFindingBindingRespondent_t *pRespondentNext;
//  152 
//  153 #ifndef DISABLE_GREENPOWER_BASIC_PROXY
//  154 extern ZDO_DeviceAnnce_t aliasConflictAnnce;
//  155 #endif
//  156 
//  157 /*********************************************************************
//  158  * EXTERNAL FUNCTIONS
//  159  */
//  160 
//  161 extern void ZDApp_ResetTimerStart( uint16 delay );
//  162 extern void ZDApp_NodeProfileSync( uint8 stackProfile );
//  163 extern uint8 ZDApp_RestoreNwkKey( uint8 incrFrmCnt );
//  164 extern uint8 ZDApp_ReadNetworkRestoreState( void );
//  165 
//  166 extern bdbFindingBindingRespondent_t* bdb_getRespondentRetry(bdbFindingBindingRespondent_t* pRespondentHead);
//  167 extern void bdb_ProcessSimpleDesc( zdoIncomingMsg_t *msgPtr );
//  168 extern void bdb_ProcessIEEEAddrRsp(zdoIncomingMsg_t *pMsg);
//  169 
//  170 /*********************************************************************
//  171  * LOCAL VARIABLES
//  172  */
//  173 #if (ZG_BUILD_JOINING_TYPE)

        RSEG XDATA_Z:XDATA:NOROOT(0)
        DATA8
//  174   static uint8 bdb_nwkAssocRetriesCount = 0;
bdb_nwkAssocRetriesCount:
        DS 1
        REQUIRE __INIT_XDATA_Z
//  175 #endif
//  176 #if (ZG_BUILD_COORDINATOR_TYPE)
//  177   static bdb_joiningDeviceList_t *bdb_joiningDeviceList = NULL;
//  178 #endif
//  179   
//  180 #if (BDB_FINDING_BINDING_CAPABILITY_ENABLED==1) 
//  181 //Latch to save the status success of any attempt in the periodic F&B process  

        RSEG XDATA_Z:XDATA:NOROOT(0)
        DATA8
//  182 static uint8 bdb_FBStateSuccessLatch = FALSE;
bdb_FBStateSuccessLatch:
        DS 1
        REQUIRE __INIT_XDATA_Z
//  183 #endif
//  184  /*********************************************************************
//  185  * LOCAL FUNCTIONS
//  186  */
//  187 static void bdb_ProcessOSALMsg(bdbInMsg_t *msgPtr);
//  188 void bdb_NotifyCommissioningModeStart(uint8 commissioningMode);
//  189 static void bdb_processZDOMgs(zdoIncomingMsg_t *pMsg);
//  190 
//  191 #if (ZG_BUILD_JOINING_TYPE)
//  192 static void bdb_requestTCStackVersion(void);
//  193 static void bdb_requestTCLinkKey(void);
//  194 static void bdb_requestVerifyTCLinkKey(void);
//  195 static void bdb_tryNwkAssoc(void);
//  196 #endif
//  197 
//  198 
//  199 static void bdb_processTimeout(void);
//  200 static void bdb_startResumeCommissioningProcess(void);
//  201 static void bdb_nwkSteeringDeviceOnNwk(void);
//  202 static void bdb_nwkJoiningFormation(bool isJoining);
//  203 
//  204 #if !defined (DISABLE_GREENPOWER_BASIC_PROXY) && (ZG_BUILD_RTR_TYPE)
//  205 static uint8 gp_ChangeChannelReq(void);
//  206 static void gp_CBInit(void);
//  207 #endif
//  208 
//  209 
//  210 #if (ZG_BUILD_COORDINATOR_TYPE)
//  211 static void bdb_TCProcessJoiningList(void);
//  212 static ZStatus_t bdb_TCJoiningDeviceFree(bdb_joiningDeviceList_t* JoiningDeviceToRemove);
//  213 #endif
//  214 #if (ZG_BUILD_COORDINATOR_TYPE)
//  215 static bdbGCB_TCLinkKeyExchangeProcess_t  pfnTCLinkKeyExchangeProcessCB = NULL;
//  216 #endif

        RSEG XDATA_Z:XDATA:NOROOT(0)
        DATA16
//  217 static bdbGCB_CommissioningStatus_t       pfnCommissioningStatusCB = NULL; 
pfnCommissioningStatusCB:
        DS 2
        REQUIRE __INIT_XDATA_Z
//  218 #if (ZG_BUILD_JOINING_TYPE)

        RSEG XDATA_Z:XDATA:NOROOT(0)
        DATA16
//  219 static bdbGCB_CBKETCLinkKeyExchange_t     pfnCBKETCLinkKeyExchange = NULL;
pfnCBKETCLinkKeyExchange:
        DS 2
        REQUIRE __INIT_XDATA_Z

        RSEG XDATA_Z:XDATA:NOROOT(0)
        DATA16
//  220 static bdbGCB_FilterNwkDesc_t             pfnFilterNwkDesc = NULL;   
pfnFilterNwkDesc:
        DS 2
        REQUIRE __INIT_XDATA_Z
//  221 #endif
//  222 
//  223 
//  224 
//  225 void bdb_calculateCCITT_CRC (uint8 *Mb, uint32 msglen, uint16 *crc);
//  226 void bdb_crcInit(uint16 *crc, uint16 *crcinit_direct, uint16 *crcinit_nondirect);
//  227 uint16 bdb_crcReflect (uint16 crc, uint16 bitnum);
//  228 uint16 bdb_crcBitByBitFast(uint8 * p, uint32 len, uint16 crcinit_direct, uint16 crcinit_nondirect);
//  229 void bdb_ProcessNodeDescRsp(zdoIncomingMsg_t *pMsg);
//  230 
//  231 /*********************************************************************
//  232  * PUBLIC FUNCTIONS
//  233  *********************************************************************/
//  234 void bdb_filterNwkDisc(void);
//  235 ZStatus_t bdb_joinProcess(networkDesc_t *pChosenNwk);
//  236 
//  237 ZStatus_t bdb_TCAddJoiningDevice(uint16 parentAddr, uint8* JoiningExtAddr);
//  238 void bdb_TCjoiningDeviceComplete(uint8* JoiningExtAddr);
//  239 
//  240  /*********************************************************************
//  241  * @fn          bdb_Init
//  242  *
//  243  * @brief       Initialization function for the Base Device Behavior.
//  244  *
//  245  * @param       task_id - bdb_TaskID Task ID
//  246  *
//  247  * @return      none
//  248  */

        RSEG BANKED_CODE:HUGECODE:NOROOT(0)
//  249 void bdb_Init( byte task_id )
bdb_Init:
          CFI Block cfiBlock0 Using cfiCommon0
          CFI Function bdb_Init
        CODE
//  250 {
        FUNCALL bdb_Init, ZDO_RegisterForZDOMsg
        LOCFRAME ISTACK, 0, STACK
        LOCFRAME PSTACK, 0, STACK
        LOCFRAME XSTACK, 9, STACK
        LOCFRAME IOVERLAY, 0, STATIC
        LOCFRAME DOVERLAY, 0, STATIC
        ARGFRAME ISTACK, 0, STACK
        ARGFRAME PSTACK, 0, STACK
        ARGFRAME XSTACK, 9, STACK
        ARGFRAME IOVERLAY, 0, STATIC
        ARGFRAME DOVERLAY, 0, STATIC
        FUNCALL bdb_Init, ZDO_RegisterForZDOMsg
        LOCFRAME ISTACK, 0, STACK
        LOCFRAME PSTACK, 0, STACK
        LOCFRAME XSTACK, 9, STACK
        LOCFRAME IOVERLAY, 0, STATIC
        LOCFRAME DOVERLAY, 0, STATIC
        ARGFRAME ISTACK, 0, STACK
        ARGFRAME PSTACK, 0, STACK
        ARGFRAME XSTACK, 9, STACK
        ARGFRAME IOVERLAY, 0, STATIC
        ARGFRAME DOVERLAY, 0, STATIC
        FUNCALL bdb_Init, ZDO_RegisterForZDOMsg
        LOCFRAME ISTACK, 0, STACK
        LOCFRAME PSTACK, 0, STACK
        LOCFRAME XSTACK, 9, STACK
        LOCFRAME IOVERLAY, 0, STATIC
        LOCFRAME DOVERLAY, 0, STATIC
        ARGFRAME ISTACK, 0, STACK
        ARGFRAME PSTACK, 0, STACK
        ARGFRAME XSTACK, 9, STACK
        ARGFRAME IOVERLAY, 0, STATIC
        ARGFRAME DOVERLAY, 0, STATIC
        MOV       A,#-0x9
        LCALL     ?BANKED_ENTER_XDATA
          CFI DPH0 load(1, XDATA, add(CFA_XSP16, literal(-1)))
          CFI DPL0 load(1, XDATA, add(CFA_XSP16, literal(-2)))
          CFI ?BRET_EXT load(1, XDATA, add(CFA_XSP16, literal(-3)))
          CFI ?RET_HIGH load(1, XDATA, add(CFA_XSP16, literal(-4)))
          CFI ?RET_LOW load(1, XDATA, add(CFA_XSP16, literal(-5)))
          CFI R7 load(1, XDATA, add(CFA_XSP16, literal(-6)))
          CFI V0 load(1, XDATA, add(CFA_XSP16, literal(-7)))
          CFI VB load(1, XDATA, add(CFA_XSP16, literal(-8)))
          CFI R6 load(1, XDATA, add(CFA_XSP16, literal(-9)))
          CFI CFA_SP SP+0
          CFI CFA_XSP16 add(XSP16, 9)
        ; Saved register size: 9
        ; Auto size: 0
        MOV       A,R1
        MOV       R6,A
//  251   bdb_TaskID = task_id;
        MOV       DPTR,#bdb_TaskID
        MOVX      @DPTR,A
//  252     
//  253 #if (ZG_BUILD_COORDINATOR_TYPE)
//  254   if(ZG_DEVICE_COORDINATOR_TYPE)
//  255   {
//  256     if(bdbAttributes.bdbJoinUsesInstallCodeKey)
//  257     {
//  258       zgAllowInstallCodes = ZG_IC_MUST_USED;
//  259     }
//  260   }
//  261 #endif
//  262   
//  263 #if defined ( INTER_PAN ) && defined ( BDB_TL_INITIATOR )  
//  264   touchLinkInitiator_InitDevice( );
//  265 #endif
//  266 
//  267 #if (BDB_REPORTING)
//  268   bdb_RepInit();
//  269 #endif  
//  270   
//  271   //Register ZDO callbacks
//  272   ZDO_RegisterForZDOMsg ( task_id, Node_Desc_rsp );
        ; Setup parameters for call to function ZDO_RegisterForZDOMsg
        MOV       R2,#0x2
        MOV       R3,#-0x80
        LCALL     `??ZDO_RegisterForZDOMsg::?relay`; Banked call to: ZDO_RegisterForZDOMsg
//  273 #if (BDB_FINDING_BINDING_CAPABILITY_ENABLED==1)  
//  274   ZDO_RegisterForZDOMsg ( task_id, IEEE_addr_rsp );
        ; Setup parameters for call to function ZDO_RegisterForZDOMsg
        MOV       R2,#0x1
        MOV       R3,#-0x80
        MOV       A,R6
        MOV       R1,A
        LCALL     `??ZDO_RegisterForZDOMsg::?relay`; Banked call to: ZDO_RegisterForZDOMsg
//  275   ZDO_RegisterForZDOMsg ( task_id, Simple_Desc_rsp );
        ; Setup parameters for call to function ZDO_RegisterForZDOMsg
        MOV       R2,#0x4
        MOV       R3,#-0x80
        MOV       A,R6
        MOV       R1,A
        LCALL     `??ZDO_RegisterForZDOMsg::?relay`; Banked call to: ZDO_RegisterForZDOMsg
//  276 #endif
//  277   
//  278 #if !defined (DISABLE_GREENPOWER_BASIC_PROXY) && (ZG_BUILD_RTR_TYPE)
//  279   gp_RegisterGPChangeChannelReqForBDBCB(gp_ChangeChannelReq);
//  280   gp_CBInit();
//  281 #endif
//  282 }
        LJMP      ?Subroutine0 & 0xFFFF
          CFI EndBlock cfiBlock0
//  283 
//  284 /*********************************************************************
//  285  * @fn      bdb_RegisterSimpleDescriptor
//  286  *
//  287  * @brief   Register the Simple descriptor. This function also registers 
//  288  *          the profile's cluster conversion table.
//  289  *
//  290  * @param   simpleDesc - a pointer to a valid SimpleDescriptionFormat_t, must not be NULL.
//  291  *
//  292  * @return  none
//  293  */

        RSEG BANKED_CODE:HUGECODE:NOROOT(0)
//  294 void bdb_RegisterSimpleDescriptor( SimpleDescriptionFormat_t *simpleDesc )
bdb_RegisterSimpleDescriptor:
          CFI Block cfiBlock1 Using cfiCommon0
          CFI Function bdb_RegisterSimpleDescriptor
        CODE
//  295 {
        FUNCALL bdb_RegisterSimpleDescriptor, osal_mem_alloc
        LOCFRAME ISTACK, 0, STACK
        LOCFRAME PSTACK, 0, STACK
        LOCFRAME XSTACK, 10, STACK
        LOCFRAME IOVERLAY, 0, STATIC
        LOCFRAME DOVERLAY, 0, STATIC
        ARGFRAME ISTACK, 0, STACK
        ARGFRAME PSTACK, 0, STACK
        ARGFRAME XSTACK, 10, STACK
        ARGFRAME IOVERLAY, 0, STATIC
        ARGFRAME DOVERLAY, 0, STATIC
        FUNCALL bdb_RegisterSimpleDescriptor, afRegister
        LOCFRAME ISTACK, 0, STACK
        LOCFRAME PSTACK, 0, STACK
        LOCFRAME XSTACK, 10, STACK
        LOCFRAME IOVERLAY, 0, STATIC
        LOCFRAME DOVERLAY, 0, STATIC
        ARGFRAME ISTACK, 0, STACK
        ARGFRAME PSTACK, 0, STACK
        ARGFRAME XSTACK, 10, STACK
        ARGFRAME IOVERLAY, 0, STATIC
        ARGFRAME DOVERLAY, 0, STATIC
        REQUIRE ?V0
        REQUIRE ?V1
        MOV       A,#-0xa
        LCALL     ?BANKED_ENTER_XDATA
          CFI DPH0 load(1, XDATA, add(CFA_XSP16, literal(-1)))
          CFI DPL0 load(1, XDATA, add(CFA_XSP16, literal(-2)))
          CFI ?BRET_EXT load(1, XDATA, add(CFA_XSP16, literal(-3)))
          CFI ?RET_HIGH load(1, XDATA, add(CFA_XSP16, literal(-4)))
          CFI ?RET_LOW load(1, XDATA, add(CFA_XSP16, literal(-5)))
          CFI R7 load(1, XDATA, add(CFA_XSP16, literal(-6)))
          CFI V1 load(1, XDATA, add(CFA_XSP16, literal(-7)))
          CFI V0 load(1, XDATA, add(CFA_XSP16, literal(-8)))
          CFI VB load(1, XDATA, add(CFA_XSP16, literal(-9)))
          CFI R6 load(1, XDATA, add(CFA_XSP16, literal(-10)))
          CFI CFA_SP SP+0
          CFI CFA_XSP16 add(XSP16, 10)
        ; Saved register size: 10
        ; Auto size: 0
        MOV       A,R2
        MOV       R6,A
        MOV       A,R3
        MOV       R7,A
//  296   endPointDesc_t *epDesc;
//  297 
//  298   // Register the application's endpoint descriptor
//  299   //  - This memory is allocated and never freed.
//  300   epDesc = osal_mem_alloc( sizeof ( endPointDesc_t ) );
        ; Setup parameters for call to function osal_mem_alloc
        MOV       R2,#0x7
        MOV       R3,#0x0
        LCALL     `??osal_mem_alloc::?relay`; Banked call to: osal_mem_alloc
//  301   if ( epDesc )
        MOV       A,R2
        ORL       A,R3
        JZ        ??bdb_RegisterSimpleDescriptor_0
//  302   {
//  303     // Fill out the endpoint description.
//  304     epDesc->endPoint = simpleDesc->EndPoint;
        MOV       DPL,R6
        MOV       DPH,R7
        MOVX      A,@DPTR
        MOV       DPL,R2
        MOV       DPH,R3
        MOVX      @DPTR,A
//  305     epDesc->task_id = &zcl_TaskID;   // all messages get sent to ZCL first
        INC       DPTR
        INC       DPTR
        MOV       A,#zcl_TaskID & 0xff
        MOVX      @DPTR,A
        INC       DPTR
        MOV       A,#(zcl_TaskID >> 8) & 0xff
        LCALL     ?Subroutine6 & 0xFFFF
//  306     epDesc->simpleDesc = simpleDesc;
??CrossCallReturnLabel_4:
        MOV       A,R6
        MOVX      @DPTR,A
        INC       DPTR
        MOV       A,R7
        LCALL     ?Subroutine6 & 0xFFFF
//  307     epDesc->latencyReq = noLatencyReqs;
??CrossCallReturnLabel_5:
        INC       DPTR
        INC       DPTR
        CLR       A
        MOVX      @DPTR,A
//  308 
//  309     // Register the endpoint description with the AF
//  310     afRegister( epDesc );
        ; Setup parameters for call to function afRegister
        LCALL     `??afRegister::?relay`; Banked call to: afRegister
//  311   }
//  312 }
??bdb_RegisterSimpleDescriptor_0:
        LJMP      ??Subroutine42_0 & 0xFFFF
          CFI EndBlock cfiBlock1

        RSEG BANKED_CODE:HUGECODE:NOROOT(0)
?Subroutine6:
          CFI Block cfiCond2 Using cfiCommon0
          CFI Function bdb_RegisterSimpleDescriptor
          CFI Conditional ??CrossCallReturnLabel_4
          CFI R6 load(1, XDATA, add(CFA_XSP16, literal(-10)))
          CFI VB load(1, XDATA, add(CFA_XSP16, literal(-9)))
          CFI V0 load(1, XDATA, add(CFA_XSP16, literal(-8)))
          CFI V1 load(1, XDATA, add(CFA_XSP16, literal(-7)))
          CFI R7 load(1, XDATA, add(CFA_XSP16, literal(-6)))
          CFI ?RET_LOW load(1, XDATA, add(CFA_XSP16, literal(-5)))
          CFI ?RET_HIGH load(1, XDATA, add(CFA_XSP16, literal(-4)))
          CFI ?BRET_EXT load(1, XDATA, add(CFA_XSP16, literal(-3)))
          CFI DPL0 load(1, XDATA, add(CFA_XSP16, literal(-2)))
          CFI DPH0 load(1, XDATA, add(CFA_XSP16, literal(-1)))
          CFI CFA_SP SP+-2
          CFI CFA_XSP16 add(XSP16, 10)
          CFI Block cfiCond3 Using cfiCommon0
          CFI (cfiCond3) Function bdb_RegisterSimpleDescriptor
          CFI (cfiCond3) Conditional ??CrossCallReturnLabel_5
          CFI (cfiCond3) R6 load(1, XDATA, add(CFA_XSP16, literal(-10)))
          CFI (cfiCond3) VB load(1, XDATA, add(CFA_XSP16, literal(-9)))
          CFI (cfiCond3) V0 load(1, XDATA, add(CFA_XSP16, literal(-8)))
          CFI (cfiCond3) V1 load(1, XDATA, add(CFA_XSP16, literal(-7)))
          CFI (cfiCond3) R7 load(1, XDATA, add(CFA_XSP16, literal(-6)))
          CFI (cfiCond3) ?RET_LOW load(1, XDATA, add(CFA_XSP16, literal(-5)))
          CFI (cfiCond3) ?RET_HIGH load(1, XDATA, add(CFA_XSP16, literal(-4)))
          CFI (cfiCond3) ?BRET_EXT load(1, XDATA, add(CFA_XSP16, literal(-3)))
          CFI (cfiCond3) DPL0 load(1, XDATA, add(CFA_XSP16, literal(-2)))
          CFI (cfiCond3) DPH0 load(1, XDATA, add(CFA_XSP16, literal(-1)))
          CFI (cfiCond3) CFA_SP SP+-2
          CFI (cfiCond3) CFA_XSP16 add(XSP16, 10)
          CFI Block cfiPicker4 Using cfiCommon1
          CFI (cfiPicker4) NoFunction
          CFI (cfiPicker4) Picker
        MOVX      @DPTR,A
        MOV       DPL,R2
        MOV       DPH,R3
        INC       DPTR
        INC       DPTR
        INC       DPTR
        INC       DPTR
        RET
          CFI EndBlock cfiCond2
          CFI EndBlock cfiCond3
          CFI EndBlock cfiPicker4
//  313 
//  314 #if (BDB_FINDING_BINDING_CAPABILITY_ENABLED==1)  
//  315 /*********************************************************************
//  316  * @fn      bdb_ZclIdentifyCmdInd
//  317  *
//  318  * @brief   Callback from the ZCL General Cluster Library when
//  319  *          it received an Identity Command for this application.
//  320  *
//  321  * @param   identifyTime - the number of seconds to identify yourself
//  322  * @param   endpoint - destination endpoint
//  323  *
//  324  * @return  none
//  325  */

        RSEG BANKED_CODE:HUGECODE:NOROOT(0)
//  326 void bdb_ZclIdentifyCmdInd( uint16 identifyTime, uint8 endpoint )
bdb_ZclIdentifyCmdInd:
          CFI Block cfiBlock5 Using cfiCommon0
          CFI Function bdb_ZclIdentifyCmdInd
        CODE
//  327 {
        FUNCALL bdb_ZclIdentifyCmdInd, zclFindAttrRec
        LOCFRAME ISTACK, 0, STACK
        LOCFRAME PSTACK, 0, STACK
        LOCFRAME XSTACK, 22, STACK
        LOCFRAME IOVERLAY, 0, STATIC
        LOCFRAME DOVERLAY, 0, STATIC
        ARGFRAME ISTACK, 0, STACK
        ARGFRAME PSTACK, 0, STACK
        ARGFRAME XSTACK, 22, STACK
        ARGFRAME IOVERLAY, 0, STATIC
        ARGFRAME DOVERLAY, 0, STATIC
        FUNCALL bdb_ZclIdentifyCmdInd, osal_start_timerEx
        LOCFRAME ISTACK, 0, STACK
        LOCFRAME PSTACK, 0, STACK
        LOCFRAME XSTACK, 24, STACK
        LOCFRAME IOVERLAY, 0, STATIC
        LOCFRAME DOVERLAY, 0, STATIC
        ARGFRAME ISTACK, 0, STACK
        ARGFRAME PSTACK, 0, STACK
        ARGFRAME XSTACK, 24, STACK
        ARGFRAME IOVERLAY, 0, STATIC
        ARGFRAME DOVERLAY, 0, STATIC
        FUNCALL bdb_ZclIdentifyCmdInd, osal_stop_timerEx
        LOCFRAME ISTACK, 0, STACK
        LOCFRAME PSTACK, 0, STACK
        LOCFRAME XSTACK, 20, STACK
        LOCFRAME IOVERLAY, 0, STATIC
        LOCFRAME DOVERLAY, 0, STATIC
        ARGFRAME ISTACK, 0, STACK
        ARGFRAME PSTACK, 0, STACK
        ARGFRAME XSTACK, 20, STACK
        ARGFRAME IOVERLAY, 0, STATIC
        ARGFRAME DOVERLAY, 0, STATIC
        REQUIRE ?V0
        REQUIRE ?V2
        REQUIRE ?V3
        MOV       A,#-0xc
        LCALL     ?BANKED_ENTER_XDATA
          CFI DPH0 load(1, XDATA, add(CFA_XSP16, literal(-1)))
          CFI DPL0 load(1, XDATA, add(CFA_XSP16, literal(-2)))
          CFI ?BRET_EXT load(1, XDATA, add(CFA_XSP16, literal(-3)))
          CFI ?RET_HIGH load(1, XDATA, add(CFA_XSP16, literal(-4)))
          CFI ?RET_LOW load(1, XDATA, add(CFA_XSP16, literal(-5)))
          CFI R7 load(1, XDATA, add(CFA_XSP16, literal(-6)))
          CFI V3 load(1, XDATA, add(CFA_XSP16, literal(-7)))
          CFI V2 load(1, XDATA, add(CFA_XSP16, literal(-8)))
          CFI V1 load(1, XDATA, add(CFA_XSP16, literal(-9)))
          CFI V0 load(1, XDATA, add(CFA_XSP16, literal(-10)))
          CFI VB load(1, XDATA, add(CFA_XSP16, literal(-11)))
          CFI R6 load(1, XDATA, add(CFA_XSP16, literal(-12)))
          CFI CFA_SP SP+0
          CFI CFA_XSP16 add(XSP16, 12)
        ; Saved register size: 12
        ; Auto size: 8
        MOV       A,#-0x8
        LCALL     ?ALLOC_XSTACK8
          CFI CFA_XSP16 add(XSP16, 20)
        MOV       A,R2
        MOV       R6,A
        MOV       A,R3
        MOV       R7,A
        MOV       ?V0,R1
//  328   zclAttrRec_t identifyAttrRec;
//  329   
//  330   if ( zclFindAttrRec( endpoint, ZCL_CLUSTER_ID_GEN_IDENTIFY,
//  331                       ATTRID_IDENTIFY_TIME, &identifyAttrRec ) )
        ; Setup parameters for call to function zclFindAttrRec
        MOV       R0,?XSP + 0
        MOV       R1,?XSP + 1
        MOV       ?V2,R0
        MOV       ?V3,R1
        MOV       R0,#?V2
        LCALL     ?PUSH_XSTACK_I_TWO
          CFI CFA_XSP16 add(XSP16, 22)
        MOV       R4,#0x0
        MOV       R5,#0x0
        MOV       R2,#0x3
        MOV       R3,#0x0
        MOV       R1,?V0
        LCALL     `??zclFindAttrRec::?relay`; Banked call to: zclFindAttrRec
        MOV       A,#0x2
        LCALL     ?DEALLOC_XSTACK8
          CFI CFA_XSP16 add(XSP16, 20)
        MOV       A,R1
        JZ        ??bdb_ZclIdentifyCmdInd_0
//  332   {
//  333     //If we are processing an actual change
//  334     if(*(uint16*)identifyAttrRec.attr.dataPtr != identifyTime)
        MOV       A,#0x6
        LCALL     ?XSTACK_DISP0_8
        LCALL     ?Subroutine17 & 0xFFFF
??CrossCallReturnLabel_24:
        MOVX      A,@DPTR
        XRL       A,R6
        JNZ       ??bdb_ZclIdentifyCmdInd_1
        INC       DPTR
        MOVX      A,@DPTR
        XRL       A,R7
??bdb_ZclIdentifyCmdInd_1:
        JZ        ??bdb_ZclIdentifyCmdInd_0
//  335     {
//  336       if ( identifyTime > 0 )
        MOV       A,R6
        ORL       A,R7
        MOV       DPL,R0
        MOV       DPH,R1
        JZ        ??bdb_ZclIdentifyCmdInd_2
//  337       {
//  338         *((uint16*)identifyAttrRec.attr.dataPtr) = identifyTime;
        MOV       A,R6
        MOVX      @DPTR,A
        INC       DPTR
        MOV       A,R7
        MOVX      @DPTR,A
//  339         osal_start_timerEx( bdb_TaskID, BDB_IDENTIFY_TIMEOUT, 1000 );
        ; Setup parameters for call to function osal_start_timerEx
        MOV       DPTR,#__Constant_3e8
        LCALL     ?PUSH_XSTACK8_X_FOUR
          CFI CFA_XSP16 add(XSP16, 24)
        MOV       R2,#0x0
        MOV       R3,#0x20
        MOV       DPTR,#bdb_TaskID
        MOVX      A,@DPTR
        MOV       R1,A
        LCALL     `??osal_start_timerEx::?relay`; Banked call to: osal_start_timerEx
        MOV       A,#0x4
        LCALL     ?DEALLOC_XSTACK8
          CFI CFA_XSP16 add(XSP16, 20)
        SJMP      ??bdb_ZclIdentifyCmdInd_3
//  340       }
//  341       else if ( identifyTime <= 0 )
//  342       {
//  343         *((uint16*)identifyAttrRec.attr.dataPtr) = 0;
??bdb_ZclIdentifyCmdInd_2:
        CLR       A
        MOVX      @DPTR,A
        INC       DPTR
        MOVX      @DPTR,A
//  344         osal_stop_timerEx( bdb_TaskID, BDB_IDENTIFY_TIMEOUT );
        ; Setup parameters for call to function osal_stop_timerEx
        MOV       R2,A
        MOV       R3,#0x20
        MOV       DPTR,#bdb_TaskID
        MOVX      A,@DPTR
        MOV       R1,A
        LCALL     `??osal_stop_timerEx::?relay`; Banked call to: osal_stop_timerEx
//  345       }
//  346       
//  347       if(pfnIdentifyTimeChangeCB != NULL)
??bdb_ZclIdentifyCmdInd_3:
        MOV       DPTR,#pfnIdentifyTimeChangeCB
        LCALL     ??Subroutine37_0 & 0xFFFF
??CrossCallReturnLabel_73:
        JZ        ??bdb_ZclIdentifyCmdInd_0
//  348       {
//  349         pfnIdentifyTimeChangeCB(endpoint);
        ; Setup parameters for indirect call
        MOV       R1,?V0
        LCALL     ??Subroutine35_0 & 0xFFFF
//  350       }
//  351     }
//  352   }
??CrossCallReturnLabel_61:
        LCALL     ?CALL_IND
//  353 }
??bdb_ZclIdentifyCmdInd_0:
        MOV       A,#0x8
        LJMP      ??Subroutine33_0 & 0xFFFF
          CFI EndBlock cfiBlock5
//  354 #endif
//  355 
//  356 
//  357 #if (ZG_BUILD_JOINING_TYPE) 
//  358  /*********************************************************************
//  359  * @fn          bdb_setActiveCentralizedLinkKey
//  360  *
//  361  * @brief       Set the active centralized key to be used, Global or IC derived. See zstack_CentralizedLinkKeyModes_t
//  362  *
//  363  * @param       zstack_CentralizedLinkKeyModes - Key to be used for joining centralized network
//  364  * @param       pKey - Key to be used (if any)
//  365  *
//  366  * @return      ZStatus_t - ZFailure when no valid BDB_INSTALL_CODE_USE is used
//  367  *                          ZInvalidParameter when IC buffer is null
//  368  */

        RSEG BANKED_CODE:HUGECODE:NOROOT(0)
//  369 ZStatus_t bdb_setActiveCentralizedLinkKey(uint8 zstack_CentralizedLinkKeyModes, uint8* pKey)
bdb_setActiveCentralizedLinkKey:
          CFI Block cfiBlock6 Using cfiCommon0
          CFI Function bdb_setActiveCentralizedLinkKey
        CODE
//  370 {
        FUNCALL bdb_setActiveCentralizedLinkKey, osal_memset
        LOCFRAME ISTACK, 0, STACK
        LOCFRAME PSTACK, 0, STACK
        LOCFRAME XSTACK, 17, STACK
        LOCFRAME IOVERLAY, 0, STATIC
        LOCFRAME DOVERLAY, 0, STATIC
        ARGFRAME ISTACK, 0, STACK
        ARGFRAME PSTACK, 0, STACK
        ARGFRAME XSTACK, 17, STACK
        ARGFRAME IOVERLAY, 0, STATIC
        ARGFRAME DOVERLAY, 0, STATIC
        FUNCALL bdb_setActiveCentralizedLinkKey, APSME_SetDefaultKey
        LOCFRAME ISTACK, 0, STACK
        LOCFRAME PSTACK, 0, STACK
        LOCFRAME XSTACK, 17, STACK
        LOCFRAME IOVERLAY, 0, STATIC
        LOCFRAME DOVERLAY, 0, STATIC
        ARGFRAME ISTACK, 0, STACK
        ARGFRAME PSTACK, 0, STACK
        ARGFRAME XSTACK, 17, STACK
        ARGFRAME IOVERLAY, 0, STATIC
        ARGFRAME DOVERLAY, 0, STATIC
        FUNCALL bdb_setActiveCentralizedLinkKey, bdb_addInstallCode
        LOCFRAME ISTACK, 0, STACK
        LOCFRAME PSTACK, 0, STACK
        LOCFRAME XSTACK, 17, STACK
        LOCFRAME IOVERLAY, 0, STATIC
        LOCFRAME DOVERLAY, 0, STATIC
        ARGFRAME ISTACK, 0, STACK
        ARGFRAME PSTACK, 0, STACK
        ARGFRAME XSTACK, 17, STACK
        ARGFRAME IOVERLAY, 0, STATIC
        ARGFRAME DOVERLAY, 0, STATIC
        FUNCALL bdb_setActiveCentralizedLinkKey, APSME_AddTCLinkKey
        LOCFRAME ISTACK, 0, STACK
        LOCFRAME PSTACK, 0, STACK
        LOCFRAME XSTACK, 17, STACK
        LOCFRAME IOVERLAY, 0, STATIC
        LOCFRAME DOVERLAY, 0, STATIC
        ARGFRAME ISTACK, 0, STACK
        ARGFRAME PSTACK, 0, STACK
        ARGFRAME XSTACK, 17, STACK
        ARGFRAME IOVERLAY, 0, STATIC
        ARGFRAME DOVERLAY, 0, STATIC
        REQUIRE ?V0
        MOV       A,#-0x9
        LCALL     ?BANKED_ENTER_XDATA
          CFI DPH0 load(1, XDATA, add(CFA_XSP16, literal(-1)))
          CFI DPL0 load(1, XDATA, add(CFA_XSP16, literal(-2)))
          CFI ?BRET_EXT load(1, XDATA, add(CFA_XSP16, literal(-3)))
          CFI ?RET_HIGH load(1, XDATA, add(CFA_XSP16, literal(-4)))
          CFI ?RET_LOW load(1, XDATA, add(CFA_XSP16, literal(-5)))
          CFI R7 load(1, XDATA, add(CFA_XSP16, literal(-6)))
          CFI V0 load(1, XDATA, add(CFA_XSP16, literal(-7)))
          CFI VB load(1, XDATA, add(CFA_XSP16, literal(-8)))
          CFI R6 load(1, XDATA, add(CFA_XSP16, literal(-9)))
          CFI CFA_SP SP+0
          CFI CFA_XSP16 add(XSP16, 9)
        ; Saved register size: 9
        ; Auto size: 8
        MOV       A,#-0x8
        LCALL     ?ALLOC_XSTACK8
          CFI CFA_XSP16 add(XSP16, 17)
        MOV       ?V0,R1
        MOV       A,R2
        MOV       R6,A
        MOV       A,R3
        MOV       R7,A
//  371   ZStatus_t Status;
//  372 
//  373   uint8 extAddr[Z_EXTADDR_LEN];
//  374 
//  375   osal_memset(extAddr,0x00,Z_EXTADDR_LEN);
        ; Setup parameters for call to function osal_memset
        MOV       R4,#0x8
        MOV       R5,#0x0
        MOV       R1,#0x0
        MOV       R2,?XSP + 0
        MOV       R3,?XSP + 1
        LCALL     `??osal_memset::?relay`; Banked call to: osal_memset
//  376 
//  377   if(pKey == NULL)
        MOV       A,R6
        ORL       A,R7
        JZ        ??bdb_setActiveCentralizedLinkKey_0
//  378   {
//  379     return ZInvalidParameter;
//  380   }
//  381 
//  382   //Clear it, if the request requires it, it will be set
//  383   gZDSECMGR_TC_ATTEMPT_DEFAULT_KEY = FALSE;
        MOV       DPTR,#gZDSECMGR_TC_ATTEMPT_DEFAULT_KEY
        CLR       A
        MOVX      @DPTR,A
//  384 
//  385   switch(zstack_CentralizedLinkKeyModes)
        MOV       A,?V0
        JZ        ??bdb_setActiveCentralizedLinkKey_1
        DEC       A
        JZ        ??bdb_setActiveCentralizedLinkKey_2
        DEC       A
        JZ        ??bdb_setActiveCentralizedLinkKey_3
        DEC       A
        JZ        ??bdb_setActiveCentralizedLinkKey_4
        DEC       A
        JZ        ??bdb_setActiveCentralizedLinkKey_5
        SJMP      ??bdb_setActiveCentralizedLinkKey_0
//  386   {
//  387     case zstack_UseDefaultGlobalTrustCenterLinkKey:
//  388       //Set the default key to be used in centralized networks as defaultTCLinkKey
//  389       Status = APSME_SetDefaultKey();
??bdb_setActiveCentralizedLinkKey_1:
        ; Setup parameters for call to function APSME_SetDefaultKey
        LCALL     `??APSME_SetDefaultKey::?relay`; Banked call to: APSME_SetDefaultKey
        SJMP      ??bdb_setActiveCentralizedLinkKey_6
//  390     break;
//  391 
//  392     case zstack_UseInstallCodeWithFallback:
//  393       //same as zstack_UseInstallCode but attempt default TRUE
//  394       gZDSECMGR_TC_ATTEMPT_DEFAULT_KEY = TRUE;
??bdb_setActiveCentralizedLinkKey_3:
        MOV       A,#0x1
        MOVX      @DPTR,A
//  395     case zstack_UseInstallCode:
//  396        //Set the install code as default key
//  397       Status = bdb_addInstallCode(pKey,extAddr);
??bdb_setActiveCentralizedLinkKey_2:
        ; Setup parameters for call to function bdb_addInstallCode
        MOV       R4,?XSP + 0
        MOV       R5,?XSP + 1
        MOV       A,R6
        MOV       R2,A
        MOV       A,R7
        MOV       R3,A
        LCALL     `??bdb_addInstallCode::?relay`; Banked call to: bdb_addInstallCode
        SJMP      ??bdb_setActiveCentralizedLinkKey_6
//  398     break;
//  399 
//  400     case zstack_UseAPSKeyWithFallback:
//  401       //same as zstack_UseAPSKey but attempt default TRUE
//  402       gZDSECMGR_TC_ATTEMPT_DEFAULT_KEY = TRUE;
??bdb_setActiveCentralizedLinkKey_5:
        MOV       A,#0x1
        MOVX      @DPTR,A
//  403     case zstack_UseAPSKey:
//  404       //Set the key as global default
//  405       Status = APSME_AddTCLinkKey(pKey,extAddr);
??bdb_setActiveCentralizedLinkKey_4:
        ; Setup parameters for call to function APSME_AddTCLinkKey
        MOV       R4,?XSP + 0
        MOV       R5,?XSP + 1
        MOV       A,R6
        MOV       R2,A
        MOV       A,R7
        MOV       R3,A
        LCALL     `??APSME_AddTCLinkKey::?relay`; Banked call to: APSME_AddTCLinkKey
??bdb_setActiveCentralizedLinkKey_6:
        MOV       A,R1
        MOV       R1,A
//  406     break;
        SJMP      ??bdb_setActiveCentralizedLinkKey_7
//  407     
//  408     default:
//  409       Status = ZInvalidParameter;
??bdb_setActiveCentralizedLinkKey_0:
        MOV       R1,#0x2
//  410     break;
//  411   }
//  412 
//  413   return Status;
??bdb_setActiveCentralizedLinkKey_7:
        MOV       A,#0x8
        LCALL     ?DEALLOC_XSTACK8
          CFI CFA_XSP16 add(XSP16, 9)
        LJMP      ?Subroutine0 & 0xFFFF
//  414 }
          CFI EndBlock cfiBlock6
//  415 #endif
//  416 
//  417 
//  418     
//  419   
//  420 /******************************************************************************
//  421  * @fn          bdb_addInstallCode
//  422  *
//  423  * @brief       Interface to add an install codes and adds a APS TC Link key.
//  424  *
//  425  * @param       pInstallCode - [in] Install Code with CRC (buffer size of 18 bytes).
//  426  *              pExt - [in] Extended address of the node.
//  427  *
//  428  * @return      ZStatus_t
//  429  */

        RSEG BANKED_CODE:HUGECODE:NOROOT(0)
//  430 ZStatus_t bdb_addInstallCode(uint8* pInstallCode, uint8* pExt)
bdb_addInstallCode:
          CFI Block cfiBlock7 Using cfiCommon0
          CFI Function bdb_addInstallCode
        CODE
//  431 {
        FUNCALL bdb_addInstallCode, bdb_GenerateInstallCodeCRC
        LOCFRAME ISTACK, 0, STACK
        LOCFRAME PSTACK, 0, STACK
        LOCFRAME XSTACK, 30, STACK
        LOCFRAME IOVERLAY, 0, STATIC
        LOCFRAME DOVERLAY, 0, STATIC
        ARGFRAME ISTACK, 0, STACK
        ARGFRAME PSTACK, 0, STACK
        ARGFRAME XSTACK, 30, STACK
        ARGFRAME IOVERLAY, 0, STATIC
        ARGFRAME DOVERLAY, 0, STATIC
        FUNCALL bdb_addInstallCode, osal_build_uint16
        LOCFRAME ISTACK, 0, STACK
        LOCFRAME PSTACK, 0, STACK
        LOCFRAME XSTACK, 30, STACK
        LOCFRAME IOVERLAY, 0, STATIC
        LOCFRAME DOVERLAY, 0, STATIC
        ARGFRAME ISTACK, 0, STACK
        ARGFRAME PSTACK, 0, STACK
        ARGFRAME XSTACK, 30, STACK
        ARGFRAME IOVERLAY, 0, STATIC
        ARGFRAME DOVERLAY, 0, STATIC
        FUNCALL bdb_addInstallCode, sspMMOHash
        LOCFRAME ISTACK, 0, STACK
        LOCFRAME PSTACK, 0, STACK
        LOCFRAME XSTACK, 34, STACK
        LOCFRAME IOVERLAY, 0, STATIC
        LOCFRAME DOVERLAY, 0, STATIC
        ARGFRAME ISTACK, 0, STACK
        ARGFRAME PSTACK, 0, STACK
        ARGFRAME XSTACK, 34, STACK
        ARGFRAME IOVERLAY, 0, STATIC
        ARGFRAME DOVERLAY, 0, STATIC
        FUNCALL bdb_addInstallCode, APSME_AddTCLinkKey
        LOCFRAME ISTACK, 0, STACK
        LOCFRAME PSTACK, 0, STACK
        LOCFRAME XSTACK, 30, STACK
        LOCFRAME IOVERLAY, 0, STATIC
        LOCFRAME DOVERLAY, 0, STATIC
        ARGFRAME ISTACK, 0, STACK
        ARGFRAME PSTACK, 0, STACK
        ARGFRAME XSTACK, 30, STACK
        ARGFRAME IOVERLAY, 0, STATIC
        ARGFRAME DOVERLAY, 0, STATIC
        REQUIRE ?V0
        REQUIRE ?V1
        REQUIRE ?V2
        REQUIRE ?V3
        REQUIRE ?V4
        REQUIRE ?V5
        MOV       A,#-0xe
        LCALL     ?BANKED_ENTER_XDATA
          CFI DPH0 load(1, XDATA, add(CFA_XSP16, literal(-1)))
          CFI DPL0 load(1, XDATA, add(CFA_XSP16, literal(-2)))
          CFI ?BRET_EXT load(1, XDATA, add(CFA_XSP16, literal(-3)))
          CFI ?RET_HIGH load(1, XDATA, add(CFA_XSP16, literal(-4)))
          CFI ?RET_LOW load(1, XDATA, add(CFA_XSP16, literal(-5)))
          CFI R7 load(1, XDATA, add(CFA_XSP16, literal(-6)))
          CFI V5 load(1, XDATA, add(CFA_XSP16, literal(-7)))
          CFI V4 load(1, XDATA, add(CFA_XSP16, literal(-8)))
          CFI V3 load(1, XDATA, add(CFA_XSP16, literal(-9)))
          CFI V2 load(1, XDATA, add(CFA_XSP16, literal(-10)))
          CFI V1 load(1, XDATA, add(CFA_XSP16, literal(-11)))
          CFI V0 load(1, XDATA, add(CFA_XSP16, literal(-12)))
          CFI VB load(1, XDATA, add(CFA_XSP16, literal(-13)))
          CFI R6 load(1, XDATA, add(CFA_XSP16, literal(-14)))
          CFI CFA_SP SP+0
          CFI CFA_XSP16 add(XSP16, 14)
        ; Saved register size: 14
        ; Auto size: 16
        MOV       A,#-0x10
        LCALL     ?ALLOC_XSTACK8
          CFI CFA_XSP16 add(XSP16, 30)
        MOV       A,R2
        MOV       R6,A
        MOV       A,R3
        MOV       R7,A
        MOV       ?V0,R4
        MOV       ?V1,R5
//  432   uint8  hashOutput[16];
//  433   uint16 CRC;
//  434   
//  435 #if (ZG_BUILD_COORDINATOR_TYPE)
//  436   if(ZG_DEVICE_COORDINATOR_TYPE)
//  437   {
//  438     if(zgAllowInstallCodes == ZG_IC_NOT_SUPPORTED)
//  439     {
//  440       return ZFailure;
//  441     }
//  442   }
//  443 #endif
//  444        
//  445   if((pInstallCode == NULL) || (pExt == NULL))
        MOV       A,R6
        ORL       A,R7
        JZ        ??bdb_addInstallCode_0
        MOV       A,R4
        ORL       A,?V1
        JZ        ??bdb_addInstallCode_0
//  446   {
//  447     return ZInvalidParameter;
//  448   }
//  449   
//  450   CRC = bdb_GenerateInstallCodeCRC(pInstallCode);
        ; Setup parameters for call to function bdb_GenerateInstallCodeCRC
        LCALL     `??bdb_GenerateInstallCodeCRC::?relay`; Banked call to: bdb_GenerateInstallCodeCRC
        MOV       ?V2,R2
        MOV       ?V3,R3
//  451 
//  452   //Validate CRC
//  453   if(CRC != osal_build_uint16(&pInstallCode[INSTALL_CODE_LEN]))
        ; Setup parameters for call to function osal_build_uint16
        MOV       A,R6
        ADD       A,#0x10
        MOV       R2,A
        CLR       A
        ADDC      A,R7
        MOV       R3,A
        LCALL     `??osal_build_uint16::?relay`; Banked call to: osal_build_uint16
        MOV       A,R2
        XRL       A,?V2
        JNZ       ??bdb_addInstallCode_1
        MOV       A,R3
        XRL       A,?V3
??bdb_addInstallCode_1:
        JZ        ??bdb_addInstallCode_2
//  454   {
//  455     return ZInvalidParameter;
??bdb_addInstallCode_0:
        MOV       R1,#0x2
        SJMP      ??bdb_addInstallCode_3
//  456   }
//  457 
//  458   sspMMOHash (NULL, 0, pInstallCode,(INSTALL_CODE_LEN + INSTALL_CODE_CRC_LEN) * BITS_PER_BYTE, hashOutput);
??bdb_addInstallCode_2:
        ; Setup parameters for call to function sspMMOHash
        MOV       R0,?XSP + 0
        MOV       R1,?XSP + 1
        MOV       ?V2,R0
        MOV       ?V3,R1
        MOV       R0,#?V2
        LCALL     ?PUSH_XSTACK_I_TWO
          CFI CFA_XSP16 add(XSP16, 32)
        MOV       ?V2,#-0x70
        MOV       ?V3,#0x0
        MOV       R0,#?V2
        LCALL     ?PUSH_XSTACK_I_TWO
          CFI CFA_XSP16 add(XSP16, 34)
        MOV       A,R6
        MOV       R4,A
        MOV       A,R7
        MOV       R5,A
        MOV       R1,#0x0
        MOV       R2,#0x0
        MOV       R3,#0x0
        LCALL     `??sspMMOHash::?relay`; Banked call to: sspMMOHash
        MOV       A,#0x4
        LCALL     ?DEALLOC_XSTACK8
          CFI CFA_XSP16 add(XSP16, 30)
//  459 
//  460   return APSME_AddTCLinkKey(hashOutput,pExt);
        ; Setup parameters for call to function APSME_AddTCLinkKey
        MOV       R4,?V0
        MOV       R5,?V1
        MOV       R2,?XSP + 0
        MOV       R3,?XSP + 1
        LCALL     `??APSME_AddTCLinkKey::?relay`; Banked call to: APSME_AddTCLinkKey
??bdb_addInstallCode_3:
        MOV       A,#0x10
        LCALL     ?DEALLOC_XSTACK8
          CFI CFA_XSP16 add(XSP16, 14)
        MOV       R7,#0x6
        LJMP      ?BANKED_LEAVE_XDATA
//  461 }    
          CFI EndBlock cfiBlock7
//  462     
//  463 
//  464 #if (ZG_BUILD_COORDINATOR_TYPE)
//  465  /*********************************************************************
//  466  * @fn      bdb_RegisterTCLinkKeyExchangeProcessCB
//  467  *
//  468  * @brief   Register a callback to receive notifications on the joining devices 
//  469  *          and its status on TC link key exchange
//  470  *
//  471  * @param   bdbGCB_TCLinkKeyExchangeProcess - application callback 
//  472  *          (extended address of device, status: 0 = Joining, 1 = TC link key exchange success, 2 = TC link key exchange failed)
//  473  *
//  474  * @return  none
//  475  */
//  476 void bdb_RegisterTCLinkKeyExchangeProcessCB(bdbGCB_TCLinkKeyExchangeProcess_t bdbGCB_TCLinkKeyExchangeProcess)
//  477 {
//  478   if(bdbGCB_TCLinkKeyExchangeProcess != NULL)
//  479   {
//  480     pfnTCLinkKeyExchangeProcessCB = bdbGCB_TCLinkKeyExchangeProcess;
//  481   }
//  482 }
//  483 
//  484 
//  485 
//  486  /*********************************************************************
//  487  * @fn          bdb_setTCRequireKeyExchange
//  488  *
//  489  * @brief       Set the bdb_setTCRequireKeyExchange attribute
//  490  *
//  491  * @param       isKeyExchangeRequired - True if TC will remove devices that do 
//  492  *              not perform key exchange after bdbTrustCenterNodeJoinTimeout, 
//  493  *              False to not remove devices.
//  494  *
//  495  * @return      none
//  496  */
//  497 void bdb_setTCRequireKeyExchange(bool isKeyExchangeRequired)
//  498 {
//  499   bdbAttributes.bdbTrustCenterRequireKeyExchange = isKeyExchangeRequired;
//  500 }
//  501 
//  502 
//  503 
//  504  /*********************************************************************
//  505  * @fn          bdb_TCAddJoiningDevice
//  506  *
//  507  * @brief       Add a joining device to the list of devices that must request a 
//  508  *              key before bdbTrustCenterNodeJoinTimeout.
//  509  *
//  510  * @param       parentAddr - Address of the parent device
//  511  * @param       JoiningExtAddr - IEEE address of the joining device
//  512  *
//  513  * @return      ZStatus_t - ZFailure No memory to allocate the device in the list
//  514  *                          ZInvalidParameter
//  515  */
//  516 ZStatus_t bdb_TCAddJoiningDevice(uint16 parentAddr, uint8* JoiningExtAddr)
//  517 {
//  518   bdb_joiningDeviceList_t* tempJoiningDescNode;
//  519   
//  520   if((parentAddr == INVALID_NODE_ADDR) || (JoiningExtAddr == NULL))
//  521   {
//  522     return ZInvalidParameter;
//  523   }
//  524   
//  525   //If the list was empty and element was allocated, then start the timer
//  526   if(bdb_joiningDeviceList == NULL)
//  527   {
//  528     bdb_joiningDeviceList = osal_mem_alloc(sizeof(bdb_joiningDeviceList_t));
//  529     if(bdb_joiningDeviceList == NULL)
//  530     {
//  531       return ZFailure;
//  532     }
//  533    
//  534     osal_start_reload_timer(bdb_TaskID,BDB_TC_JOIN_TIMEOUT,1000);
//  535     tempJoiningDescNode = bdb_joiningDeviceList;
//  536   }
//  537   //if the list was not empty then add the entry at the end of the list
//  538   else
//  539   {
//  540     tempJoiningDescNode = bdb_joiningDeviceList;
//  541     
//  542     //Validate that this is not already in the list... somehow
//  543     if(osal_memcmp(JoiningExtAddr,tempJoiningDescNode->bdbJoiningNodeEui64,Z_EXTADDR_LEN))
//  544     {
//  545       //The device added is already in the list, refresh its time and do nothing else
//  546       tempJoiningDescNode->NodeJoinTimeout = bdbAttributes.bdbTrustCenterNodeJoinTimeout;
//  547       return ZSuccess;
//  548     }
//  549     
//  550     while(tempJoiningDescNode->nextDev != NULL)
//  551     {
//  552       tempJoiningDescNode = tempJoiningDescNode->nextDev;
//  553       
//  554       //Validate that this is not already in the list... somehow
//  555       if(osal_memcmp(JoiningExtAddr,tempJoiningDescNode->bdbJoiningNodeEui64,Z_EXTADDR_LEN))
//  556       {
//  557         //The device added is already in the list, refresh its time and do nothing else
//  558         tempJoiningDescNode->NodeJoinTimeout = bdbAttributes.bdbTrustCenterNodeJoinTimeout;
//  559         return ZSuccess;
//  560       }
//  561     }
//  562     
//  563     tempJoiningDescNode->nextDev = osal_mem_alloc(sizeof(bdb_joiningDeviceList_t));
//  564     if(tempJoiningDescNode->nextDev == NULL)
//  565     {
//  566       return ZFailure;
//  567     }
//  568     
//  569     tempJoiningDescNode = tempJoiningDescNode->nextDev;
//  570   }
//  571   
//  572   if(pfnTCLinkKeyExchangeProcessCB)
//  573   {
//  574     bdb_TCLinkKeyExchProcess_t bdb_TCLinkKeyExchProcess;
//  575     osal_memcpy(bdb_TCLinkKeyExchProcess.extAddr,tempJoiningDescNode->bdbJoiningNodeEui64, Z_EXTADDR_LEN);
//  576     bdb_TCLinkKeyExchProcess.status = BDB_TC_LK_EXCH_PROCESS_JOINING;
//  577     
//  578     bdb_SendMsg(bdb_TaskID, BDB_TC_LINK_KEY_EXCHANGE_PROCESS, BDB_MSG_EVENT_SUCCESS,sizeof(bdb_TCLinkKeyExchProcess_t),(uint8*)&bdb_TCLinkKeyExchProcess);
//  579   }
//  580   
//  581   tempJoiningDescNode->nextDev = NULL;
//  582   tempJoiningDescNode->NodeJoinTimeout = bdbAttributes.bdbTrustCenterNodeJoinTimeout;
//  583   tempJoiningDescNode->parentAddr = parentAddr;
//  584   osal_memcpy(tempJoiningDescNode->bdbJoiningNodeEui64, JoiningExtAddr, Z_EXTADDR_LEN);
//  585   
//  586   return ZSuccess;
//  587 }
//  588 
//  589 /****************************************************************************
//  590  * @fn          bdb_TCProcessJoiningList
//  591  *
//  592  * @brief       Process the timer to handle the joining devices if the TC link 
//  593  *              key is mandatory for all devices
//  594  *
//  595  * @param       none
//  596  *
//  597  * @return      none
//  598  */
//  599 void bdb_TCProcessJoiningList(void)
//  600 {
//  601   bdb_joiningDeviceList_t* tempJoiningDescNode;
//  602   
//  603   if(bdb_joiningDeviceList)
//  604   {
//  605     tempJoiningDescNode = bdb_joiningDeviceList;
//  606   
//  607     while(tempJoiningDescNode)
//  608     {
//  609       if(tempJoiningDescNode->NodeJoinTimeout)
//  610       {
//  611         tempJoiningDescNode->NodeJoinTimeout--;
//  612       }
//  613       
//  614       if(tempJoiningDescNode->NodeJoinTimeout == 0)
//  615       {
//  616         //Check if the key exchange is required 
//  617         if(bdb_doTrustCenterRequireKeyExchange())
//  618         {
//  619             AddrMgrEntry_t entry;
//  620             
//  621             entry.user = ADDRMGR_USER_DEFAULT;
//  622             osal_memcpy(entry.extAddr,tempJoiningDescNode->bdbJoiningNodeEui64, Z_EXTADDR_LEN);
//  623             
//  624             if(AddrMgrEntryLookupExt(&entry))
//  625             {
//  626               ZDSecMgrAPSRemove(entry.nwkAddr,entry.extAddr,tempJoiningDescNode->parentAddr);
//  627             }
//  628         }
//  629         
//  630         //Expired device either is legacy device not using the TCLK entry or got 
//  631         //removed from the network because of timeout, eitherway it is not using
//  632         //TCLK entry neither the Security user in the address manager, so free the entry
//  633         //in both tables.
//  634         
//  635         uint16 keyNvIndex;
//  636         uint16 index;        
//  637         APSME_TCLKDevEntry_t TCLKDevEntry;
//  638         uint8 found;
//  639         
//  640         //Remove the entry in address manager
//  641         ZDSecMgrAddrClear(tempJoiningDescNode->bdbJoiningNodeEui64);
//  642         
//  643         //search for the entry in the TCLK table
//  644         keyNvIndex = APSME_SearchTCLinkKeyEntry(tempJoiningDescNode->bdbJoiningNodeEui64,&found, NULL);
//  645         
//  646         //If found, erase it.
//  647         if(found == TRUE)
//  648         {
//  649           osal_memset(&TCLKDevEntry,0,sizeof(APSME_TCLKDevEntry_t));
//  650           TCLKDevEntry.keyAttributes = ZG_DEFAULT_KEY;
//  651           
//  652           //Increase the shift by one. Validate the maximum shift of the seed which is 15
//  653           index = keyNvIndex - ZCD_NV_TCLK_TABLE_START;
//  654           
//  655           TCLinkKeyFrmCntr[index].rxFrmCntr = 0;
//  656           TCLinkKeyFrmCntr[index].txFrmCntr = 0;
//  657           
//  658           //Update the entry
//  659           osal_nv_write(keyNvIndex,0,sizeof(APSME_TCLKDevEntry_t), &TCLKDevEntry );
//  660         }
//  661         
//  662         if(pfnTCLinkKeyExchangeProcessCB)
//  663         {
//  664           bdb_TCLinkKeyExchProcess_t bdb_TCLinkKeyExchProcess;
//  665           osal_memcpy(bdb_TCLinkKeyExchProcess.extAddr,tempJoiningDescNode->bdbJoiningNodeEui64, Z_EXTADDR_LEN);
//  666           bdb_TCLinkKeyExchProcess.status = BDB_TC_LK_EXCH_PROCESS_EXCH_FAIL;
//  667           
//  668           bdb_SendMsg(bdb_TaskID, BDB_TC_LINK_KEY_EXCHANGE_PROCESS, BDB_MSG_EVENT_SUCCESS,sizeof(bdb_TCLinkKeyExchProcess_t),(uint8*)&bdb_TCLinkKeyExchProcess);
//  669         }
//  670        
//  671         //Free the device from the list
//  672         bdb_TCJoiningDeviceFree(tempJoiningDescNode);
//  673       }
//  674       tempJoiningDescNode = tempJoiningDescNode->nextDev;
//  675     }
//  676   }
//  677 
//  678   //we are done with the list
//  679   if(bdb_joiningDeviceList == NULL)
//  680   {
//  681     osal_stop_timerEx(bdb_TaskID,BDB_TC_JOIN_TIMEOUT);
//  682   }
//  683 }
//  684 
//  685 
//  686 
//  687 /****************************************************************************
//  688  * @fn          bdb_TCjoiningDeviceComplete
//  689  *
//  690  * @brief       This function frees a joining device from the list that has 
//  691  *              finished TC link key exchange process
//  692  *
//  693  * @param       JoiningExtAddr - Extended address of the device
//  694  *
//  695  * @return      none
//  696  */
//  697 void bdb_TCjoiningDeviceComplete(uint8* JoiningExtAddr)
//  698 {
//  699   bdb_joiningDeviceList_t* tempJoiningDescNode;
//  700   
//  701   if((bdb_joiningDeviceList != NULL) && (JoiningExtAddr != NULL))
//  702   {
//  703     tempJoiningDescNode = bdb_joiningDeviceList;
//  704     
//  705     while(tempJoiningDescNode != NULL)
//  706     {
//  707       if(osal_memcmp(tempJoiningDescNode->bdbJoiningNodeEui64,JoiningExtAddr,Z_EXTADDR_LEN))
//  708       {
//  709         if(pfnTCLinkKeyExchangeProcessCB)
//  710         {
//  711           bdb_TCLinkKeyExchProcess_t bdb_TCLinkKeyExchProcess;
//  712           osal_memcpy(bdb_TCLinkKeyExchProcess.extAddr,tempJoiningDescNode->bdbJoiningNodeEui64, Z_EXTADDR_LEN);
//  713           bdb_TCLinkKeyExchProcess.status = BDB_TC_LK_EXCH_PROCESS_EXCH_SUCCESS;
//  714           
//  715           bdb_SendMsg(bdb_TaskID, BDB_TC_LINK_KEY_EXCHANGE_PROCESS, BDB_MSG_EVENT_SUCCESS,sizeof(bdb_TCLinkKeyExchProcess_t),(uint8*)&bdb_TCLinkKeyExchProcess);
//  716         }        
//  717         
//  718         bdb_TCJoiningDeviceFree(tempJoiningDescNode);
//  719         break;
//  720       }
//  721       tempJoiningDescNode = tempJoiningDescNode->nextDev;
//  722     }
//  723    
//  724     if(bdb_joiningDeviceList == NULL)
//  725     {
//  726       osal_stop_timerEx(bdb_TaskID,BDB_TC_JOIN_TIMEOUT);
//  727     }
//  728   }
//  729 }
//  730 
//  731 
//  732 
//  733 /****************************************************************************
//  734  * @fn          bdb_TCJoiningDeviceFree
//  735  *
//  736  * @brief       This function frees a joining device from the list.
//  737  *
//  738  * @param       ZSuccess - If the device was found and erased
//  739  * @param       ZInvalidParameter - Not found
//  740  *
//  741  * @return      none
//  742  */
//  743 ZStatus_t bdb_TCJoiningDeviceFree(bdb_joiningDeviceList_t* JoiningDeviceToRemove)
//  744 {
//  745   bdb_joiningDeviceList_t* descCurrent;
//  746   bdb_joiningDeviceList_t* descPrev;
//  747   
//  748   //validate empty list?
//  749   
//  750   //Is it the first?
//  751   if(osal_memcmp(bdb_joiningDeviceList->bdbJoiningNodeEui64, JoiningDeviceToRemove->bdbJoiningNodeEui64, Z_EXTADDR_LEN))
//  752   {
//  753     descCurrent = bdb_joiningDeviceList;
//  754     bdb_joiningDeviceList = bdb_joiningDeviceList->nextDev;
//  755     osal_mem_free( descCurrent );
//  756     return ZSuccess;
//  757   }
//  758   
//  759   descPrev = NULL;
//  760   descCurrent = bdb_joiningDeviceList;
//  761   
//  762   while(descCurrent != NULL)
//  763   {
//  764     if(osal_memcmp(descCurrent->nextDev->bdbJoiningNodeEui64, JoiningDeviceToRemove->bdbJoiningNodeEui64, Z_EXTADDR_LEN))
//  765     {
//  766       descPrev = descCurrent;
//  767       break;
//  768     }
//  769     descCurrent = descCurrent->nextDev;
//  770   }
//  771   if(descPrev == NULL)
//  772   {
//  773     //Not found
//  774     return ZInvalidParameter;
//  775   }
//  776   
//  777   descPrev->nextDev = descPrev->nextDev->nextDev;
//  778     
//  779   osal_mem_free( JoiningDeviceToRemove );
//  780   return ZSuccess;
//  781 
//  782 }
//  783 
//  784  /*********************************************************************
//  785  * @fn          bdb_setJoinUsesInstallCodeKey
//  786  *
//  787  * @brief       Set BDB attribute bdbJoinUsesInstallCodeKey.
//  788  *
//  789  * @param       set - If TRUE only devices with IC register in TC can join the 
//  790  *              nwk, otherwise devices may or not have a IC register
//  791  *
//  792  * @return      none
//  793  */
//  794 void bdb_setJoinUsesInstallCodeKey(bool set)
//  795 {
//  796   bdbAttributes.bdbJoinUsesInstallCodeKey = set;
//  797   if(set)
//  798   {
//  799     zgAllowInstallCodes = ZG_IC_MUST_USED;
//  800   }
//  801   else
//  802   {
//  803     zgAllowInstallCodes = ZG_IC_SUPPORTED_NOT_REQUIRED;
//  804   }
//  805 }
//  806 #endif
//  807 
//  808  /*********************************************************************
//  809  * @fn          bdb_StartCommissioning
//  810  *
//  811  * @brief       Start the commissioning process setting the commissioning mode given.
//  812  *
//  813  * @param       mode - refer to bdbCommissioningMode
//  814  *
//  815  * @return      none
//  816  */

        RSEG BANKED_CODE:HUGECODE:NOROOT(0)
//  817 void bdb_StartCommissioning(uint8 mode)
bdb_StartCommissioning:
          CFI Block cfiBlock8 Using cfiCommon0
          CFI Function bdb_StartCommissioning
        CODE
//  818 {
        FUNCALL bdb_StartCommissioning, osal_get_timeoutEx
        LOCFRAME ISTACK, 0, STACK
        LOCFRAME PSTACK, 0, STACK
        LOCFRAME XSTACK, 32, STACK
        LOCFRAME IOVERLAY, 0, STATIC
        LOCFRAME DOVERLAY, 0, STATIC
        ARGFRAME ISTACK, 0, STACK
        ARGFRAME PSTACK, 0, STACK
        ARGFRAME XSTACK, 32, STACK
        ARGFRAME IOVERLAY, 0, STATIC
        ARGFRAME DOVERLAY, 0, STATIC
        FUNCALL bdb_StartCommissioning, bdb_nwkSteeringDeviceOnNwk
        LOCFRAME ISTACK, 0, STACK
        LOCFRAME PSTACK, 0, STACK
        LOCFRAME XSTACK, 32, STACK
        LOCFRAME IOVERLAY, 0, STATIC
        LOCFRAME DOVERLAY, 0, STATIC
        ARGFRAME ISTACK, 0, STACK
        ARGFRAME PSTACK, 0, STACK
        ARGFRAME XSTACK, 32, STACK
        ARGFRAME IOVERLAY, 0, STATIC
        ARGFRAME DOVERLAY, 0, STATIC
        FUNCALL bdb_StartCommissioning, bdb_reportCommissioningState
        LOCFRAME ISTACK, 0, STACK
        LOCFRAME PSTACK, 0, STACK
        LOCFRAME XSTACK, 32, STACK
        LOCFRAME IOVERLAY, 0, STATIC
        LOCFRAME DOVERLAY, 0, STATIC
        ARGFRAME ISTACK, 0, STACK
        ARGFRAME PSTACK, 0, STACK
        ARGFRAME XSTACK, 32, STACK
        ARGFRAME IOVERLAY, 0, STATIC
        ARGFRAME DOVERLAY, 0, STATIC
        FUNCALL bdb_StartCommissioning, osal_nv_read
        LOCFRAME ISTACK, 0, STACK
        LOCFRAME PSTACK, 0, STACK
        LOCFRAME XSTACK, 36, STACK
        LOCFRAME IOVERLAY, 0, STATIC
        LOCFRAME DOVERLAY, 0, STATIC
        ARGFRAME ISTACK, 0, STACK
        ARGFRAME PSTACK, 0, STACK
        ARGFRAME XSTACK, 36, STACK
        ARGFRAME IOVERLAY, 0, STATIC
        ARGFRAME DOVERLAY, 0, STATIC
        FUNCALL bdb_StartCommissioning, osal_isbufset
        LOCFRAME ISTACK, 0, STACK
        LOCFRAME PSTACK, 0, STACK
        LOCFRAME XSTACK, 32, STACK
        LOCFRAME IOVERLAY, 0, STATIC
        LOCFRAME DOVERLAY, 0, STATIC
        ARGFRAME ISTACK, 0, STACK
        ARGFRAME PSTACK, 0, STACK
        ARGFRAME XSTACK, 32, STACK
        ARGFRAME IOVERLAY, 0, STATIC
        ARGFRAME DOVERLAY, 0, STATIC
        FUNCALL bdb_StartCommissioning, APSME_IsDistributedSecurity
        LOCFRAME ISTACK, 0, STACK
        LOCFRAME PSTACK, 0, STACK
        LOCFRAME XSTACK, 32, STACK
        LOCFRAME IOVERLAY, 0, STATIC
        LOCFRAME DOVERLAY, 0, STATIC
        ARGFRAME ISTACK, 0, STACK
        ARGFRAME PSTACK, 0, STACK
        ARGFRAME XSTACK, 32, STACK
        ARGFRAME IOVERLAY, 0, STATIC
        ARGFRAME DOVERLAY, 0, STATIC
        FUNCALL bdb_StartCommissioning, osal_nv_read
        LOCFRAME ISTACK, 0, STACK
        LOCFRAME PSTACK, 0, STACK
        LOCFRAME XSTACK, 36, STACK
        LOCFRAME IOVERLAY, 0, STATIC
        LOCFRAME DOVERLAY, 0, STATIC
        ARGFRAME ISTACK, 0, STACK
        ARGFRAME PSTACK, 0, STACK
        ARGFRAME XSTACK, 36, STACK
        ARGFRAME IOVERLAY, 0, STATIC
        ARGFRAME DOVERLAY, 0, STATIC
        FUNCALL bdb_StartCommissioning, osal_memset
        LOCFRAME ISTACK, 0, STACK
        LOCFRAME PSTACK, 0, STACK
        LOCFRAME XSTACK, 32, STACK
        LOCFRAME IOVERLAY, 0, STATIC
        LOCFRAME DOVERLAY, 0, STATIC
        ARGFRAME ISTACK, 0, STACK
        ARGFRAME PSTACK, 0, STACK
        ARGFRAME XSTACK, 32, STACK
        ARGFRAME IOVERLAY, 0, STATIC
        ARGFRAME DOVERLAY, 0, STATIC
        FUNCALL bdb_StartCommissioning, osal_nv_write
        LOCFRAME ISTACK, 0, STACK
        LOCFRAME PSTACK, 0, STACK
        LOCFRAME XSTACK, 36, STACK
        LOCFRAME IOVERLAY, 0, STATIC
        LOCFRAME DOVERLAY, 0, STATIC
        ARGFRAME ISTACK, 0, STACK
        ARGFRAME PSTACK, 0, STACK
        ARGFRAME XSTACK, 36, STACK
        ARGFRAME IOVERLAY, 0, STATIC
        ARGFRAME DOVERLAY, 0, STATIC
        FUNCALL bdb_StartCommissioning, osal_nv_write
        LOCFRAME ISTACK, 0, STACK
        LOCFRAME PSTACK, 0, STACK
        LOCFRAME XSTACK, 36, STACK
        LOCFRAME IOVERLAY, 0, STATIC
        LOCFRAME DOVERLAY, 0, STATIC
        ARGFRAME ISTACK, 0, STACK
        ARGFRAME PSTACK, 0, STACK
        ARGFRAME XSTACK, 36, STACK
        ARGFRAME IOVERLAY, 0, STATIC
        ARGFRAME DOVERLAY, 0, STATIC
        FUNCALL bdb_StartCommissioning, zgWriteStartupOptions
        LOCFRAME ISTACK, 0, STACK
        LOCFRAME PSTACK, 0, STACK
        LOCFRAME XSTACK, 32, STACK
        LOCFRAME IOVERLAY, 0, STATIC
        LOCFRAME DOVERLAY, 0, STATIC
        ARGFRAME ISTACK, 0, STACK
        ARGFRAME PSTACK, 0, STACK
        ARGFRAME XSTACK, 32, STACK
        ARGFRAME IOVERLAY, 0, STATIC
        ARGFRAME DOVERLAY, 0, STATIC
        FUNCALL bdb_StartCommissioning, osal_set_event
        LOCFRAME ISTACK, 0, STACK
        LOCFRAME PSTACK, 0, STACK
        LOCFRAME XSTACK, 32, STACK
        LOCFRAME IOVERLAY, 0, STATIC
        LOCFRAME DOVERLAY, 0, STATIC
        ARGFRAME ISTACK, 0, STACK
        ARGFRAME PSTACK, 0, STACK
        ARGFRAME XSTACK, 32, STACK
        ARGFRAME IOVERLAY, 0, STATIC
        ARGFRAME DOVERLAY, 0, STATIC
        FUNCALL bdb_StartCommissioning, ZDOInitDeviceEx
        LOCFRAME ISTACK, 0, STACK
        LOCFRAME PSTACK, 0, STACK
        LOCFRAME XSTACK, 32, STACK
        LOCFRAME IOVERLAY, 0, STATIC
        LOCFRAME DOVERLAY, 0, STATIC
        ARGFRAME ISTACK, 0, STACK
        ARGFRAME PSTACK, 0, STACK
        ARGFRAME XSTACK, 32, STACK
        ARGFRAME IOVERLAY, 0, STATIC
        ARGFRAME DOVERLAY, 0, STATIC
        FUNCALL bdb_StartCommissioning, bdb_setNodeIsOnANetwork
        LOCFRAME ISTACK, 0, STACK
        LOCFRAME PSTACK, 0, STACK
        LOCFRAME XSTACK, 32, STACK
        LOCFRAME IOVERLAY, 0, STATIC
        LOCFRAME DOVERLAY, 0, STATIC
        ARGFRAME ISTACK, 0, STACK
        ARGFRAME PSTACK, 0, STACK
        ARGFRAME XSTACK, 32, STACK
        ARGFRAME IOVERLAY, 0, STATIC
        ARGFRAME DOVERLAY, 0, STATIC
        FUNCALL bdb_StartCommissioning, bdb_reportCommissioningState
        LOCFRAME ISTACK, 0, STACK
        LOCFRAME PSTACK, 0, STACK
        LOCFRAME XSTACK, 32, STACK
        LOCFRAME IOVERLAY, 0, STATIC
        LOCFRAME DOVERLAY, 0, STATIC
        ARGFRAME ISTACK, 0, STACK
        ARGFRAME PSTACK, 0, STACK
        ARGFRAME XSTACK, 32, STACK
        ARGFRAME IOVERLAY, 0, STATIC
        ARGFRAME DOVERLAY, 0, STATIC
        FUNCALL bdb_StartCommissioning, bdb_reportCommissioningState
        LOCFRAME ISTACK, 0, STACK
        LOCFRAME PSTACK, 0, STACK
        LOCFRAME XSTACK, 32, STACK
        LOCFRAME IOVERLAY, 0, STATIC
        LOCFRAME DOVERLAY, 0, STATIC
        ARGFRAME ISTACK, 0, STACK
        ARGFRAME PSTACK, 0, STACK
        ARGFRAME XSTACK, 32, STACK
        ARGFRAME IOVERLAY, 0, STATIC
        ARGFRAME DOVERLAY, 0, STATIC
        FUNCALL bdb_StartCommissioning, osal_set_event
        LOCFRAME ISTACK, 0, STACK
        LOCFRAME PSTACK, 0, STACK
        LOCFRAME XSTACK, 32, STACK
        LOCFRAME IOVERLAY, 0, STATIC
        LOCFRAME DOVERLAY, 0, STATIC
        ARGFRAME ISTACK, 0, STACK
        ARGFRAME PSTACK, 0, STACK
        ARGFRAME XSTACK, 32, STACK
        ARGFRAME IOVERLAY, 0, STATIC
        ARGFRAME DOVERLAY, 0, STATIC
        REQUIRE ?V0
        REQUIRE ?V2
        REQUIRE ?V3
        MOV       A,#-0xc
        LCALL     ?BANKED_ENTER_XDATA
          CFI DPH0 load(1, XDATA, add(CFA_XSP16, literal(-1)))
          CFI DPL0 load(1, XDATA, add(CFA_XSP16, literal(-2)))
          CFI ?BRET_EXT load(1, XDATA, add(CFA_XSP16, literal(-3)))
          CFI ?RET_HIGH load(1, XDATA, add(CFA_XSP16, literal(-4)))
          CFI ?RET_LOW load(1, XDATA, add(CFA_XSP16, literal(-5)))
          CFI R7 load(1, XDATA, add(CFA_XSP16, literal(-6)))
          CFI V3 load(1, XDATA, add(CFA_XSP16, literal(-7)))
          CFI V2 load(1, XDATA, add(CFA_XSP16, literal(-8)))
          CFI V1 load(1, XDATA, add(CFA_XSP16, literal(-9)))
          CFI V0 load(1, XDATA, add(CFA_XSP16, literal(-10)))
          CFI VB load(1, XDATA, add(CFA_XSP16, literal(-11)))
          CFI R6 load(1, XDATA, add(CFA_XSP16, literal(-12)))
          CFI CFA_SP SP+0
          CFI CFA_XSP16 add(XSP16, 12)
        ; Saved register size: 12
        ; Auto size: 20
        MOV       A,#-0x14
        LCALL     ?ALLOC_XSTACK8
          CFI CFA_XSP16 add(XSP16, 32)
        MOV       ?V0,R1
//  819   //Application cannot request to set the device in initialization mode or parent lost
//  820   mode &= ~(BDB_COMMISSIONING_MODE_INITIALIZATION | BDB_COMMISSIONING_MODE_PARENT_LOST);
//  821     
//  822 #ifdef BDB_TL_INITIATOR
//  823   if ( touchlinkFNReset == TRUE )
//  824   {
//  825     return;
//  826   }
//  827 #else
//  828   //Commissioning mode used only for initiator
//  829   mode &= ~BDB_COMMISSIONING_MODE_INITIATOR_TL;
        ANL       ?V0,#0xce
//  830 #endif
//  831   
//  832 #if (BDB_FINDING_BINDING_CAPABILITY_ENABLED==0)    
//  833   //Commissioning mode used only for devices with F&B
//  834   mode &= ~BDB_COMMISSIONING_MODE_FINDING_BINDING;
//  835 #endif
//  836  
//  837   //If we have running process or the machine state is triggered, then just append and it will be excecuted
//  838   if((bdbAttributes.bdbCommissioningMode) || (osal_get_timeoutEx(bdb_TaskID,BDB_CHANGE_COMMISSIONING_STATE)))
        MOV       DPTR,#bdbAttributes + 11
        MOVX      A,@DPTR
        JNZ       ??bdb_StartCommissioning_0
        ; Setup parameters for call to function osal_get_timeoutEx
        MOV       R2,#0x4
        MOV       R3,#0x0
        MOV       DPTR,#bdb_TaskID
        MOVX      A,@DPTR
        MOV       R1,A
        LCALL     `??osal_get_timeoutEx::?relay`; Banked call to: osal_get_timeoutEx
        MOV       A,R2
        ORL       A,R3
        ORL       A,R4
        ORL       A,R5
        JZ        ??bdb_StartCommissioning_1
//  839   {
//  840 #if ZG_BUILD_ENDDEVICE_TYPE
//  841     if(ZG_DEVICE_ENDDEVICE_TYPE)
//  842     {
//  843       //Devices with parent lost are not allowed to perform actions
//  844       if(bdbAttributes.bdbCommissioningMode & BDB_COMMISSIONING_MODE_PARENT_LOST)
??bdb_StartCommissioning_0:
        MOV       DPTR,#bdbAttributes + 11
        MOVX      A,@DPTR
        MOV       C,0xE0 /* A   */.5
        JNC       $+5
        LJMP      ??bdb_StartCommissioning_2 & 0xFFFF
//  845       {
//  846         return;
//  847       }
//  848     }
//  849 #endif
//  850     
//  851     //If we are on the network and got requested to do nwk steering, we do not need to wait other process, 
//  852     // just send permit joining and report the application
//  853     if((bdbAttributes.bdbNodeIsOnANetwork) && (mode & BDB_COMMISSIONING_MODE_NWK_STEERING))
        MOV       DPTR,#bdbAttributes + 14
        MOVX      A,@DPTR
        JZ        ??bdb_StartCommissioning_3
        MOV       A,?V0
        MOV       C,0xE0 /* A   */.1
        JNC       ??bdb_StartCommissioning_3
//  854     {
//  855       bdb_nwkSteeringDeviceOnNwk();
        ; Setup parameters for call to function bdb_nwkSteeringDeviceOnNwk
        LCALL     `??bdb_nwkSteeringDeviceOnNwk::?relay`; Banked call to: bdb_nwkSteeringDeviceOnNwk
//  856       bdb_reportCommissioningState(BDB_COMMISSIONING_STATE_STEERING_ON_NWK, TRUE);
        ; Setup parameters for call to function bdb_reportCommissioningState
        MOV       R2,#0x1
        MOV       R1,#0x4
        LCALL     `??bdb_reportCommissioningState::?relay`; Banked call to: bdb_reportCommissioningState
//  857       
//  858       //Clean nwk steering
//  859       mode ^= BDB_COMMISSIONING_MODE_NWK_STEERING; 
        XRL       ?V0,#0x2
//  860     }
//  861     
//  862     //add the remaining valid commissioning modes requested, those will be process when bdb finish its current process
//  863     bdbAttributes.bdbCommissioningMode |= mode & BDB_COMMISSIONING_MODES;
??bdb_StartCommissioning_3:
        MOV       A,#0x3f
        ANL       A,?V0
        MOV       R0,A
        MOV       DPTR,#bdbAttributes + 11
        MOVX      A,@DPTR
        ORL       A,R0
        MOVX      @DPTR,A
//  864     return;      
        LJMP      ??bdb_StartCommissioning_2 & 0xFFFF
//  865   }
//  866 
//  867   //Save the commissioning modes valid requested
//  868   bdbAttributes.bdbCommissioningMode |= mode & BDB_COMMISSIONING_MODES;
??bdb_StartCommissioning_1:
        MOV       A,#0x3f
        ANL       A,?V0
        MOV       R6,A
        MOV       DPTR,#bdbAttributes + 11
        MOVX      A,@DPTR
        ORL       A,R6
        MOVX      @DPTR,A
//  869   
//  870   
//  871   //Start processing the initialization, once per power cycle.
//  872   if(!bdb_initialization)
        MOV       DPTR,#bdb_initialization
        MOVX      A,@DPTR
        JZ        $+5
        LJMP      ??bdb_StartCommissioning_4 & 0xFFFF
//  873   {
//  874     bdb_initialization = TRUE;
        MOV       A,#0x1
        LCALL     ?Subroutine7 & 0xFFFF
//  875     
//  876 #ifdef BDB_REPORTING
//  877     //Delete NV data if startup was with factory reset
//  878     if(ZDO_INITDEV_NEW_NETWORK_STATE == ZDApp_ReadNetworkRestoreState())
//  879     {
//  880       //Factory reset bdb reporting NV data
//  881       uint16 attrRepNvLen = osal_nv_item_len( ZCD_NV_BDBREPORTINGCONFIG );
//  882       if ( attrRepNvLen > 0 )
//  883       {
//  884         osal_nv_delete( ZCD_NV_BDBREPORTINGCONFIG, attrRepNvLen );
//  885       }
//  886     }
//  887 
//  888     //Construct the Endpoint-cluster array
//  889     bdb_RepConstructReportingData();
//  890 #endif //BDB_REPORTING
//  891     
//  892     osal_nv_read(ZCD_NV_BDBNODEISONANETWORK,0,sizeof(bdbAttributes.bdbNodeIsOnANetwork),&bdbAttributes.bdbNodeIsOnANetwork);
??CrossCallReturnLabel_6:
        LCALL     ?PUSH_XSTACK_I_TWO
          CFI CFA_XSP16 add(XSP16, 34)
        MOV       ?V2,#0x1
        MOV       ?V3,#0x0
        MOV       R0,#?V2
        LCALL     ?PUSH_XSTACK_I_TWO
          CFI CFA_XSP16 add(XSP16, 36)
        MOV       R4,#0x0
        MOV       R5,#0x0
        MOV       R2,#0x55
        MOV       R3,#0x0
        LCALL     `??osal_nv_read::?relay`; Banked call to: osal_nv_read
        MOV       A,#0x4
        LCALL     ?DEALLOC_XSTACK8
          CFI CFA_XSP16 add(XSP16, 32)
//  893     
//  894     //Are we on a network
//  895     if(bdbAttributes.bdbNodeIsOnANetwork == TRUE)
        MOV       DPTR,#bdbAttributes + 14
        MOVX      A,@DPTR
        XRL       A,#0x1
        JZ        $+5
        LJMP      ??bdb_StartCommissioning_4 & 0xFFFF
//  896     {
//  897 #ifdef ZG_BUILD_JOINING_TYPE
//  898       //Only for joining devices validate the joining procedure
//  899       if(ZG_DEVICE_JOINING_TYPE)
        MOV       DPTR,#zgDeviceLogicalType
        MOVX      A,@DPTR
        XRL       A,#0x1
        JZ        ??bdb_StartCommissioning_5
        MOVX      A,@DPTR
        XRL       A,#0x2
        JZ        $+5
        LJMP      ??bdb_StartCommissioning_6 & 0xFFFF
//  900       {
//  901         //If we got into a network
//  902         if(!osal_isbufset( AIB_apsTrustCenterAddress, 0x00, Z_EXTADDR_LEN ))
??bdb_StartCommissioning_5:
        ; Setup parameters for call to function osal_isbufset
        MOV       R4,#0x8
        MOV       R1,#0x0
        MOV       DPTR,#AIB_apsTrustCenterAddress
        LCALL     ??Subroutine43_0 & 0xFFFF
??CrossCallReturnLabel_95:
        LCALL     `??osal_isbufset::?relay`; Banked call to: osal_isbufset
        MOV       A,R1
        JZ        $+5
        LJMP      ??bdb_StartCommissioning_6 & 0xFFFF
//  903         {
//  904           //Which is not distributed
//  905           if(!APSME_IsDistributedSecurity())
        ; Setup parameters for call to function APSME_IsDistributedSecurity
        LCALL     `??APSME_IsDistributedSecurity::?relay`; Banked call to: APSME_IsDistributedSecurity
        MOV       A,R1
        JZ        $+5
        LJMP      ??bdb_StartCommissioning_6 & 0xFFFF
//  906           {
//  907             uint8 keyAttributes;
//  908             osal_nv_read(ZCD_NV_TCLK_TABLE_START, osal_offsetof(APSME_TCLKDevEntry_t,keyAttributes), sizeof(uint8), &keyAttributes);
        ; Setup parameters for call to function osal_nv_read
        MOV       R0,?XSP + 0
        MOV       R1,?XSP + 1
        MOV       ?V2,R0
        MOV       ?V3,R1
        MOV       R0,#?V2
        LCALL     ?PUSH_XSTACK_I_TWO
          CFI CFA_XSP16 add(XSP16, 34)
        MOV       ?V2,#0x1
        MOV       ?V3,#0x0
        MOV       R0,#?V2
        LCALL     ?PUSH_XSTACK_I_TWO
          CFI CFA_XSP16 add(XSP16, 36)
        MOV       R4,#0x10
        MOV       R5,#0x0
        MOV       R2,#0x11
        MOV       R3,#0x1
        LCALL     `??osal_nv_read::?relay`; Banked call to: osal_nv_read
        MOV       A,#0x4
        LCALL     ?DEALLOC_XSTACK8
          CFI CFA_XSP16 add(XSP16, 32)
//  909             //If we must perform the TCLK exchange and we didn't complete it, then reset to FN
//  910             if(requestNewTrustCenterLinkKey && (keyAttributes != ZG_NON_R21_NWK_JOINED) && (keyAttributes != ZG_VERIFIED_KEY))
        MOV       DPTR,#requestNewTrustCenterLinkKey
        MOVX      A,@DPTR
        JNZ       $+5
        LJMP      ??bdb_StartCommissioning_6 & 0xFFFF
        MOV       DPL,?XSP + 0
        MOV       DPH,?XSP + 1
        MOVX      A,@DPTR
        XRL       A,#0xfd
        JNZ       $+5
        LJMP      ??bdb_StartCommissioning_6 & 0xFFFF
        MOVX      A,@DPTR
        XRL       A,#0x2
        JZ        ??bdb_StartCommissioning_6
//  911             {
//  912               //Force to initialize the entry
//  913               APSME_TCLKDevEntry_t APSME_TCLKDevEntry;
//  914               
//  915               osal_memset(&APSME_TCLKDevEntry,0,sizeof(APSME_TCLKDevEntry_t));
        ; Setup parameters for call to function osal_memset
        MOV       R4,#0x13
        MOV       R5,#0x0
        MOV       R1,#0x0
        MOV       A,#0x1
        LCALL     ?XSTACK_DISP101_8
        LCALL     `??osal_memset::?relay`; Banked call to: osal_memset
//  916               APSME_TCLKDevEntry.keyAttributes = ZG_DEFAULT_KEY;
        MOV       A,#0x11
        LCALL     ?XSTACK_DISP0_8
        MOV       A,#-0x1
        MOVX      @DPTR,A
//  917               osal_nv_write(ZCD_NV_TCLK_TABLE_START, 0, sizeof(APSME_TCLKDevEntry_t), &APSME_TCLKDevEntry);
        ; Setup parameters for call to function osal_nv_write
        MOV       A,#0x1
        LCALL     ?XSTACK_DISP100_8
        MOV       ?V2,R0
        MOV       ?V3,R1
        MOV       R0,#?V2
        LCALL     ?PUSH_XSTACK_I_TWO
          CFI CFA_XSP16 add(XSP16, 34)
        MOV       ?V2,#0x13
        MOV       ?V3,#0x0
        MOV       R0,#?V2
        LCALL     ?PUSH_XSTACK_I_TWO
          CFI CFA_XSP16 add(XSP16, 36)
        MOV       R4,#0x0
        MOV       R5,#0x0
        MOV       R2,#0x11
        MOV       R3,#0x1
        LCALL     `??osal_nv_write::?relay`; Banked call to: osal_nv_write
        MOV       A,#0x4
        LCALL     ?DEALLOC_XSTACK8
          CFI CFA_XSP16 add(XSP16, 32)
//  918               TCLinkKeyFrmCntr[0].txFrmCntr = 0;
        MOV       DPTR,#TCLinkKeyFrmCntr
        CLR       A
        MOVX      @DPTR,A
        INC       DPTR
        MOVX      @DPTR,A
        INC       DPTR
        MOVX      @DPTR,A
        INC       DPTR
        MOVX      @DPTR,A
//  919               TCLinkKeyFrmCntr[0].rxFrmCntr = 0;
        INC       DPTR
        MOVX      @DPTR,A
        INC       DPTR
        MOVX      @DPTR,A
        INC       DPTR
        MOVX      @DPTR,A
        INC       DPTR
        MOVX      @DPTR,A
//  920               
//  921               
//  922               //reset the device parameters to FN
//  923               bdbAttributes.bdbNodeIsOnANetwork = FALSE;
        MOV       DPTR,#bdbAttributes + 14
        LCALL     ?Subroutine7 & 0xFFFF
//  924               osal_nv_write(ZCD_NV_BDBNODEISONANETWORK,0,sizeof(bdbAttributes.bdbNodeIsOnANetwork),&bdbAttributes.bdbNodeIsOnANetwork);
??CrossCallReturnLabel_7:
        LCALL     ?PUSH_XSTACK_I_TWO
          CFI CFA_XSP16 add(XSP16, 34)
        MOV       ?V2,#0x1
        MOV       ?V3,#0x0
        MOV       R0,#?V2
        LCALL     ?PUSH_XSTACK_I_TWO
          CFI CFA_XSP16 add(XSP16, 36)
        MOV       R4,#0x0
        MOV       R5,#0x0
        MOV       R2,#0x55
        MOV       R3,#0x0
        LCALL     `??osal_nv_write::?relay`; Banked call to: osal_nv_write
        MOV       A,#0x4
        LCALL     ?DEALLOC_XSTACK8
          CFI CFA_XSP16 add(XSP16, 32)
//  925               zgWriteStartupOptions(ZG_STARTUP_SET, ZCD_STARTOPT_DEFAULT_CONFIG_STATE | ZCD_STARTOPT_DEFAULT_NETWORK_STATE);
        ; Setup parameters for call to function zgWriteStartupOptions
        MOV       R2,#0x3
        MOV       R1,#-0x1
        LCALL     `??zgWriteStartupOptions::?relay`; Banked call to: zgWriteStartupOptions
//  926               
//  927               //Then start the commissioning process requested
//  928               bdbCommissioningProcedureState.bdbCommissioningState = BDB_COMMISSIONING_STATE_START_RESUME;
        SJMP      ??bdb_StartCommissioning_7
//  929               osal_set_event( bdb_TaskID, BDB_CHANGE_COMMISSIONING_STATE );
//  930               return;
//  931             }
//  932           }
//  933         }
//  934       }
//  935 #endif //ZG_BUILD_JOINING_TYPE
//  936       
//  937       //Set the initialization
//  938       bdbAttributes.bdbCommissioningMode |= BDB_COMMISSIONING_MODE_INITIALIZATION;
//  939       bdbCommissioningProcedureState.bdbCommissioningState = BDB_INITIALIZATION;
??bdb_StartCommissioning_6:
        MOV       DPTR,#bdbCommissioningProcedureState
        MOV       A,#0x7
        MOVX      @DPTR,A
//  940       bdbAttributes.bdbCommissioningMode |= mode & BDB_COMMISSIONING_MODES;
        MOV       A,#0x10
        ORL       A,R6
        MOV       R0,A
        MOV       DPTR,#bdbAttributes + 11
        MOVX      A,@DPTR
        ORL       A,R0
        MOVX      @DPTR,A
//  941       
//  942       if(ZDOInitDevice(0) == ZDO_INITDEV_RESTORED_NETWORK_STATE)
        ; Setup parameters for call to function ZDOInitDeviceEx
        MOV       R1,#0x0
        MOV       R2,#0x0
        MOV       R3,#0x0
        LCALL     `??ZDOInitDeviceEx::?relay`; Banked call to: ZDOInitDeviceEx
        MOV       A,R1
        JZ        ??bdb_StartCommissioning_2
//  943       {
//  944 #ifdef BDB_REPORTING
//  945         //Mark the clusterEndpoint entries that have binding, starts reporting if at least one entry was marked
//  946         bdb_RepUpdateMarkBindings();
//  947 #endif
//  948         return;
//  949       }
//  950       bdb_setNodeIsOnANetwork(FALSE);  
        ; Setup parameters for call to function bdb_setNodeIsOnANetwork
        MOV       R1,#0x0
        LCALL     `??bdb_setNodeIsOnANetwork::?relay`; Banked call to: bdb_setNodeIsOnANetwork
//  951       //Not in the network
//  952       bdb_reportCommissioningState(BDB_INITIALIZATION,FALSE);
        ; Setup parameters for call to function bdb_reportCommissioningState
        MOV       R2,#0x0
        MOV       R1,#0x7
        SJMP      ??bdb_StartCommissioning_8
//  953       return;
//  954     }
//  955   }
//  956 
//  957   //Got requested only to initialize, if so, report that it failed
//  958   if(bdbAttributes.bdbCommissioningMode == 0)
??bdb_StartCommissioning_4:
        MOV       DPTR,#bdbAttributes + 11
        MOVX      A,@DPTR
        JNZ       ??bdb_StartCommissioning_7
//  959   {
//  960     //Set the initialization state and report it to fail
//  961     bdbCommissioningProcedureState.bdbCommissioningState = BDB_INITIALIZATION;
        MOV       DPTR,#bdbCommissioningProcedureState
        MOV       A,#0x7
        MOVX      @DPTR,A
//  962     bdb_reportCommissioningState(BDB_INITIALIZATION,FALSE);
        ; Setup parameters for call to function bdb_reportCommissioningState
        MOV       R2,#0x0
        MOV       R1,A
??bdb_StartCommissioning_8:
        LCALL     `??bdb_reportCommissioningState::?relay`; Banked call to: bdb_reportCommissioningState
//  963     return;
        SJMP      ??bdb_StartCommissioning_2
//  964   }
//  965 
//  966   
//  967   //Start the commissioning process
//  968   bdbCommissioningProcedureState.bdbCommissioningState = BDB_COMMISSIONING_STATE_START_RESUME;
??bdb_StartCommissioning_7:
        MOV       DPTR,#bdbCommissioningProcedureState
        CLR       A
        MOVX      @DPTR,A
//  969   osal_set_event( bdb_TaskID, BDB_CHANGE_COMMISSIONING_STATE );
        ; Setup parameters for call to function osal_set_event
        MOV       R2,#0x4
        MOV       R3,A
        MOV       DPTR,#bdb_TaskID
        MOVX      A,@DPTR
        MOV       R1,A
        LCALL     `??osal_set_event::?relay`; Banked call to: osal_set_event
//  970 }
??bdb_StartCommissioning_2:
        MOV       A,#0x14
        LJMP      ??Subroutine33_0 & 0xFFFF
          CFI EndBlock cfiBlock8

        RSEG BANKED_CODE:HUGECODE:NOROOT(0)
?Subroutine7:
          CFI Block cfiCond9 Using cfiCommon0
          CFI Function bdb_StartCommissioning
          CFI Conditional ??CrossCallReturnLabel_6
          CFI R6 load(1, XDATA, add(CFA_XSP16, literal(-12)))
          CFI VB load(1, XDATA, add(CFA_XSP16, literal(-11)))
          CFI V0 load(1, XDATA, add(CFA_XSP16, literal(-10)))
          CFI V1 load(1, XDATA, add(CFA_XSP16, literal(-9)))
          CFI V2 load(1, XDATA, add(CFA_XSP16, literal(-8)))
          CFI V3 load(1, XDATA, add(CFA_XSP16, literal(-7)))
          CFI R7 load(1, XDATA, add(CFA_XSP16, literal(-6)))
          CFI ?RET_LOW load(1, XDATA, add(CFA_XSP16, literal(-5)))
          CFI ?RET_HIGH load(1, XDATA, add(CFA_XSP16, literal(-4)))
          CFI ?BRET_EXT load(1, XDATA, add(CFA_XSP16, literal(-3)))
          CFI DPL0 load(1, XDATA, add(CFA_XSP16, literal(-2)))
          CFI DPH0 load(1, XDATA, add(CFA_XSP16, literal(-1)))
          CFI CFA_SP SP+-2
          CFI CFA_XSP16 add(XSP16, 32)
          CFI Block cfiCond10 Using cfiCommon0
          CFI (cfiCond10) Function bdb_StartCommissioning
          CFI (cfiCond10) Conditional ??CrossCallReturnLabel_7
          CFI (cfiCond10) R6 load(1, XDATA, add(CFA_XSP16, literal(-12)))
          CFI (cfiCond10) VB load(1, XDATA, add(CFA_XSP16, literal(-11)))
          CFI (cfiCond10) V0 load(1, XDATA, add(CFA_XSP16, literal(-10)))
          CFI (cfiCond10) V1 load(1, XDATA, add(CFA_XSP16, literal(-9)))
          CFI (cfiCond10) V2 load(1, XDATA, add(CFA_XSP16, literal(-8)))
          CFI (cfiCond10) V3 load(1, XDATA, add(CFA_XSP16, literal(-7)))
          CFI (cfiCond10) R7 load(1, XDATA, add(CFA_XSP16, literal(-6)))
          CFI (cfiCond10) ?RET_LOW load(1, XDATA, add(CFA_XSP16, literal(-5)))
          CFI (cfiCond10) ?RET_HIGH load(1, XDATA, add(CFA_XSP16, literal(-4)))
          CFI (cfiCond10) ?BRET_EXT load(1, XDATA, add(CFA_XSP16, literal(-3)))
          CFI (cfiCond10) DPL0 load(1, XDATA, add(CFA_XSP16, literal(-2)))
          CFI (cfiCond10) DPH0 load(1, XDATA, add(CFA_XSP16, literal(-1)))
          CFI (cfiCond10) CFA_SP SP+-2
          CFI (cfiCond10) CFA_XSP16 add(XSP16, 32)
          CFI Block cfiPicker11 Using cfiCommon1
          CFI (cfiPicker11) NoFunction
          CFI (cfiPicker11) Picker
        MOVX      @DPTR,A
        ; Setup parameters for call to function osal_nv_read
        ; Setup parameters for call to function osal_nv_write
        MOV       ?V2,#(bdbAttributes + 14) & 0xff
        MOV       ?V3,#((bdbAttributes + 14) >> 8) & 0xff
        MOV       R0,#?V2
        RET
          CFI EndBlock cfiCond9
          CFI EndBlock cfiCond10
          CFI EndBlock cfiPicker11
//  971 
//  972 
//  973  /*********************************************************************
//  974  * @fn          bdb_NotifyCommissioningModeStart
//  975  *
//  976  * @brief       Notify the user about a commissioning method just started
//  977  *
//  978  * @param       commissioningMode
//  979  *
//  980  * @return      none
//  981  */

        RSEG BANKED_CODE:HUGECODE:NOROOT(0)
//  982 void bdb_NotifyCommissioningModeStart(uint8 commissioningMode)
bdb_NotifyCommissioningModeStart:
          CFI Block cfiBlock12 Using cfiCommon0
          CFI Function bdb_NotifyCommissioningModeStart
        CODE
//  983 {
        FUNCALL bdb_NotifyCommissioningModeStart, bdb_SendMsg
        LOCFRAME ISTACK, 0, STACK
        LOCFRAME PSTACK, 0, STACK
        LOCFRAME XSTACK, 15, STACK
        LOCFRAME IOVERLAY, 0, STATIC
        LOCFRAME DOVERLAY, 0, STATIC
        ARGFRAME ISTACK, 0, STACK
        ARGFRAME PSTACK, 0, STACK
        ARGFRAME XSTACK, 15, STACK
        ARGFRAME IOVERLAY, 0, STATIC
        ARGFRAME DOVERLAY, 0, STATIC
        REQUIRE ?V0
        REQUIRE ?V1
        MOV       A,#-0xa
        LCALL     ?BANKED_ENTER_XDATA
          CFI DPH0 load(1, XDATA, add(CFA_XSP16, literal(-1)))
          CFI DPL0 load(1, XDATA, add(CFA_XSP16, literal(-2)))
          CFI ?BRET_EXT load(1, XDATA, add(CFA_XSP16, literal(-3)))
          CFI ?RET_HIGH load(1, XDATA, add(CFA_XSP16, literal(-4)))
          CFI ?RET_LOW load(1, XDATA, add(CFA_XSP16, literal(-5)))
          CFI R7 load(1, XDATA, add(CFA_XSP16, literal(-6)))
          CFI V1 load(1, XDATA, add(CFA_XSP16, literal(-7)))
          CFI V0 load(1, XDATA, add(CFA_XSP16, literal(-8)))
          CFI VB load(1, XDATA, add(CFA_XSP16, literal(-9)))
          CFI R6 load(1, XDATA, add(CFA_XSP16, literal(-10)))
          CFI CFA_SP SP+0
          CFI CFA_XSP16 add(XSP16, 10)
        ; Saved register size: 10
        ; Auto size: 3
        MOV       A,#-0x3
        LCALL     ?ALLOC_XSTACK8
          CFI CFA_XSP16 add(XSP16, 13)
//  984   bdbCommissioningModeMsg_t bdbCommissioningModeMsg;
//  985 
//  986   bdbCommissioningModeMsg.bdbCommissioningMode = commissioningMode;
        MOV       A,#0x1
        LCALL     ?XSTACK_DISP0_8
        MOV       A,R1
        LCALL     ?Subroutine8 & 0xFFFF
//  987   bdbCommissioningModeMsg.bdbCommissioningStatus = BDB_COMMISSIONING_IN_PROGRESS;
??CrossCallReturnLabel_8:
        LCALL     ?Subroutine5 & 0xFFFF
//  988   //Remaining commissioning modes are set just before the call to the application to avoid race conditions
//  989 
//  990   bdb_NotifyApp((uint8*)&bdbCommissioningModeMsg);
??CrossCallReturnLabel_0:
        LCALL     ?PUSH_XSTACK_I_TWO
          CFI CFA_XSP16 add(XSP16, 15)
        MOV       R4,#0x3
        MOV       R3,#0x0
        MOV       R2,#0xa
        MOV       DPTR,#bdb_TaskID
        MOVX      A,@DPTR
        MOV       R1,A
        LCALL     `??bdb_SendMsg::?relay`; Banked call to: bdb_SendMsg
        MOV       A,#0x2
        LCALL     ?DEALLOC_XSTACK8
          CFI CFA_XSP16 add(XSP16, 13)
//  991 }
        MOV       A,#0x3
        LJMP      ??Subroutine41_0 & 0xFFFF
          CFI EndBlock cfiBlock12
//  992 
//  993 
//  994 
//  995 #if (ZG_BUILD_JOINING_TYPE)
//  996  /*********************************************************************
//  997  * @fn          bdb_setNodeJoinLinkKeyType
//  998  *
//  999  * @brief       Set the key type in use in the network joined. Global centralized key is used by default
// 1000  *
// 1001  * @param       none
// 1002  *
// 1003  * @return      none
// 1004  */

        RSEG BANKED_CODE:HUGECODE:NOROOT(0)
// 1005 void bdb_setNodeJoinLinkKeyType(uint8 KeyType)
bdb_setNodeJoinLinkKeyType:
          CFI Block cfiBlock13 Using cfiCommon0
          CFI Function bdb_setNodeJoinLinkKeyType
        CODE
// 1006 {
        PUSH      DPL
          CFI DPL0 Frame(CFA_SP, 4)
          CFI CFA_SP SP+-4
        PUSH      DPH
          CFI DPH0 Frame(CFA_SP, 5)
          CFI CFA_SP SP+-5
        ; Saved register size: 2
        ; Auto size: 0
// 1007   bdbAttributes.bdbNodeJoinLinkKeyType = KeyType;
        MOV       A,R1
        MOV       DPTR,#bdbAttributes + 15
        LJMP      ??Subroutine31_0 & 0xFFFF
// 1008 }
          CFI EndBlock cfiBlock13
// 1009 #endif
// 1010 
// 1011  /*********************************************************************
// 1012  * @fn          bdb_setFN
// 1013  *
// 1014  * @brief       Set configuration for FN. This FN configuration will be perfome 
// 1015  *              upon call to ZDOInitDevice
// 1016  *
// 1017  * @param       none
// 1018  *
// 1019  * @return      none
// 1020  */

        RSEG BANKED_CODE:HUGECODE:NOROOT(0)
// 1021 void bdb_setFN(void)
bdb_setFN:
          CFI Block cfiBlock14 Using cfiCommon0
          CFI Function bdb_setFN
        CODE
// 1022 {
        FUNCALL bdb_setFN, bdb_setNodeIsOnANetwork
        LOCFRAME ISTACK, 2, STACK
        LOCFRAME PSTACK, 0, STACK
        LOCFRAME XSTACK, 0, STACK
        LOCFRAME IOVERLAY, 0, STATIC
        LOCFRAME DOVERLAY, 0, STATIC
        ARGFRAME ISTACK, 2, STACK
        ARGFRAME PSTACK, 0, STACK
        ARGFRAME XSTACK, 0, STACK
        ARGFRAME IOVERLAY, 0, STATIC
        ARGFRAME DOVERLAY, 0, STATIC
        FUNCALL bdb_setFN, zgWriteStartupOptions
        LOCFRAME ISTACK, 2, STACK
        LOCFRAME PSTACK, 0, STACK
        LOCFRAME XSTACK, 0, STACK
        LOCFRAME IOVERLAY, 0, STATIC
        LOCFRAME DOVERLAY, 0, STATIC
        ARGFRAME ISTACK, 2, STACK
        ARGFRAME PSTACK, 0, STACK
        ARGFRAME XSTACK, 0, STACK
        ARGFRAME IOVERLAY, 0, STATIC
        ARGFRAME DOVERLAY, 0, STATIC
        PUSH      DPL
          CFI DPL0 Frame(CFA_SP, 4)
          CFI CFA_SP SP+-4
        PUSH      DPH
          CFI DPH0 Frame(CFA_SP, 5)
          CFI CFA_SP SP+-5
        ; Saved register size: 2
        ; Auto size: 0
// 1023   bdb_setNodeIsOnANetwork(FALSE);
        ; Setup parameters for call to function bdb_setNodeIsOnANetwork
        MOV       R1,#0x0
        LCALL     `??bdb_setNodeIsOnANetwork::?relay`; Banked call to: bdb_setNodeIsOnANetwork
// 1024 
// 1025 #if defined ( INTER_PAN ) && defined ( BDB_TL_INITIATOR )
// 1026     touchLink_InitFreeRanges( TRUE );
// 1027     touchLink_UpdateNV( TOUCHLINK_UPDATE_NV_RANGES );
// 1028 #endif
// 1029 #if defined ( INTER_PAN ) && defined ( BDB_TL_TARGET ) 
// 1030     touchLink_InitFreeRanges( FALSE );
// 1031     touchLink_UpdateNV( TOUCHLINK_UPDATE_NV_RANGES );
// 1032 #endif
// 1033 
// 1034   //Set the device as factory new
// 1035   zgWriteStartupOptions(ZG_STARTUP_SET, ZCD_STARTOPT_DEFAULT_CONFIG_STATE | ZCD_STARTOPT_DEFAULT_NETWORK_STATE);
        ; Setup parameters for call to function zgWriteStartupOptions
        MOV       R2,#0x3
        MOV       R1,#-0x1
        LCALL     `??zgWriteStartupOptions::?relay`; Banked call to: zgWriteStartupOptions
// 1036 }
        LJMP      ??Subroutine32_0 & 0xFFFF
          CFI EndBlock cfiBlock14
// 1037 
// 1038  /*********************************************************************
// 1039  * @fn          bdb_resetLocalAction
// 1040  *
// 1041  * @brief       Application interface to perform BDB Reset to FN.
// 1042  *
// 1043  * @param       none
// 1044  *
// 1045  * @return      none
// 1046  */

        RSEG BANKED_CODE:HUGECODE:NOROOT(0)
// 1047 void bdb_resetLocalAction(void)
bdb_resetLocalAction:
          CFI Block cfiBlock15 Using cfiCommon0
          CFI Function bdb_resetLocalAction
        CODE
// 1048 {
        FUNCALL bdb_resetLocalAction, osal_memset
        LOCFRAME ISTACK, 2, STACK
        LOCFRAME PSTACK, 0, STACK
        LOCFRAME XSTACK, 5, STACK
        LOCFRAME IOVERLAY, 0, STATIC
        LOCFRAME DOVERLAY, 0, STATIC
        ARGFRAME ISTACK, 2, STACK
        ARGFRAME PSTACK, 0, STACK
        ARGFRAME XSTACK, 5, STACK
        ARGFRAME IOVERLAY, 0, STATIC
        ARGFRAME DOVERLAY, 0, STATIC
        FUNCALL bdb_resetLocalAction, bdb_setFN
        LOCFRAME ISTACK, 2, STACK
        LOCFRAME PSTACK, 0, STACK
        LOCFRAME XSTACK, 5, STACK
        LOCFRAME IOVERLAY, 0, STATIC
        LOCFRAME DOVERLAY, 0, STATIC
        ARGFRAME ISTACK, 2, STACK
        ARGFRAME PSTACK, 0, STACK
        ARGFRAME XSTACK, 5, STACK
        ARGFRAME IOVERLAY, 0, STATIC
        ARGFRAME DOVERLAY, 0, STATIC
        FUNCALL bdb_resetLocalAction, NLME_LeaveReq
        LOCFRAME ISTACK, 2, STACK
        LOCFRAME PSTACK, 0, STACK
        LOCFRAME XSTACK, 5, STACK
        LOCFRAME IOVERLAY, 0, STATIC
        LOCFRAME DOVERLAY, 0, STATIC
        ARGFRAME ISTACK, 2, STACK
        ARGFRAME PSTACK, 0, STACK
        ARGFRAME XSTACK, 5, STACK
        ARGFRAME IOVERLAY, 0, STATIC
        ARGFRAME DOVERLAY, 0, STATIC
        FUNCALL bdb_resetLocalAction, bdb_setFN
        LOCFRAME ISTACK, 2, STACK
        LOCFRAME PSTACK, 0, STACK
        LOCFRAME XSTACK, 5, STACK
        LOCFRAME IOVERLAY, 0, STATIC
        LOCFRAME DOVERLAY, 0, STATIC
        ARGFRAME ISTACK, 2, STACK
        ARGFRAME PSTACK, 0, STACK
        ARGFRAME XSTACK, 5, STACK
        ARGFRAME IOVERLAY, 0, STATIC
        ARGFRAME DOVERLAY, 0, STATIC
        FUNCALL bdb_resetLocalAction, ZDApp_ResetTimerStart
        LOCFRAME ISTACK, 2, STACK
        LOCFRAME PSTACK, 0, STACK
        LOCFRAME XSTACK, 5, STACK
        LOCFRAME IOVERLAY, 0, STATIC
        LOCFRAME DOVERLAY, 0, STATIC
        ARGFRAME ISTACK, 2, STACK
        ARGFRAME PSTACK, 0, STACK
        ARGFRAME XSTACK, 5, STACK
        ARGFRAME IOVERLAY, 0, STATIC
        ARGFRAME DOVERLAY, 0, STATIC
        PUSH      DPL
          CFI DPL0 Frame(CFA_SP, 4)
          CFI CFA_SP SP+-4
        PUSH      DPH
          CFI DPH0 Frame(CFA_SP, 5)
          CFI CFA_SP SP+-5
        ; Saved register size: 2
        ; Auto size: 5
        MOV       A,#-0x5
        LCALL     ?ALLOC_XSTACK8
          CFI CFA_XSP16 add(XSP16, 5)
// 1049   //Process reset as nwk leave if the device is on the network and is able to process it
// 1050   if((ZG_BUILD_JOINING_TYPE) && (bdbAttributes.bdbNodeIsOnANetwork) && (!(bdbAttributes.bdbCommissioningMode & BDB_COMMISSIONING_MODE_PARENT_LOST)))
        MOV       DPTR,#bdbAttributes + 14
        MOVX      A,@DPTR
        JZ        ??bdb_resetLocalAction_0
        MOV       DPTR,#bdbAttributes + 11
        MOVX      A,@DPTR
        MOV       C,0xE0 /* A   */.5
        JC        ??bdb_resetLocalAction_0
// 1051   {
// 1052     NLME_LeaveReq_t leaveReq;
// 1053     // Set every field to 0
// 1054     osal_memset( &leaveReq, 0, sizeof( NLME_LeaveReq_t ) );
        ; Setup parameters for call to function osal_memset
        MOV       R4,#0x5
        MOV       R5,#0x0
        MOV       R1,#0x0
        MOV       R2,?XSP + 0
        MOV       R3,?XSP + 1
        LCALL     `??osal_memset::?relay`; Banked call to: osal_memset
// 1055     
// 1056     bdb_setFN();
        ; Setup parameters for call to function bdb_setFN
        LCALL     `??bdb_setFN::?relay`; Banked call to: bdb_setFN
// 1057       
// 1058     NLME_LeaveReq( &leaveReq );
        ; Setup parameters for call to function NLME_LeaveReq
        MOV       R2,?XSP + 0
        MOV       R3,?XSP + 1
        LCALL     `??NLME_LeaveReq::?relay`; Banked call to: NLME_LeaveReq
// 1059     
// 1060     return;
        SJMP      ??bdb_resetLocalAction_1
// 1061   }
// 1062   else
// 1063   {
// 1064     bdb_setFN();
??bdb_resetLocalAction_0:
        ; Setup parameters for call to function bdb_setFN
        LCALL     `??bdb_setFN::?relay`; Banked call to: bdb_setFN
// 1065     
// 1066     ZDApp_ResetTimerStart( 500 );
        ; Setup parameters for call to function ZDApp_ResetTimerStart
        MOV       R2,#-0xc
        MOV       R3,#0x1
        LCALL     `??ZDApp_ResetTimerStart::?relay`; Banked call to: ZDApp_ResetTimerStart
// 1067   }
// 1068 }
??bdb_resetLocalAction_1:
        MOV       A,#0x5
        LJMP      ?Subroutine4 & 0xFFFF
          CFI EndBlock cfiBlock15
// 1069 
// 1070 
// 1071  /*********************************************************************
// 1072  * @fn          bdb_parentLost
// 1073  *
// 1074  * @brief       Notify bdb that connection with parent is lost
// 1075  *
// 1076  * @return      none
// 1077  */

        RSEG BANKED_CODE:HUGECODE:NOROOT(0)
// 1078 void bdb_parentLost(void)
bdb_parentLost:
          CFI Block cfiBlock16 Using cfiCommon0
          CFI Function bdb_parentLost
        CODE
// 1079 {
        FUNCALL bdb_parentLost, bdb_nwkDescFree
        LOCFRAME ISTACK, 2, STACK
        LOCFRAME PSTACK, 0, STACK
        LOCFRAME XSTACK, 1, STACK
        LOCFRAME IOVERLAY, 0, STATIC
        LOCFRAME DOVERLAY, 0, STATIC
        ARGFRAME ISTACK, 2, STACK
        ARGFRAME PSTACK, 0, STACK
        ARGFRAME XSTACK, 1, STACK
        ARGFRAME IOVERLAY, 0, STATIC
        ARGFRAME DOVERLAY, 0, STATIC
        FUNCALL bdb_parentLost, nwk_desc_list_free
        LOCFRAME ISTACK, 2, STACK
        LOCFRAME PSTACK, 0, STACK
        LOCFRAME XSTACK, 1, STACK
        LOCFRAME IOVERLAY, 0, STATIC
        LOCFRAME DOVERLAY, 0, STATIC
        ARGFRAME ISTACK, 2, STACK
        ARGFRAME PSTACK, 0, STACK
        ARGFRAME XSTACK, 1, STACK
        ARGFRAME IOVERLAY, 0, STATIC
        ARGFRAME DOVERLAY, 0, STATIC
        FUNCALL bdb_parentLost, bdb_reportCommissioningState
        LOCFRAME ISTACK, 2, STACK
        LOCFRAME PSTACK, 0, STACK
        LOCFRAME XSTACK, 1, STACK
        LOCFRAME IOVERLAY, 0, STATIC
        LOCFRAME DOVERLAY, 0, STATIC
        ARGFRAME ISTACK, 2, STACK
        ARGFRAME PSTACK, 0, STACK
        ARGFRAME XSTACK, 1, STACK
        ARGFRAME IOVERLAY, 0, STATIC
        ARGFRAME DOVERLAY, 0, STATIC
        FUNCALL bdb_parentLost, NLME_OrphanStateSet
        LOCFRAME ISTACK, 2, STACK
        LOCFRAME PSTACK, 0, STACK
        LOCFRAME XSTACK, 1, STACK
        LOCFRAME IOVERLAY, 0, STATIC
        LOCFRAME DOVERLAY, 0, STATIC
        ARGFRAME ISTACK, 2, STACK
        ARGFRAME PSTACK, 0, STACK
        ARGFRAME XSTACK, 1, STACK
        ARGFRAME IOVERLAY, 0, STATIC
        ARGFRAME DOVERLAY, 0, STATIC
        FUNCALL bdb_parentLost, ZDApp_ChangeState
        LOCFRAME ISTACK, 2, STACK
        LOCFRAME PSTACK, 0, STACK
        LOCFRAME XSTACK, 1, STACK
        LOCFRAME IOVERLAY, 0, STATIC
        LOCFRAME DOVERLAY, 0, STATIC
        ARGFRAME ISTACK, 2, STACK
        ARGFRAME PSTACK, 0, STACK
        ARGFRAME XSTACK, 1, STACK
        ARGFRAME IOVERLAY, 0, STATIC
        ARGFRAME DOVERLAY, 0, STATIC
        FUNCALL bdb_parentLost, ZMacSetReq
        LOCFRAME ISTACK, 2, STACK
        LOCFRAME PSTACK, 0, STACK
        LOCFRAME XSTACK, 1, STACK
        LOCFRAME IOVERLAY, 0, STATIC
        LOCFRAME DOVERLAY, 0, STATIC
        ARGFRAME ISTACK, 2, STACK
        ARGFRAME PSTACK, 0, STACK
        ARGFRAME XSTACK, 1, STACK
        ARGFRAME IOVERLAY, 0, STATIC
        ARGFRAME DOVERLAY, 0, STATIC
        FUNCALL bdb_parentLost, bdb_reportCommissioningState
        LOCFRAME ISTACK, 2, STACK
        LOCFRAME PSTACK, 0, STACK
        LOCFRAME XSTACK, 1, STACK
        LOCFRAME IOVERLAY, 0, STATIC
        LOCFRAME DOVERLAY, 0, STATIC
        ARGFRAME ISTACK, 2, STACK
        ARGFRAME PSTACK, 0, STACK
        ARGFRAME XSTACK, 1, STACK
        ARGFRAME IOVERLAY, 0, STATIC
        ARGFRAME DOVERLAY, 0, STATIC
        PUSH      DPL
          CFI DPL0 Frame(CFA_SP, 4)
          CFI CFA_SP SP+-4
        PUSH      DPH
          CFI DPH0 Frame(CFA_SP, 5)
          CFI CFA_SP SP+-5
        ; Saved register size: 2
        ; Auto size: 1
        MOV       A,#-0x1
        LCALL     ?ALLOC_XSTACK8
          CFI CFA_XSP16 add(XSP16, 1)
// 1080 #if ZG_BUILD_ENDDEVICE_TYPE
// 1081   if(ZG_DEVICE_ENDDEVICE_TYPE)
        SJMP      ??bdb_parentLost_0
// 1082   {
// 1083     while(pBDBListNwk)
// 1084     {
// 1085       bdb_nwkDescFree(pBDBListNwk);
??bdb_parentLost_1:
        ; Setup parameters for call to function bdb_nwkDescFree
        LCALL     ?Subroutine16 & 0xFFFF
// 1086     }
??CrossCallReturnLabel_102:
        LCALL     `??bdb_nwkDescFree::?relay`; Banked call to: bdb_nwkDescFree
??bdb_parentLost_0:
        MOV       DPTR,#pBDBListNwk
        LCALL     ??Subroutine37_0 & 0xFFFF
??CrossCallReturnLabel_74:
        JNZ       ??bdb_parentLost_1
// 1087     
// 1088     nwk_desc_list_free();  
        ; Setup parameters for call to function nwk_desc_list_free
        LCALL     `??nwk_desc_list_free::?relay`; Banked call to: nwk_desc_list_free
// 1089     if(bdbCommissioningProcedureState.bdbCommissioningState != BDB_PARENT_LOST)
        MOV       DPTR,#bdbCommissioningProcedureState
        MOVX      A,@DPTR
        XRL       A,#0x8
        JZ        ??bdb_parentLost_2
// 1090     {
// 1091       //If parent lost during TCLK exchange, then report TCLK exchange fail
// 1092       if(bdbCommissioningProcedureState.bdbCommissioningState == BDB_COMMISSIONING_STATE_TC_LINK_KEY_EXCHANGE)
        MOVX      A,@DPTR
        XRL       A,#0x1
        JNZ       ??bdb_parentLost_3
// 1093       {
// 1094         bdb_reportCommissioningState(BDB_COMMISSIONING_STATE_TC_LINK_KEY_EXCHANGE, FALSE);
        ; Setup parameters for call to function bdb_reportCommissioningState
        MOV       R2,#0x0
        MOV       R1,#0x1
        SJMP      ??bdb_parentLost_4
// 1095         return;
// 1096       }
// 1097       bdbCommissioningProcedureState.bdb_ParentLostSavedState = bdbCommissioningProcedureState.bdbCommissioningState;
??bdb_parentLost_3:
        MOVX      A,@DPTR
        MOV       DPTR,#bdbCommissioningProcedureState + 3
        MOVX      @DPTR,A
// 1098       
// 1099     }
// 1100     bdbCommissioningProcedureState.bdbCommissioningState = BDB_PARENT_LOST;
??bdb_parentLost_2:
        MOV       DPTR,#bdbCommissioningProcedureState
        MOV       A,#0x8
        MOVX      @DPTR,A
// 1101     NLME_OrphanStateSet();
        ; Setup parameters for call to function NLME_OrphanStateSet
        LCALL     `??NLME_OrphanStateSet::?relay`; Banked call to: NLME_OrphanStateSet
// 1102     ZDApp_ChangeState( DEV_NWK_ORPHAN );
        ; Setup parameters for call to function ZDApp_ChangeState
        MOV       R1,#0xa
        LCALL     `??ZDApp_ChangeState::?relay`; Banked call to: ZDApp_ChangeState
// 1103     
// 1104     // turn receiver off while in orphan state
// 1105     byte temp = FALSE;
        MOV       DPL,?XSP + 0
        MOV       DPH,?XSP + 1
        CLR       A
        MOVX      @DPTR,A
// 1106     ZMacSetReq(ZMacRxOnIdle, &temp);
        ; Setup parameters for call to function ZMacSetReq
        MOV       R2,?XSP + 0
        MOV       R3,?XSP + 1
        MOV       R1,#0x52
        LCALL     `??ZMacSetReq::?relay`; Banked call to: ZMacSetReq
// 1107     
// 1108     bdb_reportCommissioningState(BDB_PARENT_LOST,FALSE);
        ; Setup parameters for call to function bdb_reportCommissioningState
        MOV       R2,#0x0
        MOV       R1,#0x8
??bdb_parentLost_4:
        LCALL     `??bdb_reportCommissioningState::?relay`; Banked call to: bdb_reportCommissioningState
// 1109   }
// 1110 #endif
// 1111 }
        MOV       A,#0x1
        LJMP      ?Subroutine4 & 0xFFFF
          CFI EndBlock cfiBlock16
// 1112 
// 1113 
// 1114 
// 1115 
// 1116 
// 1117  /*********************************************************************
// 1118  * @fn          bdb_NetworkRestoredResumeState
// 1119  *
// 1120  * @brief       Restore the state of child device after parent lost
// 1121  *
// 1122  * @return      none
// 1123  */

        RSEG BANKED_CODE:HUGECODE:NOROOT(0)
// 1124 void bdb_NetworkRestoredResumeState(void)
bdb_NetworkRestoredResumeState:
          CFI Block cfiBlock17 Using cfiCommon0
          CFI Function bdb_NetworkRestoredResumeState
        CODE
// 1125 {
        FUNCALL bdb_NetworkRestoredResumeState, osal_start_timerEx
        LOCFRAME ISTACK, 2, STACK
        LOCFRAME PSTACK, 0, STACK
        LOCFRAME XSTACK, 4, STACK
        LOCFRAME IOVERLAY, 0, STATIC
        LOCFRAME DOVERLAY, 0, STATIC
        ARGFRAME ISTACK, 2, STACK
        ARGFRAME PSTACK, 0, STACK
        ARGFRAME XSTACK, 4, STACK
        ARGFRAME IOVERLAY, 0, STATIC
        ARGFRAME DOVERLAY, 0, STATIC
        PUSH      DPL
          CFI DPL0 Frame(CFA_SP, 4)
          CFI CFA_SP SP+-4
        PUSH      DPH
          CFI DPH0 Frame(CFA_SP, 5)
          CFI CFA_SP SP+-5
        ; Saved register size: 2
        ; Auto size: 0
// 1126 #if (BDB_FINDING_BINDING_CAPABILITY_ENABLED==1)   
// 1127 #if ZG_BUILD_ENDDEVICE_TYPE
// 1128   if(ZG_DEVICE_ENDDEVICE_TYPE)
// 1129   {
// 1130     uint8 restoreSimpleDesc = FALSE;
        MOV       R2,#0x0
// 1131     //If restored when F&B still enabled, then restore the simple descriptors attempts
// 1132     if(bdbCommissioningProcedureState.bdbCommissioningState == BDB_COMMISSIONING_STATE_FINDING_BINDING)
        MOV       DPTR,#bdbCommissioningProcedureState
        MOVX      A,@DPTR
        XRL       A,#0x6
        JNZ       ??bdb_NetworkRestoredResumeState_0
// 1133     {
// 1134       bdbFindingBindingRespondent_t  *pRespondentTemp = NULL;
// 1135       
// 1136       pRespondentTemp = pRespondentHead;
        MOV       DPTR,#pRespondentHead
        LCALL     ?Subroutine21 & 0xFFFF
??CrossCallReturnLabel_33:
        MOV       A,R4
        MOV       R0,A
        MOV       A,R5
        SJMP      ??bdb_NetworkRestoredResumeState_1
// 1137       
// 1138       while(pRespondentTemp != NULL)
// 1139       {
// 1140         if(pRespondentTemp->attempts & FINDING_AND_BINDING_PARENT_LOST)
??bdb_NetworkRestoredResumeState_2:
        MOV       A,R0
        ADD       A,#0xc
        MOV       DPL,A
        CLR       A
        ADDC      A,R1
        MOV       DPH,A
        MOVX      A,@DPTR
        MOV       C,0xE0 /* A   */.6
        JNC       ??bdb_NetworkRestoredResumeState_3
// 1141         {
// 1142           pRespondentTemp->attempts &= ~FINDING_AND_BINDING_PARENT_LOST;
        CLR       0xE0 /* A   */.6
        MOVX      @DPTR,A
// 1143           restoreSimpleDesc = TRUE;
        MOV       R2,#0x1
// 1144         }
// 1145         pRespondentTemp = pRespondentTemp->pNext;
??bdb_NetworkRestoredResumeState_3:
        LCALL     ?Subroutine29 & 0xFFFF
// 1146       }
??CrossCallReturnLabel_55:
        MOVX      A,@DPTR
        MOV       R0,A
        INC       DPTR
        MOVX      A,@DPTR
??bdb_NetworkRestoredResumeState_1:
        MOV       R1,A
        MOV       A,R0
        ORL       A,R1
        JNZ       ??bdb_NetworkRestoredResumeState_2
// 1147     }
// 1148     if(restoreSimpleDesc)
        MOV       A,R2
        MOV       C,0xE0 /* A   */.0
        JNC       ??bdb_NetworkRestoredResumeState_0
// 1149     {
// 1150       //Restore the simple Descriptor sending after 1 second of restoring the network
// 1151       osal_start_timerEx(bdb_TaskID,BDB_RESPONDENT_PROCESS_TIMEOUT, 1000);
        ; Setup parameters for call to function osal_start_timerEx
        MOV       DPTR,#__Constant_3e8
        LCALL     ?PUSH_XSTACK8_X_FOUR
          CFI CFA_XSP16 add(XSP16, 4)
        MOV       R2,#0x0
        MOV       R3,#0x40
        MOV       DPTR,#bdb_TaskID
        MOVX      A,@DPTR
        MOV       R1,A
        LCALL     `??osal_start_timerEx::?relay`; Banked call to: osal_start_timerEx
        MOV       A,#0x4
        LCALL     ?DEALLOC_XSTACK8
          CFI CFA_XSP16 XSP16+0
// 1152     }
// 1153   }
// 1154 #endif
// 1155 #endif
// 1156 }
??bdb_NetworkRestoredResumeState_0:
        SJMP      ??Subroutine32_0
          CFI EndBlock cfiBlock17

        RSEG BANKED_CODE:HUGECODE:NOROOT(0)
?Subroutine3:
          CFI Block cfiBlock18 Using cfiCommon0
          CFI NoFunction
          CFI CFA_SP SP+-5
          CFI DPL0 Frame(CFA_SP, 4)
          CFI DPH0 Frame(CFA_SP, 5)
        MOV       A,R2
        MOVX      @DPTR,A
        INC       DPTR
        MOV       A,R3
          CFI EndBlock cfiBlock18
        REQUIRE ??Subroutine31_0
        ; // Fall through to label ??Subroutine31_0

        RSEG BANKED_CODE:HUGECODE:NOROOT(0)
??Subroutine31_0:
          CFI Block cfiBlock19 Using cfiCommon0
          CFI NoFunction
          CFI CFA_SP SP+-5
          CFI DPL0 Frame(CFA_SP, 4)
          CFI DPH0 Frame(CFA_SP, 5)
        MOVX      @DPTR,A
          CFI EndBlock cfiBlock19
        REQUIRE ??Subroutine32_0
        ; // Fall through to label ??Subroutine32_0

        RSEG BANKED_CODE:HUGECODE:NOROOT(0)
??Subroutine32_0:
          CFI Block cfiBlock20 Using cfiCommon0
          CFI NoFunction
          CFI CFA_SP SP+-5
          CFI DPL0 Frame(CFA_SP, 4)
          CFI DPH0 Frame(CFA_SP, 5)
        POP       DPH
          CFI CFA_SP SP+-4
          CFI DPH0 SameValue
        POP       DPL
          CFI CFA_SP SP+-3
          CFI DPL0 SameValue
        LJMP      ?BRET
          CFI EndBlock cfiBlock20
// 1157 
// 1158 #if ZG_BUILD_ENDDEVICE_TYPE
// 1159  /*********************************************************************
// 1160  * @fn          bdb_ZedAttemptRecoverNwk
// 1161  *
// 1162  * @brief       Instruct the ZED to try to rejoin its previews network
// 1163  *
// 1164  * @return      success if the attempt is being excecuted
// 1165  *              False if device do not have nwk parameters to perform this action
// 1166  */

        RSEG BANKED_CODE:HUGECODE:NOROOT(0)
// 1167 uint8 bdb_ZedAttemptRecoverNwk(void)
bdb_ZedAttemptRecoverNwk:
          CFI Block cfiBlock21 Using cfiCommon0
          CFI Function bdb_ZedAttemptRecoverNwk
        CODE
// 1168 {
        FUNCALL bdb_ZedAttemptRecoverNwk, ZDOInitDeviceEx
        LOCFRAME ISTACK, 2, STACK
        LOCFRAME PSTACK, 0, STACK
        LOCFRAME XSTACK, 0, STACK
        LOCFRAME IOVERLAY, 0, STATIC
        LOCFRAME DOVERLAY, 0, STATIC
        ARGFRAME ISTACK, 2, STACK
        ARGFRAME PSTACK, 0, STACK
        ARGFRAME XSTACK, 0, STACK
        ARGFRAME IOVERLAY, 0, STATIC
        ARGFRAME DOVERLAY, 0, STATIC
        PUSH      DPL
          CFI DPL0 Frame(CFA_SP, 4)
          CFI CFA_SP SP+-4
        PUSH      DPH
          CFI DPH0 Frame(CFA_SP, 5)
          CFI CFA_SP SP+-5
        ; Saved register size: 2
        ; Auto size: 0
// 1169   if(ZG_DEVICE_ENDDEVICE_TYPE)
// 1170   {
// 1171     if(bdbAttributes.bdbNodeIsOnANetwork)
        MOV       DPTR,#bdbAttributes + 14
        MOVX      A,@DPTR
        JZ        ??bdb_ZedAttemptRecoverNwk_0
// 1172     {
// 1173       if(bdbCommissioningProcedureState.bdbCommissioningState == BDB_PARENT_LOST)
        MOV       DPTR,#bdbCommissioningProcedureState
        MOVX      A,@DPTR
        XRL       A,#0x8
        JNZ       ??bdb_ZedAttemptRecoverNwk_0
// 1174       {
// 1175         if(ZDOInitDevice(0) == ZDO_INITDEV_RESTORED_NETWORK_STATE)
        ; Setup parameters for call to function ZDOInitDeviceEx
        MOV       R1,#0x0
        MOV       R2,#0x0
        MOV       R3,#0x0
        LCALL     `??ZDOInitDeviceEx::?relay`; Banked call to: ZDOInitDeviceEx
        MOV       A,R1
        JNZ       ??bdb_ZedAttemptRecoverNwk_0
// 1176         {
// 1177           return ZSuccess;
        MOV       R1,#0x0
        SJMP      ??bdb_ZedAttemptRecoverNwk_1
// 1178         }
// 1179       }
// 1180     }
// 1181   }
// 1182   return ZFailure;
??bdb_ZedAttemptRecoverNwk_0:
        MOV       R1,#0x1
??bdb_ZedAttemptRecoverNwk_1:
        SJMP      ??Subroutine32_0
// 1183 }
          CFI EndBlock cfiBlock21
// 1184 
// 1185 #endif
// 1186 
// 1187  /*********************************************************************
// 1188  * @fn          bdb_reportCommissioningState
// 1189  *
// 1190  * @brief       Process the result of a BDB main state attempt.
// 1191  *
// 1192  * @param       bdbCommissioningState - MainState that is issuing fail
// 1193  * @param       didSuccess - TRUE if the main state were success, FALSE otherwise
// 1194  *
// 1195  * @return      none
// 1196  */

        RSEG BANKED_CODE:HUGECODE:NOROOT(0)
// 1197 void bdb_reportCommissioningState(uint8 bdbCommissioningState,bool didSuccess)
bdb_reportCommissioningState:
          CFI Block cfiBlock22 Using cfiCommon0
          CFI Function bdb_reportCommissioningState
        CODE
// 1198 {
        FUNCALL bdb_reportCommissioningState, osal_start_timerEx
        LOCFRAME ISTACK, 0, STACK
        LOCFRAME PSTACK, 0, STACK
        LOCFRAME XSTACK, 18, STACK
        LOCFRAME IOVERLAY, 0, STATIC
        LOCFRAME DOVERLAY, 0, STATIC
        ARGFRAME ISTACK, 0, STACK
        ARGFRAME PSTACK, 0, STACK
        ARGFRAME XSTACK, 18, STACK
        ARGFRAME IOVERLAY, 0, STATIC
        ARGFRAME DOVERLAY, 0, STATIC
        FUNCALL bdb_reportCommissioningState, bdb_nwkDescFree
        LOCFRAME ISTACK, 0, STACK
        LOCFRAME PSTACK, 0, STACK
        LOCFRAME XSTACK, 14, STACK
        LOCFRAME IOVERLAY, 0, STATIC
        LOCFRAME DOVERLAY, 0, STATIC
        ARGFRAME ISTACK, 0, STACK
        ARGFRAME PSTACK, 0, STACK
        ARGFRAME XSTACK, 14, STACK
        ARGFRAME IOVERLAY, 0, STATIC
        ARGFRAME DOVERLAY, 0, STATIC
        FUNCALL bdb_reportCommissioningState, NLME_SetPollRate
        LOCFRAME ISTACK, 0, STACK
        LOCFRAME PSTACK, 0, STACK
        LOCFRAME XSTACK, 14, STACK
        LOCFRAME IOVERLAY, 0, STATIC
        LOCFRAME DOVERLAY, 0, STATIC
        ARGFRAME ISTACK, 0, STACK
        ARGFRAME PSTACK, 0, STACK
        ARGFRAME XSTACK, 14, STACK
        ARGFRAME IOVERLAY, 0, STATIC
        ARGFRAME DOVERLAY, 0, STATIC
        FUNCALL bdb_reportCommissioningState, NLME_SetPollRate
        LOCFRAME ISTACK, 0, STACK
        LOCFRAME PSTACK, 0, STACK
        LOCFRAME XSTACK, 14, STACK
        LOCFRAME IOVERLAY, 0, STATIC
        LOCFRAME DOVERLAY, 0, STATIC
        ARGFRAME ISTACK, 0, STACK
        ARGFRAME PSTACK, 0, STACK
        ARGFRAME XSTACK, 14, STACK
        ARGFRAME IOVERLAY, 0, STATIC
        ARGFRAME DOVERLAY, 0, STATIC
        FUNCALL bdb_reportCommissioningState, ZMacSetReq
        LOCFRAME ISTACK, 0, STACK
        LOCFRAME PSTACK, 0, STACK
        LOCFRAME XSTACK, 14, STACK
        LOCFRAME IOVERLAY, 0, STATIC
        LOCFRAME DOVERLAY, 0, STATIC
        ARGFRAME ISTACK, 0, STACK
        ARGFRAME PSTACK, 0, STACK
        ARGFRAME XSTACK, 14, STACK
        ARGFRAME IOVERLAY, 0, STATIC
        ARGFRAME DOVERLAY, 0, STATIC
        FUNCALL bdb_reportCommissioningState, bdb_setFN
        LOCFRAME ISTACK, 0, STACK
        LOCFRAME PSTACK, 0, STACK
        LOCFRAME XSTACK, 14, STACK
        LOCFRAME IOVERLAY, 0, STATIC
        LOCFRAME DOVERLAY, 0, STATIC
        ARGFRAME ISTACK, 0, STACK
        ARGFRAME PSTACK, 0, STACK
        ARGFRAME XSTACK, 14, STACK
        ARGFRAME IOVERLAY, 0, STATIC
        ARGFRAME DOVERLAY, 0, STATIC
        FUNCALL bdb_reportCommissioningState, NLME_ResetRequest
        LOCFRAME ISTACK, 0, STACK
        LOCFRAME PSTACK, 0, STACK
        LOCFRAME XSTACK, 14, STACK
        LOCFRAME IOVERLAY, 0, STATIC
        LOCFRAME DOVERLAY, 0, STATIC
        ARGFRAME ISTACK, 0, STACK
        ARGFRAME PSTACK, 0, STACK
        ARGFRAME XSTACK, 14, STACK
        ARGFRAME IOVERLAY, 0, STATIC
        ARGFRAME DOVERLAY, 0, STATIC
        FUNCALL bdb_reportCommissioningState, ZDApp_ChangeState
        LOCFRAME ISTACK, 0, STACK
        LOCFRAME PSTACK, 0, STACK
        LOCFRAME XSTACK, 14, STACK
        LOCFRAME IOVERLAY, 0, STATIC
        LOCFRAME DOVERLAY, 0, STATIC
        ARGFRAME ISTACK, 0, STACK
        ARGFRAME PSTACK, 0, STACK
        ARGFRAME XSTACK, 14, STACK
        ARGFRAME IOVERLAY, 0, STATIC
        ARGFRAME DOVERLAY, 0, STATIC
        FUNCALL bdb_reportCommissioningState, bdb_nwkDescFree
        LOCFRAME ISTACK, 0, STACK
        LOCFRAME PSTACK, 0, STACK
        LOCFRAME XSTACK, 14, STACK
        LOCFRAME IOVERLAY, 0, STATIC
        LOCFRAME DOVERLAY, 0, STATIC
        ARGFRAME ISTACK, 0, STACK
        ARGFRAME PSTACK, 0, STACK
        ARGFRAME XSTACK, 14, STACK
        ARGFRAME IOVERLAY, 0, STATIC
        ARGFRAME DOVERLAY, 0, STATIC
        FUNCALL bdb_reportCommissioningState, zgWriteStartupOptions
        LOCFRAME ISTACK, 0, STACK
        LOCFRAME PSTACK, 0, STACK
        LOCFRAME XSTACK, 14, STACK
        LOCFRAME IOVERLAY, 0, STATIC
        LOCFRAME DOVERLAY, 0, STATIC
        ARGFRAME ISTACK, 0, STACK
        ARGFRAME PSTACK, 0, STACK
        ARGFRAME XSTACK, 14, STACK
        ARGFRAME IOVERLAY, 0, STATIC
        ARGFRAME DOVERLAY, 0, STATIC
        FUNCALL bdb_reportCommissioningState, osal_start_timerEx
        LOCFRAME ISTACK, 0, STACK
        LOCFRAME PSTACK, 0, STACK
        LOCFRAME XSTACK, 18, STACK
        LOCFRAME IOVERLAY, 0, STATIC
        LOCFRAME DOVERLAY, 0, STATIC
        ARGFRAME ISTACK, 0, STACK
        ARGFRAME PSTACK, 0, STACK
        ARGFRAME XSTACK, 18, STACK
        ARGFRAME IOVERLAY, 0, STATIC
        ARGFRAME DOVERLAY, 0, STATIC
        FUNCALL bdb_reportCommissioningState, NLME_SetPollRate
        LOCFRAME ISTACK, 0, STACK
        LOCFRAME PSTACK, 0, STACK
        LOCFRAME XSTACK, 14, STACK
        LOCFRAME IOVERLAY, 0, STATIC
        LOCFRAME DOVERLAY, 0, STATIC
        ARGFRAME ISTACK, 0, STACK
        ARGFRAME PSTACK, 0, STACK
        ARGFRAME XSTACK, 14, STACK
        ARGFRAME IOVERLAY, 0, STATIC
        ARGFRAME DOVERLAY, 0, STATIC
        FUNCALL bdb_reportCommissioningState, osal_stop_timerEx
        LOCFRAME ISTACK, 0, STACK
        LOCFRAME PSTACK, 0, STACK
        LOCFRAME XSTACK, 14, STACK
        LOCFRAME IOVERLAY, 0, STATIC
        LOCFRAME DOVERLAY, 0, STATIC
        ARGFRAME ISTACK, 0, STACK
        ARGFRAME PSTACK, 0, STACK
        ARGFRAME XSTACK, 14, STACK
        ARGFRAME IOVERLAY, 0, STATIC
        ARGFRAME DOVERLAY, 0, STATIC
        FUNCALL bdb_reportCommissioningState, osal_stop_timerEx
        LOCFRAME ISTACK, 0, STACK
        LOCFRAME PSTACK, 0, STACK
        LOCFRAME XSTACK, 14, STACK
        LOCFRAME IOVERLAY, 0, STATIC
        LOCFRAME DOVERLAY, 0, STATIC
        ARGFRAME ISTACK, 0, STACK
        ARGFRAME PSTACK, 0, STACK
        ARGFRAME XSTACK, 14, STACK
        ARGFRAME IOVERLAY, 0, STATIC
        ARGFRAME DOVERLAY, 0, STATIC
        FUNCALL bdb_reportCommissioningState, osal_start_timerEx
        LOCFRAME ISTACK, 0, STACK
        LOCFRAME PSTACK, 0, STACK
        LOCFRAME XSTACK, 18, STACK
        LOCFRAME IOVERLAY, 0, STATIC
        LOCFRAME DOVERLAY, 0, STATIC
        ARGFRAME ISTACK, 0, STACK
        ARGFRAME PSTACK, 0, STACK
        ARGFRAME XSTACK, 18, STACK
        ARGFRAME IOVERLAY, 0, STATIC
        ARGFRAME DOVERLAY, 0, STATIC
        FUNCALL bdb_reportCommissioningState, ZDApp_ChangeState
        LOCFRAME ISTACK, 0, STACK
        LOCFRAME PSTACK, 0, STACK
        LOCFRAME XSTACK, 14, STACK
        LOCFRAME IOVERLAY, 0, STATIC
        LOCFRAME DOVERLAY, 0, STATIC
        ARGFRAME ISTACK, 0, STACK
        ARGFRAME PSTACK, 0, STACK
        ARGFRAME XSTACK, 14, STACK
        ARGFRAME IOVERLAY, 0, STATIC
        ARGFRAME DOVERLAY, 0, STATIC
        FUNCALL bdb_reportCommissioningState, osal_start_timerEx
        LOCFRAME ISTACK, 0, STACK
        LOCFRAME PSTACK, 0, STACK
        LOCFRAME XSTACK, 18, STACK
        LOCFRAME IOVERLAY, 0, STATIC
        LOCFRAME DOVERLAY, 0, STATIC
        ARGFRAME ISTACK, 0, STACK
        ARGFRAME PSTACK, 0, STACK
        ARGFRAME XSTACK, 18, STACK
        ARGFRAME IOVERLAY, 0, STATIC
        ARGFRAME DOVERLAY, 0, STATIC
        FUNCALL bdb_reportCommissioningState, zgWriteStartupOptions
        LOCFRAME ISTACK, 0, STACK
        LOCFRAME PSTACK, 0, STACK
        LOCFRAME XSTACK, 14, STACK
        LOCFRAME IOVERLAY, 0, STATIC
        LOCFRAME DOVERLAY, 0, STATIC
        ARGFRAME ISTACK, 0, STACK
        ARGFRAME PSTACK, 0, STACK
        ARGFRAME XSTACK, 14, STACK
        ARGFRAME IOVERLAY, 0, STATIC
        ARGFRAME DOVERLAY, 0, STATIC
        FUNCALL bdb_reportCommissioningState, osal_start_timerEx
        LOCFRAME ISTACK, 0, STACK
        LOCFRAME PSTACK, 0, STACK
        LOCFRAME XSTACK, 18, STACK
        LOCFRAME IOVERLAY, 0, STATIC
        LOCFRAME DOVERLAY, 0, STATIC
        ARGFRAME ISTACK, 0, STACK
        ARGFRAME PSTACK, 0, STACK
        ARGFRAME XSTACK, 18, STACK
        ARGFRAME IOVERLAY, 0, STATIC
        ARGFRAME DOVERLAY, 0, STATIC
        FUNCALL bdb_reportCommissioningState, bdb_getRespondentRetry
        LOCFRAME ISTACK, 0, STACK
        LOCFRAME PSTACK, 0, STACK
        LOCFRAME XSTACK, 14, STACK
        LOCFRAME IOVERLAY, 0, STATIC
        LOCFRAME DOVERLAY, 0, STATIC
        ARGFRAME ISTACK, 0, STACK
        ARGFRAME PSTACK, 0, STACK
        ARGFRAME XSTACK, 14, STACK
        ARGFRAME IOVERLAY, 0, STATIC
        ARGFRAME DOVERLAY, 0, STATIC
        FUNCALL bdb_reportCommissioningState, osal_get_timeoutEx
        LOCFRAME ISTACK, 0, STACK
        LOCFRAME PSTACK, 0, STACK
        LOCFRAME XSTACK, 14, STACK
        LOCFRAME IOVERLAY, 0, STATIC
        LOCFRAME DOVERLAY, 0, STATIC
        ARGFRAME ISTACK, 0, STACK
        ARGFRAME PSTACK, 0, STACK
        ARGFRAME XSTACK, 14, STACK
        ARGFRAME IOVERLAY, 0, STATIC
        ARGFRAME DOVERLAY, 0, STATIC
        FUNCALL bdb_reportCommissioningState, bdb_zclRespondentListClean
        LOCFRAME ISTACK, 0, STACK
        LOCFRAME PSTACK, 0, STACK
        LOCFRAME XSTACK, 14, STACK
        LOCFRAME IOVERLAY, 0, STATIC
        LOCFRAME DOVERLAY, 0, STATIC
        ARGFRAME ISTACK, 0, STACK
        ARGFRAME PSTACK, 0, STACK
        ARGFRAME XSTACK, 14, STACK
        ARGFRAME IOVERLAY, 0, STATIC
        ARGFRAME DOVERLAY, 0, STATIC
        FUNCALL bdb_reportCommissioningState, osal_stop_timerEx
        LOCFRAME ISTACK, 0, STACK
        LOCFRAME PSTACK, 0, STACK
        LOCFRAME XSTACK, 14, STACK
        LOCFRAME IOVERLAY, 0, STATIC
        LOCFRAME DOVERLAY, 0, STATIC
        ARGFRAME ISTACK, 0, STACK
        ARGFRAME PSTACK, 0, STACK
        ARGFRAME XSTACK, 14, STACK
        ARGFRAME IOVERLAY, 0, STATIC
        ARGFRAME DOVERLAY, 0, STATIC
        FUNCALL bdb_reportCommissioningState, osal_start_timerEx
        LOCFRAME ISTACK, 0, STACK
        LOCFRAME PSTACK, 0, STACK
        LOCFRAME XSTACK, 18, STACK
        LOCFRAME IOVERLAY, 0, STATIC
        LOCFRAME DOVERLAY, 0, STATIC
        ARGFRAME ISTACK, 0, STACK
        ARGFRAME PSTACK, 0, STACK
        ARGFRAME XSTACK, 18, STACK
        ARGFRAME IOVERLAY, 0, STATIC
        ARGFRAME DOVERLAY, 0, STATIC
        FUNCALL bdb_reportCommissioningState, nwk_setStateIdle
        LOCFRAME ISTACK, 0, STACK
        LOCFRAME PSTACK, 0, STACK
        LOCFRAME XSTACK, 14, STACK
        LOCFRAME IOVERLAY, 0, STATIC
        LOCFRAME DOVERLAY, 0, STATIC
        ARGFRAME ISTACK, 0, STACK
        ARGFRAME PSTACK, 0, STACK
        ARGFRAME XSTACK, 14, STACK
        ARGFRAME IOVERLAY, 0, STATIC
        ARGFRAME DOVERLAY, 0, STATIC
        FUNCALL bdb_reportCommissioningState, ZDApp_ChangeState
        LOCFRAME ISTACK, 0, STACK
        LOCFRAME PSTACK, 0, STACK
        LOCFRAME XSTACK, 14, STACK
        LOCFRAME IOVERLAY, 0, STATIC
        LOCFRAME DOVERLAY, 0, STATIC
        ARGFRAME ISTACK, 0, STACK
        ARGFRAME PSTACK, 0, STACK
        ARGFRAME XSTACK, 14, STACK
        ARGFRAME IOVERLAY, 0, STATIC
        ARGFRAME DOVERLAY, 0, STATIC
        FUNCALL bdb_reportCommissioningState, osal_start_timerEx
        LOCFRAME ISTACK, 0, STACK
        LOCFRAME PSTACK, 0, STACK
        LOCFRAME XSTACK, 18, STACK
        LOCFRAME IOVERLAY, 0, STATIC
        LOCFRAME DOVERLAY, 0, STATIC
        ARGFRAME ISTACK, 0, STACK
        ARGFRAME PSTACK, 0, STACK
        ARGFRAME XSTACK, 18, STACK
        ARGFRAME IOVERLAY, 0, STATIC
        ARGFRAME DOVERLAY, 0, STATIC
        FUNCALL bdb_reportCommissioningState, NLME_SetPollRate
        LOCFRAME ISTACK, 0, STACK
        LOCFRAME PSTACK, 0, STACK
        LOCFRAME XSTACK, 14, STACK
        LOCFRAME IOVERLAY, 0, STATIC
        LOCFRAME DOVERLAY, 0, STATIC
        ARGFRAME ISTACK, 0, STACK
        ARGFRAME PSTACK, 0, STACK
        ARGFRAME XSTACK, 14, STACK
        ARGFRAME IOVERLAY, 0, STATIC
        ARGFRAME DOVERLAY, 0, STATIC
        FUNCALL bdb_reportCommissioningState, ZDApp_ChangeState
        LOCFRAME ISTACK, 0, STACK
        LOCFRAME PSTACK, 0, STACK
        LOCFRAME XSTACK, 14, STACK
        LOCFRAME IOVERLAY, 0, STATIC
        LOCFRAME DOVERLAY, 0, STATIC
        ARGFRAME ISTACK, 0, STACK
        ARGFRAME PSTACK, 0, STACK
        ARGFRAME XSTACK, 14, STACK
        ARGFRAME IOVERLAY, 0, STATIC
        ARGFRAME DOVERLAY, 0, STATIC
        FUNCALL bdb_reportCommissioningState, ZDApp_RestoreNwkSecMaterial
        LOCFRAME ISTACK, 0, STACK
        LOCFRAME PSTACK, 0, STACK
        LOCFRAME XSTACK, 14, STACK
        LOCFRAME IOVERLAY, 0, STATIC
        LOCFRAME DOVERLAY, 0, STATIC
        ARGFRAME ISTACK, 0, STACK
        ARGFRAME PSTACK, 0, STACK
        ARGFRAME XSTACK, 14, STACK
        ARGFRAME IOVERLAY, 0, STATIC
        ARGFRAME DOVERLAY, 0, STATIC
        FUNCALL bdb_reportCommissioningState, osal_start_timerEx
        LOCFRAME ISTACK, 0, STACK
        LOCFRAME PSTACK, 0, STACK
        LOCFRAME XSTACK, 18, STACK
        LOCFRAME IOVERLAY, 0, STATIC
        LOCFRAME DOVERLAY, 0, STATIC
        ARGFRAME ISTACK, 0, STACK
        ARGFRAME PSTACK, 0, STACK
        ARGFRAME XSTACK, 18, STACK
        ARGFRAME IOVERLAY, 0, STATIC
        ARGFRAME DOVERLAY, 0, STATIC
        FUNCALL bdb_reportCommissioningState, ZDApp_ChangeState
        LOCFRAME ISTACK, 0, STACK
        LOCFRAME PSTACK, 0, STACK
        LOCFRAME XSTACK, 14, STACK
        LOCFRAME IOVERLAY, 0, STATIC
        LOCFRAME DOVERLAY, 0, STATIC
        ARGFRAME ISTACK, 0, STACK
        ARGFRAME PSTACK, 0, STACK
        ARGFRAME XSTACK, 14, STACK
        ARGFRAME IOVERLAY, 0, STATIC
        ARGFRAME DOVERLAY, 0, STATIC
        FUNCALL bdb_reportCommissioningState, NLME_SetPollRate
        LOCFRAME ISTACK, 0, STACK
        LOCFRAME PSTACK, 0, STACK
        LOCFRAME XSTACK, 14, STACK
        LOCFRAME IOVERLAY, 0, STATIC
        LOCFRAME DOVERLAY, 0, STATIC
        ARGFRAME ISTACK, 0, STACK
        ARGFRAME PSTACK, 0, STACK
        ARGFRAME XSTACK, 14, STACK
        ARGFRAME IOVERLAY, 0, STATIC
        ARGFRAME DOVERLAY, 0, STATIC
        FUNCALL bdb_reportCommissioningState, ZDApp_ChangeState
        LOCFRAME ISTACK, 0, STACK
        LOCFRAME PSTACK, 0, STACK
        LOCFRAME XSTACK, 14, STACK
        LOCFRAME IOVERLAY, 0, STATIC
        LOCFRAME DOVERLAY, 0, STATIC
        ARGFRAME ISTACK, 0, STACK
        ARGFRAME PSTACK, 0, STACK
        ARGFRAME XSTACK, 14, STACK
        ARGFRAME IOVERLAY, 0, STATIC
        ARGFRAME DOVERLAY, 0, STATIC
        FUNCALL bdb_reportCommissioningState, bdb_NetworkRestoredResumeState
        LOCFRAME ISTACK, 0, STACK
        LOCFRAME PSTACK, 0, STACK
        LOCFRAME XSTACK, 14, STACK
        LOCFRAME IOVERLAY, 0, STATIC
        LOCFRAME DOVERLAY, 0, STATIC
        ARGFRAME ISTACK, 0, STACK
        ARGFRAME PSTACK, 0, STACK
        ARGFRAME XSTACK, 14, STACK
        ARGFRAME IOVERLAY, 0, STATIC
        ARGFRAME DOVERLAY, 0, STATIC
        FUNCALL bdb_reportCommissioningState, NLME_SetPollRate
        LOCFRAME ISTACK, 0, STACK
        LOCFRAME PSTACK, 0, STACK
        LOCFRAME XSTACK, 14, STACK
        LOCFRAME IOVERLAY, 0, STATIC
        LOCFRAME DOVERLAY, 0, STATIC
        ARGFRAME ISTACK, 0, STACK
        ARGFRAME PSTACK, 0, STACK
        ARGFRAME XSTACK, 14, STACK
        ARGFRAME IOVERLAY, 0, STATIC
        ARGFRAME DOVERLAY, 0, STATIC
        FUNCALL bdb_reportCommissioningState, bdb_SendMsg
        LOCFRAME ISTACK, 0, STACK
        LOCFRAME PSTACK, 0, STACK
        LOCFRAME XSTACK, 16, STACK
        LOCFRAME IOVERLAY, 0, STATIC
        LOCFRAME DOVERLAY, 0, STATIC
        ARGFRAME ISTACK, 0, STACK
        ARGFRAME PSTACK, 0, STACK
        ARGFRAME XSTACK, 16, STACK
        ARGFRAME IOVERLAY, 0, STATIC
        ARGFRAME DOVERLAY, 0, STATIC
        REQUIRE ?V0
        REQUIRE ?V1
        MOV       A,#-0xa
        LCALL     ?BANKED_ENTER_XDATA
          CFI DPH0 load(1, XDATA, add(CFA_XSP16, literal(-1)))
          CFI DPL0 load(1, XDATA, add(CFA_XSP16, literal(-2)))
          CFI ?BRET_EXT load(1, XDATA, add(CFA_XSP16, literal(-3)))
          CFI ?RET_HIGH load(1, XDATA, add(CFA_XSP16, literal(-4)))
          CFI ?RET_LOW load(1, XDATA, add(CFA_XSP16, literal(-5)))
          CFI R7 load(1, XDATA, add(CFA_XSP16, literal(-6)))
          CFI V1 load(1, XDATA, add(CFA_XSP16, literal(-7)))
          CFI V0 load(1, XDATA, add(CFA_XSP16, literal(-8)))
          CFI VB load(1, XDATA, add(CFA_XSP16, literal(-9)))
          CFI R6 load(1, XDATA, add(CFA_XSP16, literal(-10)))
          CFI CFA_SP SP+0
          CFI CFA_XSP16 add(XSP16, 10)
        ; Saved register size: 10
        ; Auto size: 4
        MOV       A,#-0x4
        LCALL     ?ALLOC_XSTACK8
          CFI CFA_XSP16 add(XSP16, 14)
        MOV       A,R1
        MOV       R6,A
        MOV       A,R2
        MOV       R7,A
// 1199   bdbCommissioningModeMsg_t bdbCommissioningModeMsg;
// 1200   //Process only if we are in that state, or if we are on parent lost and processing F&B
// 1201   if((bdbCommissioningProcedureState.bdbCommissioningState == bdbCommissioningState)
// 1202      || ((bdbCommissioningProcedureState.bdbCommissioningState == BDB_PARENT_LOST) && (bdbCommissioningProcedureState.bdb_ParentLostSavedState == BDB_COMMISSIONING_STATE_FINDING_BINDING)))
        MOV       DPTR,#bdbCommissioningProcedureState
        MOVX      A,@DPTR
        XRL       A,R6
        JZ        ??bdb_reportCommissioningState_0
        MOVX      A,@DPTR
        XRL       A,#0x8
        JZ        $+5
        LJMP      ??bdb_reportCommissioningState_1 & 0xFFFF
        MOV       DPTR,#bdbCommissioningProcedureState + 3
        MOVX      A,@DPTR
        XRL       A,#0x6
        JZ        $+5
        LJMP      ??bdb_reportCommissioningState_1 & 0xFFFF
// 1203   {
// 1204     switch(bdbCommissioningState)
??bdb_reportCommissioningState_0:
        MOV       A,R6
        DEC       A
        JNZ       $+5
        LJMP      ??bdb_reportCommissioningState_2 & 0xFFFF
        DEC       A
        JNZ       $+5
        LJMP      ??bdb_reportCommissioningState_3 & 0xFFFF
        DEC       A
        JZ        ??bdb_reportCommissioningState_4
        DEC       A
        JNZ       $+5
        LJMP      ??bdb_reportCommissioningState_5 & 0xFFFF
        DEC       A
        JNZ       $+5
        LJMP      ??bdb_reportCommissioningState_6 & 0xFFFF
        DEC       A
        JNZ       $+5
        LJMP      ??bdb_reportCommissioningState_7 & 0xFFFF
        DEC       A
        JNZ       $+5
        LJMP      ??bdb_reportCommissioningState_8 & 0xFFFF
        DEC       A
        JNZ       $+5
        LJMP      ??bdb_reportCommissioningState_9 & 0xFFFF
        LJMP      ??bdb_reportCommissioningState_10 & 0xFFFF
// 1205     {
// 1206 #if (ZG_BUILD_JOINING_TYPE)
// 1207       case BDB_COMMISSIONING_STATE_JOINING:
// 1208         if(ZG_DEVICE_JOINING_TYPE)
??bdb_reportCommissioningState_4:
        MOV       DPTR,#zgDeviceLogicalType
        MOVX      A,@DPTR
        XRL       A,#0x1
        JZ        ??bdb_reportCommissioningState_11
        MOVX      A,@DPTR
        XRL       A,#0x2
        JZ        $+5
        LJMP      ??bdb_reportCommissioningState_10 & 0xFFFF
// 1209         {
// 1210           //Prepare for the next state or commissioning mode to be excecuted
// 1211           osal_start_timerEx(bdb_TaskID,BDB_CHANGE_COMMISSIONING_STATE,50);
??bdb_reportCommissioningState_11:
        ; Setup parameters for call to function osal_start_timerEx
        MOV       DPTR,#__Constant_32
        LCALL     ?PUSH_XSTACK8_X_FOUR
          CFI CFA_XSP16 add(XSP16, 18)
        MOV       R2,#0x4
        MOV       R3,#0x0
        MOV       DPTR,#bdb_TaskID
        MOVX      A,@DPTR
        MOV       R1,A
        LCALL     `??osal_start_timerEx::?relay`; Banked call to: osal_start_timerEx
        MOV       A,#0x4
        LCALL     ?DEALLOC_XSTACK8
          CFI CFA_XSP16 add(XSP16, 14)
// 1212 
// 1213           if(didSuccess)
        MOV       A,R7
        JZ        ??bdb_reportCommissioningState_12
// 1214           {
// 1215             //Next state is TC link key exchange
// 1216             bdbCommissioningProcedureState.bdbCommissioningState = BDB_COMMISSIONING_STATE_TC_LINK_KEY_EXCHANGE;
        MOV       DPTR,#bdbCommissioningProcedureState
        MOV       A,#0x1
        MOVX      @DPTR,A
        SJMP      ??bdb_reportCommissioningState_13
// 1217             //Free the list of nwk discovered
// 1218             while(pBDBListNwk)
// 1219             {
// 1220               bdb_nwkDescFree(pBDBListNwk);
??bdb_reportCommissioningState_14:
        ; Setup parameters for call to function bdb_nwkDescFree
        LCALL     ?Subroutine16 & 0xFFFF
// 1221             }
??CrossCallReturnLabel_103:
        LCALL     `??bdb_nwkDescFree::?relay`; Banked call to: bdb_nwkDescFree
??bdb_reportCommissioningState_13:
        MOV       DPTR,#pBDBListNwk
        LCALL     ??Subroutine37_0 & 0xFFFF
??CrossCallReturnLabel_75:
        JNZ       ??bdb_reportCommissioningState_14
// 1222             
// 1223             //Set the poll rate of the ZED joining device to 1 second to allow TCLK 
// 1224             //exchange be perfomed successfully in cases in which application has a 
// 1225             //slow pollrate
// 1226             NLME_SetPollRate(TCLK_POLL_RATE);
        ; Setup parameters for call to function NLME_SetPollRate
        MOV       DPTR,#__Constant_3e8
        LCALL     ?XLOAD_R2345
        LCALL     `??NLME_SetPollRate::?relay`; Banked call to: NLME_SetPollRate
// 1227             
// 1228             //No notification in this step
// 1229             return;
        LJMP      ??bdb_reportCommissioningState_1 & 0xFFFF
// 1230           } 
// 1231           else
// 1232           {
// 1233             uint8 temp = FALSE;
??bdb_reportCommissioningState_12:
        MOV       A,#0x3
        LCALL     ?XSTACK_DISP0_8
        CLR       A
        MOVX      @DPTR,A
// 1234             //If fail, then restore poll rate
// 1235             NLME_SetPollRate(POLL_RATE);
        ; Setup parameters for call to function NLME_SetPollRate
        MOV       DPTR,#__Constant_3e8
        LCALL     ?XLOAD_R2345
        LCALL     `??NLME_SetPollRate::?relay`; Banked call to: NLME_SetPollRate
// 1236             bdbAttributes.bdbCommissioningStatus = BDB_COMMISSIONING_NO_NETWORK;
        MOV       DPTR,#bdbAttributes + 10
        MOV       A,#0x2
        MOVX      @DPTR,A
// 1237             bdbCommissioningModeMsg.bdbCommissioningMode = BDB_COMMISSIONING_NWK_STEERING;
        DEC       A
        LCALL     ?XSTACK_DISP0_8
        MOV       A,#0x1
        MOVX      @DPTR,A
// 1238             bdbCommissioningProcedureState.bdbCommissioningState = BDB_COMMISSIONING_STATE_START_RESUME;
        MOV       DPTR,#bdbCommissioningProcedureState
        CLR       A
        MOVX      @DPTR,A
// 1239             bdbAttributes.bdbCommissioningMode &= ~BDB_COMMISSIONING_MODE_NWK_STEERING;
        MOV       DPTR,#bdbAttributes + 11
        MOVX      A,@DPTR
        CLR       0xE0 /* A   */.1
        MOVX      @DPTR,A
// 1240             
// 1241             //Turn off the radio
// 1242             ZMacSetReq(ZMacRxOnIdle, &temp);
        ; Setup parameters for call to function ZMacSetReq
        MOV       A,#0x3
        LCALL     ?XSTACK_DISP101_8
        MOV       R1,#0x52
        LCALL     `??ZMacSetReq::?relay`; Banked call to: ZMacSetReq
// 1243             //Set the device to FN, to start as new for subsequent attempts
// 1244             bdb_setFN();
        ; Setup parameters for call to function bdb_setFN
        LCALL     `??bdb_setFN::?relay`; Banked call to: bdb_setFN
// 1245             NLME_ResetRequest();
        ; Setup parameters for call to function NLME_ResetRequest
        LCALL     `??NLME_ResetRequest::?relay`; Banked call to: NLME_ResetRequest
// 1246             ZDApp_ChangeState( DEV_HOLD );
        ; Setup parameters for call to function ZDApp_ChangeState
        MOV       R1,#0x0
        LCALL     `??ZDApp_ChangeState::?relay`; Banked call to: ZDApp_ChangeState
// 1247             
// 1248             //Free the list of nwk discovered
// 1249             while(pBDBListNwk)
??bdb_reportCommissioningState_15:
        MOV       DPTR,#pBDBListNwk
        LCALL     ??Subroutine37_0 & 0xFFFF
??CrossCallReturnLabel_76:
        JNZ       $+5
        LJMP      ??bdb_reportCommissioningState_10 & 0xFFFF
// 1250             {
// 1251               bdb_nwkDescFree(pBDBListNwk);
        ; Setup parameters for call to function bdb_nwkDescFree
        LCALL     ?Subroutine16 & 0xFFFF
// 1252             }
// 1253           }
// 1254         }
??CrossCallReturnLabel_104:
        LCALL     `??bdb_nwkDescFree::?relay`; Banked call to: bdb_nwkDescFree
        SJMP      ??bdb_reportCommissioningState_15
// 1255       break;
// 1256 
// 1257       case BDB_COMMISSIONING_STATE_TC_LINK_KEY_EXCHANGE:
// 1258         if(ZG_DEVICE_JOINING_TYPE)
??bdb_reportCommissioningState_2:
        MOV       DPTR,#zgDeviceLogicalType
        MOVX      A,@DPTR
        XRL       A,#0x1
        JZ        ??bdb_reportCommissioningState_16
        MOVX      A,@DPTR
        XRL       A,#0x2
        JZ        $+5
        LJMP      ??bdb_reportCommissioningState_10 & 0xFFFF
// 1259         {
// 1260           if(didSuccess)
??bdb_reportCommissioningState_16:
        MOV       A,R7
        JZ        ??bdb_reportCommissioningState_17
// 1261           {
// 1262             //Clear any setting that would set the device as FN
// 1263             zgWriteStartupOptions(ZG_STARTUP_CLEAR, ZCD_STARTOPT_DEFAULT_CONFIG_STATE | ZCD_STARTOPT_DEFAULT_NETWORK_STATE);            
        ; Setup parameters for call to function zgWriteStartupOptions
        MOV       R2,#0x3
        MOV       R1,#0x0
        LCALL     `??zgWriteStartupOptions::?relay`; Banked call to: zgWriteStartupOptions
// 1264             
// 1265             //Next state is nwk steering on the nwk (permit joining)
// 1266             bdbCommissioningProcedureState.bdbCommissioningState = BDB_COMMISSIONING_STATE_STEERING_ON_NWK;
        MOV       DPTR,#bdbCommissioningProcedureState
        MOV       A,#0x4
        LCALL     ??Subroutine40_0 & 0xFFFF
// 1267             osal_start_timerEx(bdb_TaskID,BDB_CHANGE_COMMISSIONING_STATE, 50);
??CrossCallReturnLabel_93:
        LCALL     ?PUSH_XSTACK8_X_FOUR
          CFI CFA_XSP16 add(XSP16, 18)
        MOV       R2,#0x4
        MOV       R3,#0x0
        MOV       DPTR,#bdb_TaskID
        MOVX      A,@DPTR
        MOV       R1,A
        LCALL     `??osal_start_timerEx::?relay`; Banked call to: osal_start_timerEx
        MOV       A,#0x4
        LCALL     ?DEALLOC_XSTACK8
          CFI CFA_XSP16 add(XSP16, 14)
// 1268             
// 1269             //Set the poll rate to the application default after TCLK success
// 1270             NLME_SetPollRate(POLL_RATE);
        ; Setup parameters for call to function NLME_SetPollRate
        MOV       DPTR,#__Constant_3e8
        LCALL     ?XLOAD_R2345
        LCALL     `??NLME_SetPollRate::?relay`; Banked call to: NLME_SetPollRate
// 1271 
// 1272             osal_stop_timerEx( bdb_TaskID, BDB_PROCESS_TIMEOUT );
        ; Setup parameters for call to function osal_stop_timerEx
        MOV       R2,#0x0
        MOV       R3,#0x10
        MOV       DPTR,#bdb_TaskID
        MOVX      A,@DPTR
        MOV       R1,A
        LCALL     `??osal_stop_timerEx::?relay`; Banked call to: osal_stop_timerEx
// 1273             //No notification to the user is needed
// 1274             return;
        LJMP      ??bdb_reportCommissioningState_1 & 0xFFFF
// 1275           }
// 1276           else
// 1277           {
// 1278             bdbCommissioningModeMsg.bdbCommissioningMode = BDB_COMMISSIONING_NWK_STEERING;
??bdb_reportCommissioningState_17:
        MOV       A,#0x1
        LCALL     ?XSTACK_DISP0_8
        MOV       A,#0x1
        MOVX      @DPTR,A
// 1279             bdbAttributes.bdbCommissioningStatus = BDB_COMMISSIONING_TCLK_EX_FAILURE;
        MOV       DPTR,#bdbAttributes + 10
        MOV       A,#0x7
        MOVX      @DPTR,A
// 1280             
// 1281             osal_stop_timerEx( bdb_TaskID, BDB_PROCESS_TIMEOUT);
        ; Setup parameters for call to function osal_stop_timerEx
        MOV       R2,#0x0
        MOV       R3,#0x10
        MOV       DPTR,#bdb_TaskID
        MOVX      A,@DPTR
        MOV       R1,A
        LCALL     `??osal_stop_timerEx::?relay`; Banked call to: osal_stop_timerEx
// 1282            
// 1283             //No process shall be attempted after this fail
// 1284             bdbAttributes.bdbCommissioningMode = 0;
        MOV       DPTR,#bdbAttributes + 11
        CLR       A
        MOVX      @DPTR,A
// 1285             
// 1286             //Fill the context for the user notification
// 1287             osal_start_timerEx(bdb_TaskID,BDB_TC_LINK_KEY_EXCHANGE_FAIL,BDB_TC_LINK_KEY_EXCHANGE_FAIL_LEAVE_TIMEOUT);
        ; Setup parameters for call to function osal_start_timerEx
        MOV       DPTR,#__Constant_1388
        LCALL     ?PUSH_XSTACK8_X_FOUR
          CFI CFA_XSP16 add(XSP16, 18)
        MOV       R2,#0x2
        MOV       R3,#0x0
        MOV       DPTR,#bdb_TaskID
        MOVX      A,@DPTR
        MOV       R1,A
        LCALL     `??osal_start_timerEx::?relay`; Banked call to: osal_start_timerEx
        MOV       A,#0x4
        LCALL     ?DEALLOC_XSTACK8
          CFI CFA_XSP16 add(XSP16, 14)
        LJMP      ??bdb_reportCommissioningState_10 & 0xFFFF
// 1288           }
// 1289         }
// 1290       break;
// 1291 #endif
// 1292       
// 1293       case BDB_COMMISSIONING_STATE_STEERING_ON_NWK:
// 1294         bdbCommissioningModeMsg.bdbCommissioningMode = BDB_COMMISSIONING_NWK_STEERING;
??bdb_reportCommissioningState_5:
        MOV       A,#0x1
        LCALL     ?XSTACK_DISP0_8
        MOV       A,#0x1
        MOVX      @DPTR,A
// 1295         if(didSuccess)
        MOV       A,R7
        JZ        ??bdb_reportCommissioningState_18
// 1296         {
// 1297           bdbAttributes.bdbCommissioningStatus = BDB_COMMISSIONING_SUCCESS;
        MOV       DPTR,#bdbAttributes + 10
        CLR       A
        MOVX      @DPTR,A
// 1298           
// 1299 #if (ZG_BUILD_RTR_TYPE)          
// 1300           //Update ZDApp state
// 1301           if(ZG_DEVICE_RTRONLY_TYPE)
// 1302           {          
// 1303             ZDApp_ChangeState( DEV_ROUTER );
// 1304           }
// 1305 #endif
// 1306 #if (ZG_BUILD_ENDDEVICE_TYPE)
// 1307           if(ZG_DEVICE_ENDDEVICE_TYPE)
// 1308           {
// 1309             ZDApp_ChangeState( DEV_END_DEVICE );
        ; Setup parameters for call to function ZDApp_ChangeState
        MOV       R1,#0x6
        LCALL     `??ZDApp_ChangeState::?relay`; Banked call to: ZDApp_ChangeState
// 1310           }
// 1311 #endif
// 1312         }
// 1313 #if (ZG_BUILD_COORDINATOR_TYPE)
// 1314         else
// 1315         {
// 1316           if(ZG_DEVICE_COORDINATOR_TYPE)
// 1317           {
// 1318             bdbAttributes.bdbCommissioningStatus = BDB_COMMISSIONING_NO_NETWORK;
// 1319           }
// 1320         }
// 1321 #endif
// 1322         
// 1323         bdbCommissioningProcedureState.bdbCommissioningState = BDB_COMMISSIONING_STATE_START_RESUME;
??bdb_reportCommissioningState_18:
        LCALL     ?Subroutine12 & 0xFFFF
// 1324         osal_start_timerEx(bdb_TaskID,BDB_CHANGE_COMMISSIONING_STATE,50);
??CrossCallReturnLabel_89:
        LCALL     ?PUSH_XSTACK8_X_FOUR
          CFI CFA_XSP16 add(XSP16, 18)
        MOV       R2,#0x4
        MOV       R3,#0x0
        MOV       DPTR,#bdb_TaskID
        MOVX      A,@DPTR
        MOV       R1,A
        LCALL     `??osal_start_timerEx::?relay`; Banked call to: osal_start_timerEx
        MOV       A,#0x4
        LCALL     ?DEALLOC_XSTACK8
          CFI CFA_XSP16 add(XSP16, 14)
// 1325         bdbAttributes.bdbCommissioningMode &= ~BDB_COMMISSIONING_MODE_NWK_STEERING;
        MOV       DPTR,#bdbAttributes + 11
        MOVX      A,@DPTR
        CLR       0xE0 /* A   */.1
        LJMP      ??bdb_reportCommissioningState_19 & 0xFFFF
// 1326       break;
// 1327       
// 1328       case BDB_COMMISSIONING_STATE_FORMATION:
// 1329         bdbCommissioningModeMsg.bdbCommissioningMode = BDB_COMMISSIONING_FORMATION;
??bdb_reportCommissioningState_6:
        MOV       A,#0x1
        LCALL     ?XSTACK_DISP0_8
        MOV       A,#0x2
        MOVX      @DPTR,A
// 1330 
// 1331         if(didSuccess)
        MOV       A,R7
        MOV       DPTR,#bdbAttributes + 10
        JZ        ??bdb_reportCommissioningState_20
// 1332         {
// 1333           bdbAttributes.bdbCommissioningStatus = BDB_COMMISSIONING_SUCCESS;
        CLR       A
        MOVX      @DPTR,A
// 1334 
// 1335           //Clear any setting that would set the device as FN
// 1336           zgWriteStartupOptions(ZG_STARTUP_CLEAR, ZCD_STARTOPT_DEFAULT_CONFIG_STATE | ZCD_STARTOPT_DEFAULT_NETWORK_STATE);          
        ; Setup parameters for call to function zgWriteStartupOptions
        MOV       R2,#0x3
        MOV       R1,A
        LCALL     `??zgWriteStartupOptions::?relay`; Banked call to: zgWriteStartupOptions
        SJMP      ??bdb_reportCommissioningState_21
// 1337           
// 1338            //Update ZDApp State
// 1339 #if (ZG_BUILD_RTR_TYPE)
// 1340           if(ZG_DEVICE_RTRONLY_TYPE)
// 1341           {          
// 1342             ZDApp_ChangeState( DEV_ROUTER );
// 1343           }
// 1344 #endif    
// 1345 #if (ZG_BUILD_COORDINATOR_TYPE)
// 1346           if(ZG_DEVICE_COORDINATOR_TYPE)
// 1347           {          
// 1348             ZDApp_ChangeState( DEV_ZB_COORD );
// 1349           }     
// 1350 #endif
// 1351         }
// 1352         else
// 1353         {
// 1354           bdbAttributes.bdbCommissioningStatus = BDB_COMMISSIONING_FORMATION_FAILURE;
??bdb_reportCommissioningState_20:
        MOV       A,#0x8
        MOVX      @DPTR,A
// 1355           //If not on the nwk, then restart the nwk parameters
// 1356 #if (ZG_BUILD_RTR_TYPE)
// 1357           if(ZG_DEVICE_RTR_TYPE)
// 1358           {           
// 1359             if(!bdbAttributes.bdbNodeIsOnANetwork)
// 1360             {
// 1361               uint8 temp = FALSE;
// 1362               //Turn off the radio
// 1363               ZMacSetReq(ZMacRxOnIdle, &temp);
// 1364               //Set the device to FN, to start as new for subsequent attempts
// 1365               bdb_setFN();
// 1366               NLME_ResetRequest();
// 1367               ZDApp_ChangeState( DEV_HOLD );
// 1368             }
// 1369           }
// 1370 #endif
// 1371         }
// 1372         bdbCommissioningProcedureState.bdbCommissioningState = BDB_COMMISSIONING_STATE_START_RESUME;
??bdb_reportCommissioningState_21:
        LCALL     ?Subroutine12 & 0xFFFF
// 1373         osal_start_timerEx(bdb_TaskID,BDB_CHANGE_COMMISSIONING_STATE,50);
??CrossCallReturnLabel_90:
        LCALL     ?PUSH_XSTACK8_X_FOUR
          CFI CFA_XSP16 add(XSP16, 18)
        MOV       R2,#0x4
        MOV       R3,#0x0
        MOV       DPTR,#bdb_TaskID
        MOVX      A,@DPTR
        MOV       R1,A
        LCALL     `??osal_start_timerEx::?relay`; Banked call to: osal_start_timerEx
        MOV       A,#0x4
        LCALL     ?DEALLOC_XSTACK8
          CFI CFA_XSP16 add(XSP16, 14)
// 1374         bdbAttributes.bdbCommissioningMode &= ~BDB_COMMISSIONING_MODE_NWK_FORMATION;
        MOV       DPTR,#bdbAttributes + 11
        MOVX      A,@DPTR
        CLR       0xE0 /* A   */.2
        LJMP      ??bdb_reportCommissioningState_19 & 0xFFFF
// 1375       break;  
// 1376       
// 1377 
// 1378       case BDB_COMMISSIONING_STATE_FINDING_BINDING:
// 1379 #if (BDB_FINDING_BINDING_CAPABILITY_ENABLED==1) 
// 1380         bdbCommissioningModeMsg.bdbCommissioningMode = BDB_COMMISSIONING_FINDING_BINDING;
??bdb_reportCommissioningState_7:
        MOV       A,#0x1
        LCALL     ?XSTACK_DISP0_8
        MOV       A,#0x3
        MOVX      @DPTR,A
// 1381 
// 1382         //Do not notify the status if we have another identify to send
// 1383         if(bdbAttributes.bdbCommissioningStatus == BDB_COMMISSIONING_SUCCESS)
        MOV       DPTR,#bdbAttributes + 10
        MOVX      A,@DPTR
        JNZ       ??bdb_reportCommissioningState_22
// 1384         {
// 1385           //Success at least once during F&B as initiator, mark it
// 1386           bdb_FBStateSuccessLatch = TRUE;
        MOV       DPTR,#bdb_FBStateSuccessLatch
        MOV       A,#0x1
        MOVX      @DPTR,A
// 1387         }        
// 1388         
// 1389         //Will we process another indentify?
// 1390         if(((FINDING_AND_BINDING_PERIODIC_ENABLE == FALSE) || (bdb_FB_InitiatorCurrentCyclesNumber == 0)) && (bdb_getRespondentRetry(pRespondentHead) == NULL) && (osal_get_timeoutEx( bdb_TaskID, BDB_RESPONDENT_PROCESS_TIMEOUT) == 0))
??bdb_reportCommissioningState_22:
        MOV       DPTR,#bdb_FB_InitiatorCurrentCyclesNumber
        MOVX      A,@DPTR
        JZ        $+5
        LJMP      ??bdb_reportCommissioningState_1 & 0xFFFF
        ; Setup parameters for call to function bdb_getRespondentRetry
        MOV       DPTR,#pRespondentHead
        LCALL     ??Subroutine43_0 & 0xFFFF
??CrossCallReturnLabel_96:
        LCALL     `??bdb_getRespondentRetry::?relay`; Banked call to: bdb_getRespondentRetry
        MOV       ?V1,R3
        MOV       A,R2
        ORL       A,?V1
        JZ        $+5
        LJMP      ??bdb_reportCommissioningState_1 & 0xFFFF
        ; Setup parameters for call to function osal_get_timeoutEx
        MOV       R2,#0x0
        MOV       R3,#0x40
        MOV       DPTR,#bdb_TaskID
        MOVX      A,@DPTR
        MOV       R1,A
        LCALL     `??osal_get_timeoutEx::?relay`; Banked call to: osal_get_timeoutEx
        MOV       A,R2
        ORL       A,R3
        ORL       A,R4
        ORL       A,R5
        JZ        $+5
        LJMP      ??bdb_reportCommissioningState_1 & 0xFFFF
// 1391         {
// 1392           // Dealocate respondent list and clean all the F&B process
// 1393           pRespondentCurr = NULL;
        MOV       DPTR,#pRespondentCurr
        CLR       A
        MOVX      @DPTR,A
        INC       DPTR
        MOVX      @DPTR,A
// 1394           pRespondentNext = NULL;
        MOV       DPTR,#pRespondentNext
        MOVX      @DPTR,A
        INC       DPTR
        MOVX      @DPTR,A
// 1395           bdb_zclRespondentListClean( &pRespondentHead );
        ; Setup parameters for call to function bdb_zclRespondentListClean
        MOV       R2,#pRespondentHead & 0xff
        MOV       R3,#(pRespondentHead >> 8) & 0xff
        LCALL     `??bdb_zclRespondentListClean::?relay`; Banked call to: bdb_zclRespondentListClean
// 1396           osal_stop_timerEx( bdb_TaskID, BDB_RESPONDENT_PROCESS_TIMEOUT );
        ; Setup parameters for call to function osal_stop_timerEx
        MOV       R2,#0x0
        MOV       R3,#0x40
        MOV       DPTR,#bdb_TaskID
        MOVX      A,@DPTR
        MOV       R1,A
        LCALL     `??osal_stop_timerEx::?relay`; Banked call to: osal_stop_timerEx
// 1397           
// 1398           //Report success if in any of the attempts we got success, regardless that we did receive no rsp on the last attempt
// 1399           if(bdb_FBStateSuccessLatch && (bdbAttributes.bdbCommissioningStatus == BDB_COMMISSIONING_FB_NO_IDENTIFY_QUERY_RESPONSE))
        MOV       DPTR,#bdb_FBStateSuccessLatch
        MOVX      A,@DPTR
        JZ        ??bdb_reportCommissioningState_23
        MOV       DPTR,#bdbAttributes + 10
        MOVX      A,@DPTR
        XRL       A,#0xb
        JNZ       ??bdb_reportCommissioningState_23
// 1400           {
// 1401             bdbAttributes.bdbCommissioningStatus = BDB_COMMISSIONING_SUCCESS;
        CLR       A
        MOVX      @DPTR,A
// 1402           }
// 1403           
// 1404           //Set default state
// 1405           bdb_FBStateSuccessLatch = FALSE;
??bdb_reportCommissioningState_23:
        MOV       DPTR,#bdb_FBStateSuccessLatch
        CLR       A
        MOVX      @DPTR,A
// 1406           
// 1407           //Resume BDB machine state only if we were in F&B, if we were on parent lost, only clean the commissioning mode and remove from bdb_ParentLostSavedState
// 1408           if(bdbCommissioningProcedureState.bdbCommissioningState == BDB_COMMISSIONING_STATE_FINDING_BINDING)
        MOV       DPTR,#bdbCommissioningProcedureState
        MOVX      A,@DPTR
        XRL       A,#0x6
        JNZ       ??bdb_reportCommissioningState_24
// 1409           {
// 1410             bdbCommissioningProcedureState.bdbCommissioningState = BDB_COMMISSIONING_STATE_START_RESUME;
        LCALL     ??Subroutine39_0 & 0xFFFF
// 1411             osal_start_timerEx(bdb_TaskID,BDB_CHANGE_COMMISSIONING_STATE,50); 
// 1412           }
??CrossCallReturnLabel_92:
        LCALL     ?PUSH_XSTACK8_X_FOUR
          CFI CFA_XSP16 add(XSP16, 18)
        MOV       R2,#0x4
        MOV       R3,#0x0
        MOV       DPTR,#bdb_TaskID
        MOVX      A,@DPTR
        MOV       R1,A
        LCALL     `??osal_start_timerEx::?relay`; Banked call to: osal_start_timerEx
        MOV       A,#0x4
        LCALL     ?DEALLOC_XSTACK8
          CFI CFA_XSP16 add(XSP16, 14)
        SJMP      ??bdb_reportCommissioningState_25
// 1413           else if(bdbCommissioningProcedureState.bdb_ParentLostSavedState == BDB_COMMISSIONING_STATE_FINDING_BINDING)
??bdb_reportCommissioningState_24:
        MOV       DPTR,#bdbCommissioningProcedureState + 3
        MOVX      A,@DPTR
        XRL       A,#0x6
        JNZ       ??bdb_reportCommissioningState_25
// 1414           {
// 1415             bdbCommissioningProcedureState.bdb_ParentLostSavedState = BDB_COMMISSIONING_STATE_START_RESUME;
        CLR       A
        MOVX      @DPTR,A
// 1416           }
// 1417           
// 1418           bdbAttributes.bdbCommissioningMode &= ~BDB_COMMISSIONING_MODE_FINDING_BINDING;
??bdb_reportCommissioningState_25:
        MOV       DPTR,#bdbAttributes + 11
        MOVX      A,@DPTR
        CLR       0xE0 /* A   */.3
        LJMP      ??bdb_reportCommissioningState_19 & 0xFFFF
// 1419         }
// 1420         else
// 1421         {
// 1422           return;
// 1423         }
// 1424 
// 1425 #endif
// 1426       break;     
// 1427       case BDB_COMMISSIONING_STATE_TL:
// 1428         // Set NWK task to run
// 1429         nwk_setStateIdle( FALSE );
??bdb_reportCommissioningState_3:
        ; Setup parameters for call to function nwk_setStateIdle
        MOV       R1,#0x0
        LCALL     `??nwk_setStateIdle::?relay`; Banked call to: nwk_setStateIdle
// 1430         bdbCommissioningModeMsg.bdbCommissioningMode = BDB_COMMISSIONING_TOUCHLINK;
        MOV       A,#0x1
        LCALL     ?XSTACK_DISP0_8
        MOV       A,#0x4
        MOVX      @DPTR,A
// 1431         if(didSuccess)
        MOV       A,R7
        JZ        ??bdb_reportCommissioningState_26
// 1432         {
// 1433           bdbAttributes.bdbCommissioningStatus = BDB_COMMISSIONING_SUCCESS;
        MOV       DPTR,#bdbAttributes + 10
        CLR       A
        MOVX      @DPTR,A
// 1434           bdbAttributes.bdbCommissioningMode = BDB_COMMISSIONING_MODE_IDDLE;
        INC       DPTR
        MOVX      @DPTR,A
// 1435           
// 1436           //Update ZDApp state
// 1437 #if (ZG_BUILD_RTR_TYPE)
// 1438           if(ZG_DEVICE_RTRONLY_TYPE)
// 1439           {          
// 1440             ZDApp_ChangeState( DEV_ROUTER );
// 1441           }
// 1442 #endif
// 1443 #if (ZG_BUILD_ENDDEVICE_TYPE)
// 1444           if(ZG_DEVICE_ENDDEVICE_TYPE)
// 1445           {
// 1446             ZDApp_ChangeState( DEV_END_DEVICE );
        ; Setup parameters for call to function ZDApp_ChangeState
        MOV       R1,#0x6
        LCALL     `??ZDApp_ChangeState::?relay`; Banked call to: ZDApp_ChangeState
// 1447           }
// 1448 #endif          
// 1449         }
// 1450         //The fail status is already set from the calling function to report commissioning process
// 1451         
// 1452         // The commissioning FAIL status is set before calling the bdb_reportCommissioningState
// 1453         bdbCommissioningProcedureState.bdbCommissioningState = BDB_COMMISSIONING_STATE_START_RESUME;
??bdb_reportCommissioningState_26:
        LCALL     ?Subroutine12 & 0xFFFF
// 1454         osal_start_timerEx(bdb_TaskID,BDB_CHANGE_COMMISSIONING_STATE,50); 
??CrossCallReturnLabel_91:
        LCALL     ?PUSH_XSTACK8_X_FOUR
          CFI CFA_XSP16 add(XSP16, 18)
        MOV       R2,#0x4
        MOV       R3,#0x0
        MOV       DPTR,#bdb_TaskID
        MOVX      A,@DPTR
        MOV       R1,A
        LCALL     `??osal_start_timerEx::?relay`; Banked call to: osal_start_timerEx
        MOV       A,#0x4
        LCALL     ?DEALLOC_XSTACK8
          CFI CFA_XSP16 add(XSP16, 14)
// 1455         //Clear the event
// 1456         bdbAttributes.bdbCommissioningMode &= ~BDB_COMMISSIONING_MODE_INITIATOR_TL;
        MOV       DPTR,#bdbAttributes + 11
        MOVX      A,@DPTR
        CLR       0xE0 /* A   */.0
        SJMP      ??bdb_reportCommissioningState_19
// 1457         
// 1458       break;
// 1459       
// 1460       case BDB_INITIALIZATION:
// 1461         //Notify user about successfull initialization
// 1462         bdbCommissioningModeMsg.bdbCommissioningMode = BDB_COMMISSIONING_INITIALIZATION;
??bdb_reportCommissioningState_8:
        MOV       A,#0x1
        LCALL     ?XSTACK_DISP0_8
        CLR       A
        MOVX      @DPTR,A
// 1463         if(didSuccess)
        MOV       A,R7
        JZ        ??bdb_reportCommissioningState_27
// 1464         {
// 1465           //Update ZDApp state
// 1466 #if (ZG_BUILD_COORDINATOR_TYPE)
// 1467           if(ZG_DEVICE_COORDINATOR_TYPE)
// 1468           {          
// 1469             ZDApp_ChangeState( DEV_ZB_COORD );
// 1470           }
// 1471 #endif          
// 1472 #if (ZG_BUILD_ENDDEVICE_TYPE)
// 1473           if(ZG_DEVICE_ENDDEVICE_TYPE)
// 1474           {
// 1475             uint32 pollrate = POLL_RATE;
// 1476             NLME_SetPollRate(pollrate);
        ; Setup parameters for call to function NLME_SetPollRate
        MOV       DPTR,#__Constant_3e8
        LCALL     ?XLOAD_R2345
        LCALL     `??NLME_SetPollRate::?relay`; Banked call to: NLME_SetPollRate
// 1477             ZDApp_ChangeState( DEV_NWK_SEC_REJOIN_CURR_CHANNEL );
        ; Setup parameters for call to function ZDApp_ChangeState
        MOV       R1,#0x4
        LCALL     `??ZDApp_ChangeState::?relay`; Banked call to: ZDApp_ChangeState
// 1478             
// 1479           }
// 1480 #endif          
// 1481           ZDApp_RestoreNwkSecMaterial();
        ; Setup parameters for call to function ZDApp_RestoreNwkSecMaterial
        LCALL     `??ZDApp_RestoreNwkSecMaterial::?relay`; Banked call to: ZDApp_RestoreNwkSecMaterial
// 1482           bdbAttributes.bdbCommissioningStatus = BDB_COMMISSIONING_NETWORK_RESTORED;
        MOV       DPTR,#bdbAttributes + 10
        MOV       A,#0xd
        MOVX      @DPTR,A
// 1483           bdbCommissioningProcedureState.bdbCommissioningState = BDB_COMMISSIONING_STATE_START_RESUME;
        MOV       DPTR,#bdbCommissioningProcedureState
        CLR       A
        MOVX      @DPTR,A
// 1484           osal_start_timerEx(bdb_TaskID,BDB_CHANGE_COMMISSIONING_STATE,200);
        ; Setup parameters for call to function osal_start_timerEx
        MOV       DPTR,#__Constant_c8
        LCALL     ?PUSH_XSTACK8_X_FOUR
          CFI CFA_XSP16 add(XSP16, 18)
        MOV       R2,#0x4
        MOV       R3,#0x0
        MOV       DPTR,#bdb_TaskID
        MOVX      A,@DPTR
        MOV       R1,A
        LCALL     `??osal_start_timerEx::?relay`; Banked call to: osal_start_timerEx
        MOV       A,#0x4
        LCALL     ?DEALLOC_XSTACK8
          CFI CFA_XSP16 add(XSP16, 14)
        SJMP      ??bdb_reportCommissioningState_28
// 1485         }
// 1486         else
// 1487         {
// 1488 #if (ZG_BUILD_ENDDEVICE_TYPE)                   
// 1489           if(ZG_DEVICE_ENDDEVICE_TYPE)
// 1490           {
// 1491             if(bdb_isDeviceNonFactoryNew())
??bdb_reportCommissioningState_27:
        MOV       DPTR,#bdbAttributes + 14
        MOVX      A,@DPTR
        JZ        ??bdb_reportCommissioningState_29
// 1492             {
// 1493               //Notify the user about losing parent
// 1494               bdbCommissioningModeMsg.bdbCommissioningMode = BDB_COMMISSIONING_PARENT_LOST;
        MOV       A,#0x1
        LCALL     ?XSTACK_DISP0_8
        MOV       A,#0x5
        MOVX      @DPTR,A
// 1495               bdbAttributes.bdbCommissioningMode |= BDB_COMMISSIONING_MODE_PARENT_LOST;
        MOV       DPTR,#bdbAttributes + 11
        MOVX      A,@DPTR
        SETB      0xE0 /* A   */.5
        MOVX      @DPTR,A
// 1496               
// 1497               //Update ZDApp state
// 1498               ZDApp_ChangeState( DEV_NWK_ORPHAN );
        ; Setup parameters for call to function ZDApp_ChangeState
        MOV       R1,#0xa
        LCALL     `??ZDApp_ChangeState::?relay`; Banked call to: ZDApp_ChangeState
// 1499             }
// 1500           }
// 1501 #endif
// 1502           bdbAttributes.bdbCommissioningStatus = BDB_COMMISSIONING_NO_NETWORK;
??bdb_reportCommissioningState_29:
        MOV       DPTR,#bdbAttributes + 10
        MOV       A,#0x2
        MOVX      @DPTR,A
// 1503         }
// 1504         bdbAttributes.bdbCommissioningMode &= ~BDB_COMMISSIONING_MODE_INITIALIZATION;
??bdb_reportCommissioningState_28:
        MOV       DPTR,#bdbAttributes + 11
        MOVX      A,@DPTR
        CLR       0xE0 /* A   */.4
??bdb_reportCommissioningState_19:
        MOVX      @DPTR,A
// 1505 
// 1506       break;
        SJMP      ??bdb_reportCommissioningState_10
// 1507 #if (ZG_BUILD_ENDDEVICE_TYPE)     
// 1508       case BDB_PARENT_LOST:
// 1509         bdbCommissioningModeMsg.bdbCommissioningMode = BDB_COMMISSIONING_PARENT_LOST;
??bdb_reportCommissioningState_9:
        MOV       A,#0x1
        LCALL     ?XSTACK_DISP0_8
        MOV       A,#0x5
        MOVX      @DPTR,A
// 1510         if(ZG_DEVICE_ENDDEVICE_TYPE)
// 1511         {
// 1512           if(didSuccess)
        MOV       A,R7
        JZ        ??bdb_reportCommissioningState_30
// 1513           {
// 1514             uint32 pollrate = POLL_RATE;
// 1515             bdbCommissioningProcedureState.bdbCommissioningState = bdbCommissioningProcedureState.bdb_ParentLostSavedState;  
        MOV       DPTR,#bdbCommissioningProcedureState + 3
        MOVX      A,@DPTR
        MOV       DPTR,#bdbCommissioningProcedureState
        MOVX      @DPTR,A
// 1516             bdbCommissioningProcedureState.bdb_ParentLostSavedState = 0;
        MOV       DPTR,#bdbCommissioningProcedureState + 3
        CLR       A
        MOVX      @DPTR,A
// 1517             NLME_SetPollRate(pollrate);
        ; Setup parameters for call to function NLME_SetPollRate
        MOV       DPTR,#__Constant_3e8
        LCALL     ?XLOAD_R2345
        LCALL     `??NLME_SetPollRate::?relay`; Banked call to: NLME_SetPollRate
// 1518             bdbAttributes.bdbCommissioningMode &= ~BDB_COMMISSIONING_MODE_PARENT_LOST;
        MOV       DPTR,#bdbAttributes + 11
        MOVX      A,@DPTR
        CLR       0xE0 /* A   */.5
        MOVX      @DPTR,A
// 1519             bdbAttributes.bdbCommissioningStatus = BDB_COMMISSIONING_NETWORK_RESTORED;
        MOV       DPTR,#bdbAttributes + 10
        MOV       A,#0xd
        MOVX      @DPTR,A
// 1520             //Update ZDApp state
// 1521             ZDApp_ChangeState( DEV_NWK_SEC_REJOIN_CURR_CHANNEL );
        ; Setup parameters for call to function ZDApp_ChangeState
        MOV       R1,#0x4
        LCALL     `??ZDApp_ChangeState::?relay`; Banked call to: ZDApp_ChangeState
// 1522             
// 1523             bdb_NetworkRestoredResumeState();
        ; Setup parameters for call to function bdb_NetworkRestoredResumeState
        LCALL     `??bdb_NetworkRestoredResumeState::?relay`; Banked call to: bdb_NetworkRestoredResumeState
        SJMP      ??bdb_reportCommissioningState_10
// 1524           }
// 1525           else
// 1526           {
// 1527             bdbAttributes.bdbCommissioningMode |= BDB_COMMISSIONING_MODE_PARENT_LOST;
??bdb_reportCommissioningState_30:
        MOV       DPTR,#bdbAttributes + 11
        MOVX      A,@DPTR
        SETB      0xE0 /* A   */.5
        MOVX      @DPTR,A
// 1528             bdbAttributes.bdbCommissioningStatus = BDB_COMMISSIONING_NO_NETWORK;
        MOV       DPTR,#bdbAttributes + 10
        MOV       A,#0x2
        MOVX      @DPTR,A
// 1529             
// 1530             NLME_SetPollRate(0);
        ; Setup parameters for call to function NLME_SetPollRate
        MOV       DPTR,#__Constant_0
        LCALL     ?XLOAD_R2345
        LCALL     `??NLME_SetPollRate::?relay`; Banked call to: NLME_SetPollRate
// 1531             
// 1532           }
// 1533         }
// 1534       break;
// 1535 #endif
// 1536     }
// 1537 #ifdef MT_APP_CNF_FUNC
// 1538     //Notify the user about the status, the main state which has failed
// 1539     bdbCommissioningModeMsg.bdbCommissioningStatus = bdbAttributes.bdbCommissioningStatus;
// 1540     
// 1541     bdb_NotifyApp((uint8*)&bdbCommissioningModeMsg);
// 1542 #else
// 1543     if(pfnCommissioningStatusCB)
??bdb_reportCommissioningState_10:
        MOV       DPTR,#pfnCommissioningStatusCB
        LCALL     ??Subroutine37_0 & 0xFFFF
??CrossCallReturnLabel_77:
        JZ        ??bdb_reportCommissioningState_1
// 1544     {
// 1545       //Notify the user about the status, the main state which has failed
// 1546       bdbCommissioningModeMsg.bdbCommissioningStatus = bdbAttributes.bdbCommissioningStatus;
        MOV       DPTR,#bdbAttributes + 10
        MOVX      A,@DPTR
        MOV       DPL,?XSP + 0
        MOV       DPH,?XSP + 1
        LCALL     ?Subroutine5 & 0xFFFF
// 1547       
// 1548       bdb_NotifyApp((uint8*)&bdbCommissioningModeMsg);
// 1549     }
// 1550 #endif
// 1551   }  
??CrossCallReturnLabel_1:
        LCALL     ?PUSH_XSTACK_I_TWO
          CFI CFA_XSP16 add(XSP16, 16)
        MOV       R4,#0x3
        MOV       R3,#0x0
        MOV       R2,#0xa
        MOV       DPTR,#bdb_TaskID
        MOVX      A,@DPTR
        MOV       R1,A
        LCALL     `??bdb_SendMsg::?relay`; Banked call to: bdb_SendMsg
        MOV       A,#0x2
        LCALL     ?DEALLOC_XSTACK8
          CFI CFA_XSP16 add(XSP16, 14)
// 1552 }
??bdb_reportCommissioningState_1:
        MOV       A,#0x4
        LJMP      ??Subroutine41_0 & 0xFFFF
          CFI EndBlock cfiBlock22

        RSEG BANKED_CODE:HUGECODE:NOROOT(0)
?Subroutine5:
          CFI Block cfiCond23 Using cfiCommon0
          CFI Function bdb_NotifyCommissioningModeStart
          CFI Conditional ??CrossCallReturnLabel_0
          CFI R6 load(1, XDATA, add(CFA_XSP16, literal(-10)))
          CFI VB load(1, XDATA, add(CFA_XSP16, literal(-9)))
          CFI V0 load(1, XDATA, add(CFA_XSP16, literal(-8)))
          CFI V1 load(1, XDATA, add(CFA_XSP16, literal(-7)))
          CFI R7 load(1, XDATA, add(CFA_XSP16, literal(-6)))
          CFI ?RET_LOW load(1, XDATA, add(CFA_XSP16, literal(-5)))
          CFI ?RET_HIGH load(1, XDATA, add(CFA_XSP16, literal(-4)))
          CFI ?BRET_EXT load(1, XDATA, add(CFA_XSP16, literal(-3)))
          CFI DPL0 load(1, XDATA, add(CFA_XSP16, literal(-2)))
          CFI DPH0 load(1, XDATA, add(CFA_XSP16, literal(-1)))
          CFI CFA_SP SP+-2
          CFI CFA_XSP16 add(XSP16, 13)
          CFI Block cfiCond24 Using cfiCommon0
          CFI (cfiCond24) Function bdb_reportCommissioningState
          CFI (cfiCond24) Conditional ??CrossCallReturnLabel_1
          CFI (cfiCond24) R6 load(1, XDATA, add(CFA_XSP16, literal(-10)))
          CFI (cfiCond24) VB load(1, XDATA, add(CFA_XSP16, literal(-9)))
          CFI (cfiCond24) V0 load(1, XDATA, add(CFA_XSP16, literal(-8)))
          CFI (cfiCond24) V1 load(1, XDATA, add(CFA_XSP16, literal(-7)))
          CFI (cfiCond24) R7 load(1, XDATA, add(CFA_XSP16, literal(-6)))
          CFI (cfiCond24) ?RET_LOW load(1, XDATA, add(CFA_XSP16, literal(-5)))
          CFI (cfiCond24) ?RET_HIGH load(1, XDATA, add(CFA_XSP16, literal(-4)))
          CFI (cfiCond24) ?BRET_EXT load(1, XDATA, add(CFA_XSP16, literal(-3)))
          CFI (cfiCond24) DPL0 load(1, XDATA, add(CFA_XSP16, literal(-2)))
          CFI (cfiCond24) DPH0 load(1, XDATA, add(CFA_XSP16, literal(-1)))
          CFI (cfiCond24) CFA_SP SP+-2
          CFI (cfiCond24) CFA_XSP16 add(XSP16, 14)
          CFI Block cfiCond25 Using cfiCommon0
          CFI (cfiCond25) Function bdb_startResumeCommissioningProcess
          CFI (cfiCond25) Conditional ??CrossCallReturnLabel_2
          CFI (cfiCond25) R6 load(1, XDATA, add(CFA_XSP16, literal(-10)))
          CFI (cfiCond25) VB load(1, XDATA, add(CFA_XSP16, literal(-9)))
          CFI (cfiCond25) V0 load(1, XDATA, add(CFA_XSP16, literal(-8)))
          CFI (cfiCond25) V1 load(1, XDATA, add(CFA_XSP16, literal(-7)))
          CFI (cfiCond25) R7 load(1, XDATA, add(CFA_XSP16, literal(-6)))
          CFI (cfiCond25) ?RET_LOW load(1, XDATA, add(CFA_XSP16, literal(-5)))
          CFI (cfiCond25) ?RET_HIGH load(1, XDATA, add(CFA_XSP16, literal(-4)))
          CFI (cfiCond25) ?BRET_EXT load(1, XDATA, add(CFA_XSP16, literal(-3)))
          CFI (cfiCond25) DPL0 load(1, XDATA, add(CFA_XSP16, literal(-2)))
          CFI (cfiCond25) DPH0 load(1, XDATA, add(CFA_XSP16, literal(-1)))
          CFI (cfiCond25) CFA_SP SP+-2
          CFI (cfiCond25) CFA_XSP16 add(XSP16, 21)
          CFI Block cfiCond26 Using cfiCommon0
          CFI (cfiCond26) Function bdb_startResumeCommissioningProcess
          CFI (cfiCond26) Conditional ??CrossCallReturnLabel_3
          CFI (cfiCond26) R6 load(1, XDATA, add(CFA_XSP16, literal(-10)))
          CFI (cfiCond26) VB load(1, XDATA, add(CFA_XSP16, literal(-9)))
          CFI (cfiCond26) V0 load(1, XDATA, add(CFA_XSP16, literal(-8)))
          CFI (cfiCond26) V1 load(1, XDATA, add(CFA_XSP16, literal(-7)))
          CFI (cfiCond26) R7 load(1, XDATA, add(CFA_XSP16, literal(-6)))
          CFI (cfiCond26) ?RET_LOW load(1, XDATA, add(CFA_XSP16, literal(-5)))
          CFI (cfiCond26) ?RET_HIGH load(1, XDATA, add(CFA_XSP16, literal(-4)))
          CFI (cfiCond26) ?BRET_EXT load(1, XDATA, add(CFA_XSP16, literal(-3)))
          CFI (cfiCond26) DPL0 load(1, XDATA, add(CFA_XSP16, literal(-2)))
          CFI (cfiCond26) DPH0 load(1, XDATA, add(CFA_XSP16, literal(-1)))
          CFI (cfiCond26) CFA_SP SP+-2
          CFI (cfiCond26) CFA_XSP16 add(XSP16, 21)
          CFI Block cfiPicker27 Using cfiCommon1
          CFI (cfiPicker27) NoFunction
          CFI (cfiPicker27) Picker
        MOVX      @DPTR,A
        ; Setup parameters for call to function bdb_SendMsg
        ; Setup parameters for call to function bdb_SendMsg
        ; Setup parameters for call to function bdb_SendMsg
        ; Setup parameters for call to function bdb_SendMsg
        MOV       R0,?XSP + 0
        MOV       R1,?XSP + 1
        MOV       ?V0,R0
        MOV       ?V1,R1
        MOV       R0,#?V0
        RET
          CFI EndBlock cfiCond23
          CFI EndBlock cfiCond24
          CFI EndBlock cfiCond25
          CFI EndBlock cfiCond26
          CFI EndBlock cfiPicker27
// 1553 
// 1554 
// 1555  /*********************************************************************
// 1556  * @fn          bdb_nwkFormationAttempt
// 1557  *
// 1558  * @brief       Process a nwk formation attempt.
// 1559  *
// 1560  * @param       didSuccess - TRUE if the nwk formation was success, FALSE 
// 1561  *                         otherwise and try secondary channel
// 1562  *
// 1563  * @return      none
// 1564  */

        RSEG BANKED_CODE:HUGECODE:NOROOT(0)
// 1565 void bdb_nwkFormationAttempt(bool didSuccess)
bdb_nwkFormationAttempt:
          CFI Block cfiBlock28 Using cfiCommon0
          CFI Function bdb_nwkFormationAttempt
        CODE
// 1566 {
        FUNCALL bdb_nwkFormationAttempt, bdb_reportCommissioningState
        LOCFRAME ISTACK, 0, STACK
        LOCFRAME PSTACK, 0, STACK
        LOCFRAME XSTACK, 9, STACK
        LOCFRAME IOVERLAY, 0, STATIC
        LOCFRAME DOVERLAY, 0, STATIC
        ARGFRAME ISTACK, 0, STACK
        ARGFRAME PSTACK, 0, STACK
        ARGFRAME XSTACK, 9, STACK
        ARGFRAME IOVERLAY, 0, STATIC
        ARGFRAME DOVERLAY, 0, STATIC
        FUNCALL bdb_nwkFormationAttempt, bdb_nwkJoiningFormation
        LOCFRAME ISTACK, 0, STACK
        LOCFRAME PSTACK, 0, STACK
        LOCFRAME XSTACK, 9, STACK
        LOCFRAME IOVERLAY, 0, STATIC
        LOCFRAME DOVERLAY, 0, STATIC
        ARGFRAME ISTACK, 0, STACK
        ARGFRAME PSTACK, 0, STACK
        ARGFRAME XSTACK, 9, STACK
        ARGFRAME IOVERLAY, 0, STATIC
        ARGFRAME DOVERLAY, 0, STATIC
        FUNCALL bdb_nwkFormationAttempt, bdb_reportCommissioningState
        LOCFRAME ISTACK, 0, STACK
        LOCFRAME PSTACK, 0, STACK
        LOCFRAME XSTACK, 9, STACK
        LOCFRAME IOVERLAY, 0, STATIC
        LOCFRAME DOVERLAY, 0, STATIC
        ARGFRAME ISTACK, 0, STACK
        ARGFRAME PSTACK, 0, STACK
        ARGFRAME XSTACK, 9, STACK
        ARGFRAME IOVERLAY, 0, STATIC
        ARGFRAME DOVERLAY, 0, STATIC
        MOV       A,#-0x9
        LCALL     ?BANKED_ENTER_XDATA
          CFI DPH0 load(1, XDATA, add(CFA_XSP16, literal(-1)))
          CFI DPL0 load(1, XDATA, add(CFA_XSP16, literal(-2)))
          CFI ?BRET_EXT load(1, XDATA, add(CFA_XSP16, literal(-3)))
          CFI ?RET_HIGH load(1, XDATA, add(CFA_XSP16, literal(-4)))
          CFI ?RET_LOW load(1, XDATA, add(CFA_XSP16, literal(-5)))
          CFI R7 load(1, XDATA, add(CFA_XSP16, literal(-6)))
          CFI V0 load(1, XDATA, add(CFA_XSP16, literal(-7)))
          CFI VB load(1, XDATA, add(CFA_XSP16, literal(-8)))
          CFI R6 load(1, XDATA, add(CFA_XSP16, literal(-9)))
          CFI CFA_SP SP+0
          CFI CFA_XSP16 add(XSP16, 9)
        ; Saved register size: 9
        ; Auto size: 0
        MOV       A,R1
// 1567   if(didSuccess)
        JZ        ??bdb_nwkFormationAttempt_0
// 1568   {
// 1569     bdb_reportCommissioningState(BDB_COMMISSIONING_STATE_FORMATION,TRUE);
        ; Setup parameters for call to function bdb_reportCommissioningState
        MOV       R2,#0x1
        SJMP      ??bdb_nwkFormationAttempt_1
// 1570   }
// 1571   else
// 1572   {
// 1573     //Can we try the secondary channel set?
// 1574     if((vDoPrimaryScan) && (bdbAttributes.bdbSecondaryChannelSet))
??bdb_nwkFormationAttempt_0:
        MOV       DPTR,#vDoPrimaryScan
        MOVX      A,@DPTR
        JZ        ??bdb_nwkFormationAttempt_2
        MOV       DPTR,#bdbAttributes
        LCALL     ?XLOAD_R0123
        MOV       A,R0
        ORL       A,R1
        ORL       A,R2
        ORL       A,R3
        JZ        ??bdb_nwkFormationAttempt_2
// 1575     {
// 1576       vDoPrimaryScan = FALSE;
        MOV       DPTR,#vDoPrimaryScan
        CLR       A
        MOVX      @DPTR,A
// 1577       bdb_nwkJoiningFormation(FALSE);
        ; Setup parameters for call to function bdb_nwkJoiningFormation
        MOV       R1,A
        LCALL     `??bdb_nwkJoiningFormation::?relay`; Banked call to: bdb_nwkJoiningFormation
        SJMP      ??bdb_nwkFormationAttempt_3
// 1578     }
// 1579     else
// 1580     {
// 1581       bdb_reportCommissioningState(BDB_COMMISSIONING_STATE_FORMATION, FALSE);
??bdb_nwkFormationAttempt_2:
        ; Setup parameters for call to function bdb_reportCommissioningState
        MOV       R2,#0x0
??bdb_nwkFormationAttempt_1:
        MOV       R1,#0x5
        LCALL     `??bdb_reportCommissioningState::?relay`; Banked call to: bdb_reportCommissioningState
// 1582     }
// 1583   }
// 1584 }
??bdb_nwkFormationAttempt_3:
          CFI EndBlock cfiBlock28
        REQUIRE ?Subroutine0
        ; // Fall through to label ?Subroutine0

        RSEG BANKED_CODE:HUGECODE:NOROOT(0)
?Subroutine0:
          CFI Block cfiBlock29 Using cfiCommon0
          CFI NoFunction
          CFI CFA_SP SP+0
          CFI CFA_XSP16 add(XSP16, 9)
          CFI VB load(1, XDATA, add(CFA_XSP16, literal(-8)))
          CFI DPL0 load(1, XDATA, add(CFA_XSP16, literal(-2)))
          CFI DPH0 load(1, XDATA, add(CFA_XSP16, literal(-1)))
          CFI R6 load(1, XDATA, add(CFA_XSP16, literal(-9)))
          CFI R7 load(1, XDATA, add(CFA_XSP16, literal(-6)))
          CFI V0 load(1, XDATA, add(CFA_XSP16, literal(-7)))
          CFI ?BRET_EXT load(1, XDATA, add(CFA_XSP16, literal(-3)))
          CFI ?RET_HIGH load(1, XDATA, add(CFA_XSP16, literal(-4)))
          CFI ?RET_LOW load(1, XDATA, add(CFA_XSP16, literal(-5)))
        MOV       R7,#0x1
        LJMP      ?BANKED_LEAVE_XDATA
          CFI EndBlock cfiBlock29
// 1585 
// 1586 
// 1587 
// 1588 /*********************************************************************
// 1589  * @fn          bdb_isDeviceNonFactoryNew
// 1590  *
// 1591  * @brief       Returns the state of bdbNodeIsOnANetwork attribute
// 1592  * 
// 1593  * @param       none
// 1594  *
// 1595  * @return      bdbNodeIsOnANetwork
// 1596  */

        RSEG BANKED_CODE:HUGECODE:NOROOT(0)
// 1597 bool bdb_isDeviceNonFactoryNew(void)
bdb_isDeviceNonFactoryNew:
          CFI Block cfiBlock30 Using cfiCommon0
          CFI Function bdb_isDeviceNonFactoryNew
        CODE
// 1598 {
        PUSH      DPL
          CFI DPL0 Frame(CFA_SP, 4)
          CFI CFA_SP SP+-4
        PUSH      DPH
          CFI DPH0 Frame(CFA_SP, 5)
          CFI CFA_SP SP+-5
        ; Saved register size: 2
        ; Auto size: 0
// 1599   return bdbAttributes.bdbNodeIsOnANetwork;
        MOV       DPTR,#bdbAttributes + 14
        MOVX      A,@DPTR
        MOV       R1,A
        LJMP      ??Subroutine32_0 & 0xFFFF
// 1600 }
          CFI EndBlock cfiBlock30
// 1601 
// 1602 
// 1603 /*********************************************************************
// 1604  * @fn          bdb_doTrustCenterRequireKeyExchange
// 1605  *
// 1606  * @brief       Returns the state of bdbTrustCenterRequireKeyExchange attribute
// 1607  * 
// 1608  * @param       none
// 1609  *
// 1610  * @return      bdbTrustCenterRequireKeyExchange
// 1611  */

        RSEG BANKED_CODE:HUGECODE:NOROOT(0)
// 1612 bool bdb_doTrustCenterRequireKeyExchange(void)
bdb_doTrustCenterRequireKeyExchange:
          CFI Block cfiBlock31 Using cfiCommon0
          CFI Function bdb_doTrustCenterRequireKeyExchange
        CODE
// 1613 {
        ; Saved register size: 0
        ; Auto size: 0
// 1614 #if (ZG_BUILD_COORDINATOR_TYPE) 
// 1615   return bdbAttributes.bdbTrustCenterRequireKeyExchange;
// 1616 #else
// 1617   return 0;
        MOV       R1,#0x0
        LJMP      ?BRET
// 1618 #endif
// 1619 }
          CFI EndBlock cfiBlock31
// 1620 
// 1621 /*********************************************************************
// 1622  * @fn      bdb_rejoinNwk
// 1623  *
// 1624  * @brief   Attempt to rejoin/resume a nwk from nv parameters
// 1625  *
// 1626  * @param   none
// 1627  *
// 1628  * @return  ZStatus_t
// 1629  */

        RSEG BANKED_CODE:HUGECODE:NOROOT(0)
// 1630 ZStatus_t bdb_rejoinNwk(void)
bdb_rejoinNwk:
          CFI Block cfiBlock32 Using cfiCommon0
          CFI Function bdb_rejoinNwk
        CODE
// 1631 {
        FUNCALL bdb_rejoinNwk, osal_nv_write
        LOCFRAME ISTACK, 0, STACK
        LOCFRAME PSTACK, 0, STACK
        LOCFRAME XSTACK, 15, STACK
        LOCFRAME IOVERLAY, 0, STATIC
        LOCFRAME DOVERLAY, 0, STATIC
        ARGFRAME ISTACK, 0, STACK
        ARGFRAME PSTACK, 0, STACK
        ARGFRAME XSTACK, 15, STACK
        ARGFRAME IOVERLAY, 0, STATIC
        ARGFRAME DOVERLAY, 0, STATIC
        FUNCALL bdb_rejoinNwk, ZDApp_RestoreNwkKey
        LOCFRAME ISTACK, 0, STACK
        LOCFRAME PSTACK, 0, STACK
        LOCFRAME XSTACK, 11, STACK
        LOCFRAME IOVERLAY, 0, STATIC
        LOCFRAME DOVERLAY, 0, STATIC
        ARGFRAME ISTACK, 0, STACK
        ARGFRAME PSTACK, 0, STACK
        ARGFRAME XSTACK, 11, STACK
        ARGFRAME IOVERLAY, 0, STATIC
        ARGFRAME DOVERLAY, 0, STATIC
        FUNCALL bdb_rejoinNwk, ZDApp_ChangeState
        LOCFRAME ISTACK, 0, STACK
        LOCFRAME PSTACK, 0, STACK
        LOCFRAME XSTACK, 11, STACK
        LOCFRAME IOVERLAY, 0, STATIC
        LOCFRAME DOVERLAY, 0, STATIC
        ARGFRAME ISTACK, 0, STACK
        ARGFRAME PSTACK, 0, STACK
        ARGFRAME XSTACK, 11, STACK
        ARGFRAME IOVERLAY, 0, STATIC
        ARGFRAME DOVERLAY, 0, STATIC
        FUNCALL bdb_rejoinNwk, ZDApp_ChangeState
        LOCFRAME ISTACK, 0, STACK
        LOCFRAME PSTACK, 0, STACK
        LOCFRAME XSTACK, 11, STACK
        LOCFRAME IOVERLAY, 0, STATIC
        LOCFRAME DOVERLAY, 0, STATIC
        ARGFRAME ISTACK, 0, STACK
        ARGFRAME PSTACK, 0, STACK
        ARGFRAME XSTACK, 11, STACK
        ARGFRAME IOVERLAY, 0, STATIC
        ARGFRAME DOVERLAY, 0, STATIC
        FUNCALL bdb_rejoinNwk, ZMacSetReq
        LOCFRAME ISTACK, 0, STACK
        LOCFRAME PSTACK, 0, STACK
        LOCFRAME XSTACK, 11, STACK
        LOCFRAME IOVERLAY, 0, STATIC
        LOCFRAME DOVERLAY, 0, STATIC
        ARGFRAME ISTACK, 0, STACK
        ARGFRAME PSTACK, 0, STACK
        ARGFRAME XSTACK, 11, STACK
        ARGFRAME IOVERLAY, 0, STATIC
        ARGFRAME DOVERLAY, 0, STATIC
        FUNCALL bdb_rejoinNwk, ZDApp_RestoreNwkKey
        LOCFRAME ISTACK, 0, STACK
        LOCFRAME PSTACK, 0, STACK
        LOCFRAME XSTACK, 11, STACK
        LOCFRAME IOVERLAY, 0, STATIC
        LOCFRAME DOVERLAY, 0, STATIC
        ARGFRAME ISTACK, 0, STACK
        ARGFRAME PSTACK, 0, STACK
        ARGFRAME XSTACK, 11, STACK
        ARGFRAME IOVERLAY, 0, STATIC
        ARGFRAME DOVERLAY, 0, STATIC
        FUNCALL bdb_rejoinNwk, NLME_ReJoinRequest
        LOCFRAME ISTACK, 0, STACK
        LOCFRAME PSTACK, 0, STACK
        LOCFRAME XSTACK, 11, STACK
        LOCFRAME IOVERLAY, 0, STATIC
        LOCFRAME DOVERLAY, 0, STATIC
        ARGFRAME ISTACK, 0, STACK
        ARGFRAME PSTACK, 0, STACK
        ARGFRAME XSTACK, 11, STACK
        ARGFRAME IOVERLAY, 0, STATIC
        ARGFRAME DOVERLAY, 0, STATIC
        FUNCALL bdb_rejoinNwk, NLME_ReJoinRequestUnsecure
        LOCFRAME ISTACK, 0, STACK
        LOCFRAME PSTACK, 0, STACK
        LOCFRAME XSTACK, 11, STACK
        LOCFRAME IOVERLAY, 0, STATIC
        LOCFRAME DOVERLAY, 0, STATIC
        ARGFRAME ISTACK, 0, STACK
        ARGFRAME PSTACK, 0, STACK
        ARGFRAME XSTACK, 11, STACK
        ARGFRAME IOVERLAY, 0, STATIC
        ARGFRAME DOVERLAY, 0, STATIC
        REQUIRE ?V0
        REQUIRE ?V1
        MOV       A,#-0xa
        LCALL     ?BANKED_ENTER_XDATA
          CFI DPH0 load(1, XDATA, add(CFA_XSP16, literal(-1)))
          CFI DPL0 load(1, XDATA, add(CFA_XSP16, literal(-2)))
          CFI ?BRET_EXT load(1, XDATA, add(CFA_XSP16, literal(-3)))
          CFI ?RET_HIGH load(1, XDATA, add(CFA_XSP16, literal(-4)))
          CFI ?RET_LOW load(1, XDATA, add(CFA_XSP16, literal(-5)))
          CFI R7 load(1, XDATA, add(CFA_XSP16, literal(-6)))
          CFI V1 load(1, XDATA, add(CFA_XSP16, literal(-7)))
          CFI V0 load(1, XDATA, add(CFA_XSP16, literal(-8)))
          CFI VB load(1, XDATA, add(CFA_XSP16, literal(-9)))
          CFI R6 load(1, XDATA, add(CFA_XSP16, literal(-10)))
          CFI CFA_SP SP+0
          CFI CFA_XSP16 add(XSP16, 10)
        ; Saved register size: 10
        ; Auto size: 1
        MOV       A,#-0x1
        LCALL     ?ALLOC_XSTACK8
          CFI CFA_XSP16 add(XSP16, 11)
// 1632   ZStatus_t rejoinStatus = ZSuccess;
        MOV       R6,#0x0
// 1633   
// 1634   //Update the seq number
// 1635   _NIB.SequenceNum ++;
        MOV       DPTR,#_NIB
        MOVX      A,@DPTR
        INC       A
        MOVX      @DPTR,A
// 1636   
// 1637   osal_nv_write(ZCD_NV_NIB,osal_offsetof( nwkIB_t, SequenceNum ), sizeof( uint8), &_NIB.SequenceNum );
        ; Setup parameters for call to function osal_nv_write
        MOV       ?V0,#_NIB & 0xff
        MOV       ?V1,#(_NIB >> 8) & 0xff
        MOV       R0,#?V0
        LCALL     ?PUSH_XSTACK_I_TWO
          CFI CFA_XSP16 add(XSP16, 13)
        MOV       ?V0,#0x1
        MOV       ?V1,R6
        MOV       R0,#?V0
        LCALL     ?PUSH_XSTACK_I_TWO
          CFI CFA_XSP16 add(XSP16, 15)
        MOV       R4,#0x0
        MOV       R5,#0x0
        MOV       R2,#0x21
        MOV       R3,#0x0
        LCALL     `??osal_nv_write::?relay`; Banked call to: osal_nv_write
        MOV       A,#0x4
        LCALL     ?DEALLOC_XSTACK8
          CFI CFA_XSP16 add(XSP16, 11)
// 1638   
// 1639   // Transition state machine to correct rejoin state based on nwk key
// 1640   if ( ZDApp_RestoreNwkKey( FALSE )== TRUE )
        ; Setup parameters for call to function ZDApp_RestoreNwkKey
        MOV       R1,#0x0
        LCALL     `??ZDApp_RestoreNwkKey::?relay`; Banked call to: ZDApp_RestoreNwkKey
        MOV       A,R1
        XRL       A,#0x1
        JNZ       ??bdb_rejoinNwk_0
// 1641   {
// 1642     ZDApp_ChangeState( DEV_NWK_SEC_REJOIN_CURR_CHANNEL );
        ; Setup parameters for call to function ZDApp_ChangeState
        MOV       R1,#0x4
        SJMP      ??bdb_rejoinNwk_1
// 1643   }
// 1644   else
// 1645   {
// 1646     ZDApp_ChangeState( DEV_NWK_TC_REJOIN_CURR_CHANNEL );
??bdb_rejoinNwk_0:
        ; Setup parameters for call to function ZDApp_ChangeState
        MOV       R1,#0xe
??bdb_rejoinNwk_1:
        LCALL     `??ZDApp_ChangeState::?relay`; Banked call to: ZDApp_ChangeState
// 1647   }
// 1648 
// 1649   // Before trying to do rejoin, check if the device has a valid short address
// 1650   // If not, generate a random short address for itself
// 1651   if ( _NIB.nwkDevAddress == INVALID_NODE_ADDR )
        MOV       DPTR,#_NIB + 20
        MOVX      A,@DPTR
        XRL       A,#0xfe
        JNZ       ??bdb_rejoinNwk_2
        INC       DPTR
        MOVX      A,@DPTR
        CPL       A
??bdb_rejoinNwk_2:
        JNZ       ??bdb_rejoinNwk_3
// 1652   {
// 1653     rejoinStatus = ZFailure;
        MOV       R6,#0x1
// 1654   }
// 1655 
// 1656   // Check if the device has a valid PanID, if not, set it to the discovered Pan
// 1657   if ( _NIB.nwkPanId == 0xFFFF )
??bdb_rejoinNwk_3:
        MOV       DPTR,#_NIB + 33
        MOVX      A,@DPTR
        CPL       A
        JNZ       ??bdb_rejoinNwk_4
        INC       DPTR
        MOVX      A,@DPTR
        CPL       A
??bdb_rejoinNwk_4:
        JNZ       ??bdb_rejoinNwk_5
// 1658   {
// 1659     rejoinStatus = ZFailure;
        MOV       R6,#0x1
        SJMP      ??bdb_rejoinNwk_6
// 1660   }
// 1661 
// 1662   if(rejoinStatus == ZSuccess)
??bdb_rejoinNwk_5:
        MOV       A,R6
        MOV       C,0xE0 /* A   */.0
        JC        ??bdb_rejoinNwk_6
// 1663   {
// 1664     uint8 tmp = true;
        MOV       DPL,?XSP + 0
        MOV       DPH,?XSP + 1
        MOV       A,#0x1
        MOVX      @DPTR,A
// 1665     ZMacSetReq( ZMacRxOnIdle, &tmp ); // Set receiver always on during rejoin
        ; Setup parameters for call to function ZMacSetReq
        MOV       R2,?XSP + 0
        MOV       R3,?XSP + 1
        MOV       R1,#0x52
        LCALL     `??ZMacSetReq::?relay`; Banked call to: ZMacSetReq
// 1666         
// 1667     // Perform Secure or Unsecure Rejoin depending on available configuration
// 1668     if ( ZG_SECURE_ENABLED && ( ZDApp_RestoreNwkKey( TRUE ) == TRUE ) )
        ; Setup parameters for call to function ZDApp_RestoreNwkKey
        MOV       R1,#0x1
        LCALL     `??ZDApp_RestoreNwkKey::?relay`; Banked call to: ZDApp_RestoreNwkKey
        MOV       A,R1
        XRL       A,#0x1
        MOV       DPTR,#_NIB + 22
        JNZ       ??bdb_rejoinNwk_7
// 1669     {
// 1670       rejoinStatus = NLME_ReJoinRequest( ZDO_UseExtendedPANID, _NIB.nwkLogicalChannel);
        ; Setup parameters for call to function NLME_ReJoinRequest
        MOVX      A,@DPTR
        MOV       R1,A
        MOV       R2,#ZDO_UseExtendedPANID & 0xff
        MOV       R3,#(ZDO_UseExtendedPANID >> 8) & 0xff
        LCALL     `??NLME_ReJoinRequest::?relay`; Banked call to: NLME_ReJoinRequest
        SJMP      ??bdb_rejoinNwk_8
// 1671     }
// 1672     else
// 1673     {
// 1674       rejoinStatus = NLME_ReJoinRequestUnsecure( ZDO_UseExtendedPANID, _NIB.nwkLogicalChannel);
??bdb_rejoinNwk_7:
        ; Setup parameters for call to function NLME_ReJoinRequestUnsecure
        MOVX      A,@DPTR
        MOV       R1,A
        MOV       R2,#ZDO_UseExtendedPANID & 0xff
        MOV       R3,#(ZDO_UseExtendedPANID >> 8) & 0xff
        LCALL     `??NLME_ReJoinRequestUnsecure::?relay`; Banked call to: NLME_ReJoinRequestUnsecure
??bdb_rejoinNwk_8:
        MOV       A,R1
        MOV       R6,A
// 1675     }
// 1676   }
// 1677   
// 1678   return rejoinStatus;
??bdb_rejoinNwk_6:
        MOV       A,R6
        MOV       R1,A
        LJMP      ?Subroutine1 & 0xFFFF
// 1679 }
          CFI EndBlock cfiBlock32
// 1680 
// 1681 #if (ZG_BUILD_JOINING_TYPE)
// 1682  /*********************************************************************
// 1683  * @fn          bdb_nwkDiscoveryAttempt
// 1684  *
// 1685  * @brief       Process a nwk discovery attempt
// 1686  *
// 1687  * @param       didSuccess - TRUE we found nwk in the scanned channels, FALSE if 
// 1688  *                           no suitable nwks were found, try secondary channel
// 1689  *
// 1690  * @return      none
// 1691  */

        RSEG BANKED_CODE:HUGECODE:NOROOT(0)
// 1692 void bdb_nwkDiscoveryAttempt(bool didSuccess)
bdb_nwkDiscoveryAttempt:
          CFI Block cfiBlock33 Using cfiCommon0
          CFI Function bdb_nwkDiscoveryAttempt
        CODE
// 1693 {
        FUNCALL bdb_nwkDiscoveryAttempt, bdb_SendMsg
        LOCFRAME ISTACK, 0, STACK
        LOCFRAME PSTACK, 0, STACK
        LOCFRAME XSTACK, 13, STACK
        LOCFRAME IOVERLAY, 0, STATIC
        LOCFRAME DOVERLAY, 0, STATIC
        ARGFRAME ISTACK, 0, STACK
        ARGFRAME PSTACK, 0, STACK
        ARGFRAME XSTACK, 13, STACK
        ARGFRAME IOVERLAY, 0, STATIC
        ARGFRAME DOVERLAY, 0, STATIC
        FUNCALL bdb_nwkDiscoveryAttempt, bdb_setChannel
        LOCFRAME ISTACK, 0, STACK
        LOCFRAME PSTACK, 0, STACK
        LOCFRAME XSTACK, 11, STACK
        LOCFRAME IOVERLAY, 0, STATIC
        LOCFRAME DOVERLAY, 0, STATIC
        ARGFRAME ISTACK, 0, STACK
        ARGFRAME PSTACK, 0, STACK
        ARGFRAME XSTACK, 11, STACK
        ARGFRAME IOVERLAY, 0, STATIC
        ARGFRAME DOVERLAY, 0, STATIC
        FUNCALL bdb_nwkDiscoveryAttempt, ZDApp_NetworkInit
        LOCFRAME ISTACK, 0, STACK
        LOCFRAME PSTACK, 0, STACK
        LOCFRAME XSTACK, 11, STACK
        LOCFRAME IOVERLAY, 0, STATIC
        LOCFRAME DOVERLAY, 0, STATIC
        ARGFRAME ISTACK, 0, STACK
        ARGFRAME PSTACK, 0, STACK
        ARGFRAME XSTACK, 11, STACK
        ARGFRAME IOVERLAY, 0, STATIC
        ARGFRAME DOVERLAY, 0, STATIC
        FUNCALL bdb_nwkDiscoveryAttempt, bdb_reportCommissioningState
        LOCFRAME ISTACK, 0, STACK
        LOCFRAME PSTACK, 0, STACK
        LOCFRAME XSTACK, 11, STACK
        LOCFRAME IOVERLAY, 0, STATIC
        LOCFRAME DOVERLAY, 0, STATIC
        ARGFRAME ISTACK, 0, STACK
        ARGFRAME PSTACK, 0, STACK
        ARGFRAME XSTACK, 11, STACK
        ARGFRAME IOVERLAY, 0, STATIC
        ARGFRAME DOVERLAY, 0, STATIC
        REQUIRE ?V0
        REQUIRE ?V1
        MOV       A,#-0xa
        LCALL     ?BANKED_ENTER_XDATA
          CFI DPH0 load(1, XDATA, add(CFA_XSP16, literal(-1)))
          CFI DPL0 load(1, XDATA, add(CFA_XSP16, literal(-2)))
          CFI ?BRET_EXT load(1, XDATA, add(CFA_XSP16, literal(-3)))
          CFI ?RET_HIGH load(1, XDATA, add(CFA_XSP16, literal(-4)))
          CFI ?RET_LOW load(1, XDATA, add(CFA_XSP16, literal(-5)))
          CFI R7 load(1, XDATA, add(CFA_XSP16, literal(-6)))
          CFI V1 load(1, XDATA, add(CFA_XSP16, literal(-7)))
          CFI V0 load(1, XDATA, add(CFA_XSP16, literal(-8)))
          CFI VB load(1, XDATA, add(CFA_XSP16, literal(-9)))
          CFI R6 load(1, XDATA, add(CFA_XSP16, literal(-10)))
          CFI CFA_SP SP+0
          CFI CFA_XSP16 add(XSP16, 10)
        ; Saved register size: 10
        ; Auto size: 1
        MOV       A,#-0x1
        LCALL     ?ALLOC_XSTACK8
          CFI CFA_XSP16 add(XSP16, 11)
        MOV       A,R1
        MOV       R6,A
// 1694   uint8 bdbJoinEvent = BDB_JOIN_EVENT_NWK_DISCOVERY;
        MOV       DPL,?XSP + 0
        MOV       DPH,?XSP + 1
        CLR       A
        MOVX      @DPTR,A
// 1695   
// 1696   if(didSuccess)
        MOV       A,R6
        JZ        ??bdb_nwkDiscoveryAttempt_0
// 1697   {
// 1698     bdb_SendMsg(bdb_TaskID, BDB_COMMISSIONING_STATE_JOINING, BDB_MSG_EVENT_SUCCESS,sizeof(bdbJoinEvent),(uint8*)&bdbJoinEvent);
        ; Setup parameters for call to function bdb_SendMsg
        MOV       R0,?XSP + 0
        MOV       R1,?XSP + 1
        MOV       ?V0,R0
        MOV       ?V1,R1
        MOV       R0,#?V0
        LCALL     ?PUSH_XSTACK_I_TWO
          CFI CFA_XSP16 add(XSP16, 13)
        MOV       R4,#0x1
        MOV       R3,#0x0
        MOV       R2,#0x3
        MOV       DPTR,#bdb_TaskID
        MOVX      A,@DPTR
        MOV       R1,A
        LCALL     `??bdb_SendMsg::?relay`; Banked call to: bdb_SendMsg
        MOV       A,#0x2
        LCALL     ?DEALLOC_XSTACK8
          CFI CFA_XSP16 add(XSP16, 11)
        SJMP      ??bdb_nwkDiscoveryAttempt_1
// 1699   }
// 1700   else
// 1701   {
// 1702     //Can we try the secondary channel set?
// 1703     if((vDoPrimaryScan) && (bdbAttributes.bdbSecondaryChannelSet))
??bdb_nwkDiscoveryAttempt_0:
        MOV       DPTR,#vDoPrimaryScan
        MOVX      A,@DPTR
        JZ        ??bdb_nwkDiscoveryAttempt_2
        MOV       DPTR,#bdbAttributes
        LCALL     ?XLOAD_R0123
        MOV       A,R0
        ORL       A,R1
        ORL       A,R2
        ORL       A,R3
        JZ        ??bdb_nwkDiscoveryAttempt_2
// 1704     {
// 1705       vDoPrimaryScan = FALSE;
        MOV       DPTR,#vDoPrimaryScan
        CLR       A
        MOVX      @DPTR,A
// 1706       bdb_setChannel(bdbAttributes.bdbSecondaryChannelSet);
        ; Setup parameters for call to function bdb_setChannel
        MOV       DPTR,#bdbAttributes
        LCALL     ?XLOAD_R2345
        LCALL     `??bdb_setChannel::?relay`; Banked call to: bdb_setChannel
// 1707       
// 1708       ZDApp_NetworkInit( 50 );
        ; Setup parameters for call to function ZDApp_NetworkInit
        MOV       R2,#0x32
        MOV       R3,#0x0
        LCALL     `??ZDApp_NetworkInit::?relay`; Banked call to: ZDApp_NetworkInit
        SJMP      ??bdb_nwkDiscoveryAttempt_1
// 1709     }
// 1710     else
// 1711     {
// 1712       bdb_reportCommissioningState(BDB_COMMISSIONING_STATE_JOINING, FALSE);
??bdb_nwkDiscoveryAttempt_2:
        ; Setup parameters for call to function bdb_reportCommissioningState
        MOV       R2,#0x0
        MOV       R1,#0x3
        LCALL     `??bdb_reportCommissioningState::?relay`; Banked call to: bdb_reportCommissioningState
// 1713     }
// 1714   }
// 1715 }
??bdb_nwkDiscoveryAttempt_1:
        LJMP      ?Subroutine1 & 0xFFFF
          CFI EndBlock cfiBlock33
// 1716 
// 1717  /*********************************************************************
// 1718  * @fn          bdb_filterNwkDisc
// 1719  *
// 1720  * @brief       Filter the nwks found and attempt to join the suitable nwks
// 1721  *              Here the application can include nwk filters 
// 1722  *
// 1723  * @param       none
// 1724  *
// 1725  * @return      none
// 1726  */

        RSEG BANKED_CODE:HUGECODE:NOROOT(0)
// 1727 void bdb_filterNwkDisc(void)
bdb_filterNwkDisc:
          CFI Block cfiBlock34 Using cfiCommon0
          CFI Function bdb_filterNwkDisc
        CODE
// 1728 {
        FUNCALL bdb_filterNwkDisc, nwk_getNwkDescList
        LOCFRAME ISTACK, 0, STACK
        LOCFRAME PSTACK, 0, STACK
        LOCFRAME XSTACK, 11, STACK
        LOCFRAME IOVERLAY, 0, STATIC
        LOCFRAME DOVERLAY, 0, STATIC
        ARGFRAME ISTACK, 0, STACK
        ARGFRAME PSTACK, 0, STACK
        ARGFRAME XSTACK, 11, STACK
        ARGFRAME IOVERLAY, 0, STATIC
        ARGFRAME DOVERLAY, 0, STATIC
        FUNCALL bdb_filterNwkDisc, nwk_desc_list_release
        LOCFRAME ISTACK, 0, STACK
        LOCFRAME PSTACK, 0, STACK
        LOCFRAME XSTACK, 11, STACK
        LOCFRAME IOVERLAY, 0, STATIC
        LOCFRAME DOVERLAY, 0, STATIC
        ARGFRAME ISTACK, 0, STACK
        ARGFRAME PSTACK, 0, STACK
        ARGFRAME XSTACK, 11, STACK
        ARGFRAME IOVERLAY, 0, STATIC
        ARGFRAME DOVERLAY, 0, STATIC
        FUNCALL bdb_filterNwkDisc, bdb_nwkDescFree
        LOCFRAME ISTACK, 0, STACK
        LOCFRAME PSTACK, 0, STACK
        LOCFRAME XSTACK, 11, STACK
        LOCFRAME IOVERLAY, 0, STATIC
        LOCFRAME DOVERLAY, 0, STATIC
        ARGFRAME ISTACK, 0, STACK
        ARGFRAME PSTACK, 0, STACK
        ARGFRAME XSTACK, 11, STACK
        ARGFRAME IOVERLAY, 0, STATIC
        ARGFRAME DOVERLAY, 0, STATIC
        FUNCALL bdb_filterNwkDisc, nwk_ExtPANIDValid
        LOCFRAME ISTACK, 0, STACK
        LOCFRAME PSTACK, 0, STACK
        LOCFRAME XSTACK, 11, STACK
        LOCFRAME IOVERLAY, 0, STATIC
        LOCFRAME DOVERLAY, 0, STATIC
        ARGFRAME ISTACK, 0, STACK
        ARGFRAME PSTACK, 0, STACK
        ARGFRAME XSTACK, 11, STACK
        ARGFRAME IOVERLAY, 0, STATIC
        ARGFRAME DOVERLAY, 0, STATIC
        FUNCALL bdb_filterNwkDisc, sAddrExtCmp
        LOCFRAME ISTACK, 0, STACK
        LOCFRAME PSTACK, 0, STACK
        LOCFRAME XSTACK, 11, STACK
        LOCFRAME IOVERLAY, 0, STATIC
        LOCFRAME DOVERLAY, 0, STATIC
        ARGFRAME ISTACK, 0, STACK
        ARGFRAME PSTACK, 0, STACK
        ARGFRAME XSTACK, 11, STACK
        ARGFRAME IOVERLAY, 0, STATIC
        ARGFRAME DOVERLAY, 0, STATIC
        REQUIRE ?V0
        REQUIRE ?V1
        REQUIRE ?V2
        MOV       A,#-0xb
        LCALL     ?BANKED_ENTER_XDATA
          CFI DPH0 load(1, XDATA, add(CFA_XSP16, literal(-1)))
          CFI DPL0 load(1, XDATA, add(CFA_XSP16, literal(-2)))
          CFI ?BRET_EXT load(1, XDATA, add(CFA_XSP16, literal(-3)))
          CFI ?RET_HIGH load(1, XDATA, add(CFA_XSP16, literal(-4)))
          CFI ?RET_LOW load(1, XDATA, add(CFA_XSP16, literal(-5)))
          CFI R7 load(1, XDATA, add(CFA_XSP16, literal(-6)))
          CFI V2 load(1, XDATA, add(CFA_XSP16, literal(-7)))
          CFI V1 load(1, XDATA, add(CFA_XSP16, literal(-8)))
          CFI V0 load(1, XDATA, add(CFA_XSP16, literal(-9)))
          CFI VB load(1, XDATA, add(CFA_XSP16, literal(-10)))
          CFI R6 load(1, XDATA, add(CFA_XSP16, literal(-11)))
          CFI CFA_SP SP+0
          CFI CFA_XSP16 add(XSP16, 11)
        ; Saved register size: 11
        ; Auto size: 0
// 1729   networkDesc_t* pNwkDesc;
// 1730   uint8 i = 0;
// 1731   uint8 ResultCount = 0;
        MOV       ?V0,#0x0
// 1732   uint8 stackProfile = 0;
        MOV       ?V1,#0x0
// 1733   uint8 stackProfilePro = 0;
// 1734   
// 1735   pBDBListNwk  = nwk_getNwkDescList();
        ; Setup parameters for call to function nwk_getNwkDescList
        LCALL     `??nwk_getNwkDescList::?relay`; Banked call to: nwk_getNwkDescList
        MOV       DPTR,#pBDBListNwk
        LCALL     ?Subroutine11 & 0xFFFF
// 1736   nwk_desc_list_release();
??CrossCallReturnLabel_12:
        ; Setup parameters for call to function nwk_desc_list_release
        LCALL     `??nwk_desc_list_release::?relay`; Banked call to: nwk_desc_list_release
// 1737   
// 1738   pNwkDesc = pBDBListNwk;
        MOV       DPTR,#pBDBListNwk
        SJMP      ??CrossCallReturnLabel_45
// 1739   while (pNwkDesc)
// 1740   {
// 1741     ResultCount++;
??bdb_filterNwkDisc_0:
        INC       ?V0
// 1742     pNwkDesc = pNwkDesc->nextDesc;
        LCALL     ?Subroutine25 & 0xFFFF
// 1743   }
??CrossCallReturnLabel_45:
        LCALL     ?Subroutine28 & 0xFFFF
??CrossCallReturnLabel_51:
        MOV       A,R6
        ORL       A,R7
        JNZ       ??bdb_filterNwkDisc_0
// 1744   
// 1745   if(pBDBListNwk)
        MOV       DPTR,#pBDBListNwk
        LCALL     ??Subroutine37_0 & 0xFFFF
??CrossCallReturnLabel_78:
        JNZ       $+5
        LJMP      ??bdb_filterNwkDisc_1 & 0xFFFF
// 1746   {
// 1747     if(pfnFilterNwkDesc)
        MOV       DPTR,#pfnFilterNwkDesc
        LCALL     ??Subroutine37_0 & 0xFFFF
??CrossCallReturnLabel_79:
        JZ        ??bdb_filterNwkDisc_2
// 1748     {
// 1749       pfnFilterNwkDesc(pBDBListNwk, ResultCount);
        ; Setup parameters for indirect call
        MOV       R1,?V0
        LCALL     ?Subroutine16 & 0xFFFF
// 1750     }
??CrossCallReturnLabel_105:
        MOV       DPTR,#pfnFilterNwkDesc + 1
        LCALL     ??Subroutine35_0 & 0xFFFF
??CrossCallReturnLabel_62:
        LCALL     ?CALL_IND
// 1751     
// 1752     for ( stackProfile = 0; stackProfile < STACK_PROFILE_MAX; stackProfile++ )
// 1753     {
// 1754       pNwkDesc = pBDBListNwk;
??bdb_filterNwkDisc_2:
        MOV       DPTR,#pBDBListNwk
        LCALL     ?Subroutine28 & 0xFFFF
// 1755       
// 1756       if(pNwkDesc)
??CrossCallReturnLabel_52:
        MOV       A,R6
        ORL       A,R7
        JNZ       $+5
        LJMP      ??bdb_filterNwkDisc_3 & 0xFFFF
// 1757       {
// 1758         for ( i = 0; i < ResultCount; i++, pNwkDesc = pNwkDesc->nextDesc )
        MOV       ?V2,#0x0
        LJMP      ??CrossCallReturnLabel_53 & 0xFFFF
// 1759         {
// 1760           if ( nwk_ExtPANIDValid( ZDO_UseExtendedPANID ) == true )
// 1761           {
// 1762             // If the extended Pan ID is commissioned to a non zero value
// 1763             // Only join the Pan that has match EPID
// 1764             if ( osal_ExtAddrEqual( ZDO_UseExtendedPANID, pNwkDesc->extendedPANID) == false )
// 1765             {
// 1766               //Remove from the list
// 1767               bdb_nwkDescFree(pNwkDesc);
// 1768               ResultCount--;
// 1769               continue;
// 1770             }
// 1771           }
// 1772           else if ( zgConfigPANID != 0xFFFF )
??bdb_filterNwkDisc_4:
        MOV       DPTR,#zgConfigPANID
        MOVX      A,@DPTR
        CPL       A
        JNZ       ??bdb_filterNwkDisc_5
        INC       DPTR
        MOVX      A,@DPTR
        CPL       A
??bdb_filterNwkDisc_5:
        JZ        ??bdb_filterNwkDisc_6
// 1773           {
// 1774             // PAN Id is preconfigured. check if it matches
// 1775             if ( pNwkDesc->panId != zgConfigPANID )
        MOV       DPL,R6
        MOV       DPH,R7
        LCALL     ?Subroutine22 & 0xFFFF
// 1776             {
// 1777               //Remove from the list
// 1778               bdb_nwkDescFree(pNwkDesc);
// 1779               ResultCount--;
// 1780               continue;
// 1781             }
// 1782           }
??CrossCallReturnLabel_37:
        MOV       DPTR,#zgConfigPANID
        MOVX      A,@DPTR
        XRL       A,R0
        JNZ       ??bdb_filterNwkDisc_7
        INC       DPTR
        MOVX      A,@DPTR
        XRL       A,R1
??bdb_filterNwkDisc_7:
        JNZ       ??bdb_filterNwkDisc_8
// 1783 
// 1784           if ( pNwkDesc->chosenRouter != _NIB.nwkCoordAddress || _NIB.nwkCoordAddress == INVALID_NODE_ADDR )
??bdb_filterNwkDisc_6:
        MOV       DPTR,#_NIB + 23
        LCALL     ?Subroutine22 & 0xFFFF
??CrossCallReturnLabel_38:
        MOV       DPL,R6
        MOV       DPH,R7
        INC       DPTR
        INC       DPTR
        INC       DPTR
        INC       DPTR
        INC       DPTR
        INC       DPTR
        INC       DPTR
        MOVX      A,@DPTR
        XRL       A,R0
        JNZ       ??bdb_filterNwkDisc_9
        INC       DPTR
        MOVX      A,@DPTR
        XRL       A,R1
??bdb_filterNwkDisc_9:
        JNZ       ??bdb_filterNwkDisc_10
        MOV       A,#-0x2
        XRL       A,R0
        JNZ       ??bdb_filterNwkDisc_11
        MOV       A,#-0x1
        XRL       A,R1
??bdb_filterNwkDisc_11:
        JNZ       ??bdb_filterNwkDisc_12
// 1785           {
// 1786             // check that network is allowing joining
// 1787             if ( ZSTACK_ROUTER_BUILD )
// 1788             {
// 1789               if ( stackProfilePro == FALSE )
// 1790               {
// 1791                 if ( !pNwkDesc->routerCapacity )
// 1792                 {
// 1793                   //Remove from the list
// 1794                   bdb_nwkDescFree(pNwkDesc);
// 1795                   ResultCount--;
// 1796                   continue;
// 1797                 }
// 1798               }
// 1799               else
// 1800               {
// 1801                 if ( !pNwkDesc->deviceCapacity )
// 1802                 {
// 1803                   //Remove from the list
// 1804                   bdb_nwkDescFree(pNwkDesc);
// 1805                   ResultCount--;
// 1806                   continue;
// 1807                 }
// 1808               }
// 1809             }
// 1810             else if ( ZSTACK_END_DEVICE_BUILD )
// 1811             {
// 1812               if ( !pNwkDesc->deviceCapacity )
??bdb_filterNwkDisc_10:
        MOV       DPL,R6
        MOV       DPH,R7
        INC       DPTR
        INC       DPTR
        INC       DPTR
        INC       DPTR
        MOVX      A,@DPTR
        JZ        ??bdb_filterNwkDisc_8
// 1813               {
// 1814                 //Remove from the list
// 1815                 bdb_nwkDescFree(pNwkDesc);
// 1816                 ResultCount--;
// 1817                 continue;
// 1818               }
// 1819             }
// 1820           }
// 1821 
// 1822           // check version of zigbee protocol
// 1823           if ( pNwkDesc->version != _NIB.nwkProtocolVersion )
??bdb_filterNwkDisc_12:
        MOV       DPL,R6
        MOV       DPH,R7
        INC       DPTR
        INC       DPTR
        INC       DPTR
        INC       DPTR
        INC       DPTR
        MOVX      A,@DPTR
        MOV       R0,A
        MOV       DPTR,#_NIB + 17
        MOVX      A,@DPTR
        XRL       A,R0
        JNZ       ??bdb_filterNwkDisc_13
// 1824             continue;
// 1825 
// 1826           // check version of stack profile
// 1827           if ( pNwkDesc->stackProfile != zgStackProfile  )
        MOV       DPL,R6
        MOV       DPH,R7
        INC       DPTR
        INC       DPTR
        INC       DPTR
        INC       DPTR
        INC       DPTR
        INC       DPTR
        MOVX      A,@DPTR
        MOV       R0,A
        MOV       DPTR,#zgStackProfile
        MOVX      A,@DPTR
        XRL       A,R0
        JZ        ??bdb_filterNwkDisc_13
// 1828           {
// 1829             if ( ((zgStackProfile == HOME_CONTROLS) && (pNwkDesc->stackProfile == ZIGBEEPRO_PROFILE))
// 1830                 || ((zgStackProfile == ZIGBEEPRO_PROFILE) && (pNwkDesc->stackProfile == HOME_CONTROLS))  )
// 1831             {
// 1832               stackProfilePro = TRUE;
// 1833             }
// 1834 
// 1835             if ( stackProfile == 0 )
        MOV       A,?V1
        JNZ       ??bdb_filterNwkDisc_13
// 1836             {
// 1837               //Remove from the list
// 1838               bdb_nwkDescFree(pNwkDesc);
??bdb_filterNwkDisc_8:
        ; Setup parameters for call to function bdb_nwkDescFree
        MOV       A,R6
        MOV       R2,A
        MOV       A,R7
        MOV       R3,A
        LCALL     `??bdb_nwkDescFree::?relay`; Banked call to: bdb_nwkDescFree
// 1839               ResultCount--;
        DEC       ?V0
// 1840               continue;
// 1841             }
// 1842           }
??bdb_filterNwkDisc_13:
        INC       ?V2
        LCALL     ?Subroutine25 & 0xFFFF
??CrossCallReturnLabel_46:
        LCALL     ?Subroutine28 & 0xFFFF
??CrossCallReturnLabel_53:
        MOV       A,?V2
        CLR       C
        SUBB      A,?V0
        JNC       ??bdb_filterNwkDisc_3
        ; Setup parameters for call to function nwk_ExtPANIDValid
        MOV       R2,#ZDO_UseExtendedPANID & 0xff
        MOV       R3,#(ZDO_UseExtendedPANID >> 8) & 0xff
        LCALL     `??nwk_ExtPANIDValid::?relay`; Banked call to: nwk_ExtPANIDValid
        MOV       A,R1
        XRL       A,#0x1
        JZ        $+5
        LJMP      ??bdb_filterNwkDisc_4 & 0xFFFF
        ; Setup parameters for call to function sAddrExtCmp
        MOV       A,R6
        ADD       A,#0xb
        MOV       R4,A
        CLR       A
        ADDC      A,R7
        MOV       R5,A
        MOV       R2,#ZDO_UseExtendedPANID & 0xff
        MOV       R3,#(ZDO_UseExtendedPANID >> 8) & 0xff
        LCALL     `??sAddrExtCmp::?relay`; Banked call to: sAddrExtCmp
        MOV       A,R1
        JZ        $+5
        LJMP      ??bdb_filterNwkDisc_6 & 0xFFFF
        SJMP      ??bdb_filterNwkDisc_8
// 1843         }
// 1844       }
// 1845     }
??bdb_filterNwkDisc_3:
        INC       ?V1
        MOV       A,?V1
        CLR       C
        SUBB      A,#0x2
        JNC       $+5
        LJMP      ??bdb_filterNwkDisc_2 & 0xFFFF
// 1846   }
// 1847 }
??bdb_filterNwkDisc_1:
        MOV       R7,#0x3
        LJMP      ?BANKED_LEAVE_XDATA
          CFI EndBlock cfiBlock34

        RSEG BANKED_CODE:HUGECODE:NOROOT(0)
?Subroutine25:
          CFI Block cfiCond35 Using cfiCommon0
          CFI Function bdb_filterNwkDisc
          CFI Conditional ??CrossCallReturnLabel_45
          CFI R6 load(1, XDATA, add(CFA_XSP16, literal(-11)))
          CFI VB load(1, XDATA, add(CFA_XSP16, literal(-10)))
          CFI V0 load(1, XDATA, add(CFA_XSP16, literal(-9)))
          CFI V1 load(1, XDATA, add(CFA_XSP16, literal(-8)))
          CFI V2 load(1, XDATA, add(CFA_XSP16, literal(-7)))
          CFI R7 load(1, XDATA, add(CFA_XSP16, literal(-6)))
          CFI ?RET_LOW load(1, XDATA, add(CFA_XSP16, literal(-5)))
          CFI ?RET_HIGH load(1, XDATA, add(CFA_XSP16, literal(-4)))
          CFI ?BRET_EXT load(1, XDATA, add(CFA_XSP16, literal(-3)))
          CFI DPL0 load(1, XDATA, add(CFA_XSP16, literal(-2)))
          CFI DPH0 load(1, XDATA, add(CFA_XSP16, literal(-1)))
          CFI CFA_SP SP+-2
          CFI CFA_XSP16 add(XSP16, 11)
          CFI Block cfiCond36 Using cfiCommon0
          CFI (cfiCond36) Function bdb_filterNwkDisc
          CFI (cfiCond36) Conditional ??CrossCallReturnLabel_46
          CFI (cfiCond36) R6 load(1, XDATA, add(CFA_XSP16, literal(-11)))
          CFI (cfiCond36) VB load(1, XDATA, add(CFA_XSP16, literal(-10)))
          CFI (cfiCond36) V0 load(1, XDATA, add(CFA_XSP16, literal(-9)))
          CFI (cfiCond36) V1 load(1, XDATA, add(CFA_XSP16, literal(-8)))
          CFI (cfiCond36) V2 load(1, XDATA, add(CFA_XSP16, literal(-7)))
          CFI (cfiCond36) R7 load(1, XDATA, add(CFA_XSP16, literal(-6)))
          CFI (cfiCond36) ?RET_LOW load(1, XDATA, add(CFA_XSP16, literal(-5)))
          CFI (cfiCond36) ?RET_HIGH load(1, XDATA, add(CFA_XSP16, literal(-4)))
          CFI (cfiCond36) ?BRET_EXT load(1, XDATA, add(CFA_XSP16, literal(-3)))
          CFI (cfiCond36) DPL0 load(1, XDATA, add(CFA_XSP16, literal(-2)))
          CFI (cfiCond36) DPH0 load(1, XDATA, add(CFA_XSP16, literal(-1)))
          CFI (cfiCond36) CFA_SP SP+-2
          CFI (cfiCond36) CFA_XSP16 add(XSP16, 11)
          CFI Block cfiPicker37 Using cfiCommon1
          CFI (cfiPicker37) NoFunction
          CFI (cfiPicker37) Picker
        MOV       A,R6
        LCALL     ?Subroutine30 & 0xFFFF
??CrossCallReturnLabel_59:
        ADDC      A,R7
        MOV       DPH,A
        RET
          CFI EndBlock cfiCond35
          CFI EndBlock cfiCond36
          CFI EndBlock cfiPicker37
// 1848       
// 1849  /*********************************************************************
// 1850  * @fn          bdb_tryNwkAssoc
// 1851  *
// 1852  * @brief       Try to associate to the first network in the network descriptor list
// 1853  *
// 1854  * @param       none
// 1855  *
// 1856  * @return      none
// 1857  */

        RSEG BANKED_CODE:HUGECODE:NOROOT(0)
// 1858 static void bdb_tryNwkAssoc(void)
bdb_tryNwkAssoc:
          CFI Block cfiBlock38 Using cfiCommon0
          CFI Function bdb_tryNwkAssoc
        CODE
// 1859 {
        FUNCALL bdb_tryNwkAssoc, bdb_joinProcess
        LOCFRAME ISTACK, 0, STACK
        LOCFRAME PSTACK, 0, STACK
        LOCFRAME XSTACK, 11, STACK
        LOCFRAME IOVERLAY, 0, STATIC
        LOCFRAME DOVERLAY, 0, STATIC
        ARGFRAME ISTACK, 0, STACK
        ARGFRAME PSTACK, 0, STACK
        ARGFRAME XSTACK, 11, STACK
        ARGFRAME IOVERLAY, 0, STATIC
        ARGFRAME DOVERLAY, 0, STATIC
        FUNCALL bdb_tryNwkAssoc, bdb_nwkDescFree
        LOCFRAME ISTACK, 0, STACK
        LOCFRAME PSTACK, 0, STACK
        LOCFRAME XSTACK, 11, STACK
        LOCFRAME IOVERLAY, 0, STATIC
        LOCFRAME DOVERLAY, 0, STATIC
        ARGFRAME ISTACK, 0, STACK
        ARGFRAME PSTACK, 0, STACK
        ARGFRAME XSTACK, 11, STACK
        ARGFRAME IOVERLAY, 0, STATIC
        ARGFRAME DOVERLAY, 0, STATIC
        FUNCALL bdb_tryNwkAssoc, bdb_SendMsg
        LOCFRAME ISTACK, 0, STACK
        LOCFRAME PSTACK, 0, STACK
        LOCFRAME XSTACK, 13, STACK
        LOCFRAME IOVERLAY, 0, STATIC
        LOCFRAME DOVERLAY, 0, STATIC
        ARGFRAME ISTACK, 0, STACK
        ARGFRAME PSTACK, 0, STACK
        ARGFRAME XSTACK, 13, STACK
        ARGFRAME IOVERLAY, 0, STATIC
        ARGFRAME DOVERLAY, 0, STATIC
        FUNCALL bdb_tryNwkAssoc, bdb_SendMsg
        LOCFRAME ISTACK, 0, STACK
        LOCFRAME PSTACK, 0, STACK
        LOCFRAME XSTACK, 13, STACK
        LOCFRAME IOVERLAY, 0, STATIC
        LOCFRAME DOVERLAY, 0, STATIC
        ARGFRAME ISTACK, 0, STACK
        ARGFRAME PSTACK, 0, STACK
        ARGFRAME XSTACK, 13, STACK
        ARGFRAME IOVERLAY, 0, STATIC
        ARGFRAME DOVERLAY, 0, STATIC
        REQUIRE ?V0
        REQUIRE ?V1
        MOV       A,#-0xa
        LCALL     ?BANKED_ENTER_XDATA
          CFI DPH0 load(1, XDATA, add(CFA_XSP16, literal(-1)))
          CFI DPL0 load(1, XDATA, add(CFA_XSP16, literal(-2)))
          CFI ?BRET_EXT load(1, XDATA, add(CFA_XSP16, literal(-3)))
          CFI ?RET_HIGH load(1, XDATA, add(CFA_XSP16, literal(-4)))
          CFI ?RET_LOW load(1, XDATA, add(CFA_XSP16, literal(-5)))
          CFI R7 load(1, XDATA, add(CFA_XSP16, literal(-6)))
          CFI V1 load(1, XDATA, add(CFA_XSP16, literal(-7)))
          CFI V0 load(1, XDATA, add(CFA_XSP16, literal(-8)))
          CFI VB load(1, XDATA, add(CFA_XSP16, literal(-9)))
          CFI R6 load(1, XDATA, add(CFA_XSP16, literal(-10)))
          CFI CFA_SP SP+0
          CFI CFA_XSP16 add(XSP16, 10)
        ; Saved register size: 10
        ; Auto size: 1
        MOV       A,#-0x1
        LCALL     ?ALLOC_XSTACK8
          CFI CFA_XSP16 add(XSP16, 11)
// 1860   if(pBDBListNwk)
        MOV       DPTR,#pBDBListNwk
        LCALL     ??Subroutine37_0 & 0xFFFF
??CrossCallReturnLabel_80:
        MOV       DPTR,#bdbCommissioningProcedureState + 2
        JZ        ??bdb_tryNwkAssoc_0
// 1861   {
// 1862     bdbCommissioningProcedureState.bdbJoinState = BDB_JOIN_STATE_ASSOC;
        LCALL     ?Subroutine10 & 0xFFFF
// 1863     
// 1864     //Try the first in the list after the filtering
// 1865     if(ZSuccess != bdb_joinProcess(pBDBListNwk))
??CrossCallReturnLabel_10:
        LCALL     `??bdb_joinProcess::?relay`; Banked call to: bdb_joinProcess
        MOV       A,R1
        JZ        ??bdb_tryNwkAssoc_1
// 1866     {
// 1867       //If fail, free the first in the list and prepare for futher processing, either next nwk or discover again
// 1868       uint8 bdbJoinEvent = BDB_JOIN_EVENT_ASSOCIATION;
        MOV       DPL,?XSP + 0
        MOV       DPH,?XSP + 1
        LCALL     ?Subroutine10 & 0xFFFF
// 1869       bdb_nwkDescFree(pBDBListNwk);
??CrossCallReturnLabel_11:
        LCALL     `??bdb_nwkDescFree::?relay`; Banked call to: bdb_nwkDescFree
// 1870       bdb_SendMsg(bdb_TaskID,BDB_COMMISSIONING_STATE_JOINING,BDB_MSG_EVENT_FAIL,sizeof(uint8),&bdbJoinEvent);
        ; Setup parameters for call to function bdb_SendMsg
        SJMP      ??bdb_tryNwkAssoc_2
// 1871     }
// 1872   }
// 1873   else
// 1874   {
// 1875     bdbCommissioningProcedureState.bdbJoinState = BDB_JOIN_STATE_NWK_DISC;
??bdb_tryNwkAssoc_0:
        CLR       A
        LCALL     ??Subroutine38_0 & 0xFFFF
// 1876     uint8 bdbJoinEvent = BDB_JOIN_EVENT_NWK_DISCOVERY;
??CrossCallReturnLabel_88:
        MOVX      @DPTR,A
// 1877     
// 1878     bdb_SendMsg(bdb_TaskID,BDB_COMMISSIONING_STATE_JOINING,BDB_MSG_EVENT_FAIL,sizeof(uint8),&bdbJoinEvent);
        ; Setup parameters for call to function bdb_SendMsg
??bdb_tryNwkAssoc_2:
        MOV       R0,?XSP + 0
        MOV       R1,?XSP + 1
        MOV       ?V0,R0
        MOV       ?V1,R1
        MOV       R0,#?V0
        LCALL     ?PUSH_XSTACK_I_TWO
          CFI CFA_XSP16 add(XSP16, 13)
        MOV       R4,#0x1
        MOV       R3,#0x1
        MOV       R2,#0x3
        MOV       DPTR,#bdb_TaskID
        MOVX      A,@DPTR
        MOV       R1,A
        LCALL     `??bdb_SendMsg::?relay`; Banked call to: bdb_SendMsg
        MOV       A,#0x2
        LCALL     ?DEALLOC_XSTACK8
          CFI CFA_XSP16 add(XSP16, 11)
// 1879   }
// 1880 }
??bdb_tryNwkAssoc_1:
        LJMP      ?Subroutine1 & 0xFFFF
          CFI EndBlock cfiBlock38

        RSEG BANKED_CODE:HUGECODE:NOROOT(0)
?Subroutine10:
          CFI Block cfiCond39 Using cfiCommon0
          CFI Function bdb_tryNwkAssoc
          CFI Conditional ??CrossCallReturnLabel_10
          CFI R6 load(1, XDATA, add(CFA_XSP16, literal(-10)))
          CFI VB load(1, XDATA, add(CFA_XSP16, literal(-9)))
          CFI V0 load(1, XDATA, add(CFA_XSP16, literal(-8)))
          CFI V1 load(1, XDATA, add(CFA_XSP16, literal(-7)))
          CFI R7 load(1, XDATA, add(CFA_XSP16, literal(-6)))
          CFI ?RET_LOW load(1, XDATA, add(CFA_XSP16, literal(-5)))
          CFI ?RET_HIGH load(1, XDATA, add(CFA_XSP16, literal(-4)))
          CFI ?BRET_EXT load(1, XDATA, add(CFA_XSP16, literal(-3)))
          CFI DPL0 load(1, XDATA, add(CFA_XSP16, literal(-2)))
          CFI DPH0 load(1, XDATA, add(CFA_XSP16, literal(-1)))
          CFI CFA_SP SP+-2
          CFI CFA_XSP16 add(XSP16, 11)
          CFI Block cfiCond40 Using cfiCommon0
          CFI (cfiCond40) Function bdb_tryNwkAssoc
          CFI (cfiCond40) Conditional ??CrossCallReturnLabel_11
          CFI (cfiCond40) R6 load(1, XDATA, add(CFA_XSP16, literal(-10)))
          CFI (cfiCond40) VB load(1, XDATA, add(CFA_XSP16, literal(-9)))
          CFI (cfiCond40) V0 load(1, XDATA, add(CFA_XSP16, literal(-8)))
          CFI (cfiCond40) V1 load(1, XDATA, add(CFA_XSP16, literal(-7)))
          CFI (cfiCond40) R7 load(1, XDATA, add(CFA_XSP16, literal(-6)))
          CFI (cfiCond40) ?RET_LOW load(1, XDATA, add(CFA_XSP16, literal(-5)))
          CFI (cfiCond40) ?RET_HIGH load(1, XDATA, add(CFA_XSP16, literal(-4)))
          CFI (cfiCond40) ?BRET_EXT load(1, XDATA, add(CFA_XSP16, literal(-3)))
          CFI (cfiCond40) DPL0 load(1, XDATA, add(CFA_XSP16, literal(-2)))
          CFI (cfiCond40) DPH0 load(1, XDATA, add(CFA_XSP16, literal(-1)))
          CFI (cfiCond40) CFA_SP SP+-2
          CFI (cfiCond40) CFA_XSP16 add(XSP16, 11)
          CFI Block cfiPicker41 Using cfiCommon1
          CFI (cfiPicker41) NoFunction
          CFI (cfiPicker41) Picker
        MOV       A,#0x1
        MOVX      @DPTR,A
        ; Setup parameters for call to function bdb_joinProcess
        ; Setup parameters for call to function bdb_nwkDescFree
        MOV       DPTR,#pBDBListNwk
        MOVX      A,@DPTR
        MOV       R2,A
        INC       DPTR
        MOVX      A,@DPTR
        MOV       R3,A
        RET
          CFI EndBlock cfiCond39
          CFI EndBlock cfiCond40
          CFI EndBlock cfiPicker41
// 1881 
// 1882 
// 1883 
// 1884  /*********************************************************************
// 1885  * @fn          bdb_nwkAssocAttemt
// 1886  *
// 1887  * @brief       Process the result of an attempt to associate to a network 
// 1888  *
// 1889  * @param       didSuccess - bool
// 1890  *
// 1891  * @return      none
// 1892  */

        RSEG BANKED_CODE:HUGECODE:NOROOT(0)
// 1893 void bdb_nwkAssocAttemt(bool didSuccess)
bdb_nwkAssocAttemt:
          CFI Block cfiBlock42 Using cfiCommon0
          CFI Function bdb_nwkAssocAttemt
        CODE
// 1894 {
        FUNCALL bdb_nwkAssocAttemt, bdb_nwkDescFree
        LOCFRAME ISTACK, 0, STACK
        LOCFRAME PSTACK, 0, STACK
        LOCFRAME XSTACK, 11, STACK
        LOCFRAME IOVERLAY, 0, STATIC
        LOCFRAME DOVERLAY, 0, STATIC
        ARGFRAME ISTACK, 0, STACK
        ARGFRAME PSTACK, 0, STACK
        ARGFRAME XSTACK, 11, STACK
        ARGFRAME IOVERLAY, 0, STATIC
        ARGFRAME DOVERLAY, 0, STATIC
        FUNCALL bdb_nwkAssocAttemt, bdb_SendMsg
        LOCFRAME ISTACK, 0, STACK
        LOCFRAME PSTACK, 0, STACK
        LOCFRAME XSTACK, 13, STACK
        LOCFRAME IOVERLAY, 0, STATIC
        LOCFRAME DOVERLAY, 0, STATIC
        ARGFRAME ISTACK, 0, STACK
        ARGFRAME PSTACK, 0, STACK
        ARGFRAME XSTACK, 13, STACK
        ARGFRAME IOVERLAY, 0, STATIC
        ARGFRAME DOVERLAY, 0, STATIC
        REQUIRE ?V0
        REQUIRE ?V1
        MOV       A,#-0xa
        LCALL     ?BANKED_ENTER_XDATA
          CFI DPH0 load(1, XDATA, add(CFA_XSP16, literal(-1)))
          CFI DPL0 load(1, XDATA, add(CFA_XSP16, literal(-2)))
          CFI ?BRET_EXT load(1, XDATA, add(CFA_XSP16, literal(-3)))
          CFI ?RET_HIGH load(1, XDATA, add(CFA_XSP16, literal(-4)))
          CFI ?RET_LOW load(1, XDATA, add(CFA_XSP16, literal(-5)))
          CFI R7 load(1, XDATA, add(CFA_XSP16, literal(-6)))
          CFI V1 load(1, XDATA, add(CFA_XSP16, literal(-7)))
          CFI V0 load(1, XDATA, add(CFA_XSP16, literal(-8)))
          CFI VB load(1, XDATA, add(CFA_XSP16, literal(-9)))
          CFI R6 load(1, XDATA, add(CFA_XSP16, literal(-10)))
          CFI CFA_SP SP+0
          CFI CFA_XSP16 add(XSP16, 10)
        ; Saved register size: 10
        ; Auto size: 1
        MOV       A,#-0x1
        LCALL     ?ALLOC_XSTACK8
          CFI CFA_XSP16 add(XSP16, 11)
        MOV       A,R1
        MOV       R6,A
// 1895   bdbAttributes.bdbCommissioningStatus = BDB_COMMISSIONING_STATE_JOINING;
        MOV       DPTR,#bdbAttributes + 10
        MOV       A,#0x3
        LCALL     ?Subroutine8 & 0xFFFF
// 1896   uint8 bdbJoinEvent = BDB_JOIN_EVENT_ASSOCIATION;
??CrossCallReturnLabel_9:
        MOVX      @DPTR,A
// 1897   uint8 status;
// 1898   
// 1899   if(didSuccess)
        MOV       A,R6
        JZ        ??bdb_nwkAssocAttemt_0
// 1900   {
// 1901     status = BDB_MSG_EVENT_SUCCESS;
        MOV       R3,#0x0
        SJMP      ??bdb_nwkAssocAttemt_1
// 1902   }
// 1903   else
// 1904   {
// 1905     if(bdb_nwkAssocRetriesCount < BDBC_REC_SAME_NETWORK_RETRY_ATTEMPS)
??bdb_nwkAssocAttemt_0:
        MOV       DPTR,#bdb_nwkAssocRetriesCount
        MOVX      A,@DPTR
        CLR       C
        SUBB      A,#0x3
        JNC       ??bdb_nwkAssocAttemt_2
// 1906     {
// 1907       bdb_nwkAssocRetriesCount++;
        MOVX      A,@DPTR
        INC       A
        SJMP      ??bdb_nwkAssocAttemt_3
// 1908     }
// 1909     else
// 1910     {
// 1911       //Free the first in the list and prepare for futher processing
// 1912       bdb_nwkDescFree(pBDBListNwk);
??bdb_nwkAssocAttemt_2:
        ; Setup parameters for call to function bdb_nwkDescFree
        LCALL     ?Subroutine16 & 0xFFFF
??CrossCallReturnLabel_106:
        LCALL     `??bdb_nwkDescFree::?relay`; Banked call to: bdb_nwkDescFree
// 1913       bdb_nwkAssocRetriesCount = 0;
        MOV       DPTR,#bdb_nwkAssocRetriesCount
        CLR       A
??bdb_nwkAssocAttemt_3:
        MOVX      @DPTR,A
// 1914     }
// 1915     status = BDB_MSG_EVENT_FAIL;
        MOV       R3,#0x1
// 1916   }
// 1917   bdb_SendMsg(bdb_TaskID,BDB_COMMISSIONING_STATE_JOINING,status,sizeof(uint8),&bdbJoinEvent);
??bdb_nwkAssocAttemt_1:
        ; Setup parameters for call to function bdb_SendMsg
        MOV       R0,?XSP + 0
        MOV       R1,?XSP + 1
        MOV       ?V0,R0
        MOV       ?V1,R1
        MOV       R0,#?V0
        LCALL     ?PUSH_XSTACK_I_TWO
          CFI CFA_XSP16 add(XSP16, 13)
        MOV       R4,#0x1
        MOV       R2,#0x3
        MOV       DPTR,#bdb_TaskID
        MOVX      A,@DPTR
        MOV       R1,A
        LCALL     `??bdb_SendMsg::?relay`; Banked call to: bdb_SendMsg
        MOV       A,#0x2
        LCALL     ?DEALLOC_XSTACK8
          CFI CFA_XSP16 add(XSP16, 11)
// 1918 }
        LJMP      ?Subroutine1 & 0xFFFF
          CFI EndBlock cfiBlock42

        RSEG BANKED_CODE:HUGECODE:NOROOT(0)
?Subroutine8:
          CFI Block cfiCond43 Using cfiCommon0
          CFI Function bdb_NotifyCommissioningModeStart
          CFI Conditional ??CrossCallReturnLabel_8
          CFI R6 load(1, XDATA, add(CFA_XSP16, literal(-10)))
          CFI VB load(1, XDATA, add(CFA_XSP16, literal(-9)))
          CFI V0 load(1, XDATA, add(CFA_XSP16, literal(-8)))
          CFI V1 load(1, XDATA, add(CFA_XSP16, literal(-7)))
          CFI R7 load(1, XDATA, add(CFA_XSP16, literal(-6)))
          CFI ?RET_LOW load(1, XDATA, add(CFA_XSP16, literal(-5)))
          CFI ?RET_HIGH load(1, XDATA, add(CFA_XSP16, literal(-4)))
          CFI ?BRET_EXT load(1, XDATA, add(CFA_XSP16, literal(-3)))
          CFI DPL0 load(1, XDATA, add(CFA_XSP16, literal(-2)))
          CFI DPH0 load(1, XDATA, add(CFA_XSP16, literal(-1)))
          CFI CFA_SP SP+-2
          CFI CFA_XSP16 add(XSP16, 13)
          CFI Block cfiCond44 Using cfiCommon0
          CFI (cfiCond44) Function bdb_nwkAssocAttemt
          CFI (cfiCond44) Conditional ??CrossCallReturnLabel_9
          CFI (cfiCond44) R6 load(1, XDATA, add(CFA_XSP16, literal(-10)))
          CFI (cfiCond44) VB load(1, XDATA, add(CFA_XSP16, literal(-9)))
          CFI (cfiCond44) V0 load(1, XDATA, add(CFA_XSP16, literal(-8)))
          CFI (cfiCond44) V1 load(1, XDATA, add(CFA_XSP16, literal(-7)))
          CFI (cfiCond44) R7 load(1, XDATA, add(CFA_XSP16, literal(-6)))
          CFI (cfiCond44) ?RET_LOW load(1, XDATA, add(CFA_XSP16, literal(-5)))
          CFI (cfiCond44) ?RET_HIGH load(1, XDATA, add(CFA_XSP16, literal(-4)))
          CFI (cfiCond44) ?BRET_EXT load(1, XDATA, add(CFA_XSP16, literal(-3)))
          CFI (cfiCond44) DPL0 load(1, XDATA, add(CFA_XSP16, literal(-2)))
          CFI (cfiCond44) DPH0 load(1, XDATA, add(CFA_XSP16, literal(-1)))
          CFI (cfiCond44) CFA_SP SP+-2
          CFI (cfiCond44) CFA_XSP16 add(XSP16, 11)
          CFI Block cfiPicker45 Using cfiCommon1
          CFI (cfiPicker45) NoFunction
          CFI (cfiPicker45) Picker
        MOVX      @DPTR,A
        MOV       DPL,?XSP + 0
        MOV       DPH,?XSP + 1
        MOV       A,#0x1
        RET
          CFI EndBlock cfiCond43
          CFI EndBlock cfiCond44
          CFI EndBlock cfiPicker45
// 1919                        
// 1920 
// 1921 /****************************************************************************
// 1922  * @fn          bdb_nwkDescFree
// 1923  *
// 1924  * @brief       This function frees one network discovery data.
// 1925  *
// 1926  * @param       ZSuccess - If the device was found and erased
// 1927  * @param       ZInvalidParameter - Not found
// 1928  *
// 1929  * @return      none
// 1930  */

        RSEG BANKED_CODE:HUGECODE:NOROOT(0)
// 1931 ZStatus_t bdb_nwkDescFree(networkDesc_t* nodeDescToRemove)
bdb_nwkDescFree:
          CFI Block cfiBlock46 Using cfiCommon0
          CFI Function bdb_nwkDescFree
        CODE
// 1932 {
        FUNCALL bdb_nwkDescFree, osal_mem_free
        LOCFRAME ISTACK, 2, STACK
        LOCFRAME PSTACK, 0, STACK
        LOCFRAME XSTACK, 0, STACK
        LOCFRAME IOVERLAY, 0, STATIC
        LOCFRAME DOVERLAY, 0, STATIC
        ARGFRAME ISTACK, 2, STACK
        ARGFRAME PSTACK, 0, STACK
        ARGFRAME XSTACK, 0, STACK
        ARGFRAME IOVERLAY, 0, STATIC
        ARGFRAME DOVERLAY, 0, STATIC
        PUSH      DPL
          CFI DPL0 Frame(CFA_SP, 4)
          CFI CFA_SP SP+-4
        PUSH      DPH
          CFI DPH0 Frame(CFA_SP, 5)
          CFI CFA_SP SP+-5
        ; Saved register size: 2
        ; Auto size: 0
// 1933   networkDesc_t* current_desc;
// 1934   networkDesc_t* prev_desc;
// 1935   
// 1936   current_desc = pBDBListNwk;
        MOV       DPTR,#pBDBListNwk
        SJMP      ??CrossCallReturnLabel_47
// 1937 
// 1938   while(current_desc != NULL)
// 1939   {  
// 1940     if(current_desc == nodeDescToRemove)
// 1941     {
// 1942       if (current_desc == pBDBListNwk)
// 1943       {
// 1944         pBDBListNwk = pBDBListNwk->nextDesc;
// 1945       }
// 1946       else
// 1947       {
// 1948         prev_desc->nextDesc = current_desc->nextDesc;
// 1949       }
// 1950       
// 1951       osal_mem_free( current_desc );
// 1952       
// 1953       return ZSuccess;
// 1954     }
// 1955 
// 1956     prev_desc = current_desc;
??bdb_nwkDescFree_0:
        MOV       A,R0
        MOV       R4,A
        MOV       A,R1
        MOV       R5,A
// 1957     current_desc = current_desc->nextDesc;
        LCALL     ?Subroutine26 & 0xFFFF
??CrossCallReturnLabel_47:
        LCALL     ??Subroutine37_0 & 0xFFFF
??CrossCallReturnLabel_72:
        JZ        ??bdb_nwkDescFree_1
        MOV       A,R2
        XRL       A,R0
        JNZ       ??bdb_nwkDescFree_2
        MOV       A,R3
        XRL       A,R1
??bdb_nwkDescFree_2:
        JNZ       ??bdb_nwkDescFree_0
        LCALL     ?Subroutine16 & 0xFFFF
??CrossCallReturnLabel_107:
        MOV       A,R0
        XRL       A,R2
        JNZ       ??bdb_nwkDescFree_3
        MOV       A,R1
        XRL       A,R3
??bdb_nwkDescFree_3:
        JNZ       ??bdb_nwkDescFree_4
        MOVX      A,@DPTR
        XCH       A,R2
        LCALL     ?Subroutine30 & 0xFFFF
??CrossCallReturnLabel_57:
        ADDC      A,R2
        MOV       DPH,A
        LCALL     ??Subroutine43_0 & 0xFFFF
??CrossCallReturnLabel_97:
        MOV       DPTR,#pBDBListNwk
        SJMP      ??bdb_nwkDescFree_5
??bdb_nwkDescFree_4:
        LCALL     ?Subroutine26 & 0xFFFF
??CrossCallReturnLabel_48:
        LCALL     ??Subroutine43_0 & 0xFFFF
??CrossCallReturnLabel_98:
        MOV       A,R4
        LCALL     ?Subroutine30 & 0xFFFF
??CrossCallReturnLabel_58:
        ADDC      A,R5
        MOV       DPH,A
??bdb_nwkDescFree_5:
        LCALL     ?Subroutine11 & 0xFFFF
??CrossCallReturnLabel_13:
        ; Setup parameters for call to function osal_mem_free
        MOV       A,R0
        MOV       R2,A
        MOV       A,R1
        MOV       R3,A
        LCALL     `??osal_mem_free::?relay`; Banked call to: osal_mem_free
        MOV       R1,#0x0
        SJMP      ??bdb_nwkDescFree_6
// 1958   }
// 1959   
// 1960   return ZInvalidParameter;
??bdb_nwkDescFree_1:
        MOV       R1,#0x2
??bdb_nwkDescFree_6:
        LJMP      ??Subroutine32_0 & 0xFFFF
// 1961 }
          CFI EndBlock cfiBlock46

        RSEG BANKED_CODE:HUGECODE:NOROOT(0)
?Subroutine30:
          CFI Block cfiCond47 Using cfiCommon0
          CFI Function bdb_filterNwkDisc
          CFI Conditional ??CrossCallReturnLabel_59, ??CrossCallReturnLabel_45
          CFI R6 load(1, XDATA, add(CFA_XSP16, literal(-11)))
          CFI VB load(1, XDATA, add(CFA_XSP16, literal(-10)))
          CFI V0 load(1, XDATA, add(CFA_XSP16, literal(-9)))
          CFI V1 load(1, XDATA, add(CFA_XSP16, literal(-8)))
          CFI V2 load(1, XDATA, add(CFA_XSP16, literal(-7)))
          CFI R7 load(1, XDATA, add(CFA_XSP16, literal(-6)))
          CFI ?RET_LOW load(1, XDATA, add(CFA_XSP16, literal(-5)))
          CFI ?RET_HIGH load(1, XDATA, add(CFA_XSP16, literal(-4)))
          CFI ?BRET_EXT load(1, XDATA, add(CFA_XSP16, literal(-3)))
          CFI DPL0 load(1, XDATA, add(CFA_XSP16, literal(-2)))
          CFI DPH0 load(1, XDATA, add(CFA_XSP16, literal(-1)))
          CFI CFA_SP SP+-4
          CFI CFA_XSP16 add(XSP16, 11)
          CFI Block cfiCond48 Using cfiCommon0
          CFI (cfiCond48) Function bdb_filterNwkDisc
          CFI (cfiCond48) Conditional ??CrossCallReturnLabel_59, ??CrossCallReturnLabel_46
          CFI (cfiCond48) R6 load(1, XDATA, add(CFA_XSP16, literal(-11)))
          CFI (cfiCond48) VB load(1, XDATA, add(CFA_XSP16, literal(-10)))
          CFI (cfiCond48) V0 load(1, XDATA, add(CFA_XSP16, literal(-9)))
          CFI (cfiCond48) V1 load(1, XDATA, add(CFA_XSP16, literal(-8)))
          CFI (cfiCond48) V2 load(1, XDATA, add(CFA_XSP16, literal(-7)))
          CFI (cfiCond48) R7 load(1, XDATA, add(CFA_XSP16, literal(-6)))
          CFI (cfiCond48) ?RET_LOW load(1, XDATA, add(CFA_XSP16, literal(-5)))
          CFI (cfiCond48) ?RET_HIGH load(1, XDATA, add(CFA_XSP16, literal(-4)))
          CFI (cfiCond48) ?BRET_EXT load(1, XDATA, add(CFA_XSP16, literal(-3)))
          CFI (cfiCond48) DPL0 load(1, XDATA, add(CFA_XSP16, literal(-2)))
          CFI (cfiCond48) DPH0 load(1, XDATA, add(CFA_XSP16, literal(-1)))
          CFI (cfiCond48) CFA_SP SP+-4
          CFI (cfiCond48) CFA_XSP16 add(XSP16, 11)
          CFI Block cfiCond49 Using cfiCommon0
          CFI (cfiCond49) Function bdb_nwkDescFree
          CFI (cfiCond49) Conditional ??CrossCallReturnLabel_57
          CFI (cfiCond49) DPL0 Frame(CFA_SP, 4)
          CFI (cfiCond49) DPH0 Frame(CFA_SP, 5)
          CFI (cfiCond49) CFA_SP SP+-7
          CFI Block cfiCond50 Using cfiCommon0
          CFI (cfiCond50) Function bdb_nwkDescFree
          CFI (cfiCond50) Conditional ??CrossCallReturnLabel_58
          CFI (cfiCond50) DPL0 Frame(CFA_SP, 4)
          CFI (cfiCond50) DPH0 Frame(CFA_SP, 5)
          CFI (cfiCond50) CFA_SP SP+-7
          CFI Block cfiCond51 Using cfiCommon0
          CFI (cfiCond51) Function bdb_nwkDescFree
          CFI (cfiCond51) Conditional ??CrossCallReturnLabel_60, ??CrossCallReturnLabel_47
          CFI (cfiCond51) DPL0 Frame(CFA_SP, 4)
          CFI (cfiCond51) DPH0 Frame(CFA_SP, 5)
          CFI (cfiCond51) CFA_SP SP+-9
          CFI Block cfiCond52 Using cfiCommon0
          CFI (cfiCond52) Function bdb_nwkDescFree
          CFI (cfiCond52) Conditional ??CrossCallReturnLabel_60, ??CrossCallReturnLabel_48
          CFI (cfiCond52) DPL0 Frame(CFA_SP, 4)
          CFI (cfiCond52) DPH0 Frame(CFA_SP, 5)
          CFI (cfiCond52) CFA_SP SP+-9
          CFI Block cfiPicker53 Using cfiCommon1
          CFI (cfiPicker53) NoFunction
          CFI (cfiPicker53) Picker
        ADD       A,#0x14
        MOV       DPL,A
        CLR       A
        RET
          CFI EndBlock cfiCond47
          CFI EndBlock cfiCond48
          CFI EndBlock cfiCond49
          CFI EndBlock cfiCond50
          CFI EndBlock cfiCond51
          CFI EndBlock cfiCond52
          CFI EndBlock cfiPicker53

        RSEG BANKED_CODE:HUGECODE:NOROOT(0)
?Subroutine26:
          CFI Block cfiCond54 Using cfiCommon0
          CFI Function bdb_nwkDescFree
          CFI Conditional ??CrossCallReturnLabel_47
          CFI DPL0 Frame(CFA_SP, 4)
          CFI DPH0 Frame(CFA_SP, 5)
          CFI CFA_SP SP+-7
          CFI Block cfiCond55 Using cfiCommon0
          CFI (cfiCond55) Function bdb_nwkDescFree
          CFI (cfiCond55) Conditional ??CrossCallReturnLabel_48
          CFI (cfiCond55) DPL0 Frame(CFA_SP, 4)
          CFI (cfiCond55) DPH0 Frame(CFA_SP, 5)
          CFI (cfiCond55) CFA_SP SP+-7
          CFI Block cfiPicker56 Using cfiCommon1
          CFI (cfiPicker56) NoFunction
          CFI (cfiPicker56) Picker
        MOV       A,R0
        LCALL     ?Subroutine30 & 0xFFFF
??CrossCallReturnLabel_60:
        ADDC      A,R1
        MOV       DPH,A
        RET
          CFI EndBlock cfiCond54
          CFI EndBlock cfiCond55
          CFI EndBlock cfiPicker56
// 1962 
// 1963 /*********************************************************************
// 1964 * @fn          bdb_joinProcess
// 1965 *
// 1966 * @brief       Start the joining process for the selected nwk
// 1967 *
// 1968 * @return      ZStatus_t
// 1969 */  

        RSEG BANKED_CODE:HUGECODE:NOROOT(0)
// 1970 ZStatus_t bdb_joinProcess(networkDesc_t *pChosenNwk)
bdb_joinProcess:
          CFI Block cfiBlock57 Using cfiCommon0
          CFI Function bdb_joinProcess
        CODE
// 1971 {
        FUNCALL bdb_joinProcess, ZDApp_ChangeState
        LOCFRAME ISTACK, 0, STACK
        LOCFRAME PSTACK, 0, STACK
        LOCFRAME XSTACK, 10, STACK
        LOCFRAME IOVERLAY, 0, STATIC
        LOCFRAME DOVERLAY, 0, STATIC
        ARGFRAME ISTACK, 0, STACK
        ARGFRAME PSTACK, 0, STACK
        ARGFRAME XSTACK, 10, STACK
        ARGFRAME IOVERLAY, 0, STATIC
        ARGFRAME DOVERLAY, 0, STATIC
        FUNCALL bdb_joinProcess, ZDApp_NodeProfileSync
        LOCFRAME ISTACK, 0, STACK
        LOCFRAME PSTACK, 0, STACK
        LOCFRAME XSTACK, 10, STACK
        LOCFRAME IOVERLAY, 0, STATIC
        LOCFRAME DOVERLAY, 0, STATIC
        ARGFRAME ISTACK, 0, STACK
        ARGFRAME PSTACK, 0, STACK
        ARGFRAME XSTACK, 10, STACK
        ARGFRAME IOVERLAY, 0, STATIC
        ARGFRAME DOVERLAY, 0, STATIC
        FUNCALL bdb_joinProcess, NLME_JoinRequest
        LOCFRAME ISTACK, 0, STACK
        LOCFRAME PSTACK, 0, STACK
        LOCFRAME XSTACK, 14, STACK
        LOCFRAME IOVERLAY, 0, STATIC
        LOCFRAME DOVERLAY, 0, STATIC
        ARGFRAME ISTACK, 0, STACK
        ARGFRAME PSTACK, 0, STACK
        ARGFRAME XSTACK, 14, STACK
        ARGFRAME IOVERLAY, 0, STATIC
        ARGFRAME DOVERLAY, 0, STATIC
        FUNCALL bdb_joinProcess, NLME_SetPollRate
        LOCFRAME ISTACK, 0, STACK
        LOCFRAME PSTACK, 0, STACK
        LOCFRAME XSTACK, 10, STACK
        LOCFRAME IOVERLAY, 0, STATIC
        LOCFRAME DOVERLAY, 0, STATIC
        ARGFRAME ISTACK, 0, STACK
        ARGFRAME PSTACK, 0, STACK
        ARGFRAME XSTACK, 10, STACK
        ARGFRAME IOVERLAY, 0, STATIC
        ARGFRAME DOVERLAY, 0, STATIC
        FUNCALL bdb_joinProcess, NLME_SetQueuedPollRate
        LOCFRAME ISTACK, 0, STACK
        LOCFRAME PSTACK, 0, STACK
        LOCFRAME XSTACK, 10, STACK
        LOCFRAME IOVERLAY, 0, STATIC
        LOCFRAME DOVERLAY, 0, STATIC
        ARGFRAME ISTACK, 0, STACK
        ARGFRAME PSTACK, 0, STACK
        ARGFRAME XSTACK, 10, STACK
        ARGFRAME IOVERLAY, 0, STATIC
        ARGFRAME DOVERLAY, 0, STATIC
        FUNCALL bdb_joinProcess, NLME_SetResponseRate
        LOCFRAME ISTACK, 0, STACK
        LOCFRAME PSTACK, 0, STACK
        LOCFRAME XSTACK, 10, STACK
        LOCFRAME IOVERLAY, 0, STATIC
        LOCFRAME DOVERLAY, 0, STATIC
        ARGFRAME ISTACK, 0, STACK
        ARGFRAME PSTACK, 0, STACK
        ARGFRAME XSTACK, 10, STACK
        ARGFRAME IOVERLAY, 0, STATIC
        ARGFRAME DOVERLAY, 0, STATIC
        FUNCALL bdb_joinProcess, NLME_SetPollRate
        LOCFRAME ISTACK, 0, STACK
        LOCFRAME PSTACK, 0, STACK
        LOCFRAME XSTACK, 10, STACK
        LOCFRAME IOVERLAY, 0, STATIC
        LOCFRAME DOVERLAY, 0, STATIC
        ARGFRAME ISTACK, 0, STACK
        ARGFRAME PSTACK, 0, STACK
        ARGFRAME XSTACK, 10, STACK
        ARGFRAME IOVERLAY, 0, STATIC
        ARGFRAME DOVERLAY, 0, STATIC
        REQUIRE ?V0
        REQUIRE ?V1
        MOV       A,#-0xa
        LCALL     ?BANKED_ENTER_XDATA
          CFI DPH0 load(1, XDATA, add(CFA_XSP16, literal(-1)))
          CFI DPL0 load(1, XDATA, add(CFA_XSP16, literal(-2)))
          CFI ?BRET_EXT load(1, XDATA, add(CFA_XSP16, literal(-3)))
          CFI ?RET_HIGH load(1, XDATA, add(CFA_XSP16, literal(-4)))
          CFI ?RET_LOW load(1, XDATA, add(CFA_XSP16, literal(-5)))
          CFI R7 load(1, XDATA, add(CFA_XSP16, literal(-6)))
          CFI V1 load(1, XDATA, add(CFA_XSP16, literal(-7)))
          CFI V0 load(1, XDATA, add(CFA_XSP16, literal(-8)))
          CFI VB load(1, XDATA, add(CFA_XSP16, literal(-9)))
          CFI R6 load(1, XDATA, add(CFA_XSP16, literal(-10)))
          CFI CFA_SP SP+0
          CFI CFA_XSP16 add(XSP16, 10)
        ; Saved register size: 10
        ; Auto size: 0
        MOV       A,R2
        MOV       R6,A
        MOV       A,R3
        MOV       R7,A
// 1972   ZStatus_t status;
// 1973  
// 1974   ZDApp_ChangeState( DEV_NWK_JOINING );
        ; Setup parameters for call to function ZDApp_ChangeState
        MOV       R1,#0x3
        LCALL     `??ZDApp_ChangeState::?relay`; Banked call to: ZDApp_ChangeState
// 1975   ZDApp_NodeProfileSync( pChosenNwk->stackProfile);
        ; Setup parameters for call to function ZDApp_NodeProfileSync
        MOV       DPL,R6
        MOV       DPH,R7
        INC       DPTR
        INC       DPTR
        INC       DPTR
        INC       DPTR
        INC       DPTR
        INC       DPTR
        MOVX      A,@DPTR
        MOV       R1,A
        LCALL     `??ZDApp_NodeProfileSync::?relay`; Banked call to: ZDApp_NodeProfileSync
// 1976 
// 1977   status =  NLME_JoinRequest( pChosenNwk->extendedPANID, pChosenNwk->panId,
// 1978                         pChosenNwk->logicalChannel,
// 1979                         ZDO_Config_Node_Descriptor.CapabilityFlags,
// 1980                         pChosenNwk->chosenRouter, pChosenNwk->chosenRouterDepth );
        ; Setup parameters for call to function NLME_JoinRequest
        MOV       DPL,R6
        MOV       DPH,R7
        INC       DPTR
        INC       DPTR
        INC       DPTR
        INC       DPTR
        INC       DPTR
        INC       DPTR
        INC       DPTR
        INC       DPTR
        INC       DPTR
        INC       DPTR
        MOVX      A,@DPTR
        MOV       ?V0,A
        MOV       R0,#?V0
        LCALL     ?PUSH_XSTACK_I_ONE
          CFI CFA_XSP16 add(XSP16, 11)
        MOV       DPL,R6
        MOV       DPH,R7
        INC       DPTR
        INC       DPTR
        INC       DPTR
        INC       DPTR
        INC       DPTR
        INC       DPTR
        INC       DPTR
        LCALL     ?PUSH_XSTACK8_X_TWO
          CFI CFA_XSP16 add(XSP16, 13)
        MOV       DPTR,#ZDO_Config_Node_Descriptor + 2
        MOVX      A,@DPTR
        MOV       ?V0,A
        MOV       R0,#?V0
        LCALL     ?PUSH_XSTACK_I_ONE
          CFI CFA_XSP16 add(XSP16, 14)
        MOV       DPL,R6
        MOV       DPH,R7
        INC       DPTR
        INC       DPTR
        MOVX      A,@DPTR
        MOV       R1,A
        MOV       DPL,R6
        MOV       DPH,R7
        LCALL     ?Subroutine21 & 0xFFFF
??CrossCallReturnLabel_34:
        MOV       A,R6
        ADD       A,#0xb
        MOV       R2,A
        CLR       A
        ADDC      A,R7
        MOV       R3,A
        LCALL     `??NLME_JoinRequest::?relay`; Banked call to: NLME_JoinRequest
        MOV       A,#0x4
        LCALL     ?DEALLOC_XSTACK8
          CFI CFA_XSP16 add(XSP16, 10)
        MOV       A,R1
        MOV       R6,A
// 1981   
// 1982   if(status == ZSuccess)
        JNZ       ??bdb_joinProcess_0
// 1983   {
// 1984     // The receiver is on, turn network layer polling off.
// 1985     if ( ZDO_Config_Node_Descriptor.CapabilityFlags & CAPINFO_RCVR_ON_IDLE )
        MOV       DPTR,#ZDO_Config_Node_Descriptor + 2
        MOVX      A,@DPTR
        MOV       C,0xE0 /* A   */.3
        JNC       ??bdb_joinProcess_1
// 1986     {
// 1987       // for an End Device with NO Child Table Management process or for a Router
// 1988       if ( ( ZG_DEVICE_RTR_TYPE )  ||
// 1989            ( (ZG_DEVICE_ENDDEVICE_TYPE) && ( zgChildAgingEnable == FALSE ) ) )
        MOV       DPTR,#zgDeviceLogicalType
        MOVX      A,@DPTR
        JZ        ??bdb_joinProcess_2
        XRL       A,#0x1
        JZ        ??bdb_joinProcess_2
        MOV       DPTR,#zgChildAgingEnable
        MOVX      A,@DPTR
        JNZ       ??bdb_joinProcess_0
// 1990       {
// 1991         NLME_SetPollRate( 0 );
??bdb_joinProcess_2:
        ; Setup parameters for call to function NLME_SetPollRate
        MOV       DPTR,#__Constant_0
        LCALL     ?XLOAD_R2345
        LCALL     `??NLME_SetPollRate::?relay`; Banked call to: NLME_SetPollRate
// 1992         NLME_SetQueuedPollRate( 0 );
        ; Setup parameters for call to function NLME_SetQueuedPollRate
        MOV       R2,#0x0
        MOV       R3,#0x0
        LCALL     `??NLME_SetQueuedPollRate::?relay`; Banked call to: NLME_SetQueuedPollRate
// 1993         NLME_SetResponseRate( 0 );
        ; Setup parameters for call to function NLME_SetResponseRate
        MOV       R2,#0x0
        MOV       R3,#0x0
        LCALL     `??NLME_SetResponseRate::?relay`; Banked call to: NLME_SetResponseRate
        SJMP      ??bdb_joinProcess_0
// 1994       }
// 1995     }
// 1996     else
// 1997     {
// 1998       if ( (ZG_SECURE_ENABLED) && (devStartMode == MODE_JOIN) )
??bdb_joinProcess_1:
        MOV       DPTR,#devStartMode
        MOVX      A,@DPTR
        JNZ       ??bdb_joinProcess_0
// 1999       {
// 2000         ZDApp_SavedPollRate = zgPollRate;
        MOV       DPTR,#zgPollRate
        LCALL     ?XLOAD_R0123
        MOV       DPTR,#ZDApp_SavedPollRate
        LCALL     ?XSTORE_R0123
// 2001         NLME_SetPollRate( zgRejoinPollRate );
        ; Setup parameters for call to function NLME_SetPollRate
        MOV       DPTR,#zgRejoinPollRate
        MOVX      A,@DPTR
        MOV       ?V0,A
        INC       DPTR
        MOVX      A,@DPTR
        MOV       R2,?V0
        MOV       R3,A
        CLR       A
        MOV       R4,A
        MOV       R5,A
        LCALL     `??NLME_SetPollRate::?relay`; Banked call to: NLME_SetPollRate
// 2002       }
// 2003     }
// 2004   }
// 2005   return status;
??bdb_joinProcess_0:
        MOV       A,R6
        MOV       R1,A
        LJMP      ??Subroutine42_0 & 0xFFFF
// 2006 }
          CFI EndBlock cfiBlock57
// 2007 #endif
// 2008 
// 2009 
// 2010  /*********************************************************************
// 2011  * @fn          bdb_setChannelAttribute
// 2012  *
// 2013  * @brief       Set the primary or seconday channel for discovery or formation procedure
// 2014  *
// 2015  * @param       isPrimaryChannel - True if channel to set is primary,  
// 2016  *                                 False if the channel to set is secondary
// 2017  *
// 2018  * @param       channel - Channel mask
// 2019  *
// 2020  * @return      none
// 2021  */

        RSEG BANKED_CODE:HUGECODE:NOROOT(0)
// 2022 void bdb_setChannelAttribute(bool isPrimaryChannel, uint32 channel)
bdb_setChannelAttribute:
          CFI Block cfiBlock58 Using cfiCommon0
          CFI Function bdb_setChannelAttribute
        CODE
// 2023 {
        REQUIRE ?V0
        REQUIRE ?V1
        REQUIRE ?V2
        REQUIRE ?V3
        MOV       A,#-0xc
        LCALL     ?BANKED_ENTER_XDATA
          CFI DPH0 load(1, XDATA, add(CFA_XSP16, literal(-1)))
          CFI DPL0 load(1, XDATA, add(CFA_XSP16, literal(-2)))
          CFI ?BRET_EXT load(1, XDATA, add(CFA_XSP16, literal(-3)))
          CFI ?RET_HIGH load(1, XDATA, add(CFA_XSP16, literal(-4)))
          CFI ?RET_LOW load(1, XDATA, add(CFA_XSP16, literal(-5)))
          CFI R7 load(1, XDATA, add(CFA_XSP16, literal(-6)))
          CFI V3 load(1, XDATA, add(CFA_XSP16, literal(-7)))
          CFI V2 load(1, XDATA, add(CFA_XSP16, literal(-8)))
          CFI V1 load(1, XDATA, add(CFA_XSP16, literal(-9)))
          CFI V0 load(1, XDATA, add(CFA_XSP16, literal(-10)))
          CFI VB load(1, XDATA, add(CFA_XSP16, literal(-11)))
          CFI R6 load(1, XDATA, add(CFA_XSP16, literal(-12)))
          CFI CFA_SP SP+0
          CFI CFA_XSP16 add(XSP16, 12)
        ; Saved register size: 12
        ; Auto size: 0
        MOV       ?V0,R2
        MOV       ?V1,R3
        MOV       ?V2,R4
        MOV       ?V3,R5
// 2024   if(isPrimaryChannel)
        MOV       A,R1
        JZ        ??bdb_setChannelAttribute_0
// 2025   {
// 2026     bdbAttributes.bdbPrimaryChannelSet = channel;
        MOV       DPTR,#bdbAttributes + 4
        SJMP      ??bdb_setChannelAttribute_1
// 2027   }
// 2028   else
// 2029   {
// 2030     bdbAttributes.bdbSecondaryChannelSet = channel;
??bdb_setChannelAttribute_0:
        MOV       DPTR,#bdbAttributes
??bdb_setChannelAttribute_1:
        MOV       R0,#?V0
        LCALL     ?L_MOV_TO_X
// 2031   }
// 2032 }
        LJMP      ??Subroutine34_0 & 0xFFFF
          CFI EndBlock cfiBlock58
// 2033 
// 2034  /*********************************************************************
// 2035  * @fn          bdb_setChannel
// 2036  *
// 2037  * @brief       Set channel and save it in Nv for joining/formation operations
// 2038  *
// 2039  * @param       channel - Channel mask
// 2040  *
// 2041  * @return      none
// 2042  */

        RSEG BANKED_CODE:HUGECODE:NOROOT(0)
// 2043 void bdb_setChannel(uint32 channel)
bdb_setChannel:
          CFI Block cfiBlock59 Using cfiCommon0
          CFI Function bdb_setChannel
        CODE
// 2044 {
        FUNCALL bdb_setChannel, osal_nv_write
        LOCFRAME ISTACK, 0, STACK
        LOCFRAME PSTACK, 0, STACK
        LOCFRAME XSTACK, 16, STACK
        LOCFRAME IOVERLAY, 0, STATIC
        LOCFRAME DOVERLAY, 0, STATIC
        ARGFRAME ISTACK, 0, STACK
        ARGFRAME PSTACK, 0, STACK
        ARGFRAME XSTACK, 16, STACK
        ARGFRAME IOVERLAY, 0, STATIC
        ARGFRAME DOVERLAY, 0, STATIC
        REQUIRE ?V0
        REQUIRE ?V1
        REQUIRE ?V2
        REQUIRE ?V3
        MOV       A,#-0xc
        LCALL     ?BANKED_ENTER_XDATA
          CFI DPH0 load(1, XDATA, add(CFA_XSP16, literal(-1)))
          CFI DPL0 load(1, XDATA, add(CFA_XSP16, literal(-2)))
          CFI ?BRET_EXT load(1, XDATA, add(CFA_XSP16, literal(-3)))
          CFI ?RET_HIGH load(1, XDATA, add(CFA_XSP16, literal(-4)))
          CFI ?RET_LOW load(1, XDATA, add(CFA_XSP16, literal(-5)))
          CFI R7 load(1, XDATA, add(CFA_XSP16, literal(-6)))
          CFI V3 load(1, XDATA, add(CFA_XSP16, literal(-7)))
          CFI V2 load(1, XDATA, add(CFA_XSP16, literal(-8)))
          CFI V1 load(1, XDATA, add(CFA_XSP16, literal(-9)))
          CFI V0 load(1, XDATA, add(CFA_XSP16, literal(-10)))
          CFI VB load(1, XDATA, add(CFA_XSP16, literal(-11)))
          CFI R6 load(1, XDATA, add(CFA_XSP16, literal(-12)))
          CFI CFA_SP SP+0
          CFI CFA_XSP16 add(XSP16, 12)
        ; Saved register size: 12
        ; Auto size: 0
        MOV       ?V0,R2
        MOV       ?V1,R3
        MOV       ?V2,R4
        MOV       ?V3,R5
// 2045   //Assign the channel and save it into nv
// 2046   vScanChannels = channel;
        MOV       DPTR,#zgDefaultChannelList
        MOV       R0,#?V0
        LCALL     ?L_MOV_TO_X
// 2047   runtimeChannel = channel;
        MOV       DPTR,#runtimeChannel
        MOV       R0,#?V0
        LCALL     ?L_MOV_TO_X
// 2048     
// 2049   osal_nv_write(ZCD_NV_CHANLIST,0,sizeof(uint32),&vScanChannels);
        ; Setup parameters for call to function osal_nv_write
        MOV       ?V0,#zgDefaultChannelList & 0xff
        MOV       ?V1,#(zgDefaultChannelList >> 8) & 0xff
        MOV       R0,#?V0
        LCALL     ?PUSH_XSTACK_I_TWO
          CFI CFA_XSP16 add(XSP16, 14)
        MOV       ?V0,#0x4
        MOV       ?V1,#0x0
        MOV       R0,#?V0
        LCALL     ?PUSH_XSTACK_I_TWO
          CFI CFA_XSP16 add(XSP16, 16)
        MOV       R4,#0x0
        MOV       R5,#0x0
        MOV       R2,#-0x7c
        MOV       R3,#0x0
        LCALL     `??osal_nv_write::?relay`; Banked call to: osal_nv_write
        LJMP      ?Subroutine2 & 0xFFFF
// 2050 }
          CFI EndBlock cfiBlock59
// 2051 
// 2052 
// 2053  /*********************************************************************
// 2054  * @fn          bdb_nwkJoiningFormation   
// 2055  *
// 2056  * @brief       Performs Joining/Formation operation on primary or secondary channel
// 2057  *
// 2058  * @param       isJoining - TRUE if the device is performing joining, FALSE is performing Formation
// 2059  *
// 2060  * @return      none
// 2061  */

        RSEG BANKED_CODE:HUGECODE:NOROOT(0)
// 2062 void bdb_nwkJoiningFormation(bool isJoining)
bdb_nwkJoiningFormation:
          CFI Block cfiBlock60 Using cfiCommon0
          CFI Function bdb_nwkJoiningFormation
        CODE
// 2063 {
        FUNCALL bdb_nwkJoiningFormation, bdb_setChannel
        LOCFRAME ISTACK, 0, STACK
        LOCFRAME PSTACK, 0, STACK
        LOCFRAME XSTACK, 12, STACK
        LOCFRAME IOVERLAY, 0, STATIC
        LOCFRAME DOVERLAY, 0, STATIC
        ARGFRAME ISTACK, 0, STACK
        ARGFRAME PSTACK, 0, STACK
        ARGFRAME XSTACK, 12, STACK
        ARGFRAME IOVERLAY, 0, STATIC
        ARGFRAME DOVERLAY, 0, STATIC
        FUNCALL bdb_nwkJoiningFormation, bdb_setChannel
        LOCFRAME ISTACK, 0, STACK
        LOCFRAME PSTACK, 0, STACK
        LOCFRAME XSTACK, 12, STACK
        LOCFRAME IOVERLAY, 0, STATIC
        LOCFRAME DOVERLAY, 0, STATIC
        ARGFRAME ISTACK, 0, STACK
        ARGFRAME PSTACK, 0, STACK
        ARGFRAME XSTACK, 12, STACK
        ARGFRAME IOVERLAY, 0, STATIC
        ARGFRAME DOVERLAY, 0, STATIC
        FUNCALL bdb_nwkJoiningFormation, ZDOInitDeviceEx
        LOCFRAME ISTACK, 0, STACK
        LOCFRAME PSTACK, 0, STACK
        LOCFRAME XSTACK, 12, STACK
        LOCFRAME IOVERLAY, 0, STATIC
        LOCFRAME DOVERLAY, 0, STATIC
        ARGFRAME ISTACK, 0, STACK
        ARGFRAME PSTACK, 0, STACK
        ARGFRAME XSTACK, 12, STACK
        ARGFRAME IOVERLAY, 0, STATIC
        ARGFRAME DOVERLAY, 0, STATIC
        FUNCALL bdb_nwkJoiningFormation, ZDOInitDeviceEx
        LOCFRAME ISTACK, 0, STACK
        LOCFRAME PSTACK, 0, STACK
        LOCFRAME XSTACK, 12, STACK
        LOCFRAME IOVERLAY, 0, STATIC
        LOCFRAME DOVERLAY, 0, STATIC
        ARGFRAME ISTACK, 0, STACK
        ARGFRAME PSTACK, 0, STACK
        ARGFRAME XSTACK, 12, STACK
        ARGFRAME IOVERLAY, 0, STATIC
        ARGFRAME DOVERLAY, 0, STATIC
        FUNCALL bdb_nwkJoiningFormation, bdb_reportCommissioningState
        LOCFRAME ISTACK, 0, STACK
        LOCFRAME PSTACK, 0, STACK
        LOCFRAME XSTACK, 12, STACK
        LOCFRAME IOVERLAY, 0, STATIC
        LOCFRAME DOVERLAY, 0, STATIC
        ARGFRAME ISTACK, 0, STACK
        ARGFRAME PSTACK, 0, STACK
        ARGFRAME XSTACK, 12, STACK
        ARGFRAME IOVERLAY, 0, STATIC
        ARGFRAME DOVERLAY, 0, STATIC
        FUNCALL bdb_nwkJoiningFormation, bdb_reportCommissioningState
        LOCFRAME ISTACK, 0, STACK
        LOCFRAME PSTACK, 0, STACK
        LOCFRAME XSTACK, 12, STACK
        LOCFRAME IOVERLAY, 0, STATIC
        LOCFRAME DOVERLAY, 0, STATIC
        ARGFRAME ISTACK, 0, STACK
        ARGFRAME PSTACK, 0, STACK
        ARGFRAME XSTACK, 12, STACK
        ARGFRAME IOVERLAY, 0, STATIC
        ARGFRAME DOVERLAY, 0, STATIC
        REQUIRE ?V0
        REQUIRE ?V1
        REQUIRE ?V2
        REQUIRE ?V3
        MOV       A,#-0xc
        LCALL     ?BANKED_ENTER_XDATA
          CFI DPH0 load(1, XDATA, add(CFA_XSP16, literal(-1)))
          CFI DPL0 load(1, XDATA, add(CFA_XSP16, literal(-2)))
          CFI ?BRET_EXT load(1, XDATA, add(CFA_XSP16, literal(-3)))
          CFI ?RET_HIGH load(1, XDATA, add(CFA_XSP16, literal(-4)))
          CFI ?RET_LOW load(1, XDATA, add(CFA_XSP16, literal(-5)))
          CFI R7 load(1, XDATA, add(CFA_XSP16, literal(-6)))
          CFI V3 load(1, XDATA, add(CFA_XSP16, literal(-7)))
          CFI V2 load(1, XDATA, add(CFA_XSP16, literal(-8)))
          CFI V1 load(1, XDATA, add(CFA_XSP16, literal(-9)))
          CFI V0 load(1, XDATA, add(CFA_XSP16, literal(-10)))
          CFI VB load(1, XDATA, add(CFA_XSP16, literal(-11)))
          CFI R6 load(1, XDATA, add(CFA_XSP16, literal(-12)))
          CFI CFA_SP SP+0
          CFI CFA_XSP16 add(XSP16, 12)
        ; Saved register size: 12
        ; Auto size: 0
        MOV       A,R1
        MOV       R6,A
// 2064   
// 2065   if((vDoPrimaryScan) && (bdbAttributes.bdbPrimaryChannelSet))
        MOV       DPTR,#vDoPrimaryScan
        MOVX      A,@DPTR
        JZ        ??bdb_nwkJoiningFormation_0
        MOV       DPTR,#bdbAttributes + 4
        MOV       R0,#?V0
        LCALL     ?L_MOV_X
        MOV       A,?V0
        ORL       A,?V1
        ORL       A,?V2
        ORL       A,?V3
        JZ        ??bdb_nwkJoiningFormation_0
// 2066   {
// 2067     bdb_setChannel(bdbAttributes.bdbPrimaryChannelSet);
        ; Setup parameters for call to function bdb_setChannel
        MOV       R2,?V0
        MOV       R3,?V1
        MOV       R4,?V2
        MOV       R5,?V3
        SJMP      ??bdb_nwkJoiningFormation_1
// 2068   }
// 2069   else
// 2070   {
// 2071     vDoPrimaryScan = FALSE;
??bdb_nwkJoiningFormation_0:
        MOV       DPTR,#vDoPrimaryScan
        CLR       A
        MOVX      @DPTR,A
// 2072     bdb_setChannel(bdbAttributes.bdbSecondaryChannelSet);
        ; Setup parameters for call to function bdb_setChannel
        MOV       DPTR,#bdbAttributes
        LCALL     ?XLOAD_R2345
??bdb_nwkJoiningFormation_1:
        LCALL     `??bdb_setChannel::?relay`; Banked call to: bdb_setChannel
// 2073   }
// 2074 
// 2075   if(vScanChannels)
        MOV       DPTR,#zgDefaultChannelList
        LCALL     ?XLOAD_R0123
        MOV       A,R0
        ORL       A,R1
        ORL       A,R2
        ORL       A,R3
        JZ        ??bdb_nwkJoiningFormation_2
// 2076   {
// 2077     if(ZG_DEVICE_RTRONLY_TYPE)
        MOV       DPTR,#zgDeviceLogicalType
        MOVX      A,@DPTR
        XRL       A,#0x1
        JNZ       ??bdb_nwkJoiningFormation_3
// 2078     {
// 2079       if(isJoining)
        MOV       A,R6
        JNZ       ??bdb_nwkJoiningFormation_3
// 2080       {
// 2081         ZDOInitDeviceEx(100,0);
// 2082       }
// 2083       else
// 2084       {
// 2085         ZDOInitDeviceEx(100,1);
        ; Setup parameters for call to function ZDOInitDeviceEx
        MOV       R1,#0x1
        SJMP      ??bdb_nwkJoiningFormation_4
// 2086       }
// 2087     }
// 2088     //ZED can only join, and ZC can only create
// 2089     else
// 2090     {
// 2091       ZDOInitDeviceEx(100,0);
??bdb_nwkJoiningFormation_3:
        ; Setup parameters for call to function ZDOInitDeviceEx
        MOV       R1,#0x0
??bdb_nwkJoiningFormation_4:
        MOV       R2,#0x64
        MOV       R3,#0x0
        LCALL     `??ZDOInitDeviceEx::?relay`; Banked call to: ZDOInitDeviceEx
        SJMP      ??bdb_nwkJoiningFormation_5
// 2092     }
// 2093   }
// 2094   else
// 2095   {
// 2096     if(isJoining)
??bdb_nwkJoiningFormation_2:
        MOV       A,R6
        MOV       R2,#0x0
        JZ        ??bdb_nwkJoiningFormation_6
// 2097     {
// 2098       bdb_reportCommissioningState(BDB_COMMISSIONING_STATE_JOINING, FALSE);
        ; Setup parameters for call to function bdb_reportCommissioningState
        MOV       R1,#0x3
        SJMP      ??bdb_nwkJoiningFormation_7
// 2099     }
// 2100     else
// 2101     {
// 2102       bdb_reportCommissioningState(BDB_COMMISSIONING_STATE_FORMATION, FALSE);
??bdb_nwkJoiningFormation_6:
        ; Setup parameters for call to function bdb_reportCommissioningState
        MOV       R1,#0x5
??bdb_nwkJoiningFormation_7:
        LCALL     `??bdb_reportCommissioningState::?relay`; Banked call to: bdb_reportCommissioningState
// 2103     }
// 2104   }
// 2105 }
??bdb_nwkJoiningFormation_5:
        SJMP      ??Subroutine34_0
          CFI EndBlock cfiBlock60
// 2106 
// 2107 #if (ZG_BUILD_JOINING_TYPE)
// 2108  /*********************************************************************
// 2109  * @fn          bdb_tcLinkKeyExchangeAttempt
// 2110  *
// 2111  * @brief       Generic send msg for TC link key exchange process attempts
// 2112  *
// 2113  * @param       didSuccess - FALSE if the step failed/timeout, TRUE otherwise
// 2114  * @param       bdbTCExchangeState - Step in which the attemp was done
// 2115  *
// 2116  * @return      none
// 2117  */

        RSEG BANKED_CODE:HUGECODE:NOROOT(0)
// 2118 void bdb_tcLinkKeyExchangeAttempt(bool didSuccess, uint8 bdbTCExchangeState)
bdb_tcLinkKeyExchangeAttempt:
          CFI Block cfiBlock61 Using cfiCommon0
          CFI Function bdb_tcLinkKeyExchangeAttempt
        CODE
// 2119 {
        FUNCALL bdb_tcLinkKeyExchangeAttempt, osal_stop_timerEx
        LOCFRAME ISTACK, 0, STACK
        LOCFRAME PSTACK, 0, STACK
        LOCFRAME XSTACK, 13, STACK
        LOCFRAME IOVERLAY, 0, STATIC
        LOCFRAME DOVERLAY, 0, STATIC
        ARGFRAME ISTACK, 0, STACK
        ARGFRAME PSTACK, 0, STACK
        ARGFRAME XSTACK, 13, STACK
        ARGFRAME IOVERLAY, 0, STATIC
        ARGFRAME DOVERLAY, 0, STATIC
        FUNCALL bdb_tcLinkKeyExchangeAttempt, bdb_SendMsg
        LOCFRAME ISTACK, 0, STACK
        LOCFRAME PSTACK, 0, STACK
        LOCFRAME XSTACK, 15, STACK
        LOCFRAME IOVERLAY, 0, STATIC
        LOCFRAME DOVERLAY, 0, STATIC
        ARGFRAME ISTACK, 0, STACK
        ARGFRAME PSTACK, 0, STACK
        ARGFRAME XSTACK, 15, STACK
        ARGFRAME IOVERLAY, 0, STATIC
        ARGFRAME DOVERLAY, 0, STATIC
        REQUIRE ?V0
        REQUIRE ?V2
        REQUIRE ?V3
        MOV       A,#-0xc
        LCALL     ?BANKED_ENTER_XDATA
          CFI DPH0 load(1, XDATA, add(CFA_XSP16, literal(-1)))
          CFI DPL0 load(1, XDATA, add(CFA_XSP16, literal(-2)))
          CFI ?BRET_EXT load(1, XDATA, add(CFA_XSP16, literal(-3)))
          CFI ?RET_HIGH load(1, XDATA, add(CFA_XSP16, literal(-4)))
          CFI ?RET_LOW load(1, XDATA, add(CFA_XSP16, literal(-5)))
          CFI R7 load(1, XDATA, add(CFA_XSP16, literal(-6)))
          CFI V3 load(1, XDATA, add(CFA_XSP16, literal(-7)))
          CFI V2 load(1, XDATA, add(CFA_XSP16, literal(-8)))
          CFI V1 load(1, XDATA, add(CFA_XSP16, literal(-9)))
          CFI V0 load(1, XDATA, add(CFA_XSP16, literal(-10)))
          CFI VB load(1, XDATA, add(CFA_XSP16, literal(-11)))
          CFI R6 load(1, XDATA, add(CFA_XSP16, literal(-12)))
          CFI CFA_SP SP+0
          CFI CFA_XSP16 add(XSP16, 12)
        ; Saved register size: 12
        ; Auto size: 1
        MOV       A,#-0x1
        LCALL     ?ALLOC_XSTACK8
          CFI CFA_XSP16 add(XSP16, 13)
        MOV       A,R1
        MOV       R7,A
// 2120   bool bdbEventStatus = BDB_MSG_EVENT_SUCCESS;
        MOV       R6,#0x0
// 2121   uint8 dummy;
// 2122   bdbCommissioningProcedureState.bdbTCExchangeState = bdbTCExchangeState;
        MOV       A,R2
        MOV       DPTR,#bdbCommissioningProcedureState + 1
        MOVX      @DPTR,A
// 2123   if(didSuccess)
        MOV       A,R7
        JZ        ??bdb_tcLinkKeyExchangeAttempt_0
// 2124   {
// 2125     //Allow try since we are performing a new step.
// 2126     osal_stop_timerEx(bdb_TaskID, BDB_PROCESS_TIMEOUT);
        ; Setup parameters for call to function osal_stop_timerEx
        MOV       R2,#0x0
        MOV       R3,#0x10
        MOV       DPTR,#bdb_TaskID
        MOVX      A,@DPTR
        MOV       R1,A
        LCALL     `??osal_stop_timerEx::?relay`; Banked call to: osal_stop_timerEx
// 2127     bdbAttributes.bdbTCLinkKeyExchangeAttempts = 0;
        MOV       DPTR,#bdbAttributes + 16
        CLR       A
        MOVX      @DPTR,A
        SJMP      ??bdb_tcLinkKeyExchangeAttempt_1
// 2128   }
// 2129   else
// 2130   {
// 2131     bdbEventStatus = BDB_MSG_EVENT_FAIL;
??bdb_tcLinkKeyExchangeAttempt_0:
        MOV       R6,#0x1
// 2132   }
// 2133   bdb_SendMsg(bdb_TaskID,BDB_COMMISSIONING_STATE_TC_LINK_KEY_EXCHANGE,bdbEventStatus,1, &dummy);
??bdb_tcLinkKeyExchangeAttempt_1:
        ; Setup parameters for call to function bdb_SendMsg
        MOV       R0,?XSP + 0
        MOV       R1,?XSP + 1
        MOV       ?V2,R0
        MOV       ?V3,R1
        MOV       R0,#?V2
        LCALL     ?PUSH_XSTACK_I_TWO
          CFI CFA_XSP16 add(XSP16, 15)
        MOV       R4,#0x1
        MOV       A,R6
        MOV       R3,A
        MOV       R2,#0x1
        MOV       DPTR,#bdb_TaskID
        MOVX      A,@DPTR
        MOV       R1,A
        LCALL     `??bdb_SendMsg::?relay`; Banked call to: bdb_SendMsg
        MOV       A,#0x2
        LCALL     ?DEALLOC_XSTACK8
          CFI CFA_XSP16 add(XSP16, 13)
// 2134 }
        MOV       A,#0x1
        SJMP      ??Subroutine33_0
          CFI EndBlock cfiBlock61

        RSEG BANKED_CODE:HUGECODE:NOROOT(0)
?Subroutine2:
          CFI Block cfiBlock62 Using cfiCommon0
          CFI NoFunction
          CFI CFA_SP SP+0
          CFI CFA_XSP16 add(XSP16, 16)
          CFI VB load(1, XDATA, add(CFA_XSP16, literal(-11)))
          CFI DPL0 load(1, XDATA, add(CFA_XSP16, literal(-2)))
          CFI DPH0 load(1, XDATA, add(CFA_XSP16, literal(-1)))
          CFI R6 load(1, XDATA, add(CFA_XSP16, literal(-12)))
          CFI R7 load(1, XDATA, add(CFA_XSP16, literal(-6)))
          CFI V0 load(1, XDATA, add(CFA_XSP16, literal(-10)))
          CFI V1 load(1, XDATA, add(CFA_XSP16, literal(-9)))
          CFI V2 load(1, XDATA, add(CFA_XSP16, literal(-8)))
          CFI V3 load(1, XDATA, add(CFA_XSP16, literal(-7)))
          CFI ?BRET_EXT load(1, XDATA, add(CFA_XSP16, literal(-3)))
          CFI ?RET_HIGH load(1, XDATA, add(CFA_XSP16, literal(-4)))
          CFI ?RET_LOW load(1, XDATA, add(CFA_XSP16, literal(-5)))
        MOV       A,#0x4
          CFI EndBlock cfiBlock62
        REQUIRE ??Subroutine33_0
        ; // Fall through to label ??Subroutine33_0

        RSEG BANKED_CODE:HUGECODE:NOROOT(0)
??Subroutine33_0:
          CFI Block cfiBlock63 Using cfiCommon0
          CFI NoFunction
          CFI CFA_SP SP+0
          CFI CFA_XSP16 add(XSP16, 20)
          CFI VB load(1, XDATA, add(CFA_XSP16, literal(-11)))
          CFI DPL0 load(1, XDATA, add(CFA_XSP16, literal(-2)))
          CFI DPH0 load(1, XDATA, add(CFA_XSP16, literal(-1)))
          CFI R6 load(1, XDATA, add(CFA_XSP16, literal(-12)))
          CFI R7 load(1, XDATA, add(CFA_XSP16, literal(-6)))
          CFI V0 load(1, XDATA, add(CFA_XSP16, literal(-10)))
          CFI V1 load(1, XDATA, add(CFA_XSP16, literal(-9)))
          CFI V2 load(1, XDATA, add(CFA_XSP16, literal(-8)))
          CFI V3 load(1, XDATA, add(CFA_XSP16, literal(-7)))
          CFI ?BRET_EXT load(1, XDATA, add(CFA_XSP16, literal(-3)))
          CFI ?RET_HIGH load(1, XDATA, add(CFA_XSP16, literal(-4)))
          CFI ?RET_LOW load(1, XDATA, add(CFA_XSP16, literal(-5)))
          CFI Invalid
        LCALL     ?DEALLOC_XSTACK8
          CFI EndBlock cfiBlock63
        REQUIRE ??Subroutine34_0
        ; // Fall through to label ??Subroutine34_0

        RSEG BANKED_CODE:HUGECODE:NOROOT(0)
??Subroutine34_0:
          CFI Block cfiBlock64 Using cfiCommon0
          CFI NoFunction
          CFI CFA_SP SP+0
          CFI CFA_XSP16 add(XSP16, 12)
          CFI VB load(1, XDATA, add(CFA_XSP16, literal(-11)))
          CFI DPL0 load(1, XDATA, add(CFA_XSP16, literal(-2)))
          CFI DPH0 load(1, XDATA, add(CFA_XSP16, literal(-1)))
          CFI R6 load(1, XDATA, add(CFA_XSP16, literal(-12)))
          CFI R7 load(1, XDATA, add(CFA_XSP16, literal(-6)))
          CFI V0 load(1, XDATA, add(CFA_XSP16, literal(-10)))
          CFI V1 load(1, XDATA, add(CFA_XSP16, literal(-9)))
          CFI V2 load(1, XDATA, add(CFA_XSP16, literal(-8)))
          CFI V3 load(1, XDATA, add(CFA_XSP16, literal(-7)))
          CFI ?BRET_EXT load(1, XDATA, add(CFA_XSP16, literal(-3)))
          CFI ?RET_HIGH load(1, XDATA, add(CFA_XSP16, literal(-4)))
          CFI ?RET_LOW load(1, XDATA, add(CFA_XSP16, literal(-5)))
        MOV       R7,#0x4
        LJMP      ?BANKED_LEAVE_XDATA
          CFI EndBlock cfiBlock64
// 2135 
// 2136 
// 2137  /*********************************************************************
// 2138  * @fn          bdb_requestVerifyTCLinkKey
// 2139  *
// 2140  * @brief       Attempt to verify the TC link key by sending Verify Key Request
// 2141  *
// 2142  * @param       none
// 2143  *
// 2144  * @return      none
// 2145  */
// 2146 void bdb_requestVerifyTCLinkKey(void)
// 2147 {
// 2148     uint8 TC_ExtAddr[Z_EXTADDR_LEN];
// 2149     APSME_VerifyKeyReq_t vKey;
// 2150     
// 2151     APSME_GetRequest( apsTrustCenterAddress,0, TC_ExtAddr );
// 2152     
// 2153     vKey.tcExtAddr = TC_ExtAddr;
// 2154     vKey.keyType = KEY_TYPE_TC_LINK;
// 2155     
// 2156     APSME_VerifyKeyReq( &vKey );
// 2157     
// 2158     osal_stop_timerEx(bdb_TaskID,BDB_PROCESS_TIMEOUT);
// 2159     osal_start_timerEx(bdb_TaskID,BDB_PROCESS_TIMEOUT,BDBC_TC_LINK_KEY_EXANGE_TIMEOUT);
// 2160     
// 2161 }
// 2162 
// 2163 /*********************************************************************
// 2164  * @fn          bdb_requestTCLinkKey
// 2165  *
// 2166  * @brief       Attempt to request a TC link key
// 2167  *
// 2168  * @param       none
// 2169  *
// 2170  * @return      none
// 2171  */
// 2172 void bdb_requestTCLinkKey(void)
// 2173 {
// 2174   zAddrType_t destAddr;
// 2175   APSME_RequestKeyReq_t req;
// 2176 
// 2177   destAddr.addrMode = Addr16Bit;
// 2178   destAddr.addr.shortAddr = 0x0000;
// 2179   
// 2180   req.dstAddr = destAddr.addr.shortAddr;
// 2181   req.keyType = KEY_TYPE_TC_LINK;
// 2182   
// 2183   APSME_RequestKeyReq(&req);
// 2184   
// 2185   osal_stop_timerEx(bdb_TaskID,BDB_PROCESS_TIMEOUT);
// 2186   
// 2187   osal_start_timerEx(bdb_TaskID,BDB_PROCESS_TIMEOUT,(uint32)requestLinkKeyTimeout);
// 2188 } 
// 2189 
// 2190 
// 2191 /*********************************************************************
// 2192  * @fn          bdb_requestTCStackVersion
// 2193  *
// 2194  * @brief       Attempt to request the TC stack version using ZDP Node desc if 
// 2195  *              join a Centralized nwk
// 2196  *
// 2197  * @param       none
// 2198  *
// 2199  * @return      none
// 2200  */
// 2201 void bdb_requestTCStackVersion(void)
// 2202 {
// 2203   if(requestNewTrustCenterLinkKey)
// 2204   {
// 2205     if(!APSME_IsDistributedSecurity())
// 2206     {
// 2207       if(bdbAttributes.bdbTCLinkKeyExchangeMethod == BDB_TC_LINK_KEY_EXCHANGE_APS_KEY)
// 2208       {
// 2209         zAddrType_t destAddr;
// 2210        
// 2211         destAddr.addrMode = Addr16Bit;
// 2212         destAddr.addr.shortAddr = 0x0000;
// 2213        
// 2214         ZDP_NodeDescReq( &destAddr, destAddr.addr.shortAddr, 0);  
// 2215         
// 2216         osal_stop_timerEx(bdb_TaskID,BDB_PROCESS_TIMEOUT);
// 2217         osal_start_timerEx( bdb_TaskID, BDB_PROCESS_TIMEOUT, BDBC_TC_LINK_KEY_EXANGE_TIMEOUT );
// 2218         return;
// 2219       }
// 2220       else
// 2221       {
// 2222         if(pfnCBKETCLinkKeyExchange)
// 2223         {
// 2224           pfnCBKETCLinkKeyExchange();
// 2225         }
// 2226         return;
// 2227       }
// 2228     }
// 2229     else
// 2230     {
// 2231       bdb_setNodeJoinLinkKeyType(BDB_DISTRIBUTED_SECURITY_GLOBAL_LINK_KEY);
// 2232     }
// 2233   }
// 2234   else
// 2235   {
// 2236     //Key not required, set default which is global
// 2237     bdb_setNodeJoinLinkKeyType(BDB_DEFAULT_GLOBAL_TRUST_CENTER_LINK_KEY);
// 2238   }
// 2239   //TC link key not required or join distributed nwk
// 2240   bdb_reportCommissioningState(BDB_COMMISSIONING_STATE_TC_LINK_KEY_EXCHANGE,TRUE);
// 2241 }
// 2242 #endif
// 2243 
// 2244 
// 2245 /*********************************************************************
// 2246  * @fn          bdb_nwkSteeringDeviceOnNwk
// 2247  *
// 2248  * @brief       Send ZDP mgmt permit joining
// 2249  *
// 2250  * @param       none
// 2251  *
// 2252  * @return      none
// 2253  */

        RSEG BANKED_CODE:HUGECODE:NOROOT(0)
// 2254 void bdb_nwkSteeringDeviceOnNwk(void)
bdb_nwkSteeringDeviceOnNwk:
          CFI Block cfiBlock65 Using cfiCommon0
          CFI Function bdb_nwkSteeringDeviceOnNwk
        CODE
// 2255 {
        FUNCALL bdb_nwkSteeringDeviceOnNwk, ZDP_MgmtPermitJoinReq
        LOCFRAME ISTACK, 2, STACK
        LOCFRAME PSTACK, 0, STACK
        LOCFRAME XSTACK, 9, STACK
        LOCFRAME IOVERLAY, 0, STATIC
        LOCFRAME DOVERLAY, 0, STATIC
        ARGFRAME ISTACK, 2, STACK
        ARGFRAME PSTACK, 0, STACK
        ARGFRAME XSTACK, 9, STACK
        ARGFRAME IOVERLAY, 0, STATIC
        ARGFRAME DOVERLAY, 0, STATIC
        PUSH      DPL
          CFI DPL0 Frame(CFA_SP, 4)
          CFI CFA_SP SP+-4
        PUSH      DPH
          CFI DPH0 Frame(CFA_SP, 5)
          CFI CFA_SP SP+-5
        ; Saved register size: 2
        ; Auto size: 9
        MOV       A,#-0x9
        LCALL     ?ALLOC_XSTACK8
          CFI CFA_XSP16 add(XSP16, 9)
// 2256   zAddrType_t dstAddr;
// 2257   dstAddr.addr.shortAddr = NWK_BROADCAST_SHORTADDR_DEVZCZR;
        MOV       DPL,?XSP + 0
        MOV       DPH,?XSP + 1
        MOV       A,#-0x4
        MOVX      @DPTR,A
        INC       DPTR
        MOV       A,#-0x1
        MOVX      @DPTR,A
// 2258   dstAddr.addrMode = AddrBroadcast;
        MOV       A,#0x8
        LCALL     ?XSTACK_DISP0_8
        MOV       A,#0xf
        MOVX      @DPTR,A
// 2259   // Trust Center significance is always true
// 2260   ZDP_MgmtPermitJoinReq( &dstAddr, BDBC_MIN_COMMISSIONING_TIME, TRUE, FALSE );
        ; Setup parameters for call to function ZDP_MgmtPermitJoinReq
        MOV       R5,#0x0
        MOV       R4,#0x1
        MOV       R1,#-0x4c
        MOV       R2,?XSP + 0
        MOV       R3,?XSP + 1
        LCALL     `??ZDP_MgmtPermitJoinReq::?relay`; Banked call to: ZDP_MgmtPermitJoinReq
// 2261 }
        MOV       A,#0x9
          CFI EndBlock cfiBlock65
        REQUIRE ?Subroutine4
        ; // Fall through to label ?Subroutine4

        RSEG BANKED_CODE:HUGECODE:NOROOT(0)
?Subroutine4:
          CFI Block cfiBlock66 Using cfiCommon0
          CFI NoFunction
          CFI CFA_SP SP+-5
          CFI CFA_XSP16 add(XSP16, 5)
          CFI DPL0 Frame(CFA_SP, 4)
          CFI DPH0 Frame(CFA_SP, 5)
          CFI Invalid
        LCALL     ?DEALLOC_XSTACK8
          CFI CFA_XSP16 XSP16+0
          CFI Valid
        LJMP      ??Subroutine32_0 & 0xFFFF
          CFI EndBlock cfiBlock66
// 2262 
// 2263 
// 2264 /*********************************************************************
// 2265  * @fn          bdb_startResumeCommissioningProcess
// 2266  *
// 2267  * @brief       Starts or resume the commissioning operations sets in the 
// 2268  *              commissioningMode attribute
// 2269  *
// 2270  * @param       none
// 2271  *
// 2272  * @return      none
// 2273  */

        RSEG BANKED_CODE:HUGECODE:NOROOT(0)
// 2274 void bdb_startResumeCommissioningProcess(void)
bdb_startResumeCommissioningProcess:
          CFI Block cfiBlock67 Using cfiCommon0
          CFI Function bdb_startResumeCommissioningProcess
        CODE
// 2275 {
        FUNCALL bdb_startResumeCommissioningProcess, bdb_nwkSteeringDeviceOnNwk
        LOCFRAME ISTACK, 0, STACK
        LOCFRAME PSTACK, 0, STACK
        LOCFRAME XSTACK, 21, STACK
        LOCFRAME IOVERLAY, 0, STATIC
        LOCFRAME DOVERLAY, 0, STATIC
        ARGFRAME ISTACK, 0, STACK
        ARGFRAME PSTACK, 0, STACK
        ARGFRAME XSTACK, 21, STACK
        ARGFRAME IOVERLAY, 0, STATIC
        ARGFRAME DOVERLAY, 0, STATIC
        FUNCALL bdb_startResumeCommissioningProcess, bdb_reportCommissioningState
        LOCFRAME ISTACK, 0, STACK
        LOCFRAME PSTACK, 0, STACK
        LOCFRAME XSTACK, 21, STACK
        LOCFRAME IOVERLAY, 0, STATIC
        LOCFRAME DOVERLAY, 0, STATIC
        ARGFRAME ISTACK, 0, STACK
        ARGFRAME PSTACK, 0, STACK
        ARGFRAME XSTACK, 21, STACK
        ARGFRAME IOVERLAY, 0, STATIC
        ARGFRAME DOVERLAY, 0, STATIC
        FUNCALL bdb_startResumeCommissioningProcess, osal_memset
        LOCFRAME ISTACK, 0, STACK
        LOCFRAME PSTACK, 0, STACK
        LOCFRAME XSTACK, 21, STACK
        LOCFRAME IOVERLAY, 0, STATIC
        LOCFRAME DOVERLAY, 0, STATIC
        ARGFRAME ISTACK, 0, STACK
        ARGFRAME PSTACK, 0, STACK
        ARGFRAME XSTACK, 21, STACK
        ARGFRAME IOVERLAY, 0, STATIC
        ARGFRAME DOVERLAY, 0, STATIC
        FUNCALL bdb_startResumeCommissioningProcess, bdb_nwkJoiningFormation
        LOCFRAME ISTACK, 0, STACK
        LOCFRAME PSTACK, 0, STACK
        LOCFRAME XSTACK, 21, STACK
        LOCFRAME IOVERLAY, 0, STATIC
        LOCFRAME DOVERLAY, 0, STATIC
        ARGFRAME ISTACK, 0, STACK
        ARGFRAME PSTACK, 0, STACK
        ARGFRAME XSTACK, 21, STACK
        ARGFRAME IOVERLAY, 0, STATIC
        ARGFRAME DOVERLAY, 0, STATIC
        FUNCALL bdb_startResumeCommissioningProcess, bdb_NotifyCommissioningModeStart
        LOCFRAME ISTACK, 0, STACK
        LOCFRAME PSTACK, 0, STACK
        LOCFRAME XSTACK, 21, STACK
        LOCFRAME IOVERLAY, 0, STATIC
        LOCFRAME DOVERLAY, 0, STATIC
        ARGFRAME ISTACK, 0, STACK
        ARGFRAME PSTACK, 0, STACK
        ARGFRAME XSTACK, 21, STACK
        ARGFRAME IOVERLAY, 0, STATIC
        ARGFRAME DOVERLAY, 0, STATIC
        FUNCALL bdb_startResumeCommissioningProcess, bdb_reportCommissioningState
        LOCFRAME ISTACK, 0, STACK
        LOCFRAME PSTACK, 0, STACK
        LOCFRAME XSTACK, 21, STACK
        LOCFRAME IOVERLAY, 0, STATIC
        LOCFRAME DOVERLAY, 0, STATIC
        ARGFRAME ISTACK, 0, STACK
        ARGFRAME PSTACK, 0, STACK
        ARGFRAME XSTACK, 21, STACK
        ARGFRAME IOVERLAY, 0, STATIC
        ARGFRAME DOVERLAY, 0, STATIC
        FUNCALL bdb_startResumeCommissioningProcess, bdb_setEpDescListToActiveEndpoint
        LOCFRAME ISTACK, 0, STACK
        LOCFRAME PSTACK, 0, STACK
        LOCFRAME XSTACK, 21, STACK
        LOCFRAME IOVERLAY, 0, STATIC
        LOCFRAME DOVERLAY, 0, STATIC
        ARGFRAME ISTACK, 0, STACK
        ARGFRAME PSTACK, 0, STACK
        ARGFRAME XSTACK, 21, STACK
        ARGFRAME IOVERLAY, 0, STATIC
        ARGFRAME DOVERLAY, 0, STATIC
        FUNCALL bdb_startResumeCommissioningProcess, bdb_exitFindingBindingWStatus
        LOCFRAME ISTACK, 0, STACK
        LOCFRAME PSTACK, 0, STACK
        LOCFRAME XSTACK, 21, STACK
        LOCFRAME IOVERLAY, 0, STATIC
        LOCFRAME DOVERLAY, 0, STATIC
        ARGFRAME ISTACK, 0, STACK
        ARGFRAME PSTACK, 0, STACK
        ARGFRAME XSTACK, 21, STACK
        ARGFRAME IOVERLAY, 0, STATIC
        ARGFRAME DOVERLAY, 0, STATIC
        FUNCALL bdb_startResumeCommissioningProcess, zclFindAttrRec
        LOCFRAME ISTACK, 0, STACK
        LOCFRAME PSTACK, 0, STACK
        LOCFRAME XSTACK, 23, STACK
        LOCFRAME IOVERLAY, 0, STATIC
        LOCFRAME DOVERLAY, 0, STATIC
        ARGFRAME ISTACK, 0, STACK
        ARGFRAME PSTACK, 0, STACK
        ARGFRAME XSTACK, 23, STACK
        ARGFRAME IOVERLAY, 0, STATIC
        ARGFRAME DOVERLAY, 0, STATIC
        FUNCALL bdb_startResumeCommissioningProcess, osal_start_timerEx
        LOCFRAME ISTACK, 0, STACK
        LOCFRAME PSTACK, 0, STACK
        LOCFRAME XSTACK, 25, STACK
        LOCFRAME IOVERLAY, 0, STATIC
        LOCFRAME DOVERLAY, 0, STATIC
        ARGFRAME ISTACK, 0, STACK
        ARGFRAME PSTACK, 0, STACK
        ARGFRAME XSTACK, 25, STACK
        ARGFRAME IOVERLAY, 0, STATIC
        ARGFRAME DOVERLAY, 0, STATIC
        FUNCALL bdb_startResumeCommissioningProcess, bdb_exitFindingBindingWStatus
        LOCFRAME ISTACK, 0, STACK
        LOCFRAME PSTACK, 0, STACK
        LOCFRAME XSTACK, 21, STACK
        LOCFRAME IOVERLAY, 0, STATIC
        LOCFRAME DOVERLAY, 0, STATIC
        ARGFRAME ISTACK, 0, STACK
        ARGFRAME PSTACK, 0, STACK
        ARGFRAME XSTACK, 21, STACK
        ARGFRAME IOVERLAY, 0, STATIC
        ARGFRAME DOVERLAY, 0, STATIC
        FUNCALL bdb_startResumeCommissioningProcess, bdb_SendMsg
        LOCFRAME ISTACK, 0, STACK
        LOCFRAME PSTACK, 0, STACK
        LOCFRAME XSTACK, 23, STACK
        LOCFRAME IOVERLAY, 0, STATIC
        LOCFRAME DOVERLAY, 0, STATIC
        ARGFRAME ISTACK, 0, STACK
        ARGFRAME PSTACK, 0, STACK
        ARGFRAME XSTACK, 23, STACK
        ARGFRAME IOVERLAY, 0, STATIC
        ARGFRAME DOVERLAY, 0, STATIC
        FUNCALL bdb_startResumeCommissioningProcess, bdb_exitFindingBindingWStatus
        LOCFRAME ISTACK, 0, STACK
        LOCFRAME PSTACK, 0, STACK
        LOCFRAME XSTACK, 21, STACK
        LOCFRAME IOVERLAY, 0, STATIC
        LOCFRAME DOVERLAY, 0, STATIC
        ARGFRAME ISTACK, 0, STACK
        ARGFRAME PSTACK, 0, STACK
        ARGFRAME XSTACK, 21, STACK
        ARGFRAME IOVERLAY, 0, STATIC
        ARGFRAME DOVERLAY, 0, STATIC
        FUNCALL bdb_startResumeCommissioningProcess, bdb_exitFindingBindingWStatus
        LOCFRAME ISTACK, 0, STACK
        LOCFRAME PSTACK, 0, STACK
        LOCFRAME XSTACK, 21, STACK
        LOCFRAME IOVERLAY, 0, STATIC
        LOCFRAME DOVERLAY, 0, STATIC
        ARGFRAME ISTACK, 0, STACK
        ARGFRAME PSTACK, 0, STACK
        ARGFRAME XSTACK, 21, STACK
        ARGFRAME IOVERLAY, 0, STATIC
        ARGFRAME DOVERLAY, 0, STATIC
        FUNCALL bdb_startResumeCommissioningProcess, bdb_SendIdentifyQuery
        LOCFRAME ISTACK, 0, STACK
        LOCFRAME PSTACK, 0, STACK
        LOCFRAME XSTACK, 21, STACK
        LOCFRAME IOVERLAY, 0, STATIC
        LOCFRAME DOVERLAY, 0, STATIC
        ARGFRAME ISTACK, 0, STACK
        ARGFRAME PSTACK, 0, STACK
        ARGFRAME XSTACK, 21, STACK
        ARGFRAME IOVERLAY, 0, STATIC
        ARGFRAME DOVERLAY, 0, STATIC
        FUNCALL bdb_startResumeCommissioningProcess, bdb_exitFindingBindingWStatus
        LOCFRAME ISTACK, 0, STACK
        LOCFRAME PSTACK, 0, STACK
        LOCFRAME XSTACK, 21, STACK
        LOCFRAME IOVERLAY, 0, STATIC
        LOCFRAME DOVERLAY, 0, STATIC
        ARGFRAME ISTACK, 0, STACK
        ARGFRAME PSTACK, 0, STACK
        ARGFRAME XSTACK, 21, STACK
        ARGFRAME IOVERLAY, 0, STATIC
        ARGFRAME DOVERLAY, 0, STATIC
        FUNCALL bdb_startResumeCommissioningProcess, osal_start_timerEx
        LOCFRAME ISTACK, 0, STACK
        LOCFRAME PSTACK, 0, STACK
        LOCFRAME XSTACK, 25, STACK
        LOCFRAME IOVERLAY, 0, STATIC
        LOCFRAME DOVERLAY, 0, STATIC
        ARGFRAME ISTACK, 0, STACK
        ARGFRAME PSTACK, 0, STACK
        ARGFRAME XSTACK, 25, STACK
        ARGFRAME IOVERLAY, 0, STATIC
        ARGFRAME DOVERLAY, 0, STATIC
        FUNCALL bdb_startResumeCommissioningProcess, bdb_SendMsg
        LOCFRAME ISTACK, 0, STACK
        LOCFRAME PSTACK, 0, STACK
        LOCFRAME XSTACK, 23, STACK
        LOCFRAME IOVERLAY, 0, STATIC
        LOCFRAME DOVERLAY, 0, STATIC
        ARGFRAME ISTACK, 0, STACK
        ARGFRAME PSTACK, 0, STACK
        ARGFRAME XSTACK, 23, STACK
        ARGFRAME IOVERLAY, 0, STATIC
        ARGFRAME DOVERLAY, 0, STATIC
        REQUIRE ?V0
        REQUIRE ?V1
        MOV       A,#-0xa
        LCALL     ?BANKED_ENTER_XDATA
          CFI DPH0 load(1, XDATA, add(CFA_XSP16, literal(-1)))
          CFI DPL0 load(1, XDATA, add(CFA_XSP16, literal(-2)))
          CFI ?BRET_EXT load(1, XDATA, add(CFA_XSP16, literal(-3)))
          CFI ?RET_HIGH load(1, XDATA, add(CFA_XSP16, literal(-4)))
          CFI ?RET_LOW load(1, XDATA, add(CFA_XSP16, literal(-5)))
          CFI R7 load(1, XDATA, add(CFA_XSP16, literal(-6)))
          CFI V1 load(1, XDATA, add(CFA_XSP16, literal(-7)))
          CFI V0 load(1, XDATA, add(CFA_XSP16, literal(-8)))
          CFI VB load(1, XDATA, add(CFA_XSP16, literal(-9)))
          CFI R6 load(1, XDATA, add(CFA_XSP16, literal(-10)))
          CFI CFA_SP SP+0
          CFI CFA_XSP16 add(XSP16, 10)
        ; Saved register size: 10
        ; Auto size: 11
        MOV       A,#-0xb
        LCALL     ?ALLOC_XSTACK8
          CFI CFA_XSP16 add(XSP16, 21)
// 2276 
// 2277 #if ( defined ( BDB_TL_INITIATOR ) && (BDB_TOUCHLINK_CAPABILITY_ENABLED == TRUE) ) 
// 2278   if(bdbAttributes.bdbCommissioningMode & BDB_COMMISSIONING_MODE_INITIATOR_TL)
// 2279   {
// 2280     uint16 nwkAddr;
// 2281 
// 2282     //Does the device supports this commissioning mode?
// 2283     if(bdbAttributes.bdbNodeCommissioningCapability & BDB_TOUCHLINK_CAPABILITY)
// 2284     {
// 2285       //Clear previous state and substates
// 2286       osal_memset(&bdbCommissioningProcedureState,0,sizeof(bdbCommissioningProcedureState));
// 2287       bdbCommissioningProcedureState.bdbCommissioningState = BDB_COMMISSIONING_STATE_TL;
// 2288       
// 2289       // Get our short address
// 2290       ZMacGetReq( ZMacShortAddress, (byte*)&nwkAddr );
// 2291       if ( nwkAddr >= NWK_BROADCAST_SHORTADDR_DEVZCZR )
// 2292       {
// 2293         initiatorSelectNwkParams();
// 2294       }
// 2295       
// 2296       touchLinkInitiator_StartDevDisc( );  
// 2297       
// 2298       bdb_NotifyCommissioningModeStart(BDB_COMMISSIONING_TOUCHLINK);
// 2299     }
// 2300     else
// 2301     {
// 2302       //Process the next commissioning mode
// 2303       bdb_reportCommissioningState( BDB_COMMISSIONING_STATE_TL, FALSE );
// 2304     }
// 2305     return;
// 2306   }
// 2307 #endif // BDB_TOUCHLINK_CAPABILITY_ENABLED  
// 2308   
// 2309 #if ZG_BUILD_ENDDEVICE_TYPE
// 2310   if(ZG_DEVICE_ENDDEVICE_TYPE)
// 2311   {
// 2312     if(bdbAttributes.bdbCommissioningMode & BDB_COMMISSIONING_MODE_PARENT_LOST)
        MOV       DPTR,#bdbAttributes + 11
        MOVX      A,@DPTR
        MOV       C,0xE0 /* A   */.5
        JNC       $+5
        LJMP      ??bdb_startResumeCommissioningProcess_0 & 0xFFFF
// 2313     {
// 2314       //No commissioning process can be performed if the ZED has lost its parent
// 2315       return;
// 2316     }
// 2317   }
// 2318 #endif
// 2319   
// 2320   if(bdbAttributes.bdbCommissioningMode & BDB_COMMISSIONING_MODE_NWK_STEERING)
        MOV       C,0xE0 /* A   */.1
        JNC       ??bdb_startResumeCommissioningProcess_1
// 2321   {
// 2322     bdbCommissioningProcedureState.bdbCommissioningState = BDB_COMMISSIONING_STATE_STEERING_ON_NWK;
        MOV       DPTR,#bdbCommissioningProcedureState
        MOV       A,#0x4
        MOVX      @DPTR,A
// 2323     
// 2324     if(bdbAttributes.bdbNodeCommissioningCapability & BDB_NETWORK_STEERING_CAPABILITY)
        MOV       DPTR,#bdbAttributes + 12
        MOVX      A,@DPTR
        MOV       C,0xE0 /* A   */.0
        JNC       ??bdb_startResumeCommissioningProcess_2
// 2325     {
// 2326 #if (BDB_TOUCHLINK_CAPABILITY_ENABLED == TRUE)
// 2327       bdb_ClearNetworkParams();
// 2328 #endif
// 2329       if(bdbAttributes.bdbNodeIsOnANetwork)
        MOV       DPTR,#bdbAttributes + 14
        MOVX      A,@DPTR
        JZ        ??bdb_startResumeCommissioningProcess_3
// 2330       {
// 2331         bdb_nwkSteeringDeviceOnNwk();
        ; Setup parameters for call to function bdb_nwkSteeringDeviceOnNwk
        LCALL     `??bdb_nwkSteeringDeviceOnNwk::?relay`; Banked call to: bdb_nwkSteeringDeviceOnNwk
// 2332         bdb_reportCommissioningState(BDB_COMMISSIONING_STATE_STEERING_ON_NWK, TRUE);
        ; Setup parameters for call to function bdb_reportCommissioningState
        MOV       R2,#0x1
        MOV       R1,#0x4
        LCALL     `??bdb_reportCommissioningState::?relay`; Banked call to: bdb_reportCommissioningState
        SJMP      ??bdb_startResumeCommissioningProcess_2
// 2333       }
// 2334 #if (ZG_BUILD_JOINING_TYPE)
// 2335       else
// 2336       {
// 2337         if(ZG_DEVICE_JOINING_TYPE)
??bdb_startResumeCommissioningProcess_3:
        MOV       DPTR,#zgDeviceLogicalType
        MOVX      A,@DPTR
        XRL       A,#0x1
        JZ        ??bdb_startResumeCommissioningProcess_4
        MOVX      A,@DPTR
        XRL       A,#0x2
        JNZ       ??bdb_startResumeCommissioningProcess_2
// 2338         {
// 2339           vDoPrimaryScan = TRUE;
??bdb_startResumeCommissioningProcess_4:
        MOV       DPTR,#vDoPrimaryScan
        MOV       A,#0x1
        MOVX      @DPTR,A
// 2340           
// 2341           //Initialize the commissioning procedure state, bdbJoinState to nwk discovery and TCLinkKeyExchange to not active
// 2342           osal_memset(&bdbCommissioningProcedureState,0,sizeof(bdbCommissioningProcedureState_t));
        ; Setup parameters for call to function osal_memset
        MOV       R4,#0x4
        MOV       R5,#0x0
        MOV       R1,#0x0
        MOV       R2,#bdbCommissioningProcedureState & 0xff
        MOV       R3,#(bdbCommissioningProcedureState >> 8) & 0xff
        LCALL     `??osal_memset::?relay`; Banked call to: osal_memset
// 2343           bdbCommissioningProcedureState.bdbCommissioningState = BDB_COMMISSIONING_STATE_JOINING;
        MOV       DPTR,#bdbCommissioningProcedureState
        MOV       A,#0x3
        MOVX      @DPTR,A
// 2344           bdb_nwkJoiningFormation(TRUE);
        ; Setup parameters for call to function bdb_nwkJoiningFormation
        MOV       R1,#0x1
        LCALL     `??bdb_nwkJoiningFormation::?relay`; Banked call to: bdb_nwkJoiningFormation
// 2345           bdb_NotifyCommissioningModeStart(BDB_COMMISSIONING_NWK_STEERING);
        ; Setup parameters for call to function bdb_NotifyCommissioningModeStart
        MOV       R1,#0x1
        LCALL     `??bdb_NotifyCommissioningModeStart::?relay`; Banked call to: bdb_NotifyCommissioningModeStart
// 2346         }
// 2347       }
// 2348 #endif
// 2349 #if (ZG_BUILD_COORDINATOR_TYPE)
// 2350       if(ZG_DEVICE_COORDINATOR_TYPE)
// 2351       {
// 2352         bdb_reportCommissioningState(BDB_COMMISSIONING_STATE_STEERING_ON_NWK, FALSE);
// 2353       }
// 2354 #endif
// 2355     }
// 2356     return;
??bdb_startResumeCommissioningProcess_2:
        LJMP      ??bdb_startResumeCommissioningProcess_0 & 0xFFFF
// 2357   }
// 2358   
// 2359   if(bdbAttributes.bdbCommissioningMode & BDB_COMMISSIONING_MODE_NWK_FORMATION)
??bdb_startResumeCommissioningProcess_1:
        MOV       C,0xE0 /* A   */.2
        JNC       ??bdb_startResumeCommissioningProcess_5
// 2360   {
// 2361     bdbCommissioningProcedureState.bdbCommissioningState = BDB_COMMISSIONING_STATE_FORMATION;
        MOV       DPTR,#bdbCommissioningProcedureState
        MOV       A,#0x5
        MOVX      @DPTR,A
// 2362     
// 2363     if(bdbAttributes.bdbNodeCommissioningCapability & BDB_NETWORK_FORMATION_CAPABILITY)
// 2364     {
// 2365       if(!bdbAttributes.bdbNodeIsOnANetwork)
// 2366       {
// 2367 #if (BDB_TOUCHLINK_CAPABILITY_ENABLED == TRUE)
// 2368       bdb_ClearNetworkParams();
// 2369 #endif
// 2370         vDoPrimaryScan = TRUE;
// 2371         
// 2372         osal_memset(&bdbCommissioningProcedureState,0,sizeof(bdbCommissioningProcedureState));
// 2373         bdbCommissioningProcedureState.bdbCommissioningState = BDB_COMMISSIONING_STATE_FORMATION;
// 2374 
// 2375         bdb_nwkJoiningFormation(FALSE);
// 2376         bdb_NotifyCommissioningModeStart(BDB_COMMISSIONING_FORMATION);
// 2377         return;
// 2378       }
// 2379     }
// 2380     bdb_reportCommissioningState(BDB_COMMISSIONING_STATE_FORMATION, FALSE);
        ; Setup parameters for call to function bdb_reportCommissioningState
        MOV       R2,#0x0
        MOV       R1,A
        LCALL     `??bdb_reportCommissioningState::?relay`; Banked call to: bdb_reportCommissioningState
// 2381     return;
        LJMP      ??bdb_startResumeCommissioningProcess_0 & 0xFFFF
// 2382   }
// 2383 
// 2384 #if (BDB_FINDING_BINDING_CAPABILITY_ENABLED==1)    
// 2385   if(bdbAttributes.bdbCommissioningMode & BDB_COMMISSIONING_MODE_FINDING_BINDING)
??bdb_startResumeCommissioningProcess_5:
        MOV       C,0xE0 /* A   */.3
        JC        $+5
        LJMP      ??bdb_startResumeCommissioningProcess_0 & 0xFFFF
// 2386   {
// 2387     bdbCommissioningProcedureState.bdbCommissioningState = BDB_COMMISSIONING_STATE_FINDING_BINDING;
        MOV       DPTR,#bdbCommissioningProcedureState
        MOV       A,#0x6
        MOVX      @DPTR,A
// 2388     
// 2389     //Is the device on a network?
// 2390     if(bdb_isDeviceNonFactoryNew())
        MOV       DPTR,#bdbAttributes + 14
        MOVX      A,@DPTR
        JNZ       $+5
        LJMP      ??bdb_startResumeCommissioningProcess_6 & 0xFFFF
// 2391     {
// 2392       zclAttrRec_t attrRec;
// 2393 
// 2394       endPointDesc_t *bdb_CurrEpDescriptor = NULL;
// 2395 
// 2396       bdb_CurrEpDescriptor = bdb_setEpDescListToActiveEndpoint();
        ; Setup parameters for call to function bdb_setEpDescListToActiveEndpoint
        LCALL     `??bdb_setEpDescListToActiveEndpoint::?relay`; Banked call to: bdb_setEpDescListToActiveEndpoint
        MOV       ?V0,R2
        MOV       ?V1,R3
        MOV       R6,?V0
        MOV       R7,?V1
// 2397       
// 2398       //If not found endpoint with Identify cluster is found, then report fail
// 2399       if(bdb_CurrEpDescriptor == NULL)
        MOV       A,R6
        ORL       A,R7
        JNZ       $+5
        LJMP      ??bdb_startResumeCommissioningProcess_6 & 0xFFFF
// 2400       {
// 2401         bdb_exitFindingBindingWStatus(BDB_COMMISSIONING_FAILURE);
        ; Setup parameters for call to function bdb_exitFindingBindingWStatus
// 2402         return;
// 2403       }
// 2404       
// 2405       if( bdb_CurrEpDescriptorList->epDesc->epType & BDB_FINDING_AND_BINDING_TARGET)  //F&B as Target
        LCALL     ?Subroutine18 & 0xFFFF
??CrossCallReturnLabel_28:
        MOV       R0,A
        INC       DPTR
        LCALL     ??Subroutine35_0 & 0xFFFF
??CrossCallReturnLabel_63:
        INC       DPTR
        MOVX      A,@DPTR
        MOV       C,0xE0 /* A   */.1
        JC        $+5
        LJMP      ??bdb_startResumeCommissioningProcess_7 & 0xFFFF
// 2406       {
// 2407         if (zclFindAttrRec( bdb_CurrEpDescriptor->endPoint, ZCL_CLUSTER_ID_GEN_IDENTIFY,
// 2408                   ATTRID_IDENTIFY_TIME, &attrRec ) )
        ; Setup parameters for call to function zclFindAttrRec
        MOV       A,#0x3
        LCALL     ?XSTACK_DISP100_8
        MOV       ?V0,R0
        MOV       ?V1,R1
        MOV       R0,#?V0
        LCALL     ?PUSH_XSTACK_I_TWO
          CFI CFA_XSP16 add(XSP16, 23)
        MOV       R4,#0x0
        MOV       R5,#0x0
        MOV       R2,#0x3
        MOV       R3,#0x0
        MOV       DPL,R6
        MOV       DPH,R7
        MOVX      A,@DPTR
        MOV       R1,A
        LCALL     `??zclFindAttrRec::?relay`; Banked call to: zclFindAttrRec
        MOV       A,#0x2
        LCALL     ?DEALLOC_XSTACK8
          CFI CFA_XSP16 add(XSP16, 21)
        MOV       A,R1
        JNZ       $+5
        LJMP      ??bdb_startResumeCommissioningProcess_8 & 0xFFFF
// 2409         {
// 2410           //Set it to at less 180 
// 2411           if ( *((uint16*)attrRec.attr.dataPtr) <= BDBC_MIN_COMMISSIONING_TIME )
        MOV       A,#0x9
        LCALL     ?XSTACK_DISP0_8
        LCALL     ?Subroutine17 & 0xFFFF
??CrossCallReturnLabel_25:
        CLR       C
        MOVX      A,@DPTR
        SUBB      A,#-0x4b
        INC       DPTR
        MOVX      A,@DPTR
        SUBB      A,#0x0
        JNC       ??bdb_startResumeCommissioningProcess_9
// 2412           {
// 2413             *((uint16*)attrRec.attr.dataPtr) = BDBC_MIN_COMMISSIONING_TIME;
        MOV       DPL,R0
        MOV       DPH,R1
        MOV       A,#-0x4c
        MOVX      @DPTR,A
        INC       DPTR
        CLR       A
        MOVX      @DPTR,A
// 2414              osal_start_timerEx( bdb_TaskID, BDB_IDENTIFY_TIMEOUT, 1000 );
        ; Setup parameters for call to function osal_start_timerEx
        MOV       DPTR,#__Constant_3e8
        LCALL     ?PUSH_XSTACK8_X_FOUR
          CFI CFA_XSP16 add(XSP16, 25)
        MOV       R2,#0x0
        MOV       R3,#0x20
        MOV       DPTR,#bdb_TaskID
        MOVX      A,@DPTR
        MOV       R1,A
        LCALL     `??osal_start_timerEx::?relay`; Banked call to: osal_start_timerEx
        MOV       A,#0x4
        LCALL     ?DEALLOC_XSTACK8
          CFI CFA_XSP16 add(XSP16, 21)
// 2415 
// 2416             if(pfnIdentifyTimeChangeCB != NULL)
        MOV       DPTR,#pfnIdentifyTimeChangeCB
        LCALL     ??Subroutine37_0 & 0xFFFF
??CrossCallReturnLabel_81:
        JZ        ??bdb_startResumeCommissioningProcess_9
// 2417             {
// 2418               if(bdbIndentifyActiveEndpoint == 0xFF)
        MOV       DPTR,#bdbIndentifyActiveEndpoint
        MOVX      A,@DPTR
        CPL       A
        JNZ       ??bdb_startResumeCommissioningProcess_10
// 2419               {
// 2420                 pfnIdentifyTimeChangeCB(bdbIndentifyActiveEndpoint);  
        ; Setup parameters for indirect call
        MOV       R1,#-0x1
        SJMP      ??bdb_startResumeCommissioningProcess_11
// 2421               }
// 2422               else
// 2423               {
// 2424                 pfnIdentifyTimeChangeCB(bdb_CurrEpDescriptor->endPoint);
??bdb_startResumeCommissioningProcess_10:
        ; Setup parameters for indirect call
        MOV       DPL,R6
        MOV       DPH,R7
        MOVX      A,@DPTR
        MOV       R1,A
// 2425               }
// 2426             }
// 2427           }
??bdb_startResumeCommissioningProcess_11:
        LCALL     ?Subroutine19 & 0xFFFF
??CrossCallReturnLabel_66:
        LCALL     ?CALL_IND
// 2428           //Attribute found and set, report success
// 2429           if(!(bdb_CurrEpDescriptorList->epDesc->epType & BDB_FINDING_AND_BINDING_INITIATOR))
??bdb_startResumeCommissioningProcess_9:
        LCALL     ?Subroutine14 & 0xFFFF
??CrossCallReturnLabel_18:
        JC        ??bdb_startResumeCommissioningProcess_12
// 2430           {
// 2431             bdb_exitFindingBindingWStatus(BDB_COMMISSIONING_FB_TARGET_IN_PROGRESS);
        ; Setup parameters for call to function bdb_exitFindingBindingWStatus
        MOV       R1,#0x9
        SJMP      ??bdb_startResumeCommissioningProcess_13
// 2432           }
// 2433           else
// 2434           {
// 2435             bdbCommissioningModeMsg_t bdbCommissioningModeMsg;
// 2436 
// 2437             bdbCommissioningModeMsg.bdbCommissioningMode = BDB_COMMISSIONING_FINDING_BINDING;
??bdb_startResumeCommissioningProcess_12:
        MOV       A,#0x1
        LCALL     ?XSTACK_DISP0_8
        LCALL     ?Subroutine9 & 0xFFFF
// 2438             bdbCommissioningModeMsg.bdbCommissioningStatus = BDB_COMMISSIONING_FB_TARGET_IN_PROGRESS;
// 2439 
// 2440             bdb_NotifyApp((uint8*)&bdbCommissioningModeMsg);
// 2441           }
// 2442         }
??CrossCallReturnLabel_86:
        MOV       A,#0x9
        LCALL     ?Subroutine5 & 0xFFFF
??CrossCallReturnLabel_2:
        LCALL     ?PUSH_XSTACK_I_TWO
          CFI CFA_XSP16 add(XSP16, 23)
        MOV       R4,#0x3
        MOV       R3,#0x0
        MOV       R2,#0xa
        MOV       DPTR,#bdb_TaskID
        MOVX      A,@DPTR
        MOV       R1,A
        LCALL     `??bdb_SendMsg::?relay`; Banked call to: bdb_SendMsg
        MOV       A,#0x2
        LCALL     ?DEALLOC_XSTACK8
          CFI CFA_XSP16 add(XSP16, 21)
        SJMP      ??bdb_startResumeCommissioningProcess_7
// 2443         else
// 2444         {
// 2445           //Attribute not found and no initiator process, report fail
// 2446           if(!(bdb_CurrEpDescriptorList->epDesc->epType & BDB_FINDING_AND_BINDING_INITIATOR))
??bdb_startResumeCommissioningProcess_8:
        LCALL     ?Subroutine14 & 0xFFFF
??CrossCallReturnLabel_19:
        JC        ??bdb_startResumeCommissioningProcess_7
// 2447           {
// 2448             bdb_exitFindingBindingWStatus(BDB_COMMISSIONING_FAILURE);
        ; Setup parameters for call to function bdb_exitFindingBindingWStatus
        MOV       R1,#0xe
??bdb_startResumeCommissioningProcess_13:
        LCALL     `??bdb_exitFindingBindingWStatus::?relay`; Banked call to: bdb_exitFindingBindingWStatus
// 2449           }
// 2450         }
// 2451       }  //F&B Target
// 2452       
// 2453       if( bdb_CurrEpDescriptorList->epDesc->epType & BDB_FINDING_AND_BINDING_INITIATOR)  //F&B as Initiator
??bdb_startResumeCommissioningProcess_7:
        LCALL     ?Subroutine18 & 0xFFFF
??CrossCallReturnLabel_29:
        ADD       A,#0x1
        MOV       R0,A
        INC       DPTR
        MOVX      A,@DPTR
        ADDC      A,#0x0
        MOV       R1,A
        MOV       DPL,R0
        MOV       DPH,R1
        MOVX      A,@DPTR
        MOV       C,0xE0 /* A   */.0
        JNC       ??bdb_startResumeCommissioningProcess_0
// 2454       {
// 2455         bdbCommissioningModeMsg_t bdbCommissioningModeMsg;
// 2456         
// 2457         //If no function to add binds is available then do not process Initiator
// 2458         if(!pbindAddEntry)
        MOV       DPTR,#pbindAddEntry
        LCALL     ?Subroutine15 & 0xFFFF
??CrossCallReturnLabel_21:
        JNZ       ??bdb_startResumeCommissioningProcess_14
// 2459         {
// 2460           //If no target process, then report fail
// 2461           if(!(bdb_CurrEpDescriptorList->epDesc->epType & BDB_FINDING_AND_BINDING_TARGET))
        MOV       DPL,R0
        MOV       DPH,R1
        MOVX      A,@DPTR
        MOV       C,0xE0 /* A   */.1
        JC        ??bdb_startResumeCommissioningProcess_0
// 2462           {
// 2463             bdb_exitFindingBindingWStatus(BDB_COMMISSIONING_FAILURE);
// 2464           }        
// 2465         }
// 2466         else
// 2467         {
// 2468           //Send identify query with the endpoint requested
// 2469           if(bdb_SendIdentifyQuery(bdb_CurrEpDescriptor->endPoint) != ZSuccess)
// 2470           {
// 2471             bdb_exitFindingBindingWStatus(BDB_COMMISSIONING_FAILURE);
// 2472           }
// 2473 
// 2474           //If periodic F&B is enabled
// 2475           if ( FINDING_AND_BINDING_PERIODIC_ENABLE == TRUE )
// 2476           {
// 2477             // total F&B time will be at least BDBC_MIN_COMMISSIONING_TIME, and at most (BDBC_MIN_COMMISSIONING_TIME + FINDING_AND_BINDING_PERIODIC_TIME - 1)
// 2478             bdb_FB_InitiatorCurrentCyclesNumber = (BDBC_MIN_COMMISSIONING_TIME + (FINDING_AND_BINDING_PERIODIC_TIME - 1)) / FINDING_AND_BINDING_PERIODIC_TIME;
// 2479             
// 2480             osal_start_timerEx(bdb_TaskID, BDB_FINDING_AND_BINDING_PERIOD_TIMEOUT, FINDING_AND_BINDING_PERIODIC_TIME * 1000);
// 2481           }
// 2482 
// 2483           bdbCommissioningModeMsg.bdbCommissioningMode = BDB_COMMISSIONING_FINDING_BINDING;
// 2484           bdbCommissioningModeMsg.bdbCommissioningStatus = BDB_COMMISSIONING_FB_INITITATOR_IN_PROGRESS;
// 2485 
// 2486           bdb_NotifyApp((uint8*)&bdbCommissioningModeMsg);
// 2487         }
// 2488       } //F&B Initiator
// 2489     }
// 2490     //Not in the network
// 2491     else
// 2492     {
// 2493       bdb_exitFindingBindingWStatus(BDB_COMMISSIONING_FAILURE);
??bdb_startResumeCommissioningProcess_6:
        ; Setup parameters for call to function bdb_exitFindingBindingWStatus
        MOV       R1,#0xe
        LCALL     `??bdb_exitFindingBindingWStatus::?relay`; Banked call to: bdb_exitFindingBindingWStatus
// 2494     }
// 2495     
// 2496     return;
        SJMP      ??bdb_startResumeCommissioningProcess_0
??bdb_startResumeCommissioningProcess_14:
        ; Setup parameters for call to function bdb_SendIdentifyQuery
        MOV       DPL,R6
        MOV       DPH,R7
        MOVX      A,@DPTR
        MOV       R1,A
        LCALL     `??bdb_SendIdentifyQuery::?relay`; Banked call to: bdb_SendIdentifyQuery
        MOV       A,R1
        JZ        ??bdb_startResumeCommissioningProcess_15
        ; Setup parameters for call to function bdb_exitFindingBindingWStatus
        MOV       R1,#0xe
        LCALL     `??bdb_exitFindingBindingWStatus::?relay`; Banked call to: bdb_exitFindingBindingWStatus
??bdb_startResumeCommissioningProcess_15:
        MOV       DPTR,#bdb_FB_InitiatorCurrentCyclesNumber
        MOV       A,#0xc
        MOVX      @DPTR,A
        ; Setup parameters for call to function osal_start_timerEx
        MOV       DPTR,#__Constant_3a98
        LCALL     ?PUSH_XSTACK8_X_FOUR
          CFI CFA_XSP16 add(XSP16, 25)
        MOV       R2,#0x40
        MOV       R3,#0x0
        MOV       DPTR,#bdb_TaskID
        MOVX      A,@DPTR
        MOV       R1,A
        LCALL     `??osal_start_timerEx::?relay`; Banked call to: osal_start_timerEx
        MOV       A,#0x4
        LCALL     ?DEALLOC_XSTACK8
          CFI CFA_XSP16 add(XSP16, 21)
        MOV       A,#0x1
        LCALL     ?XSTACK_DISP0_8
        LCALL     ?Subroutine9 & 0xFFFF
// 2497   }
??CrossCallReturnLabel_87:
        MOV       A,#0xa
        LCALL     ?Subroutine5 & 0xFFFF
??CrossCallReturnLabel_3:
        LCALL     ?PUSH_XSTACK_I_TWO
          CFI CFA_XSP16 add(XSP16, 23)
        MOV       R4,#0x3
        MOV       R3,#0x0
        MOV       R2,#0xa
        MOV       DPTR,#bdb_TaskID
        MOVX      A,@DPTR
        MOV       R1,A
        LCALL     `??bdb_SendMsg::?relay`; Banked call to: bdb_SendMsg
        MOV       A,#0x2
        LCALL     ?DEALLOC_XSTACK8
          CFI CFA_XSP16 add(XSP16, 21)
// 2498 #endif
// 2499   
// 2500 }
??bdb_startResumeCommissioningProcess_0:
        MOV       A,#0xb
        LJMP      ??Subroutine41_0 & 0xFFFF
          CFI EndBlock cfiBlock67

        RSEG BANKED_CODE:HUGECODE:NOROOT(0)
?Subroutine19:
          CFI Block cfiCond68 Using cfiCommon0
          CFI Function bdb_startResumeCommissioningProcess
          CFI Conditional ??CrossCallReturnLabel_66
          CFI R6 load(1, XDATA, add(CFA_XSP16, literal(-10)))
          CFI VB load(1, XDATA, add(CFA_XSP16, literal(-9)))
          CFI V0 load(1, XDATA, add(CFA_XSP16, literal(-8)))
          CFI V1 load(1, XDATA, add(CFA_XSP16, literal(-7)))
          CFI R7 load(1, XDATA, add(CFA_XSP16, literal(-6)))
          CFI ?RET_LOW load(1, XDATA, add(CFA_XSP16, literal(-5)))
          CFI ?RET_HIGH load(1, XDATA, add(CFA_XSP16, literal(-4)))
          CFI ?BRET_EXT load(1, XDATA, add(CFA_XSP16, literal(-3)))
          CFI DPL0 load(1, XDATA, add(CFA_XSP16, literal(-2)))
          CFI DPH0 load(1, XDATA, add(CFA_XSP16, literal(-1)))
          CFI CFA_SP SP+-2
          CFI CFA_XSP16 add(XSP16, 21)
          CFI Block cfiCond69 Using cfiCommon0
          CFI (cfiCond69) Function bdb_event_loop
          CFI (cfiCond69) Conditional ??CrossCallReturnLabel_67
          CFI (cfiCond69) R6 load(1, XDATA, add(CFA_XSP16, literal(-16)))
          CFI (cfiCond69) VB load(1, XDATA, add(CFA_XSP16, literal(-15)))
          CFI (cfiCond69) V0 load(1, XDATA, add(CFA_XSP16, literal(-14)))
          CFI (cfiCond69) V1 load(1, XDATA, add(CFA_XSP16, literal(-13)))
          CFI (cfiCond69) V2 load(1, XDATA, add(CFA_XSP16, literal(-12)))
          CFI (cfiCond69) V3 load(1, XDATA, add(CFA_XSP16, literal(-11)))
          CFI (cfiCond69) V4 load(1, XDATA, add(CFA_XSP16, literal(-10)))
          CFI (cfiCond69) V5 load(1, XDATA, add(CFA_XSP16, literal(-9)))
          CFI (cfiCond69) V6 load(1, XDATA, add(CFA_XSP16, literal(-8)))
          CFI (cfiCond69) V7 load(1, XDATA, add(CFA_XSP16, literal(-7)))
          CFI (cfiCond69) R7 load(1, XDATA, add(CFA_XSP16, literal(-6)))
          CFI (cfiCond69) ?RET_LOW load(1, XDATA, add(CFA_XSP16, literal(-5)))
          CFI (cfiCond69) ?RET_HIGH load(1, XDATA, add(CFA_XSP16, literal(-4)))
          CFI (cfiCond69) ?BRET_EXT load(1, XDATA, add(CFA_XSP16, literal(-3)))
          CFI (cfiCond69) DPL0 load(1, XDATA, add(CFA_XSP16, literal(-2)))
          CFI (cfiCond69) DPH0 load(1, XDATA, add(CFA_XSP16, literal(-1)))
          CFI (cfiCond69) CFA_SP SP+-2
          CFI (cfiCond69) CFA_XSP16 add(XSP16, 29)
          CFI Block cfiPicker70 Using cfiCommon1
          CFI (cfiPicker70) NoFunction
          CFI (cfiPicker70) Picker
        MOV       DPTR,#pfnIdentifyTimeChangeCB + 1
          CFI EndBlock cfiCond68
          CFI EndBlock cfiCond69
          CFI EndBlock cfiPicker70
        REQUIRE ??Subroutine35_0
        ; // Fall through to label ??Subroutine35_0

        RSEG BANKED_CODE:HUGECODE:NOROOT(0)
??Subroutine35_0:
          CFI Block cfiCond71 Using cfiCommon0
          CFI Function bdb_ZclIdentifyCmdInd
          CFI Conditional ??CrossCallReturnLabel_61
          CFI R6 load(1, XDATA, add(CFA_XSP16, literal(-12)))
          CFI VB load(1, XDATA, add(CFA_XSP16, literal(-11)))
          CFI V0 load(1, XDATA, add(CFA_XSP16, literal(-10)))
          CFI V1 load(1, XDATA, add(CFA_XSP16, literal(-9)))
          CFI V2 load(1, XDATA, add(CFA_XSP16, literal(-8)))
          CFI V3 load(1, XDATA, add(CFA_XSP16, literal(-7)))
          CFI R7 load(1, XDATA, add(CFA_XSP16, literal(-6)))
          CFI ?RET_LOW load(1, XDATA, add(CFA_XSP16, literal(-5)))
          CFI ?RET_HIGH load(1, XDATA, add(CFA_XSP16, literal(-4)))
          CFI ?BRET_EXT load(1, XDATA, add(CFA_XSP16, literal(-3)))
          CFI DPL0 load(1, XDATA, add(CFA_XSP16, literal(-2)))
          CFI DPH0 load(1, XDATA, add(CFA_XSP16, literal(-1)))
          CFI CFA_SP SP+-2
          CFI CFA_XSP16 add(XSP16, 20)
          CFI Block cfiCond72 Using cfiCommon0
          CFI (cfiCond72) Function bdb_filterNwkDisc
          CFI (cfiCond72) Conditional ??CrossCallReturnLabel_62
          CFI (cfiCond72) R6 load(1, XDATA, add(CFA_XSP16, literal(-11)))
          CFI (cfiCond72) VB load(1, XDATA, add(CFA_XSP16, literal(-10)))
          CFI (cfiCond72) V0 load(1, XDATA, add(CFA_XSP16, literal(-9)))
          CFI (cfiCond72) V1 load(1, XDATA, add(CFA_XSP16, literal(-8)))
          CFI (cfiCond72) V2 load(1, XDATA, add(CFA_XSP16, literal(-7)))
          CFI (cfiCond72) R7 load(1, XDATA, add(CFA_XSP16, literal(-6)))
          CFI (cfiCond72) ?RET_LOW load(1, XDATA, add(CFA_XSP16, literal(-5)))
          CFI (cfiCond72) ?RET_HIGH load(1, XDATA, add(CFA_XSP16, literal(-4)))
          CFI (cfiCond72) ?BRET_EXT load(1, XDATA, add(CFA_XSP16, literal(-3)))
          CFI (cfiCond72) DPL0 load(1, XDATA, add(CFA_XSP16, literal(-2)))
          CFI (cfiCond72) DPH0 load(1, XDATA, add(CFA_XSP16, literal(-1)))
          CFI (cfiCond72) CFA_SP SP+-2
          CFI (cfiCond72) CFA_XSP16 add(XSP16, 11)
          CFI Block cfiCond73 Using cfiCommon0
          CFI (cfiCond73) Function bdb_startResumeCommissioningProcess
          CFI (cfiCond73) Conditional ??CrossCallReturnLabel_63
          CFI (cfiCond73) R6 load(1, XDATA, add(CFA_XSP16, literal(-10)))
          CFI (cfiCond73) VB load(1, XDATA, add(CFA_XSP16, literal(-9)))
          CFI (cfiCond73) V0 load(1, XDATA, add(CFA_XSP16, literal(-8)))
          CFI (cfiCond73) V1 load(1, XDATA, add(CFA_XSP16, literal(-7)))
          CFI (cfiCond73) R7 load(1, XDATA, add(CFA_XSP16, literal(-6)))
          CFI (cfiCond73) ?RET_LOW load(1, XDATA, add(CFA_XSP16, literal(-5)))
          CFI (cfiCond73) ?RET_HIGH load(1, XDATA, add(CFA_XSP16, literal(-4)))
          CFI (cfiCond73) ?BRET_EXT load(1, XDATA, add(CFA_XSP16, literal(-3)))
          CFI (cfiCond73) DPL0 load(1, XDATA, add(CFA_XSP16, literal(-2)))
          CFI (cfiCond73) DPH0 load(1, XDATA, add(CFA_XSP16, literal(-1)))
          CFI (cfiCond73) CFA_SP SP+-2
          CFI (cfiCond73) CFA_XSP16 add(XSP16, 21)
          CFI Block cfiCond74 Using cfiCommon0
          CFI (cfiCond74) Function bdb_event_loop
          CFI (cfiCond74) Conditional ??CrossCallReturnLabel_64
          CFI (cfiCond74) R6 load(1, XDATA, add(CFA_XSP16, literal(-16)))
          CFI (cfiCond74) VB load(1, XDATA, add(CFA_XSP16, literal(-15)))
          CFI (cfiCond74) V0 load(1, XDATA, add(CFA_XSP16, literal(-14)))
          CFI (cfiCond74) V1 load(1, XDATA, add(CFA_XSP16, literal(-13)))
          CFI (cfiCond74) V2 load(1, XDATA, add(CFA_XSP16, literal(-12)))
          CFI (cfiCond74) V3 load(1, XDATA, add(CFA_XSP16, literal(-11)))
          CFI (cfiCond74) V4 load(1, XDATA, add(CFA_XSP16, literal(-10)))
          CFI (cfiCond74) V5 load(1, XDATA, add(CFA_XSP16, literal(-9)))
          CFI (cfiCond74) V6 load(1, XDATA, add(CFA_XSP16, literal(-8)))
          CFI (cfiCond74) V7 load(1, XDATA, add(CFA_XSP16, literal(-7)))
          CFI (cfiCond74) R7 load(1, XDATA, add(CFA_XSP16, literal(-6)))
          CFI (cfiCond74) ?RET_LOW load(1, XDATA, add(CFA_XSP16, literal(-5)))
          CFI (cfiCond74) ?RET_HIGH load(1, XDATA, add(CFA_XSP16, literal(-4)))
          CFI (cfiCond74) ?BRET_EXT load(1, XDATA, add(CFA_XSP16, literal(-3)))
          CFI (cfiCond74) DPL0 load(1, XDATA, add(CFA_XSP16, literal(-2)))
          CFI (cfiCond74) DPH0 load(1, XDATA, add(CFA_XSP16, literal(-1)))
          CFI (cfiCond74) CFA_SP SP+-2
          CFI (cfiCond74) CFA_XSP16 add(XSP16, 29)
          CFI Block cfiCond75 Using cfiCommon0
          CFI (cfiCond75) Function bdb_ProcessOSALMsg
          CFI (cfiCond75) Conditional ??CrossCallReturnLabel_65
          CFI (cfiCond75) R6 load(1, XDATA, add(CFA_XSP16, literal(-10)))
          CFI (cfiCond75) VB load(1, XDATA, add(CFA_XSP16, literal(-9)))
          CFI (cfiCond75) V0 load(1, XDATA, add(CFA_XSP16, literal(-8)))
          CFI (cfiCond75) V1 load(1, XDATA, add(CFA_XSP16, literal(-7)))
          CFI (cfiCond75) R7 load(1, XDATA, add(CFA_XSP16, literal(-6)))
          CFI (cfiCond75) ?RET_LOW load(1, XDATA, add(CFA_XSP16, literal(-5)))
          CFI (cfiCond75) ?RET_HIGH load(1, XDATA, add(CFA_XSP16, literal(-4)))
          CFI (cfiCond75) ?BRET_EXT load(1, XDATA, add(CFA_XSP16, literal(-3)))
          CFI (cfiCond75) DPL0 load(1, XDATA, add(CFA_XSP16, literal(-2)))
          CFI (cfiCond75) DPH0 load(1, XDATA, add(CFA_XSP16, literal(-1)))
          CFI (cfiCond75) CFA_SP SP+-2
          CFI (cfiCond75) CFA_XSP16 add(XSP16, 36)
          CFI Block cfiCond76 Using cfiCommon0
          CFI (cfiCond76) Function bdb_startResumeCommissioningProcess
          CFI (cfiCond76) Conditional ??CrossCallReturnLabel_66
          CFI (cfiCond76) R6 load(1, XDATA, add(CFA_XSP16, literal(-10)))
          CFI (cfiCond76) VB load(1, XDATA, add(CFA_XSP16, literal(-9)))
          CFI (cfiCond76) V0 load(1, XDATA, add(CFA_XSP16, literal(-8)))
          CFI (cfiCond76) V1 load(1, XDATA, add(CFA_XSP16, literal(-7)))
          CFI (cfiCond76) R7 load(1, XDATA, add(CFA_XSP16, literal(-6)))
          CFI (cfiCond76) ?RET_LOW load(1, XDATA, add(CFA_XSP16, literal(-5)))
          CFI (cfiCond76) ?RET_HIGH load(1, XDATA, add(CFA_XSP16, literal(-4)))
          CFI (cfiCond76) ?BRET_EXT load(1, XDATA, add(CFA_XSP16, literal(-3)))
          CFI (cfiCond76) DPL0 load(1, XDATA, add(CFA_XSP16, literal(-2)))
          CFI (cfiCond76) DPH0 load(1, XDATA, add(CFA_XSP16, literal(-1)))
          CFI (cfiCond76) CFA_SP SP+-2
          CFI (cfiCond76) CFA_XSP16 add(XSP16, 21)
          CFI Block cfiCond77 Using cfiCommon0
          CFI (cfiCond77) Function bdb_event_loop
          CFI (cfiCond77) Conditional ??CrossCallReturnLabel_67
          CFI (cfiCond77) R6 load(1, XDATA, add(CFA_XSP16, literal(-16)))
          CFI (cfiCond77) VB load(1, XDATA, add(CFA_XSP16, literal(-15)))
          CFI (cfiCond77) V0 load(1, XDATA, add(CFA_XSP16, literal(-14)))
          CFI (cfiCond77) V1 load(1, XDATA, add(CFA_XSP16, literal(-13)))
          CFI (cfiCond77) V2 load(1, XDATA, add(CFA_XSP16, literal(-12)))
          CFI (cfiCond77) V3 load(1, XDATA, add(CFA_XSP16, literal(-11)))
          CFI (cfiCond77) V4 load(1, XDATA, add(CFA_XSP16, literal(-10)))
          CFI (cfiCond77) V5 load(1, XDATA, add(CFA_XSP16, literal(-9)))
          CFI (cfiCond77) V6 load(1, XDATA, add(CFA_XSP16, literal(-8)))
          CFI (cfiCond77) V7 load(1, XDATA, add(CFA_XSP16, literal(-7)))
          CFI (cfiCond77) R7 load(1, XDATA, add(CFA_XSP16, literal(-6)))
          CFI (cfiCond77) ?RET_LOW load(1, XDATA, add(CFA_XSP16, literal(-5)))
          CFI (cfiCond77) ?RET_HIGH load(1, XDATA, add(CFA_XSP16, literal(-4)))
          CFI (cfiCond77) ?BRET_EXT load(1, XDATA, add(CFA_XSP16, literal(-3)))
          CFI (cfiCond77) DPL0 load(1, XDATA, add(CFA_XSP16, literal(-2)))
          CFI (cfiCond77) DPH0 load(1, XDATA, add(CFA_XSP16, literal(-1)))
          CFI (cfiCond77) CFA_SP SP+-2
          CFI (cfiCond77) CFA_XSP16 add(XSP16, 29)
          CFI Block cfiPicker78 Using cfiCommon1
          CFI (cfiPicker78) NoFunction
          CFI (cfiPicker78) Picker
        MOVX      A,@DPTR
        MOV       DPH,A
        MOV       DPL,R0
        RET
          CFI EndBlock cfiCond71
          CFI EndBlock cfiCond72
          CFI EndBlock cfiCond73
          CFI EndBlock cfiCond74
          CFI EndBlock cfiCond75
          CFI EndBlock cfiCond76
          CFI EndBlock cfiCond77
          CFI EndBlock cfiPicker78

        RSEG BANKED_CODE:HUGECODE:NOROOT(0)
?Subroutine18:
          CFI Block cfiCond79 Using cfiCommon0
          CFI Function bdb_startResumeCommissioningProcess
          CFI Conditional ??CrossCallReturnLabel_28
          CFI R6 load(1, XDATA, add(CFA_XSP16, literal(-10)))
          CFI VB load(1, XDATA, add(CFA_XSP16, literal(-9)))
          CFI V0 load(1, XDATA, add(CFA_XSP16, literal(-8)))
          CFI V1 load(1, XDATA, add(CFA_XSP16, literal(-7)))
          CFI R7 load(1, XDATA, add(CFA_XSP16, literal(-6)))
          CFI ?RET_LOW load(1, XDATA, add(CFA_XSP16, literal(-5)))
          CFI ?RET_HIGH load(1, XDATA, add(CFA_XSP16, literal(-4)))
          CFI ?BRET_EXT load(1, XDATA, add(CFA_XSP16, literal(-3)))
          CFI DPL0 load(1, XDATA, add(CFA_XSP16, literal(-2)))
          CFI DPH0 load(1, XDATA, add(CFA_XSP16, literal(-1)))
          CFI CFA_SP SP+-2
          CFI CFA_XSP16 add(XSP16, 21)
          CFI Block cfiCond80 Using cfiCommon0
          CFI (cfiCond80) Function bdb_startResumeCommissioningProcess
          CFI (cfiCond80) Conditional ??CrossCallReturnLabel_29
          CFI (cfiCond80) R6 load(1, XDATA, add(CFA_XSP16, literal(-10)))
          CFI (cfiCond80) VB load(1, XDATA, add(CFA_XSP16, literal(-9)))
          CFI (cfiCond80) V0 load(1, XDATA, add(CFA_XSP16, literal(-8)))
          CFI (cfiCond80) V1 load(1, XDATA, add(CFA_XSP16, literal(-7)))
          CFI (cfiCond80) R7 load(1, XDATA, add(CFA_XSP16, literal(-6)))
          CFI (cfiCond80) ?RET_LOW load(1, XDATA, add(CFA_XSP16, literal(-5)))
          CFI (cfiCond80) ?RET_HIGH load(1, XDATA, add(CFA_XSP16, literal(-4)))
          CFI (cfiCond80) ?BRET_EXT load(1, XDATA, add(CFA_XSP16, literal(-3)))
          CFI (cfiCond80) DPL0 load(1, XDATA, add(CFA_XSP16, literal(-2)))
          CFI (cfiCond80) DPH0 load(1, XDATA, add(CFA_XSP16, literal(-1)))
          CFI (cfiCond80) CFA_SP SP+-2
          CFI (cfiCond80) CFA_XSP16 add(XSP16, 21)
          CFI Block cfiPicker81 Using cfiCommon1
          CFI (cfiPicker81) NoFunction
          CFI (cfiPicker81) Picker
        LCALL     ?Subroutine27 & 0xFFFF
??CrossCallReturnLabel_50:
        RET
          CFI EndBlock cfiCond79
          CFI EndBlock cfiCond80
          CFI EndBlock cfiPicker81

        RSEG BANKED_CODE:HUGECODE:NOROOT(0)
?Subroutine27:
          CFI Block cfiCond82 Using cfiCommon0
          CFI Function bdb_startResumeCommissioningProcess
          CFI Conditional ??CrossCallReturnLabel_50, ??CrossCallReturnLabel_28
          CFI R6 load(1, XDATA, add(CFA_XSP16, literal(-10)))
          CFI VB load(1, XDATA, add(CFA_XSP16, literal(-9)))
          CFI V0 load(1, XDATA, add(CFA_XSP16, literal(-8)))
          CFI V1 load(1, XDATA, add(CFA_XSP16, literal(-7)))
          CFI R7 load(1, XDATA, add(CFA_XSP16, literal(-6)))
          CFI ?RET_LOW load(1, XDATA, add(CFA_XSP16, literal(-5)))
          CFI ?RET_HIGH load(1, XDATA, add(CFA_XSP16, literal(-4)))
          CFI ?BRET_EXT load(1, XDATA, add(CFA_XSP16, literal(-3)))
          CFI DPL0 load(1, XDATA, add(CFA_XSP16, literal(-2)))
          CFI DPH0 load(1, XDATA, add(CFA_XSP16, literal(-1)))
          CFI CFA_SP SP+-4
          CFI CFA_XSP16 add(XSP16, 21)
          CFI Block cfiCond83 Using cfiCommon0
          CFI (cfiCond83) Function bdb_startResumeCommissioningProcess
          CFI (cfiCond83) Conditional ??CrossCallReturnLabel_50, ??CrossCallReturnLabel_29
          CFI (cfiCond83) R6 load(1, XDATA, add(CFA_XSP16, literal(-10)))
          CFI (cfiCond83) VB load(1, XDATA, add(CFA_XSP16, literal(-9)))
          CFI (cfiCond83) V0 load(1, XDATA, add(CFA_XSP16, literal(-8)))
          CFI (cfiCond83) V1 load(1, XDATA, add(CFA_XSP16, literal(-7)))
          CFI (cfiCond83) R7 load(1, XDATA, add(CFA_XSP16, literal(-6)))
          CFI (cfiCond83) ?RET_LOW load(1, XDATA, add(CFA_XSP16, literal(-5)))
          CFI (cfiCond83) ?RET_HIGH load(1, XDATA, add(CFA_XSP16, literal(-4)))
          CFI (cfiCond83) ?BRET_EXT load(1, XDATA, add(CFA_XSP16, literal(-3)))
          CFI (cfiCond83) DPL0 load(1, XDATA, add(CFA_XSP16, literal(-2)))
          CFI (cfiCond83) DPH0 load(1, XDATA, add(CFA_XSP16, literal(-1)))
          CFI (cfiCond83) CFA_SP SP+-4
          CFI (cfiCond83) CFA_XSP16 add(XSP16, 21)
          CFI Block cfiCond84 Using cfiCommon0
          CFI (cfiCond84) Function bdb_startResumeCommissioningProcess
          CFI (cfiCond84) Conditional ??CrossCallReturnLabel_49, ??CrossCallReturnLabel_18
          CFI (cfiCond84) R6 load(1, XDATA, add(CFA_XSP16, literal(-10)))
          CFI (cfiCond84) VB load(1, XDATA, add(CFA_XSP16, literal(-9)))
          CFI (cfiCond84) V0 load(1, XDATA, add(CFA_XSP16, literal(-8)))
          CFI (cfiCond84) V1 load(1, XDATA, add(CFA_XSP16, literal(-7)))
          CFI (cfiCond84) R7 load(1, XDATA, add(CFA_XSP16, literal(-6)))
          CFI (cfiCond84) ?RET_LOW load(1, XDATA, add(CFA_XSP16, literal(-5)))
          CFI (cfiCond84) ?RET_HIGH load(1, XDATA, add(CFA_XSP16, literal(-4)))
          CFI (cfiCond84) ?BRET_EXT load(1, XDATA, add(CFA_XSP16, literal(-3)))
          CFI (cfiCond84) DPL0 load(1, XDATA, add(CFA_XSP16, literal(-2)))
          CFI (cfiCond84) DPH0 load(1, XDATA, add(CFA_XSP16, literal(-1)))
          CFI (cfiCond84) CFA_SP SP+-4
          CFI (cfiCond84) CFA_XSP16 add(XSP16, 21)
          CFI Block cfiCond85 Using cfiCommon0
          CFI (cfiCond85) Function bdb_startResumeCommissioningProcess
          CFI (cfiCond85) Conditional ??CrossCallReturnLabel_49, ??CrossCallReturnLabel_19
          CFI (cfiCond85) R6 load(1, XDATA, add(CFA_XSP16, literal(-10)))
          CFI (cfiCond85) VB load(1, XDATA, add(CFA_XSP16, literal(-9)))
          CFI (cfiCond85) V0 load(1, XDATA, add(CFA_XSP16, literal(-8)))
          CFI (cfiCond85) V1 load(1, XDATA, add(CFA_XSP16, literal(-7)))
          CFI (cfiCond85) R7 load(1, XDATA, add(CFA_XSP16, literal(-6)))
          CFI (cfiCond85) ?RET_LOW load(1, XDATA, add(CFA_XSP16, literal(-5)))
          CFI (cfiCond85) ?RET_HIGH load(1, XDATA, add(CFA_XSP16, literal(-4)))
          CFI (cfiCond85) ?BRET_EXT load(1, XDATA, add(CFA_XSP16, literal(-3)))
          CFI (cfiCond85) DPL0 load(1, XDATA, add(CFA_XSP16, literal(-2)))
          CFI (cfiCond85) DPH0 load(1, XDATA, add(CFA_XSP16, literal(-1)))
          CFI (cfiCond85) CFA_SP SP+-4
          CFI (cfiCond85) CFA_XSP16 add(XSP16, 21)
          CFI Block cfiPicker86 Using cfiCommon1
          CFI (cfiPicker86) NoFunction
          CFI (cfiPicker86) Picker
        MOV       DPTR,#bdb_CurrEpDescriptorList
        MOVX      A,@DPTR
        MOV       R0,A
        INC       DPTR
        MOVX      A,@DPTR
        MOV       DPH,A
        MOV       DPL,R0
        INC       DPTR
        INC       DPTR
        MOVX      A,@DPTR
        RET
          CFI EndBlock cfiCond82
          CFI EndBlock cfiCond83
          CFI EndBlock cfiCond84
          CFI EndBlock cfiCond85
          CFI EndBlock cfiPicker86

        RSEG BANKED_CODE:HUGECODE:NOROOT(0)
?Subroutine17:
          CFI Block cfiCond87 Using cfiCommon0
          CFI Function bdb_ZclIdentifyCmdInd
          CFI Conditional ??CrossCallReturnLabel_24
          CFI R6 load(1, XDATA, add(CFA_XSP16, literal(-12)))
          CFI VB load(1, XDATA, add(CFA_XSP16, literal(-11)))
          CFI V0 load(1, XDATA, add(CFA_XSP16, literal(-10)))
          CFI V1 load(1, XDATA, add(CFA_XSP16, literal(-9)))
          CFI V2 load(1, XDATA, add(CFA_XSP16, literal(-8)))
          CFI V3 load(1, XDATA, add(CFA_XSP16, literal(-7)))
          CFI R7 load(1, XDATA, add(CFA_XSP16, literal(-6)))
          CFI ?RET_LOW load(1, XDATA, add(CFA_XSP16, literal(-5)))
          CFI ?RET_HIGH load(1, XDATA, add(CFA_XSP16, literal(-4)))
          CFI ?BRET_EXT load(1, XDATA, add(CFA_XSP16, literal(-3)))
          CFI DPL0 load(1, XDATA, add(CFA_XSP16, literal(-2)))
          CFI DPH0 load(1, XDATA, add(CFA_XSP16, literal(-1)))
          CFI CFA_SP SP+-2
          CFI CFA_XSP16 add(XSP16, 20)
          CFI Block cfiCond88 Using cfiCommon0
          CFI (cfiCond88) Function bdb_startResumeCommissioningProcess
          CFI (cfiCond88) Conditional ??CrossCallReturnLabel_25
          CFI (cfiCond88) R6 load(1, XDATA, add(CFA_XSP16, literal(-10)))
          CFI (cfiCond88) VB load(1, XDATA, add(CFA_XSP16, literal(-9)))
          CFI (cfiCond88) V0 load(1, XDATA, add(CFA_XSP16, literal(-8)))
          CFI (cfiCond88) V1 load(1, XDATA, add(CFA_XSP16, literal(-7)))
          CFI (cfiCond88) R7 load(1, XDATA, add(CFA_XSP16, literal(-6)))
          CFI (cfiCond88) ?RET_LOW load(1, XDATA, add(CFA_XSP16, literal(-5)))
          CFI (cfiCond88) ?RET_HIGH load(1, XDATA, add(CFA_XSP16, literal(-4)))
          CFI (cfiCond88) ?BRET_EXT load(1, XDATA, add(CFA_XSP16, literal(-3)))
          CFI (cfiCond88) DPL0 load(1, XDATA, add(CFA_XSP16, literal(-2)))
          CFI (cfiCond88) DPH0 load(1, XDATA, add(CFA_XSP16, literal(-1)))
          CFI (cfiCond88) CFA_SP SP+-2
          CFI (cfiCond88) CFA_XSP16 add(XSP16, 21)
          CFI Block cfiCond89 Using cfiCommon0
          CFI (cfiCond89) Function bdb_event_loop
          CFI (cfiCond89) Conditional ??CrossCallReturnLabel_26
          CFI (cfiCond89) R6 load(1, XDATA, add(CFA_XSP16, literal(-16)))
          CFI (cfiCond89) VB load(1, XDATA, add(CFA_XSP16, literal(-15)))
          CFI (cfiCond89) V0 load(1, XDATA, add(CFA_XSP16, literal(-14)))
          CFI (cfiCond89) V1 load(1, XDATA, add(CFA_XSP16, literal(-13)))
          CFI (cfiCond89) V2 load(1, XDATA, add(CFA_XSP16, literal(-12)))
          CFI (cfiCond89) V3 load(1, XDATA, add(CFA_XSP16, literal(-11)))
          CFI (cfiCond89) V4 load(1, XDATA, add(CFA_XSP16, literal(-10)))
          CFI (cfiCond89) V5 load(1, XDATA, add(CFA_XSP16, literal(-9)))
          CFI (cfiCond89) V6 load(1, XDATA, add(CFA_XSP16, literal(-8)))
          CFI (cfiCond89) V7 load(1, XDATA, add(CFA_XSP16, literal(-7)))
          CFI (cfiCond89) R7 load(1, XDATA, add(CFA_XSP16, literal(-6)))
          CFI (cfiCond89) ?RET_LOW load(1, XDATA, add(CFA_XSP16, literal(-5)))
          CFI (cfiCond89) ?RET_HIGH load(1, XDATA, add(CFA_XSP16, literal(-4)))
          CFI (cfiCond89) ?BRET_EXT load(1, XDATA, add(CFA_XSP16, literal(-3)))
          CFI (cfiCond89) DPL0 load(1, XDATA, add(CFA_XSP16, literal(-2)))
          CFI (cfiCond89) DPH0 load(1, XDATA, add(CFA_XSP16, literal(-1)))
          CFI (cfiCond89) CFA_SP SP+-2
          CFI (cfiCond89) CFA_XSP16 add(XSP16, 29)
          CFI Block cfiCond90 Using cfiCommon0
          CFI (cfiCond90) Function bdb_event_loop
          CFI (cfiCond90) Conditional ??CrossCallReturnLabel_27
          CFI (cfiCond90) R6 load(1, XDATA, add(CFA_XSP16, literal(-16)))
          CFI (cfiCond90) VB load(1, XDATA, add(CFA_XSP16, literal(-15)))
          CFI (cfiCond90) V0 load(1, XDATA, add(CFA_XSP16, literal(-14)))
          CFI (cfiCond90) V1 load(1, XDATA, add(CFA_XSP16, literal(-13)))
          CFI (cfiCond90) V2 load(1, XDATA, add(CFA_XSP16, literal(-12)))
          CFI (cfiCond90) V3 load(1, XDATA, add(CFA_XSP16, literal(-11)))
          CFI (cfiCond90) V4 load(1, XDATA, add(CFA_XSP16, literal(-10)))
          CFI (cfiCond90) V5 load(1, XDATA, add(CFA_XSP16, literal(-9)))
          CFI (cfiCond90) V6 load(1, XDATA, add(CFA_XSP16, literal(-8)))
          CFI (cfiCond90) V7 load(1, XDATA, add(CFA_XSP16, literal(-7)))
          CFI (cfiCond90) R7 load(1, XDATA, add(CFA_XSP16, literal(-6)))
          CFI (cfiCond90) ?RET_LOW load(1, XDATA, add(CFA_XSP16, literal(-5)))
          CFI (cfiCond90) ?RET_HIGH load(1, XDATA, add(CFA_XSP16, literal(-4)))
          CFI (cfiCond90) ?BRET_EXT load(1, XDATA, add(CFA_XSP16, literal(-3)))
          CFI (cfiCond90) DPL0 load(1, XDATA, add(CFA_XSP16, literal(-2)))
          CFI (cfiCond90) DPH0 load(1, XDATA, add(CFA_XSP16, literal(-1)))
          CFI (cfiCond90) CFA_SP SP+-2
          CFI (cfiCond90) CFA_XSP16 add(XSP16, 29)
          CFI Block cfiPicker91 Using cfiCommon1
          CFI (cfiPicker91) NoFunction
          CFI (cfiPicker91) Picker
        MOVX      A,@DPTR
        MOV       R0,A
        INC       DPTR
        MOVX      A,@DPTR
        MOV       R1,A
        MOV       DPL,R0
        MOV       DPH,R1
        RET
          CFI EndBlock cfiCond87
          CFI EndBlock cfiCond88
          CFI EndBlock cfiCond89
          CFI EndBlock cfiCond90
          CFI EndBlock cfiPicker91

        RSEG BANKED_CODE:HUGECODE:NOROOT(0)
?Subroutine14:
          CFI Block cfiCond92 Using cfiCommon0
          CFI Function bdb_startResumeCommissioningProcess
          CFI Conditional ??CrossCallReturnLabel_18
          CFI R6 load(1, XDATA, add(CFA_XSP16, literal(-10)))
          CFI VB load(1, XDATA, add(CFA_XSP16, literal(-9)))
          CFI V0 load(1, XDATA, add(CFA_XSP16, literal(-8)))
          CFI V1 load(1, XDATA, add(CFA_XSP16, literal(-7)))
          CFI R7 load(1, XDATA, add(CFA_XSP16, literal(-6)))
          CFI ?RET_LOW load(1, XDATA, add(CFA_XSP16, literal(-5)))
          CFI ?RET_HIGH load(1, XDATA, add(CFA_XSP16, literal(-4)))
          CFI ?BRET_EXT load(1, XDATA, add(CFA_XSP16, literal(-3)))
          CFI DPL0 load(1, XDATA, add(CFA_XSP16, literal(-2)))
          CFI DPH0 load(1, XDATA, add(CFA_XSP16, literal(-1)))
          CFI CFA_SP SP+-2
          CFI CFA_XSP16 add(XSP16, 21)
          CFI Block cfiCond93 Using cfiCommon0
          CFI (cfiCond93) Function bdb_startResumeCommissioningProcess
          CFI (cfiCond93) Conditional ??CrossCallReturnLabel_19
          CFI (cfiCond93) R6 load(1, XDATA, add(CFA_XSP16, literal(-10)))
          CFI (cfiCond93) VB load(1, XDATA, add(CFA_XSP16, literal(-9)))
          CFI (cfiCond93) V0 load(1, XDATA, add(CFA_XSP16, literal(-8)))
          CFI (cfiCond93) V1 load(1, XDATA, add(CFA_XSP16, literal(-7)))
          CFI (cfiCond93) R7 load(1, XDATA, add(CFA_XSP16, literal(-6)))
          CFI (cfiCond93) ?RET_LOW load(1, XDATA, add(CFA_XSP16, literal(-5)))
          CFI (cfiCond93) ?RET_HIGH load(1, XDATA, add(CFA_XSP16, literal(-4)))
          CFI (cfiCond93) ?BRET_EXT load(1, XDATA, add(CFA_XSP16, literal(-3)))
          CFI (cfiCond93) DPL0 load(1, XDATA, add(CFA_XSP16, literal(-2)))
          CFI (cfiCond93) DPH0 load(1, XDATA, add(CFA_XSP16, literal(-1)))
          CFI (cfiCond93) CFA_SP SP+-2
          CFI (cfiCond93) CFA_XSP16 add(XSP16, 21)
          CFI Block cfiPicker94 Using cfiCommon1
          CFI (cfiPicker94) NoFunction
          CFI (cfiPicker94) Picker
        LCALL     ?Subroutine27 & 0xFFFF
??CrossCallReturnLabel_49:
        MOV       R0,A
        INC       DPTR
        MOVX      A,@DPTR
        MOV       DPH,A
        MOV       DPL,R0
        INC       DPTR
        MOVX      A,@DPTR
        MOV       C,0xE0 /* A   */.0
        RET
          CFI EndBlock cfiCond92
          CFI EndBlock cfiCond93
          CFI EndBlock cfiPicker94

        RSEG BANKED_CODE:HUGECODE:NOROOT(0)
?Subroutine13:
          CFI Block cfiCond95 Using cfiCommon0
          CFI Function bdb_CreateRespondentList
          CFI Conditional ??CrossCallReturnLabel_68
          CFI R6 load(1, XDATA, add(CFA_XSP16, literal(-10)))
          CFI VB load(1, XDATA, add(CFA_XSP16, literal(-9)))
          CFI V0 load(1, XDATA, add(CFA_XSP16, literal(-8)))
          CFI V1 load(1, XDATA, add(CFA_XSP16, literal(-7)))
          CFI R7 load(1, XDATA, add(CFA_XSP16, literal(-6)))
          CFI ?RET_LOW load(1, XDATA, add(CFA_XSP16, literal(-5)))
          CFI ?RET_HIGH load(1, XDATA, add(CFA_XSP16, literal(-4)))
          CFI ?BRET_EXT load(1, XDATA, add(CFA_XSP16, literal(-3)))
          CFI DPL0 load(1, XDATA, add(CFA_XSP16, literal(-2)))
          CFI DPH0 load(1, XDATA, add(CFA_XSP16, literal(-1)))
          CFI CFA_SP SP+-2
          CFI CFA_XSP16 add(XSP16, 10)
          CFI Block cfiCond96 Using cfiCommon0
          CFI (cfiCond96) Function bdb_AddRespondentNode
          CFI (cfiCond96) Conditional ??CrossCallReturnLabel_69
          CFI (cfiCond96) R6 load(1, XDATA, add(CFA_XSP16, literal(-10)))
          CFI (cfiCond96) VB load(1, XDATA, add(CFA_XSP16, literal(-9)))
          CFI (cfiCond96) V0 load(1, XDATA, add(CFA_XSP16, literal(-8)))
          CFI (cfiCond96) V1 load(1, XDATA, add(CFA_XSP16, literal(-7)))
          CFI (cfiCond96) R7 load(1, XDATA, add(CFA_XSP16, literal(-6)))
          CFI (cfiCond96) ?RET_LOW load(1, XDATA, add(CFA_XSP16, literal(-5)))
          CFI (cfiCond96) ?RET_HIGH load(1, XDATA, add(CFA_XSP16, literal(-4)))
          CFI (cfiCond96) ?BRET_EXT load(1, XDATA, add(CFA_XSP16, literal(-3)))
          CFI (cfiCond96) DPL0 load(1, XDATA, add(CFA_XSP16, literal(-2)))
          CFI (cfiCond96) DPH0 load(1, XDATA, add(CFA_XSP16, literal(-1)))
          CFI (cfiCond96) CFA_SP SP+-2
          CFI (cfiCond96) CFA_XSP16 add(XSP16, 10)
          CFI Block cfiCond97 Using cfiCommon0
          CFI (cfiCond97) Function bdb_zclRespondentListClean
          CFI (cfiCond97) Conditional ??CrossCallReturnLabel_70
          CFI (cfiCond97) R6 load(1, XDATA, add(CFA_XSP16, literal(-12)))
          CFI (cfiCond97) VB load(1, XDATA, add(CFA_XSP16, literal(-11)))
          CFI (cfiCond97) V0 load(1, XDATA, add(CFA_XSP16, literal(-10)))
          CFI (cfiCond97) V1 load(1, XDATA, add(CFA_XSP16, literal(-9)))
          CFI (cfiCond97) V2 load(1, XDATA, add(CFA_XSP16, literal(-8)))
          CFI (cfiCond97) V3 load(1, XDATA, add(CFA_XSP16, literal(-7)))
          CFI (cfiCond97) R7 load(1, XDATA, add(CFA_XSP16, literal(-6)))
          CFI (cfiCond97) ?RET_LOW load(1, XDATA, add(CFA_XSP16, literal(-5)))
          CFI (cfiCond97) ?RET_HIGH load(1, XDATA, add(CFA_XSP16, literal(-4)))
          CFI (cfiCond97) ?BRET_EXT load(1, XDATA, add(CFA_XSP16, literal(-3)))
          CFI (cfiCond97) DPL0 load(1, XDATA, add(CFA_XSP16, literal(-2)))
          CFI (cfiCond97) DPH0 load(1, XDATA, add(CFA_XSP16, literal(-1)))
          CFI (cfiCond97) CFA_SP SP+-2
          CFI (cfiCond97) CFA_XSP16 add(XSP16, 12)
          CFI Block cfiPicker98 Using cfiCommon1
          CFI (cfiPicker98) NoFunction
          CFI (cfiPicker98) Picker
        MOV       A,R2
        MOV       R6,A
        MOV       A,R3
          CFI EndBlock cfiCond95
          CFI EndBlock cfiCond96
          CFI EndBlock cfiCond97
          CFI EndBlock cfiPicker98
        REQUIRE ??Subroutine36_0
        ; // Fall through to label ??Subroutine36_0

        RSEG BANKED_CODE:HUGECODE:NOROOT(0)
??Subroutine36_0:
          CFI Block cfiCond99 Using cfiCommon0
          CFI Function bdb_AddRespondentNode
          CFI Conditional ??CrossCallReturnLabel_71
          CFI R6 load(1, XDATA, add(CFA_XSP16, literal(-10)))
          CFI VB load(1, XDATA, add(CFA_XSP16, literal(-9)))
          CFI V0 load(1, XDATA, add(CFA_XSP16, literal(-8)))
          CFI V1 load(1, XDATA, add(CFA_XSP16, literal(-7)))
          CFI R7 load(1, XDATA, add(CFA_XSP16, literal(-6)))
          CFI ?RET_LOW load(1, XDATA, add(CFA_XSP16, literal(-5)))
          CFI ?RET_HIGH load(1, XDATA, add(CFA_XSP16, literal(-4)))
          CFI ?BRET_EXT load(1, XDATA, add(CFA_XSP16, literal(-3)))
          CFI DPL0 load(1, XDATA, add(CFA_XSP16, literal(-2)))
          CFI DPH0 load(1, XDATA, add(CFA_XSP16, literal(-1)))
          CFI CFA_SP SP+-2
          CFI CFA_XSP16 add(XSP16, 10)
          CFI Block cfiCond100 Using cfiCommon0
          CFI (cfiCond100) Function bdb_CreateRespondentList
          CFI (cfiCond100) Conditional ??CrossCallReturnLabel_68
          CFI (cfiCond100) R6 load(1, XDATA, add(CFA_XSP16, literal(-10)))
          CFI (cfiCond100) VB load(1, XDATA, add(CFA_XSP16, literal(-9)))
          CFI (cfiCond100) V0 load(1, XDATA, add(CFA_XSP16, literal(-8)))
          CFI (cfiCond100) V1 load(1, XDATA, add(CFA_XSP16, literal(-7)))
          CFI (cfiCond100) R7 load(1, XDATA, add(CFA_XSP16, literal(-6)))
          CFI (cfiCond100) ?RET_LOW load(1, XDATA, add(CFA_XSP16, literal(-5)))
          CFI (cfiCond100) ?RET_HIGH load(1, XDATA, add(CFA_XSP16, literal(-4)))
          CFI (cfiCond100) ?BRET_EXT load(1, XDATA, add(CFA_XSP16, literal(-3)))
          CFI (cfiCond100) DPL0 load(1, XDATA, add(CFA_XSP16, literal(-2)))
          CFI (cfiCond100) DPH0 load(1, XDATA, add(CFA_XSP16, literal(-1)))
          CFI (cfiCond100) CFA_SP SP+-2
          CFI (cfiCond100) CFA_XSP16 add(XSP16, 10)
          CFI Block cfiCond101 Using cfiCommon0
          CFI (cfiCond101) Function bdb_AddRespondentNode
          CFI (cfiCond101) Conditional ??CrossCallReturnLabel_69
          CFI (cfiCond101) R6 load(1, XDATA, add(CFA_XSP16, literal(-10)))
          CFI (cfiCond101) VB load(1, XDATA, add(CFA_XSP16, literal(-9)))
          CFI (cfiCond101) V0 load(1, XDATA, add(CFA_XSP16, literal(-8)))
          CFI (cfiCond101) V1 load(1, XDATA, add(CFA_XSP16, literal(-7)))
          CFI (cfiCond101) R7 load(1, XDATA, add(CFA_XSP16, literal(-6)))
          CFI (cfiCond101) ?RET_LOW load(1, XDATA, add(CFA_XSP16, literal(-5)))
          CFI (cfiCond101) ?RET_HIGH load(1, XDATA, add(CFA_XSP16, literal(-4)))
          CFI (cfiCond101) ?BRET_EXT load(1, XDATA, add(CFA_XSP16, literal(-3)))
          CFI (cfiCond101) DPL0 load(1, XDATA, add(CFA_XSP16, literal(-2)))
          CFI (cfiCond101) DPH0 load(1, XDATA, add(CFA_XSP16, literal(-1)))
          CFI (cfiCond101) CFA_SP SP+-2
          CFI (cfiCond101) CFA_XSP16 add(XSP16, 10)
          CFI Block cfiCond102 Using cfiCommon0
          CFI (cfiCond102) Function bdb_zclRespondentListClean
          CFI (cfiCond102) Conditional ??CrossCallReturnLabel_70
          CFI (cfiCond102) R6 load(1, XDATA, add(CFA_XSP16, literal(-12)))
          CFI (cfiCond102) VB load(1, XDATA, add(CFA_XSP16, literal(-11)))
          CFI (cfiCond102) V0 load(1, XDATA, add(CFA_XSP16, literal(-10)))
          CFI (cfiCond102) V1 load(1, XDATA, add(CFA_XSP16, literal(-9)))
          CFI (cfiCond102) V2 load(1, XDATA, add(CFA_XSP16, literal(-8)))
          CFI (cfiCond102) V3 load(1, XDATA, add(CFA_XSP16, literal(-7)))
          CFI (cfiCond102) R7 load(1, XDATA, add(CFA_XSP16, literal(-6)))
          CFI (cfiCond102) ?RET_LOW load(1, XDATA, add(CFA_XSP16, literal(-5)))
          CFI (cfiCond102) ?RET_HIGH load(1, XDATA, add(CFA_XSP16, literal(-4)))
          CFI (cfiCond102) ?BRET_EXT load(1, XDATA, add(CFA_XSP16, literal(-3)))
          CFI (cfiCond102) DPL0 load(1, XDATA, add(CFA_XSP16, literal(-2)))
          CFI (cfiCond102) DPH0 load(1, XDATA, add(CFA_XSP16, literal(-1)))
          CFI (cfiCond102) CFA_SP SP+-2
          CFI (cfiCond102) CFA_XSP16 add(XSP16, 12)
          CFI Block cfiPicker103 Using cfiCommon1
          CFI (cfiPicker103) NoFunction
          CFI (cfiPicker103) Picker
        MOV       R7,A
        MOV       DPL,R6
        MOV       DPH,R7
          CFI EndBlock cfiCond99
          CFI EndBlock cfiCond100
          CFI EndBlock cfiCond101
          CFI EndBlock cfiCond102
          CFI EndBlock cfiPicker103
        REQUIRE ??Subroutine37_0
        ; // Fall through to label ??Subroutine37_0

        RSEG BANKED_CODE:HUGECODE:NOROOT(0)
??Subroutine37_0:
          CFI Block cfiCond104 Using cfiCommon0
          CFI Function bdb_ZclIdentifyCmdInd
          CFI Conditional ??CrossCallReturnLabel_73
          CFI R6 load(1, XDATA, add(CFA_XSP16, literal(-12)))
          CFI VB load(1, XDATA, add(CFA_XSP16, literal(-11)))
          CFI V0 load(1, XDATA, add(CFA_XSP16, literal(-10)))
          CFI V1 load(1, XDATA, add(CFA_XSP16, literal(-9)))
          CFI V2 load(1, XDATA, add(CFA_XSP16, literal(-8)))
          CFI V3 load(1, XDATA, add(CFA_XSP16, literal(-7)))
          CFI R7 load(1, XDATA, add(CFA_XSP16, literal(-6)))
          CFI ?RET_LOW load(1, XDATA, add(CFA_XSP16, literal(-5)))
          CFI ?RET_HIGH load(1, XDATA, add(CFA_XSP16, literal(-4)))
          CFI ?BRET_EXT load(1, XDATA, add(CFA_XSP16, literal(-3)))
          CFI DPL0 load(1, XDATA, add(CFA_XSP16, literal(-2)))
          CFI DPH0 load(1, XDATA, add(CFA_XSP16, literal(-1)))
          CFI CFA_SP SP+-2
          CFI CFA_XSP16 add(XSP16, 20)
          CFI Block cfiCond105 Using cfiCommon0
          CFI (cfiCond105) Function bdb_parentLost
          CFI (cfiCond105) Conditional ??CrossCallReturnLabel_74
          CFI (cfiCond105) DPL0 Frame(CFA_SP, 4)
          CFI (cfiCond105) DPH0 Frame(CFA_SP, 5)
          CFI (cfiCond105) CFA_SP SP+-7
          CFI (cfiCond105) CFA_XSP16 add(XSP16, 1)
          CFI Block cfiCond106 Using cfiCommon0
          CFI (cfiCond106) Function bdb_reportCommissioningState
          CFI (cfiCond106) Conditional ??CrossCallReturnLabel_75
          CFI (cfiCond106) R6 load(1, XDATA, add(CFA_XSP16, literal(-10)))
          CFI (cfiCond106) VB load(1, XDATA, add(CFA_XSP16, literal(-9)))
          CFI (cfiCond106) V0 load(1, XDATA, add(CFA_XSP16, literal(-8)))
          CFI (cfiCond106) V1 load(1, XDATA, add(CFA_XSP16, literal(-7)))
          CFI (cfiCond106) R7 load(1, XDATA, add(CFA_XSP16, literal(-6)))
          CFI (cfiCond106) ?RET_LOW load(1, XDATA, add(CFA_XSP16, literal(-5)))
          CFI (cfiCond106) ?RET_HIGH load(1, XDATA, add(CFA_XSP16, literal(-4)))
          CFI (cfiCond106) ?BRET_EXT load(1, XDATA, add(CFA_XSP16, literal(-3)))
          CFI (cfiCond106) DPL0 load(1, XDATA, add(CFA_XSP16, literal(-2)))
          CFI (cfiCond106) DPH0 load(1, XDATA, add(CFA_XSP16, literal(-1)))
          CFI (cfiCond106) CFA_SP SP+-2
          CFI (cfiCond106) CFA_XSP16 add(XSP16, 14)
          CFI Block cfiCond107 Using cfiCommon0
          CFI (cfiCond107) Function bdb_reportCommissioningState
          CFI (cfiCond107) Conditional ??CrossCallReturnLabel_76
          CFI (cfiCond107) R6 load(1, XDATA, add(CFA_XSP16, literal(-10)))
          CFI (cfiCond107) VB load(1, XDATA, add(CFA_XSP16, literal(-9)))
          CFI (cfiCond107) V0 load(1, XDATA, add(CFA_XSP16, literal(-8)))
          CFI (cfiCond107) V1 load(1, XDATA, add(CFA_XSP16, literal(-7)))
          CFI (cfiCond107) R7 load(1, XDATA, add(CFA_XSP16, literal(-6)))
          CFI (cfiCond107) ?RET_LOW load(1, XDATA, add(CFA_XSP16, literal(-5)))
          CFI (cfiCond107) ?RET_HIGH load(1, XDATA, add(CFA_XSP16, literal(-4)))
          CFI (cfiCond107) ?BRET_EXT load(1, XDATA, add(CFA_XSP16, literal(-3)))
          CFI (cfiCond107) DPL0 load(1, XDATA, add(CFA_XSP16, literal(-2)))
          CFI (cfiCond107) DPH0 load(1, XDATA, add(CFA_XSP16, literal(-1)))
          CFI (cfiCond107) CFA_SP SP+-2
          CFI (cfiCond107) CFA_XSP16 add(XSP16, 14)
          CFI Block cfiCond108 Using cfiCommon0
          CFI (cfiCond108) Function bdb_reportCommissioningState
          CFI (cfiCond108) Conditional ??CrossCallReturnLabel_77
          CFI (cfiCond108) R6 load(1, XDATA, add(CFA_XSP16, literal(-10)))
          CFI (cfiCond108) VB load(1, XDATA, add(CFA_XSP16, literal(-9)))
          CFI (cfiCond108) V0 load(1, XDATA, add(CFA_XSP16, literal(-8)))
          CFI (cfiCond108) V1 load(1, XDATA, add(CFA_XSP16, literal(-7)))
          CFI (cfiCond108) R7 load(1, XDATA, add(CFA_XSP16, literal(-6)))
          CFI (cfiCond108) ?RET_LOW load(1, XDATA, add(CFA_XSP16, literal(-5)))
          CFI (cfiCond108) ?RET_HIGH load(1, XDATA, add(CFA_XSP16, literal(-4)))
          CFI (cfiCond108) ?BRET_EXT load(1, XDATA, add(CFA_XSP16, literal(-3)))
          CFI (cfiCond108) DPL0 load(1, XDATA, add(CFA_XSP16, literal(-2)))
          CFI (cfiCond108) DPH0 load(1, XDATA, add(CFA_XSP16, literal(-1)))
          CFI (cfiCond108) CFA_SP SP+-2
          CFI (cfiCond108) CFA_XSP16 add(XSP16, 14)
          CFI Block cfiCond109 Using cfiCommon0
          CFI (cfiCond109) Function bdb_filterNwkDisc
          CFI (cfiCond109) Conditional ??CrossCallReturnLabel_78
          CFI (cfiCond109) R6 load(1, XDATA, add(CFA_XSP16, literal(-11)))
          CFI (cfiCond109) VB load(1, XDATA, add(CFA_XSP16, literal(-10)))
          CFI (cfiCond109) V0 load(1, XDATA, add(CFA_XSP16, literal(-9)))
          CFI (cfiCond109) V1 load(1, XDATA, add(CFA_XSP16, literal(-8)))
          CFI (cfiCond109) V2 load(1, XDATA, add(CFA_XSP16, literal(-7)))
          CFI (cfiCond109) R7 load(1, XDATA, add(CFA_XSP16, literal(-6)))
          CFI (cfiCond109) ?RET_LOW load(1, XDATA, add(CFA_XSP16, literal(-5)))
          CFI (cfiCond109) ?RET_HIGH load(1, XDATA, add(CFA_XSP16, literal(-4)))
          CFI (cfiCond109) ?BRET_EXT load(1, XDATA, add(CFA_XSP16, literal(-3)))
          CFI (cfiCond109) DPL0 load(1, XDATA, add(CFA_XSP16, literal(-2)))
          CFI (cfiCond109) DPH0 load(1, XDATA, add(CFA_XSP16, literal(-1)))
          CFI (cfiCond109) CFA_SP SP+-2
          CFI (cfiCond109) CFA_XSP16 add(XSP16, 11)
          CFI Block cfiCond110 Using cfiCommon0
          CFI (cfiCond110) Function bdb_filterNwkDisc
          CFI (cfiCond110) Conditional ??CrossCallReturnLabel_79
          CFI (cfiCond110) R6 load(1, XDATA, add(CFA_XSP16, literal(-11)))
          CFI (cfiCond110) VB load(1, XDATA, add(CFA_XSP16, literal(-10)))
          CFI (cfiCond110) V0 load(1, XDATA, add(CFA_XSP16, literal(-9)))
          CFI (cfiCond110) V1 load(1, XDATA, add(CFA_XSP16, literal(-8)))
          CFI (cfiCond110) V2 load(1, XDATA, add(CFA_XSP16, literal(-7)))
          CFI (cfiCond110) R7 load(1, XDATA, add(CFA_XSP16, literal(-6)))
          CFI (cfiCond110) ?RET_LOW load(1, XDATA, add(CFA_XSP16, literal(-5)))
          CFI (cfiCond110) ?RET_HIGH load(1, XDATA, add(CFA_XSP16, literal(-4)))
          CFI (cfiCond110) ?BRET_EXT load(1, XDATA, add(CFA_XSP16, literal(-3)))
          CFI (cfiCond110) DPL0 load(1, XDATA, add(CFA_XSP16, literal(-2)))
          CFI (cfiCond110) DPH0 load(1, XDATA, add(CFA_XSP16, literal(-1)))
          CFI (cfiCond110) CFA_SP SP+-2
          CFI (cfiCond110) CFA_XSP16 add(XSP16, 11)
          CFI Block cfiCond111 Using cfiCommon0
          CFI (cfiCond111) Function bdb_tryNwkAssoc
          CFI (cfiCond111) Conditional ??CrossCallReturnLabel_80
          CFI (cfiCond111) R6 load(1, XDATA, add(CFA_XSP16, literal(-10)))
          CFI (cfiCond111) VB load(1, XDATA, add(CFA_XSP16, literal(-9)))
          CFI (cfiCond111) V0 load(1, XDATA, add(CFA_XSP16, literal(-8)))
          CFI (cfiCond111) V1 load(1, XDATA, add(CFA_XSP16, literal(-7)))
          CFI (cfiCond111) R7 load(1, XDATA, add(CFA_XSP16, literal(-6)))
          CFI (cfiCond111) ?RET_LOW load(1, XDATA, add(CFA_XSP16, literal(-5)))
          CFI (cfiCond111) ?RET_HIGH load(1, XDATA, add(CFA_XSP16, literal(-4)))
          CFI (cfiCond111) ?BRET_EXT load(1, XDATA, add(CFA_XSP16, literal(-3)))
          CFI (cfiCond111) DPL0 load(1, XDATA, add(CFA_XSP16, literal(-2)))
          CFI (cfiCond111) DPH0 load(1, XDATA, add(CFA_XSP16, literal(-1)))
          CFI (cfiCond111) CFA_SP SP+-2
          CFI (cfiCond111) CFA_XSP16 add(XSP16, 11)
          CFI Block cfiCond112 Using cfiCommon0
          CFI (cfiCond112) Function bdb_nwkDescFree
          CFI (cfiCond112) Conditional ??CrossCallReturnLabel_72
          CFI (cfiCond112) DPL0 Frame(CFA_SP, 4)
          CFI (cfiCond112) DPH0 Frame(CFA_SP, 5)
          CFI (cfiCond112) CFA_SP SP+-7
          CFI Block cfiCond113 Using cfiCommon0
          CFI (cfiCond113) Function bdb_startResumeCommissioningProcess
          CFI (cfiCond113) Conditional ??CrossCallReturnLabel_81
          CFI (cfiCond113) R6 load(1, XDATA, add(CFA_XSP16, literal(-10)))
          CFI (cfiCond113) VB load(1, XDATA, add(CFA_XSP16, literal(-9)))
          CFI (cfiCond113) V0 load(1, XDATA, add(CFA_XSP16, literal(-8)))
          CFI (cfiCond113) V1 load(1, XDATA, add(CFA_XSP16, literal(-7)))
          CFI (cfiCond113) R7 load(1, XDATA, add(CFA_XSP16, literal(-6)))
          CFI (cfiCond113) ?RET_LOW load(1, XDATA, add(CFA_XSP16, literal(-5)))
          CFI (cfiCond113) ?RET_HIGH load(1, XDATA, add(CFA_XSP16, literal(-4)))
          CFI (cfiCond113) ?BRET_EXT load(1, XDATA, add(CFA_XSP16, literal(-3)))
          CFI (cfiCond113) DPL0 load(1, XDATA, add(CFA_XSP16, literal(-2)))
          CFI (cfiCond113) DPH0 load(1, XDATA, add(CFA_XSP16, literal(-1)))
          CFI (cfiCond113) CFA_SP SP+-2
          CFI (cfiCond113) CFA_XSP16 add(XSP16, 21)
          CFI Block cfiCond114 Using cfiCommon0
          CFI (cfiCond114) Function bdb_event_loop
          CFI (cfiCond114) Conditional ??CrossCallReturnLabel_82
          CFI (cfiCond114) R6 load(1, XDATA, add(CFA_XSP16, literal(-16)))
          CFI (cfiCond114) VB load(1, XDATA, add(CFA_XSP16, literal(-15)))
          CFI (cfiCond114) V0 load(1, XDATA, add(CFA_XSP16, literal(-14)))
          CFI (cfiCond114) V1 load(1, XDATA, add(CFA_XSP16, literal(-13)))
          CFI (cfiCond114) V2 load(1, XDATA, add(CFA_XSP16, literal(-12)))
          CFI (cfiCond114) V3 load(1, XDATA, add(CFA_XSP16, literal(-11)))
          CFI (cfiCond114) V4 load(1, XDATA, add(CFA_XSP16, literal(-10)))
          CFI (cfiCond114) V5 load(1, XDATA, add(CFA_XSP16, literal(-9)))
          CFI (cfiCond114) V6 load(1, XDATA, add(CFA_XSP16, literal(-8)))
          CFI (cfiCond114) V7 load(1, XDATA, add(CFA_XSP16, literal(-7)))
          CFI (cfiCond114) R7 load(1, XDATA, add(CFA_XSP16, literal(-6)))
          CFI (cfiCond114) ?RET_LOW load(1, XDATA, add(CFA_XSP16, literal(-5)))
          CFI (cfiCond114) ?RET_HIGH load(1, XDATA, add(CFA_XSP16, literal(-4)))
          CFI (cfiCond114) ?BRET_EXT load(1, XDATA, add(CFA_XSP16, literal(-3)))
          CFI (cfiCond114) DPL0 load(1, XDATA, add(CFA_XSP16, literal(-2)))
          CFI (cfiCond114) DPH0 load(1, XDATA, add(CFA_XSP16, literal(-1)))
          CFI (cfiCond114) CFA_SP SP+-2
          CFI (cfiCond114) CFA_XSP16 add(XSP16, 29)
          CFI Block cfiCond115 Using cfiCommon0
          CFI (cfiCond115) Function bdb_event_loop
          CFI (cfiCond115) Conditional ??CrossCallReturnLabel_83
          CFI (cfiCond115) R6 load(1, XDATA, add(CFA_XSP16, literal(-16)))
          CFI (cfiCond115) VB load(1, XDATA, add(CFA_XSP16, literal(-15)))
          CFI (cfiCond115) V0 load(1, XDATA, add(CFA_XSP16, literal(-14)))
          CFI (cfiCond115) V1 load(1, XDATA, add(CFA_XSP16, literal(-13)))
          CFI (cfiCond115) V2 load(1, XDATA, add(CFA_XSP16, literal(-12)))
          CFI (cfiCond115) V3 load(1, XDATA, add(CFA_XSP16, literal(-11)))
          CFI (cfiCond115) V4 load(1, XDATA, add(CFA_XSP16, literal(-10)))
          CFI (cfiCond115) V5 load(1, XDATA, add(CFA_XSP16, literal(-9)))
          CFI (cfiCond115) V6 load(1, XDATA, add(CFA_XSP16, literal(-8)))
          CFI (cfiCond115) V7 load(1, XDATA, add(CFA_XSP16, literal(-7)))
          CFI (cfiCond115) R7 load(1, XDATA, add(CFA_XSP16, literal(-6)))
          CFI (cfiCond115) ?RET_LOW load(1, XDATA, add(CFA_XSP16, literal(-5)))
          CFI (cfiCond115) ?RET_HIGH load(1, XDATA, add(CFA_XSP16, literal(-4)))
          CFI (cfiCond115) ?BRET_EXT load(1, XDATA, add(CFA_XSP16, literal(-3)))
          CFI (cfiCond115) DPL0 load(1, XDATA, add(CFA_XSP16, literal(-2)))
          CFI (cfiCond115) DPH0 load(1, XDATA, add(CFA_XSP16, literal(-1)))
          CFI (cfiCond115) CFA_SP SP+-2
          CFI (cfiCond115) CFA_XSP16 add(XSP16, 29)
          CFI Block cfiCond116 Using cfiCommon0
          CFI (cfiCond116) Function bdb_ProcessNodeDescRsp
          CFI (cfiCond116) Conditional ??CrossCallReturnLabel_84
          CFI (cfiCond116) R6 load(1, XDATA, add(CFA_XSP16, literal(-10)))
          CFI (cfiCond116) VB load(1, XDATA, add(CFA_XSP16, literal(-9)))
          CFI (cfiCond116) V0 load(1, XDATA, add(CFA_XSP16, literal(-8)))
          CFI (cfiCond116) V1 load(1, XDATA, add(CFA_XSP16, literal(-7)))
          CFI (cfiCond116) R7 load(1, XDATA, add(CFA_XSP16, literal(-6)))
          CFI (cfiCond116) ?RET_LOW load(1, XDATA, add(CFA_XSP16, literal(-5)))
          CFI (cfiCond116) ?RET_HIGH load(1, XDATA, add(CFA_XSP16, literal(-4)))
          CFI (cfiCond116) ?BRET_EXT load(1, XDATA, add(CFA_XSP16, literal(-3)))
          CFI (cfiCond116) DPL0 load(1, XDATA, add(CFA_XSP16, literal(-2)))
          CFI (cfiCond116) DPH0 load(1, XDATA, add(CFA_XSP16, literal(-1)))
          CFI (cfiCond116) CFA_SP SP+-2
          CFI (cfiCond116) CFA_XSP16 add(XSP16, 45)
          CFI Block cfiCond117 Using cfiCommon0
          CFI (cfiCond117) Function bdb_ProcessOSALMsg
          CFI (cfiCond117) Conditional ??CrossCallReturnLabel_85
          CFI (cfiCond117) R6 load(1, XDATA, add(CFA_XSP16, literal(-10)))
          CFI (cfiCond117) VB load(1, XDATA, add(CFA_XSP16, literal(-9)))
          CFI (cfiCond117) V0 load(1, XDATA, add(CFA_XSP16, literal(-8)))
          CFI (cfiCond117) V1 load(1, XDATA, add(CFA_XSP16, literal(-7)))
          CFI (cfiCond117) R7 load(1, XDATA, add(CFA_XSP16, literal(-6)))
          CFI (cfiCond117) ?RET_LOW load(1, XDATA, add(CFA_XSP16, literal(-5)))
          CFI (cfiCond117) ?RET_HIGH load(1, XDATA, add(CFA_XSP16, literal(-4)))
          CFI (cfiCond117) ?BRET_EXT load(1, XDATA, add(CFA_XSP16, literal(-3)))
          CFI (cfiCond117) DPL0 load(1, XDATA, add(CFA_XSP16, literal(-2)))
          CFI (cfiCond117) DPH0 load(1, XDATA, add(CFA_XSP16, literal(-1)))
          CFI (cfiCond117) CFA_SP SP+-2
          CFI (cfiCond117) CFA_XSP16 add(XSP16, 36)
          CFI Block cfiCond118 Using cfiCommon0
          CFI (cfiCond118) Function bdb_AddRespondentNode
          CFI (cfiCond118) Conditional ??CrossCallReturnLabel_71
          CFI (cfiCond118) R6 load(1, XDATA, add(CFA_XSP16, literal(-10)))
          CFI (cfiCond118) VB load(1, XDATA, add(CFA_XSP16, literal(-9)))
          CFI (cfiCond118) V0 load(1, XDATA, add(CFA_XSP16, literal(-8)))
          CFI (cfiCond118) V1 load(1, XDATA, add(CFA_XSP16, literal(-7)))
          CFI (cfiCond118) R7 load(1, XDATA, add(CFA_XSP16, literal(-6)))
          CFI (cfiCond118) ?RET_LOW load(1, XDATA, add(CFA_XSP16, literal(-5)))
          CFI (cfiCond118) ?RET_HIGH load(1, XDATA, add(CFA_XSP16, literal(-4)))
          CFI (cfiCond118) ?BRET_EXT load(1, XDATA, add(CFA_XSP16, literal(-3)))
          CFI (cfiCond118) DPL0 load(1, XDATA, add(CFA_XSP16, literal(-2)))
          CFI (cfiCond118) DPH0 load(1, XDATA, add(CFA_XSP16, literal(-1)))
          CFI (cfiCond118) CFA_SP SP+-2
          CFI (cfiCond118) CFA_XSP16 add(XSP16, 10)
          CFI Block cfiCond119 Using cfiCommon0
          CFI (cfiCond119) Function bdb_CreateRespondentList
          CFI (cfiCond119) Conditional ??CrossCallReturnLabel_68
          CFI (cfiCond119) R6 load(1, XDATA, add(CFA_XSP16, literal(-10)))
          CFI (cfiCond119) VB load(1, XDATA, add(CFA_XSP16, literal(-9)))
          CFI (cfiCond119) V0 load(1, XDATA, add(CFA_XSP16, literal(-8)))
          CFI (cfiCond119) V1 load(1, XDATA, add(CFA_XSP16, literal(-7)))
          CFI (cfiCond119) R7 load(1, XDATA, add(CFA_XSP16, literal(-6)))
          CFI (cfiCond119) ?RET_LOW load(1, XDATA, add(CFA_XSP16, literal(-5)))
          CFI (cfiCond119) ?RET_HIGH load(1, XDATA, add(CFA_XSP16, literal(-4)))
          CFI (cfiCond119) ?BRET_EXT load(1, XDATA, add(CFA_XSP16, literal(-3)))
          CFI (cfiCond119) DPL0 load(1, XDATA, add(CFA_XSP16, literal(-2)))
          CFI (cfiCond119) DPH0 load(1, XDATA, add(CFA_XSP16, literal(-1)))
          CFI (cfiCond119) CFA_SP SP+-2
          CFI (cfiCond119) CFA_XSP16 add(XSP16, 10)
          CFI Block cfiCond120 Using cfiCommon0
          CFI (cfiCond120) Function bdb_AddRespondentNode
          CFI (cfiCond120) Conditional ??CrossCallReturnLabel_69
          CFI (cfiCond120) R6 load(1, XDATA, add(CFA_XSP16, literal(-10)))
          CFI (cfiCond120) VB load(1, XDATA, add(CFA_XSP16, literal(-9)))
          CFI (cfiCond120) V0 load(1, XDATA, add(CFA_XSP16, literal(-8)))
          CFI (cfiCond120) V1 load(1, XDATA, add(CFA_XSP16, literal(-7)))
          CFI (cfiCond120) R7 load(1, XDATA, add(CFA_XSP16, literal(-6)))
          CFI (cfiCond120) ?RET_LOW load(1, XDATA, add(CFA_XSP16, literal(-5)))
          CFI (cfiCond120) ?RET_HIGH load(1, XDATA, add(CFA_XSP16, literal(-4)))
          CFI (cfiCond120) ?BRET_EXT load(1, XDATA, add(CFA_XSP16, literal(-3)))
          CFI (cfiCond120) DPL0 load(1, XDATA, add(CFA_XSP16, literal(-2)))
          CFI (cfiCond120) DPH0 load(1, XDATA, add(CFA_XSP16, literal(-1)))
          CFI (cfiCond120) CFA_SP SP+-2
          CFI (cfiCond120) CFA_XSP16 add(XSP16, 10)
          CFI Block cfiCond121 Using cfiCommon0
          CFI (cfiCond121) Function bdb_zclRespondentListClean
          CFI (cfiCond121) Conditional ??CrossCallReturnLabel_70
          CFI (cfiCond121) R6 load(1, XDATA, add(CFA_XSP16, literal(-12)))
          CFI (cfiCond121) VB load(1, XDATA, add(CFA_XSP16, literal(-11)))
          CFI (cfiCond121) V0 load(1, XDATA, add(CFA_XSP16, literal(-10)))
          CFI (cfiCond121) V1 load(1, XDATA, add(CFA_XSP16, literal(-9)))
          CFI (cfiCond121) V2 load(1, XDATA, add(CFA_XSP16, literal(-8)))
          CFI (cfiCond121) V3 load(1, XDATA, add(CFA_XSP16, literal(-7)))
          CFI (cfiCond121) R7 load(1, XDATA, add(CFA_XSP16, literal(-6)))
          CFI (cfiCond121) ?RET_LOW load(1, XDATA, add(CFA_XSP16, literal(-5)))
          CFI (cfiCond121) ?RET_HIGH load(1, XDATA, add(CFA_XSP16, literal(-4)))
          CFI (cfiCond121) ?BRET_EXT load(1, XDATA, add(CFA_XSP16, literal(-3)))
          CFI (cfiCond121) DPL0 load(1, XDATA, add(CFA_XSP16, literal(-2)))
          CFI (cfiCond121) DPH0 load(1, XDATA, add(CFA_XSP16, literal(-1)))
          CFI (cfiCond121) CFA_SP SP+-2
          CFI (cfiCond121) CFA_XSP16 add(XSP16, 12)
          CFI Block cfiPicker122 Using cfiCommon1
          CFI (cfiPicker122) NoFunction
          CFI (cfiPicker122) Picker
        MOVX      A,@DPTR
        MOV       R0,A
        INC       DPTR
        MOVX      A,@DPTR
        MOV       R1,A
        MOV       A,R0
        ORL       A,R1
        RET
          CFI EndBlock cfiCond104
          CFI EndBlock cfiCond105
          CFI EndBlock cfiCond106
          CFI EndBlock cfiCond107
          CFI EndBlock cfiCond108
          CFI EndBlock cfiCond109
          CFI EndBlock cfiCond110
          CFI EndBlock cfiCond111
          CFI EndBlock cfiCond112
          CFI EndBlock cfiCond113
          CFI EndBlock cfiCond114
          CFI EndBlock cfiCond115
          CFI EndBlock cfiCond116
          CFI EndBlock cfiCond117
          CFI EndBlock cfiCond118
          CFI EndBlock cfiCond119
          CFI EndBlock cfiCond120
          CFI EndBlock cfiCond121
          CFI EndBlock cfiPicker122

        RSEG BANKED_CODE:HUGECODE:NOROOT(0)
?Subroutine9:
          CFI Block cfiCond123 Using cfiCommon0
          CFI Function bdb_startResumeCommissioningProcess
          CFI Conditional ??CrossCallReturnLabel_86
          CFI R6 load(1, XDATA, add(CFA_XSP16, literal(-10)))
          CFI VB load(1, XDATA, add(CFA_XSP16, literal(-9)))
          CFI V0 load(1, XDATA, add(CFA_XSP16, literal(-8)))
          CFI V1 load(1, XDATA, add(CFA_XSP16, literal(-7)))
          CFI R7 load(1, XDATA, add(CFA_XSP16, literal(-6)))
          CFI ?RET_LOW load(1, XDATA, add(CFA_XSP16, literal(-5)))
          CFI ?RET_HIGH load(1, XDATA, add(CFA_XSP16, literal(-4)))
          CFI ?BRET_EXT load(1, XDATA, add(CFA_XSP16, literal(-3)))
          CFI DPL0 load(1, XDATA, add(CFA_XSP16, literal(-2)))
          CFI DPH0 load(1, XDATA, add(CFA_XSP16, literal(-1)))
          CFI CFA_SP SP+-2
          CFI CFA_XSP16 add(XSP16, 21)
          CFI Block cfiCond124 Using cfiCommon0
          CFI (cfiCond124) Function bdb_startResumeCommissioningProcess
          CFI (cfiCond124) Conditional ??CrossCallReturnLabel_87
          CFI (cfiCond124) R6 load(1, XDATA, add(CFA_XSP16, literal(-10)))
          CFI (cfiCond124) VB load(1, XDATA, add(CFA_XSP16, literal(-9)))
          CFI (cfiCond124) V0 load(1, XDATA, add(CFA_XSP16, literal(-8)))
          CFI (cfiCond124) V1 load(1, XDATA, add(CFA_XSP16, literal(-7)))
          CFI (cfiCond124) R7 load(1, XDATA, add(CFA_XSP16, literal(-6)))
          CFI (cfiCond124) ?RET_LOW load(1, XDATA, add(CFA_XSP16, literal(-5)))
          CFI (cfiCond124) ?RET_HIGH load(1, XDATA, add(CFA_XSP16, literal(-4)))
          CFI (cfiCond124) ?BRET_EXT load(1, XDATA, add(CFA_XSP16, literal(-3)))
          CFI (cfiCond124) DPL0 load(1, XDATA, add(CFA_XSP16, literal(-2)))
          CFI (cfiCond124) DPH0 load(1, XDATA, add(CFA_XSP16, literal(-1)))
          CFI (cfiCond124) CFA_SP SP+-2
          CFI (cfiCond124) CFA_XSP16 add(XSP16, 21)
          CFI Block cfiPicker125 Using cfiCommon1
          CFI (cfiPicker125) NoFunction
          CFI (cfiPicker125) Picker
        MOV       A,#0x3
          CFI EndBlock cfiCond123
          CFI EndBlock cfiCond124
          CFI EndBlock cfiPicker125
        REQUIRE ??Subroutine38_0
        ; // Fall through to label ??Subroutine38_0

        RSEG BANKED_CODE:HUGECODE:NOROOT(0)
??Subroutine38_0:
          CFI Block cfiCond126 Using cfiCommon0
          CFI Function bdb_tryNwkAssoc
          CFI Conditional ??CrossCallReturnLabel_88
          CFI R6 load(1, XDATA, add(CFA_XSP16, literal(-10)))
          CFI VB load(1, XDATA, add(CFA_XSP16, literal(-9)))
          CFI V0 load(1, XDATA, add(CFA_XSP16, literal(-8)))
          CFI V1 load(1, XDATA, add(CFA_XSP16, literal(-7)))
          CFI R7 load(1, XDATA, add(CFA_XSP16, literal(-6)))
          CFI ?RET_LOW load(1, XDATA, add(CFA_XSP16, literal(-5)))
          CFI ?RET_HIGH load(1, XDATA, add(CFA_XSP16, literal(-4)))
          CFI ?BRET_EXT load(1, XDATA, add(CFA_XSP16, literal(-3)))
          CFI DPL0 load(1, XDATA, add(CFA_XSP16, literal(-2)))
          CFI DPH0 load(1, XDATA, add(CFA_XSP16, literal(-1)))
          CFI CFA_SP SP+-2
          CFI CFA_XSP16 add(XSP16, 11)
          CFI Block cfiCond127 Using cfiCommon0
          CFI (cfiCond127) Function bdb_startResumeCommissioningProcess
          CFI (cfiCond127) Conditional ??CrossCallReturnLabel_86
          CFI (cfiCond127) R6 load(1, XDATA, add(CFA_XSP16, literal(-10)))
          CFI (cfiCond127) VB load(1, XDATA, add(CFA_XSP16, literal(-9)))
          CFI (cfiCond127) V0 load(1, XDATA, add(CFA_XSP16, literal(-8)))
          CFI (cfiCond127) V1 load(1, XDATA, add(CFA_XSP16, literal(-7)))
          CFI (cfiCond127) R7 load(1, XDATA, add(CFA_XSP16, literal(-6)))
          CFI (cfiCond127) ?RET_LOW load(1, XDATA, add(CFA_XSP16, literal(-5)))
          CFI (cfiCond127) ?RET_HIGH load(1, XDATA, add(CFA_XSP16, literal(-4)))
          CFI (cfiCond127) ?BRET_EXT load(1, XDATA, add(CFA_XSP16, literal(-3)))
          CFI (cfiCond127) DPL0 load(1, XDATA, add(CFA_XSP16, literal(-2)))
          CFI (cfiCond127) DPH0 load(1, XDATA, add(CFA_XSP16, literal(-1)))
          CFI (cfiCond127) CFA_SP SP+-2
          CFI (cfiCond127) CFA_XSP16 add(XSP16, 21)
          CFI Block cfiCond128 Using cfiCommon0
          CFI (cfiCond128) Function bdb_startResumeCommissioningProcess
          CFI (cfiCond128) Conditional ??CrossCallReturnLabel_87
          CFI (cfiCond128) R6 load(1, XDATA, add(CFA_XSP16, literal(-10)))
          CFI (cfiCond128) VB load(1, XDATA, add(CFA_XSP16, literal(-9)))
          CFI (cfiCond128) V0 load(1, XDATA, add(CFA_XSP16, literal(-8)))
          CFI (cfiCond128) V1 load(1, XDATA, add(CFA_XSP16, literal(-7)))
          CFI (cfiCond128) R7 load(1, XDATA, add(CFA_XSP16, literal(-6)))
          CFI (cfiCond128) ?RET_LOW load(1, XDATA, add(CFA_XSP16, literal(-5)))
          CFI (cfiCond128) ?RET_HIGH load(1, XDATA, add(CFA_XSP16, literal(-4)))
          CFI (cfiCond128) ?BRET_EXT load(1, XDATA, add(CFA_XSP16, literal(-3)))
          CFI (cfiCond128) DPL0 load(1, XDATA, add(CFA_XSP16, literal(-2)))
          CFI (cfiCond128) DPH0 load(1, XDATA, add(CFA_XSP16, literal(-1)))
          CFI (cfiCond128) CFA_SP SP+-2
          CFI (cfiCond128) CFA_XSP16 add(XSP16, 21)
          CFI Block cfiPicker129 Using cfiCommon1
          CFI (cfiPicker129) NoFunction
          CFI (cfiPicker129) Picker
        MOVX      @DPTR,A
        MOV       DPL,?XSP + 0
        MOV       DPH,?XSP + 1
        RET
          CFI EndBlock cfiCond126
          CFI EndBlock cfiCond127
          CFI EndBlock cfiCond128
          CFI EndBlock cfiPicker129
// 2501 
// 2502 /*********************************************************************
// 2503  * @fn          bdb_event_loop
// 2504  *
// 2505  * @brief       Main event loop bdb tasks.
// 2506  *
// 2507  * @param       task_id - task id
// 2508  * @param       events - event bitmap
// 2509  *
// 2510  * @return      unprocessed events
// 2511  */

        RSEG BANKED_CODE:HUGECODE:NOROOT(0)
// 2512 UINT16 bdb_event_loop(byte task_id, UINT16 events)
bdb_event_loop:
          CFI Block cfiBlock130 Using cfiCommon0
          CFI Function bdb_event_loop
        CODE
// 2513 {
        FUNCALL bdb_event_loop, bdb_startResumeCommissioningProcess
        LOCFRAME ISTACK, 0, STACK
        LOCFRAME PSTACK, 0, STACK
        LOCFRAME XSTACK, 29, STACK
        LOCFRAME IOVERLAY, 0, STATIC
        LOCFRAME DOVERLAY, 0, STATIC
        ARGFRAME ISTACK, 0, STACK
        ARGFRAME PSTACK, 0, STACK
        ARGFRAME XSTACK, 29, STACK
        ARGFRAME IOVERLAY, 0, STATIC
        ARGFRAME DOVERLAY, 0, STATIC
        FUNCALL bdb_event_loop, bdb_tcLinkKeyExchangeAttempt
        LOCFRAME ISTACK, 0, STACK
        LOCFRAME PSTACK, 0, STACK
        LOCFRAME XSTACK, 29, STACK
        LOCFRAME IOVERLAY, 0, STATIC
        LOCFRAME DOVERLAY, 0, STATIC
        ARGFRAME ISTACK, 0, STACK
        ARGFRAME PSTACK, 0, STACK
        ARGFRAME XSTACK, 29, STACK
        ARGFRAME IOVERLAY, 0, STATIC
        ARGFRAME DOVERLAY, 0, STATIC
        FUNCALL bdb_event_loop, bdb_nwkSteeringDeviceOnNwk
        LOCFRAME ISTACK, 0, STACK
        LOCFRAME PSTACK, 0, STACK
        LOCFRAME XSTACK, 29, STACK
        LOCFRAME IOVERLAY, 0, STATIC
        LOCFRAME DOVERLAY, 0, STATIC
        ARGFRAME ISTACK, 0, STACK
        ARGFRAME PSTACK, 0, STACK
        ARGFRAME XSTACK, 29, STACK
        ARGFRAME IOVERLAY, 0, STATIC
        ARGFRAME DOVERLAY, 0, STATIC
        FUNCALL bdb_event_loop, bdb_reportCommissioningState
        LOCFRAME ISTACK, 0, STACK
        LOCFRAME PSTACK, 0, STACK
        LOCFRAME XSTACK, 29, STACK
        LOCFRAME IOVERLAY, 0, STATIC
        LOCFRAME DOVERLAY, 0, STATIC
        ARGFRAME ISTACK, 0, STACK
        ARGFRAME PSTACK, 0, STACK
        ARGFRAME XSTACK, 29, STACK
        ARGFRAME IOVERLAY, 0, STATIC
        ARGFRAME DOVERLAY, 0, STATIC
        FUNCALL bdb_event_loop, osal_start_timerEx
        LOCFRAME ISTACK, 0, STACK
        LOCFRAME PSTACK, 0, STACK
        LOCFRAME XSTACK, 33, STACK
        LOCFRAME IOVERLAY, 0, STATIC
        LOCFRAME DOVERLAY, 0, STATIC
        ARGFRAME ISTACK, 0, STACK
        ARGFRAME PSTACK, 0, STACK
        ARGFRAME XSTACK, 33, STACK
        ARGFRAME IOVERLAY, 0, STATIC
        ARGFRAME DOVERLAY, 0, STATIC
        FUNCALL bdb_event_loop, bdb_nwkAssocAttemt
        LOCFRAME ISTACK, 0, STACK
        LOCFRAME PSTACK, 0, STACK
        LOCFRAME XSTACK, 29, STACK
        LOCFRAME IOVERLAY, 0, STATIC
        LOCFRAME DOVERLAY, 0, STATIC
        ARGFRAME ISTACK, 0, STACK
        ARGFRAME PSTACK, 0, STACK
        ARGFRAME XSTACK, 29, STACK
        ARGFRAME IOVERLAY, 0, STATIC
        ARGFRAME DOVERLAY, 0, STATIC
        FUNCALL bdb_event_loop, osal_msg_deallocate
        LOCFRAME ISTACK, 0, STACK
        LOCFRAME PSTACK, 0, STACK
        LOCFRAME XSTACK, 29, STACK
        LOCFRAME IOVERLAY, 0, STATIC
        LOCFRAME DOVERLAY, 0, STATIC
        ARGFRAME ISTACK, 0, STACK
        ARGFRAME PSTACK, 0, STACK
        ARGFRAME XSTACK, 29, STACK
        ARGFRAME IOVERLAY, 0, STATIC
        ARGFRAME DOVERLAY, 0, STATIC
        FUNCALL bdb_event_loop, osal_msg_receive
        LOCFRAME ISTACK, 0, STACK
        LOCFRAME PSTACK, 0, STACK
        LOCFRAME XSTACK, 29, STACK
        LOCFRAME IOVERLAY, 0, STATIC
        LOCFRAME DOVERLAY, 0, STATIC
        ARGFRAME ISTACK, 0, STACK
        ARGFRAME PSTACK, 0, STACK
        ARGFRAME XSTACK, 29, STACK
        ARGFRAME IOVERLAY, 0, STATIC
        ARGFRAME DOVERLAY, 0, STATIC
        FUNCALL bdb_event_loop, bdb_ProcessNodeDescRsp
        LOCFRAME ISTACK, 0, STACK
        LOCFRAME PSTACK, 0, STACK
        LOCFRAME XSTACK, 29, STACK
        LOCFRAME IOVERLAY, 0, STATIC
        LOCFRAME DOVERLAY, 0, STATIC
        ARGFRAME ISTACK, 0, STACK
        ARGFRAME PSTACK, 0, STACK
        ARGFRAME XSTACK, 29, STACK
        ARGFRAME IOVERLAY, 0, STATIC
        ARGFRAME DOVERLAY, 0, STATIC
        FUNCALL bdb_event_loop, bdb_ProcessSimpleDesc
        LOCFRAME ISTACK, 0, STACK
        LOCFRAME PSTACK, 0, STACK
        LOCFRAME XSTACK, 29, STACK
        LOCFRAME IOVERLAY, 0, STATIC
        LOCFRAME DOVERLAY, 0, STATIC
        ARGFRAME ISTACK, 0, STACK
        ARGFRAME PSTACK, 0, STACK
        ARGFRAME XSTACK, 29, STACK
        ARGFRAME IOVERLAY, 0, STATIC
        ARGFRAME DOVERLAY, 0, STATIC
        FUNCALL bdb_event_loop, bdb_ProcessIEEEAddrRsp
        LOCFRAME ISTACK, 0, STACK
        LOCFRAME PSTACK, 0, STACK
        LOCFRAME XSTACK, 29, STACK
        LOCFRAME IOVERLAY, 0, STATIC
        LOCFRAME DOVERLAY, 0, STATIC
        ARGFRAME ISTACK, 0, STACK
        ARGFRAME PSTACK, 0, STACK
        ARGFRAME XSTACK, 29, STACK
        ARGFRAME IOVERLAY, 0, STATIC
        ARGFRAME DOVERLAY, 0, STATIC
        FUNCALL bdb_event_loop, bdb_ProcessOSALMsg
        LOCFRAME ISTACK, 0, STACK
        LOCFRAME PSTACK, 0, STACK
        LOCFRAME XSTACK, 29, STACK
        LOCFRAME IOVERLAY, 0, STATIC
        LOCFRAME DOVERLAY, 0, STATIC
        ARGFRAME ISTACK, 0, STACK
        ARGFRAME PSTACK, 0, STACK
        ARGFRAME XSTACK, 29, STACK
        ARGFRAME IOVERLAY, 0, STATIC
        ARGFRAME DOVERLAY, 0, STATIC
        FUNCALL bdb_event_loop, bdb_tcLinkKeyExchangeAttempt
        LOCFRAME ISTACK, 0, STACK
        LOCFRAME PSTACK, 0, STACK
        LOCFRAME XSTACK, 29, STACK
        LOCFRAME IOVERLAY, 0, STATIC
        LOCFRAME DOVERLAY, 0, STATIC
        ARGFRAME ISTACK, 0, STACK
        ARGFRAME PSTACK, 0, STACK
        ARGFRAME XSTACK, 29, STACK
        ARGFRAME IOVERLAY, 0, STATIC
        ARGFRAME DOVERLAY, 0, STATIC
        FUNCALL bdb_event_loop, osal_memset
        LOCFRAME ISTACK, 0, STACK
        LOCFRAME PSTACK, 0, STACK
        LOCFRAME XSTACK, 29, STACK
        LOCFRAME IOVERLAY, 0, STATIC
        LOCFRAME DOVERLAY, 0, STATIC
        ARGFRAME ISTACK, 0, STACK
        ARGFRAME PSTACK, 0, STACK
        ARGFRAME XSTACK, 29, STACK
        ARGFRAME IOVERLAY, 0, STATIC
        ARGFRAME DOVERLAY, 0, STATIC
        FUNCALL bdb_event_loop, bdb_setNodeIsOnANetwork
        LOCFRAME ISTACK, 0, STACK
        LOCFRAME PSTACK, 0, STACK
        LOCFRAME XSTACK, 29, STACK
        LOCFRAME IOVERLAY, 0, STATIC
        LOCFRAME DOVERLAY, 0, STATIC
        ARGFRAME ISTACK, 0, STACK
        ARGFRAME PSTACK, 0, STACK
        ARGFRAME XSTACK, 29, STACK
        ARGFRAME IOVERLAY, 0, STATIC
        ARGFRAME DOVERLAY, 0, STATIC
        FUNCALL bdb_event_loop, NLME_LeaveReq
        LOCFRAME ISTACK, 0, STACK
        LOCFRAME PSTACK, 0, STACK
        LOCFRAME XSTACK, 29, STACK
        LOCFRAME IOVERLAY, 0, STATIC
        LOCFRAME DOVERLAY, 0, STATIC
        ARGFRAME ISTACK, 0, STACK
        ARGFRAME PSTACK, 0, STACK
        ARGFRAME XSTACK, 29, STACK
        ARGFRAME IOVERLAY, 0, STATIC
        ARGFRAME DOVERLAY, 0, STATIC
        FUNCALL bdb_event_loop, osal_set_event
        LOCFRAME ISTACK, 0, STACK
        LOCFRAME PSTACK, 0, STACK
        LOCFRAME XSTACK, 29, STACK
        LOCFRAME IOVERLAY, 0, STATIC
        LOCFRAME DOVERLAY, 0, STATIC
        ARGFRAME ISTACK, 0, STACK
        ARGFRAME PSTACK, 0, STACK
        ARGFRAME XSTACK, 29, STACK
        ARGFRAME IOVERLAY, 0, STATIC
        ARGFRAME DOVERLAY, 0, STATIC
        FUNCALL bdb_event_loop, bdb_setEpDescListToActiveEndpoint
        LOCFRAME ISTACK, 0, STACK
        LOCFRAME PSTACK, 0, STACK
        LOCFRAME XSTACK, 29, STACK
        LOCFRAME IOVERLAY, 0, STATIC
        LOCFRAME DOVERLAY, 0, STATIC
        ARGFRAME ISTACK, 0, STACK
        ARGFRAME PSTACK, 0, STACK
        ARGFRAME XSTACK, 29, STACK
        ARGFRAME IOVERLAY, 0, STATIC
        ARGFRAME DOVERLAY, 0, STATIC
        FUNCALL bdb_event_loop, osal_get_timeoutEx
        LOCFRAME ISTACK, 0, STACK
        LOCFRAME PSTACK, 0, STACK
        LOCFRAME XSTACK, 29, STACK
        LOCFRAME IOVERLAY, 0, STATIC
        LOCFRAME DOVERLAY, 0, STATIC
        ARGFRAME ISTACK, 0, STACK
        ARGFRAME PSTACK, 0, STACK
        ARGFRAME XSTACK, 29, STACK
        ARGFRAME IOVERLAY, 0, STATIC
        ARGFRAME DOVERLAY, 0, STATIC
        FUNCALL bdb_event_loop, bdb_getRespondentRetry
        LOCFRAME ISTACK, 0, STACK
        LOCFRAME PSTACK, 0, STACK
        LOCFRAME XSTACK, 29, STACK
        LOCFRAME IOVERLAY, 0, STATIC
        LOCFRAME DOVERLAY, 0, STATIC
        ARGFRAME ISTACK, 0, STACK
        ARGFRAME PSTACK, 0, STACK
        ARGFRAME XSTACK, 29, STACK
        ARGFRAME IOVERLAY, 0, STATIC
        ARGFRAME DOVERLAY, 0, STATIC
        FUNCALL bdb_event_loop, bdb_SendIdentifyQuery
        LOCFRAME ISTACK, 0, STACK
        LOCFRAME PSTACK, 0, STACK
        LOCFRAME XSTACK, 29, STACK
        LOCFRAME IOVERLAY, 0, STATIC
        LOCFRAME DOVERLAY, 0, STATIC
        ARGFRAME ISTACK, 0, STACK
        ARGFRAME PSTACK, 0, STACK
        ARGFRAME XSTACK, 29, STACK
        ARGFRAME IOVERLAY, 0, STATIC
        ARGFRAME DOVERLAY, 0, STATIC
        FUNCALL bdb_event_loop, osal_start_timerEx
        LOCFRAME ISTACK, 0, STACK
        LOCFRAME PSTACK, 0, STACK
        LOCFRAME XSTACK, 33, STACK
        LOCFRAME IOVERLAY, 0, STATIC
        LOCFRAME DOVERLAY, 0, STATIC
        ARGFRAME ISTACK, 0, STACK
        ARGFRAME PSTACK, 0, STACK
        ARGFRAME XSTACK, 33, STACK
        ARGFRAME IOVERLAY, 0, STATIC
        ARGFRAME DOVERLAY, 0, STATIC
        FUNCALL bdb_event_loop, bdb_exitFindingBindingWStatus
        LOCFRAME ISTACK, 0, STACK
        LOCFRAME PSTACK, 0, STACK
        LOCFRAME XSTACK, 29, STACK
        LOCFRAME IOVERLAY, 0, STATIC
        LOCFRAME DOVERLAY, 0, STATIC
        ARGFRAME ISTACK, 0, STACK
        ARGFRAME PSTACK, 0, STACK
        ARGFRAME XSTACK, 29, STACK
        ARGFRAME IOVERLAY, 0, STATIC
        ARGFRAME DOVERLAY, 0, STATIC
        FUNCALL bdb_event_loop, zclFindAttrRec
        LOCFRAME ISTACK, 0, STACK
        LOCFRAME PSTACK, 0, STACK
        LOCFRAME XSTACK, 31, STACK
        LOCFRAME IOVERLAY, 0, STATIC
        LOCFRAME DOVERLAY, 0, STATIC
        ARGFRAME ISTACK, 0, STACK
        ARGFRAME PSTACK, 0, STACK
        ARGFRAME XSTACK, 31, STACK
        ARGFRAME IOVERLAY, 0, STATIC
        ARGFRAME DOVERLAY, 0, STATIC
        FUNCALL bdb_event_loop, osal_start_timerEx
        LOCFRAME ISTACK, 0, STACK
        LOCFRAME PSTACK, 0, STACK
        LOCFRAME XSTACK, 33, STACK
        LOCFRAME IOVERLAY, 0, STATIC
        LOCFRAME DOVERLAY, 0, STATIC
        ARGFRAME ISTACK, 0, STACK
        ARGFRAME PSTACK, 0, STACK
        ARGFRAME XSTACK, 33, STACK
        ARGFRAME IOVERLAY, 0, STATIC
        ARGFRAME DOVERLAY, 0, STATIC
        FUNCALL bdb_event_loop, osal_stop_timerEx
        LOCFRAME ISTACK, 0, STACK
        LOCFRAME PSTACK, 0, STACK
        LOCFRAME XSTACK, 29, STACK
        LOCFRAME IOVERLAY, 0, STATIC
        LOCFRAME DOVERLAY, 0, STATIC
        ARGFRAME ISTACK, 0, STACK
        ARGFRAME PSTACK, 0, STACK
        ARGFRAME XSTACK, 29, STACK
        ARGFRAME IOVERLAY, 0, STATIC
        ARGFRAME DOVERLAY, 0, STATIC
        FUNCALL bdb_event_loop, bdb_ProcessRespondentList
        LOCFRAME ISTACK, 0, STACK
        LOCFRAME PSTACK, 0, STACK
        LOCFRAME XSTACK, 29, STACK
        LOCFRAME IOVERLAY, 0, STATIC
        LOCFRAME DOVERLAY, 0, STATIC
        ARGFRAME ISTACK, 0, STACK
        ARGFRAME PSTACK, 0, STACK
        ARGFRAME XSTACK, 29, STACK
        ARGFRAME IOVERLAY, 0, STATIC
        ARGFRAME DOVERLAY, 0, STATIC
        REQUIRE ?V0
        REQUIRE ?V1
        REQUIRE ?V2
        REQUIRE ?V3
        REQUIRE ?V4
        REQUIRE ?V6
        REQUIRE ?V7
        MOV       A,#-0x10
        LCALL     ?BANKED_ENTER_XDATA
          CFI DPH0 load(1, XDATA, add(CFA_XSP16, literal(-1)))
          CFI DPL0 load(1, XDATA, add(CFA_XSP16, literal(-2)))
          CFI ?BRET_EXT load(1, XDATA, add(CFA_XSP16, literal(-3)))
          CFI ?RET_HIGH load(1, XDATA, add(CFA_XSP16, literal(-4)))
          CFI ?RET_LOW load(1, XDATA, add(CFA_XSP16, literal(-5)))
          CFI R7 load(1, XDATA, add(CFA_XSP16, literal(-6)))
          CFI V7 load(1, XDATA, add(CFA_XSP16, literal(-7)))
          CFI V6 load(1, XDATA, add(CFA_XSP16, literal(-8)))
          CFI V5 load(1, XDATA, add(CFA_XSP16, literal(-9)))
          CFI V4 load(1, XDATA, add(CFA_XSP16, literal(-10)))
          CFI V3 load(1, XDATA, add(CFA_XSP16, literal(-11)))
          CFI V2 load(1, XDATA, add(CFA_XSP16, literal(-12)))
          CFI V1 load(1, XDATA, add(CFA_XSP16, literal(-13)))
          CFI V0 load(1, XDATA, add(CFA_XSP16, literal(-14)))
          CFI VB load(1, XDATA, add(CFA_XSP16, literal(-15)))
          CFI R6 load(1, XDATA, add(CFA_XSP16, literal(-16)))
          CFI CFA_SP SP+0
          CFI CFA_XSP16 add(XSP16, 16)
        ; Saved register size: 16
        ; Auto size: 13
        MOV       A,#-0xd
        LCALL     ?ALLOC_XSTACK8
          CFI CFA_XSP16 add(XSP16, 29)
        MOV       A,R2
        MOV       R6,A
        MOV       A,R3
        MOV       R7,A
// 2514   (void)task_id;  // Intentionally unreferenced parameter
// 2515   
// 2516 #if (BDB_FINDING_BINDING_CAPABILITY_ENABLED==1)  
// 2517   endPointDesc_t * bdb_CurrEpDescriptor;
// 2518 #endif
// 2519   
// 2520   if(events & BDB_CHANGE_COMMISSIONING_STATE)
        MOV       A,R6
        ANL       A,#0x4
        JZ        ??bdb_event_loop_0
// 2521   {
// 2522     switch(bdbCommissioningProcedureState.bdbCommissioningState)
        MOV       DPTR,#bdbCommissioningProcedureState
        MOVX      A,@DPTR
        JZ        ??bdb_event_loop_1
        DEC       A
        JZ        ??bdb_event_loop_2
        ADD       A,#-0x3
        JZ        ??bdb_event_loop_3
        ADD       A,#-0x2
        JZ        ??bdb_event_loop_4
        SJMP      ??bdb_event_loop_5
// 2523     {
// 2524       case BDB_COMMISSIONING_STATE_START_RESUME:
// 2525         bdb_startResumeCommissioningProcess();
??bdb_event_loop_1:
        ; Setup parameters for call to function bdb_startResumeCommissioningProcess
        LCALL     `??bdb_startResumeCommissioningProcess::?relay`; Banked call to: bdb_startResumeCommissioningProcess
// 2526       break;
        SJMP      ??bdb_event_loop_5
// 2527       
// 2528       case BDB_COMMISSIONING_STATE_TC_LINK_KEY_EXCHANGE:
// 2529         if (ZG_BUILD_JOINING_TYPE)
// 2530         {
// 2531           bdb_tcLinkKeyExchangeAttempt(TRUE,BDB_REQ_TC_STACK_VERSION);
??bdb_event_loop_2:
        ; Setup parameters for call to function bdb_tcLinkKeyExchangeAttempt
        MOV       R2,#0x1
        MOV       R1,#0x1
        LCALL     `??bdb_tcLinkKeyExchangeAttempt::?relay`; Banked call to: bdb_tcLinkKeyExchangeAttempt
// 2532         }
// 2533       break;
        SJMP      ??bdb_event_loop_5
// 2534       
// 2535       case BDB_COMMISSIONING_STATE_STEERING_ON_NWK:
// 2536         bdb_nwkSteeringDeviceOnNwk();
??bdb_event_loop_3:
        ; Setup parameters for call to function bdb_nwkSteeringDeviceOnNwk
        LCALL     `??bdb_nwkSteeringDeviceOnNwk::?relay`; Banked call to: bdb_nwkSteeringDeviceOnNwk
// 2537         
// 2538         bdb_reportCommissioningState(BDB_COMMISSIONING_STATE_STEERING_ON_NWK, TRUE);
        ; Setup parameters for call to function bdb_reportCommissioningState
        MOV       R2,#0x1
        MOV       R1,#0x4
        LCALL     `??bdb_reportCommissioningState::?relay`; Banked call to: bdb_reportCommissioningState
// 2539       break;
        SJMP      ??bdb_event_loop_5
// 2540       
// 2541       case BDB_COMMISSIONING_STATE_FINDING_BINDING:
// 2542         bdbAttributes.bdbCommissioningStatus = BDB_COMMISSIONING_SUCCESS;
??bdb_event_loop_4:
        MOV       DPTR,#bdbAttributes + 10
        CLR       A
        MOVX      @DPTR,A
// 2543         bdbCommissioningProcedureState.bdbCommissioningState = BDB_COMMISSIONING_STATE_START_RESUME;
        MOV       DPTR,#bdbCommissioningProcedureState
        LCALL     ??Subroutine40_0 & 0xFFFF
// 2544         osal_start_timerEx(bdb_TaskID,BDB_CHANGE_COMMISSIONING_STATE,50);
??CrossCallReturnLabel_94:
        LCALL     ?PUSH_XSTACK8_X_FOUR
          CFI CFA_XSP16 add(XSP16, 33)
        MOV       R2,#0x4
        MOV       R3,#0x0
        MOV       DPTR,#bdb_TaskID
        MOVX      A,@DPTR
        MOV       R1,A
        LCALL     `??osal_start_timerEx::?relay`; Banked call to: osal_start_timerEx
        MOV       A,#0x4
        LCALL     ?DEALLOC_XSTACK8
          CFI CFA_XSP16 add(XSP16, 29)
// 2545       break;
// 2546       
// 2547     }
// 2548     return (events ^ BDB_CHANGE_COMMISSIONING_STATE);
??bdb_event_loop_5:
        MOV       A,R6
        XRL       A,#0x4
        LJMP      ??bdb_event_loop_6 & 0xFFFF
// 2549   }
// 2550 
// 2551   if ( events & SYS_EVENT_MSG )
??bdb_event_loop_0:
        MOV       A,R7
        ANL       A,#0x80
        JNZ       ??bdb_event_loop_7
// 2552   {
// 2553     uint8 *msg_ptr;
// 2554     
// 2555     while ( (msg_ptr = osal_msg_receive( bdb_TaskID )) )
// 2556     {
// 2557       //Process the Incomming ZDO messages used by BDB commissioning methods
// 2558       if(((bdbInMsg_t*)msg_ptr)->hdr.event == BDB_ZDO_CB_MSG)
// 2559       {
// 2560         bdb_processZDOMgs((zdoIncomingMsg_t *)msg_ptr);
// 2561       }
// 2562       
// 2563       //Validate the is receive on the right process
// 2564       else if(((bdbInMsg_t*)msg_ptr)->hdr.event == bdbCommissioningProcedureState.bdbCommissioningState)
// 2565       {
// 2566         bdb_ProcessOSALMsg( (bdbInMsg_t *)msg_ptr );
// 2567       }
// 2568       //Notify the user
// 2569       else if(((bdbInMsg_t*)msg_ptr)->hdr.event == BDB_NOTIFY_USER)
// 2570       {
// 2571         ((bdbCommissioningModeMsg_t*) ((bdbInMsg_t*)msg_ptr)->buf)->bdbRemainingCommissioningModes = bdbAttributes.bdbCommissioningMode;
// 2572         if(pfnCommissioningStatusCB)
// 2573         {
// 2574           pfnCommissioningStatusCB((bdbCommissioningModeMsg_t*) (((bdbInMsg_t*)msg_ptr)->buf));
// 2575         }
// 2576 #ifdef MT_APP_CNF_FUNC
// 2577         //Notify the host processor about the event
// 2578         MT_AppCnfCommissioningNotification((bdbCommissioningModeMsg_t*) (((bdbInMsg_t*)msg_ptr)->buf));
// 2579 #endif
// 2580       }
// 2581 #if (ZG_BUILD_COORDINATOR_TYPE)
// 2582       else
// 2583       {
// 2584         if(ZG_DEVICE_COORDINATOR_TYPE)
// 2585         {
// 2586           //Notify the status 
// 2587           if(((bdbInMsg_t*)msg_ptr)->hdr.event == BDB_TC_LINK_KEY_EXCHANGE_PROCESS)
// 2588           {
// 2589             pfnTCLinkKeyExchangeProcessCB( (bdb_TCLinkKeyExchProcess_t*) ((bdbInMsg_t*)msg_ptr)->buf);
// 2590           }
// 2591         }
// 2592       }
// 2593 #endif
// 2594       // Release the memory
// 2595       osal_msg_deallocate( msg_ptr );
// 2596     }
// 2597 
// 2598     // Return unprocessed events
// 2599     return (events ^ SYS_EVENT_MSG);
// 2600   }
// 2601   
// 2602 
// 2603   if(events & BDB_PROCESS_TIMEOUT)
        MOV       A,R7
        ANL       A,#0x10
        JNZ       $+5
        LJMP      ??bdb_event_loop_8 & 0xFFFF
// 2604   {
// 2605     bdb_processTimeout();
        MOV       DPTR,#zgDeviceLogicalType
        MOVX      A,@DPTR
        XRL       A,#0x1
        JZ        ??bdb_event_loop_9
        MOVX      A,@DPTR
        XRL       A,#0x2
        JZ        $+5
        LJMP      ??bdb_event_loop_10 & 0xFFFF
??bdb_event_loop_9:
        MOV       DPTR,#bdbCommissioningProcedureState
        MOVX      A,@DPTR
        DEC       A
        JNZ       $+5
        LJMP      ??bdb_event_loop_11 & 0xFFFF
        ADD       A,#-0x2
        JZ        $+5
        LJMP      ??bdb_event_loop_10 & 0xFFFF
        MOV       DPTR,#bdbCommissioningProcedureState + 2
        MOVX      A,@DPTR
        XRL       A,#0x2
        JZ        $+5
        LJMP      ??bdb_event_loop_10 & 0xFFFF
        MOV       A,#0x1
        MOVX      @DPTR,A
        ; Setup parameters for call to function bdb_nwkAssocAttemt
        MOV       R1,#0x0
        LCALL     `??bdb_nwkAssocAttemt::?relay`; Banked call to: bdb_nwkAssocAttemt
        LJMP      ??bdb_event_loop_10 & 0xFFFF
??bdb_event_loop_12:
        MOV       A,#0xa
        XRL       A,R0
        JNZ       ??bdb_event_loop_13
        MOV       DPTR,#bdbAttributes + 11
        MOVX      A,@DPTR
        MOV       DPL,R2
        MOV       DPH,R3
        INC       DPTR
        INC       DPTR
        INC       DPTR
        INC       DPTR
        MOVX      @DPTR,A
        MOV       DPTR,#pfnCommissioningStatusCB
        LCALL     ??Subroutine37_0 & 0xFFFF
??CrossCallReturnLabel_82:
        JZ        ??bdb_event_loop_13
        ; Setup parameters for indirect call
        MOV       A,R2
        ADD       A,#0x2
        MOV       R2,A
        CLR       A
        ADDC      A,?V1
        MOV       R3,A
        LCALL     ??Subroutine35_0 & 0xFFFF
??CrossCallReturnLabel_64:
        LCALL     ?CALL_IND
??bdb_event_loop_13:
        ; Setup parameters for call to function osal_msg_deallocate
        MOV       R2,?V0
        MOV       R3,?V1
        LCALL     `??osal_msg_deallocate::?relay`; Banked call to: osal_msg_deallocate
??bdb_event_loop_7:
        ; Setup parameters for call to function osal_msg_receive
        MOV       DPTR,#bdb_TaskID
        MOVX      A,@DPTR
        MOV       R1,A
        LCALL     `??osal_msg_receive::?relay`; Banked call to: osal_msg_receive
        MOV       ?V0,R2
        MOV       ?V1,R3
        MOV       A,R2
        ORL       A,?V1
        JZ        ??bdb_event_loop_14
        MOV       DPL,R2
        MOV       DPH,R3
        MOVX      A,@DPTR
        MOV       R0,A
        MOV       A,#-0x2d
        XRL       A,R0
        JNZ       ??bdb_event_loop_15
        MOV       A,R2
        ADD       A,#0xc
        MOV       DPL,A
        CLR       A
        ADDC      A,?V1
        MOV       DPH,A
        MOVX      A,@DPTR
        MOV       ?V2,A
        INC       DPTR
        MOVX      A,@DPTR
        MOV       ?V3,A
        MOV       R0,#?V2
        LCALL     ?US_SWITCH_DENSE
`?<Jumptable for bdb_event_loop>_0`:
        DATA
        DATA16
        DATA
        DATA16
        DW        32769
        DATA
        DATA8
        DATA
        DATA8
        DB        3
        DATA
        DATA16
        DATA
        DATA16
        DW        ??bdb_event_loop_13
        DATA
        DATA16
        DATA
        DATA16
        DW        ??bdb_event_loop_16
        DATA
        DATA16
        DATA
        DATA16
        DW        ??bdb_event_loop_17
        DATA
        DATA16
        DATA
        DATA16
        DW        ??bdb_event_loop_13
        DATA
        DATA16
        DATA
        DATA16
        DW        ??bdb_event_loop_18
        CODE
??bdb_event_loop_17:
        ; Setup parameters for call to function bdb_ProcessNodeDescRsp
        LCALL     `??bdb_ProcessNodeDescRsp::?relay`; Banked call to: bdb_ProcessNodeDescRsp
        SJMP      ??bdb_event_loop_13
??bdb_event_loop_18:
        ; Setup parameters for call to function bdb_ProcessSimpleDesc
        LCALL     `??bdb_ProcessSimpleDesc::?relay`; Banked call to: bdb_ProcessSimpleDesc
        SJMP      ??bdb_event_loop_13
??bdb_event_loop_16:
        ; Setup parameters for call to function bdb_ProcessIEEEAddrRsp
        LCALL     `??bdb_ProcessIEEEAddrRsp::?relay`; Banked call to: bdb_ProcessIEEEAddrRsp
        SJMP      ??bdb_event_loop_13
??bdb_event_loop_15:
        MOV       DPTR,#bdbCommissioningProcedureState
        MOVX      A,@DPTR
        XRL       A,R0
        JZ        $+5
        LJMP      ??bdb_event_loop_12 & 0xFFFF
        ; Setup parameters for call to function bdb_ProcessOSALMsg
        LCALL     `??bdb_ProcessOSALMsg::?relay`; Banked call to: bdb_ProcessOSALMsg
        SJMP      ??bdb_event_loop_13
??bdb_event_loop_14:
        MOV       A,R6
        MOV       R2,A
        MOV       A,R7
        XRL       A,#0x80
        LJMP      ??bdb_event_loop_19 & 0xFFFF
??bdb_event_loop_11:
        ; Setup parameters for call to function bdb_tcLinkKeyExchangeAttempt
        INC       DPTR
        MOVX      A,@DPTR
        MOV       R2,A
        MOV       R1,#0x0
        LCALL     `??bdb_tcLinkKeyExchangeAttempt::?relay`; Banked call to: bdb_tcLinkKeyExchangeAttempt
// 2606     // Return unprocessed events
// 2607     return (events ^ BDB_PROCESS_TIMEOUT);
??bdb_event_loop_10:
        MOV       A,R6
        MOV       R2,A
        MOV       A,R7
        XRL       A,#0x10
        LJMP      ??bdb_event_loop_19 & 0xFFFF
// 2608   }
// 2609   
// 2610   if(events &  BDB_REPORT_TIMEOUT){
??bdb_event_loop_8:
        MOV       A,R6
        ANL       A,#0x80
        JZ        ??bdb_event_loop_20
// 2611 #ifdef BDB_REPORTING    
// 2612     bdb_RepProcessEvent();
// 2613 #endif
// 2614     // Return unprocessed events
// 2615     return (events ^ BDB_REPORT_TIMEOUT);
        MOV       A,R6
        XRL       A,#0x80
        MOV       R2,A
        LJMP      ??bdb_event_loop_21 & 0xFFFF
// 2616   }
// 2617   
// 2618 #if (ZG_BUILD_JOINING_TYPE)
// 2619   if(events & BDB_TC_LINK_KEY_EXCHANGE_FAIL)
??bdb_event_loop_20:
        MOV       A,R6
        ANL       A,#0x2
        JZ        ??bdb_event_loop_22
// 2620   {
// 2621     if(ZG_DEVICE_JOINING_TYPE)
        MOV       DPTR,#zgDeviceLogicalType
        MOVX      A,@DPTR
        XRL       A,#0x1
        JZ        ??bdb_event_loop_23
        MOVX      A,@DPTR
        XRL       A,#0x2
        JNZ       ??bdb_event_loop_24
// 2622     {
// 2623       NLME_LeaveReq_t leaveReq;
// 2624       // Set every field to 0
// 2625       osal_memset( &leaveReq, 0, sizeof( NLME_LeaveReq_t ) );
??bdb_event_loop_23:
        ; Setup parameters for call to function osal_memset
        MOV       R4,#0x5
        MOV       R5,#0x0
        MOV       R1,#0x0
        MOV       R2,?XSP + 0
        MOV       R3,?XSP + 1
        LCALL     `??osal_memset::?relay`; Banked call to: osal_memset
// 2626       
// 2627       bdb_setNodeIsOnANetwork(FALSE);
        ; Setup parameters for call to function bdb_setNodeIsOnANetwork
        MOV       R1,#0x0
        LCALL     `??bdb_setNodeIsOnANetwork::?relay`; Banked call to: bdb_setNodeIsOnANetwork
// 2628 
// 2629       if ( NLME_LeaveReq( &leaveReq ) != ZSuccess )
        ; Setup parameters for call to function NLME_LeaveReq
        MOV       R2,?XSP + 0
        MOV       R3,?XSP + 1
        LCALL     `??NLME_LeaveReq::?relay`; Banked call to: NLME_LeaveReq
        MOV       A,R1
        JZ        ??bdb_event_loop_24
// 2630       {
// 2631         osal_set_event( bdb_TaskID,BDB_TC_LINK_KEY_EXCHANGE_FAIL);
        ; Setup parameters for call to function osal_set_event
        MOV       R2,#0x2
        MOV       R3,#0x0
        MOV       DPTR,#bdb_TaskID
        MOVX      A,@DPTR
        MOV       R1,A
        LCALL     `??osal_set_event::?relay`; Banked call to: osal_set_event
// 2632       }
// 2633     }
// 2634     // Return unprocessed events
// 2635     return (events ^ BDB_TC_LINK_KEY_EXCHANGE_FAIL);
??bdb_event_loop_24:
        MOV       A,R6
        XRL       A,#0x2
        SJMP      ??bdb_event_loop_6
// 2636   }
// 2637 #endif
// 2638   
// 2639   if(events & BDB_TC_JOIN_TIMEOUT)
??bdb_event_loop_22:
        MOV       A,R7
        ANL       A,#0x8
        JZ        ??bdb_event_loop_25
// 2640   {     
// 2641 #if (ZG_BUILD_COORDINATOR_TYPE)
// 2642     if(ZG_DEVICE_COORDINATOR_TYPE)
// 2643     {
// 2644       bdb_TCProcessJoiningList();
// 2645     }
// 2646 #endif    
// 2647     return (events ^ BDB_TC_JOIN_TIMEOUT);
        MOV       A,R7
        XRL       A,#0x8
        LJMP      ??bdb_event_loop_19 & 0xFFFF
// 2648   }
// 2649 
// 2650 #if (BDB_FINDING_BINDING_CAPABILITY_ENABLED==1)  
// 2651   
// 2652   if(events & BDB_FINDING_AND_BINDING_PERIOD_TIMEOUT)
??bdb_event_loop_25:
        MOV       A,R6
        ANL       A,#0x40
        JZ        ??bdb_event_loop_26
// 2653   {
// 2654     if ( FINDING_AND_BINDING_PERIODIC_ENABLE == TRUE )
// 2655     {
// 2656       bdb_CurrEpDescriptor = bdb_setEpDescListToActiveEndpoint();
        ; Setup parameters for call to function bdb_setEpDescListToActiveEndpoint
        LCALL     `??bdb_setEpDescListToActiveEndpoint::?relay`; Banked call to: bdb_setEpDescListToActiveEndpoint
        MOV       ?V0,R2
        MOV       ?V1,R3
// 2657       
// 2658       //If we have endpoint from which to send the identify command, then proceed, otherwise finish
// 2659       if(bdb_CurrEpDescriptor != NULL) //just a safty check. The fact that we got to this functuon at all means that this cannot be NULL
        MOV       A,R2
        ORL       A,?V1
        JZ        ??bdb_event_loop_27
// 2660       {
// 2661         //Substract an attempt
// 2662         bdb_FB_InitiatorCurrentCyclesNumber--;
// 2663         
// 2664         if(bdb_FB_InitiatorCurrentCyclesNumber > 0)
        MOV       DPTR,#bdb_FB_InitiatorCurrentCyclesNumber
        MOVX      A,@DPTR
        DEC       A
        MOVX      @DPTR,A
        JZ        ??bdb_event_loop_28
// 2665         {
// 2666           //Only send Identify Query if there is no pending responses from a previous identify query
// 2667           if ((osal_get_timeoutEx(bdb_TaskID, BDB_RESPONDENT_PROCESS_TIMEOUT) == 0) && (bdb_getRespondentRetry(pRespondentHead) == NULL))
        ; Setup parameters for call to function osal_get_timeoutEx
        MOV       R2,#0x0
        MOV       R3,#0x40
        MOV       DPTR,#bdb_TaskID
        MOVX      A,@DPTR
        MOV       R1,A
        LCALL     `??osal_get_timeoutEx::?relay`; Banked call to: osal_get_timeoutEx
        MOV       A,R2
        ORL       A,R3
        ORL       A,R4
        ORL       A,R5
        JNZ       ??bdb_event_loop_29
        ; Setup parameters for call to function bdb_getRespondentRetry
        MOV       DPTR,#pRespondentHead
        LCALL     ??Subroutine43_0 & 0xFFFF
??CrossCallReturnLabel_99:
        LCALL     `??bdb_getRespondentRetry::?relay`; Banked call to: bdb_getRespondentRetry
        MOV       ?V3,R3
        MOV       A,R2
        ORL       A,?V3
        JNZ       ??bdb_event_loop_29
// 2668           {
// 2669             //Send identify query with the endpoint requested
// 2670             bdb_SendIdentifyQuery(bdb_CurrEpDescriptor->endPoint);
        ; Setup parameters for call to function bdb_SendIdentifyQuery
        MOV       DPL,?V0
        MOV       DPH,?V1
        MOVX      A,@DPTR
        MOV       R1,A
        LCALL     `??bdb_SendIdentifyQuery::?relay`; Banked call to: bdb_SendIdentifyQuery
// 2671           }
// 2672           osal_start_timerEx(bdb_TaskID, BDB_FINDING_AND_BINDING_PERIOD_TIMEOUT, FINDING_AND_BINDING_PERIODIC_TIME * 1000);
??bdb_event_loop_29:
        ; Setup parameters for call to function osal_start_timerEx
        MOV       DPTR,#__Constant_3a98
        LCALL     ?PUSH_XSTACK8_X_FOUR
          CFI CFA_XSP16 add(XSP16, 33)
        MOV       R2,#0x40
        MOV       R3,#0x0
        MOV       DPTR,#bdb_TaskID
        MOVX      A,@DPTR
        MOV       R1,A
        LCALL     `??osal_start_timerEx::?relay`; Banked call to: osal_start_timerEx
        MOV       A,#0x4
        LCALL     ?DEALLOC_XSTACK8
          CFI CFA_XSP16 add(XSP16, 29)
// 2673         }
// 2674       }
// 2675     }
// 2676 
// 2677     if (bdb_FB_InitiatorCurrentCyclesNumber == 0)
??bdb_event_loop_27:
        MOV       DPTR,#bdb_FB_InitiatorCurrentCyclesNumber
        MOVX      A,@DPTR
        JNZ       ??bdb_event_loop_30
// 2678     {
// 2679       bdb_exitFindingBindingWStatus( BDB_COMMISSIONING_FB_NO_IDENTIFY_QUERY_RESPONSE );
??bdb_event_loop_28:
        ; Setup parameters for call to function bdb_exitFindingBindingWStatus
        MOV       R1,#0xb
        LCALL     `??bdb_exitFindingBindingWStatus::?relay`; Banked call to: bdb_exitFindingBindingWStatus
// 2680     }
// 2681     
// 2682     return (events ^ BDB_FINDING_AND_BINDING_PERIOD_TIMEOUT);
??bdb_event_loop_30:
        MOV       A,R6
        XRL       A,#0x40
??bdb_event_loop_6:
        MOV       R2,A
        MOV       A,R7
        LJMP      ??bdb_event_loop_19 & 0xFFFF
// 2683   }
// 2684   
// 2685   if(events & BDB_IDENTIFY_TIMEOUT)
??bdb_event_loop_26:
        MOV       A,R7
        ANL       A,#0x20
        JNZ       $+5
        LJMP      ??bdb_event_loop_31 & 0xFFFF
// 2686   {
// 2687     zclAttrRec_t identifyAttrRec;
// 2688     epList_t *bdb_CurrEpDescriptorNextInList = NULL;
// 2689     bdb_CurrEpDescriptorNextInList = bdb_HeadEpDescriptorList;
        MOV       DPTR,#bdb_HeadEpDescriptorList
        LCALL     ?Subroutine22 & 0xFFFF
??CrossCallReturnLabel_39:
        MOV       ?V0,R0
        MOV       ?V1,R1
// 2690     
// 2691     bool KeepIdentifyTimerRunning = FALSE;
        MOV       ?V4,#0x0
        SJMP      ??CrossCallReturnLabel_30
// 2692     
// 2693     while(bdb_CurrEpDescriptorNextInList != NULL )
// 2694     {
// 2695       endPointDesc_t *bdb_EpDescriptor = NULL;
// 2696       bdb_EpDescriptor = bdb_CurrEpDescriptorNextInList->epDesc;
// 2697     
// 2698       //Do not check ZDO or Zigbee reserved endpoints
// 2699       if((bdb_CurrEpDescriptorNextInList->epDesc->endPoint == 0) || (bdb_CurrEpDescriptorNextInList->epDesc->endPoint >= BDB_ZIGBEE_RESERVED_ENDPOINTS_START))
// 2700       {
// 2701         bdb_CurrEpDescriptorNextInList = bdb_CurrEpDescriptorNextInList->nextDesc;
// 2702         continue;
// 2703       }
// 2704       
// 2705       if ( zclFindAttrRec( bdb_EpDescriptor->endPoint, ZCL_CLUSTER_ID_GEN_IDENTIFY,
// 2706                         ATTRID_IDENTIFY_TIME, &identifyAttrRec ) )
// 2707       {
// 2708         if(*((uint16*)identifyAttrRec.attr.dataPtr) > 0)
// 2709         {
// 2710           (uint16)(*((uint16*)identifyAttrRec.attr.dataPtr))--;
// 2711           KeepIdentifyTimerRunning = TRUE;
// 2712         }
// 2713         else
// 2714         {
// 2715           // Use bdb success main state
// 2716           bdbAttributes.bdbCommissioningStatus = BDB_COMMISSIONING_SUCCESS;
??bdb_event_loop_32:
        MOV       DPTR,#bdbAttributes + 10
        CLR       A
        MOVX      @DPTR,A
// 2717           if(pfnIdentifyTimeChangeCB != NULL)
        MOV       DPTR,#pfnIdentifyTimeChangeCB
        LCALL     ??Subroutine37_0 & 0xFFFF
??CrossCallReturnLabel_83:
        JZ        ??bdb_event_loop_33
// 2718           {
// 2719             pfnIdentifyTimeChangeCB(bdb_EpDescriptor->endPoint);
        ; Setup parameters for indirect call
        MOV       DPL,?V2
        MOV       DPH,?V3
        MOVX      A,@DPTR
        MOV       R1,A
        LCALL     ?Subroutine19 & 0xFFFF
// 2720           }
// 2721         }
??CrossCallReturnLabel_67:
        LCALL     ?CALL_IND
// 2722       }
// 2723       bdb_CurrEpDescriptorNextInList = bdb_CurrEpDescriptorNextInList->nextDesc;
??bdb_event_loop_33:
        MOV       DPL,?V0
        MOV       DPH,?V1
        LCALL     ?Subroutine20 & 0xFFFF
??CrossCallReturnLabel_30:
        MOV       A,?V0
        ORL       A,?V1
        JZ        ??bdb_event_loop_34
        MOV       DPL,?V0
        MOV       DPH,?V1
        INC       DPTR
        INC       DPTR
        LCALL     ?Subroutine17 & 0xFFFF
??CrossCallReturnLabel_26:
        MOV       ?V2,DPL
        MOV       ?V3,DPH
        MOVX      A,@DPTR
        JZ        ??bdb_event_loop_33
        CLR       C
        SUBB      A,#-0xf
        JNC       ??bdb_event_loop_33
        ; Setup parameters for call to function zclFindAttrRec
        MOV       A,#0x5
        LCALL     ?XSTACK_DISP100_8
        MOV       ?V6,R0
        MOV       ?V7,R1
        MOV       R0,#?V6
        LCALL     ?PUSH_XSTACK_I_TWO
          CFI CFA_XSP16 add(XSP16, 31)
        MOV       R4,#0x0
        MOV       R5,#0x0
        MOV       R2,#0x3
        MOV       R3,#0x0
        MOV       DPL,?V2
        MOV       DPH,?V3
        MOVX      A,@DPTR
        MOV       R1,A
        LCALL     `??zclFindAttrRec::?relay`; Banked call to: zclFindAttrRec
        MOV       A,#0x2
        LCALL     ?DEALLOC_XSTACK8
          CFI CFA_XSP16 add(XSP16, 29)
        MOV       A,R1
        JZ        ??bdb_event_loop_33
        MOV       A,#0xb
        LCALL     ?XSTACK_DISP0_8
        LCALL     ?Subroutine17 & 0xFFFF
??CrossCallReturnLabel_27:
        LCALL     ?Subroutine15 & 0xFFFF
??CrossCallReturnLabel_22:
        JZ        ??bdb_event_loop_32
        MOV       A,R2
        ADD       A,#-0x1
        DEC       R2
        MOV       A,R3
        ADDC      A,#-0x1
        MOV       R3,A
        MOV       DPL,R0
        MOV       DPH,R1
        LCALL     ?Subroutine11 & 0xFFFF
??CrossCallReturnLabel_14:
        MOV       ?V4,#0x1
        SJMP      ??bdb_event_loop_33
// 2724     }
// 2725     
// 2726     //If any endpoint has identify running, keep the timer on
// 2727     if(KeepIdentifyTimerRunning)
??bdb_event_loop_34:
        MOV       A,?V4
        JZ        ??bdb_event_loop_35
// 2728     {
// 2729       osal_start_timerEx( bdb_TaskID, BDB_IDENTIFY_TIMEOUT, 1000 );
        ; Setup parameters for call to function osal_start_timerEx
        MOV       DPTR,#__Constant_3e8
        LCALL     ?PUSH_XSTACK8_X_FOUR
          CFI CFA_XSP16 add(XSP16, 33)
        MOV       R2,#0x0
        MOV       R3,#0x20
        MOV       DPTR,#bdb_TaskID
        MOVX      A,@DPTR
        MOV       R1,A
        LCALL     `??osal_start_timerEx::?relay`; Banked call to: osal_start_timerEx
        MOV       A,#0x4
        LCALL     ?DEALLOC_XSTACK8
          CFI CFA_XSP16 add(XSP16, 29)
        SJMP      ??bdb_event_loop_36
// 2730     }
// 2731     else
// 2732     {
// 2733       osal_stop_timerEx( bdb_TaskID, BDB_IDENTIFY_TIMEOUT );
??bdb_event_loop_35:
        ; Setup parameters for call to function osal_stop_timerEx
        MOV       R2,#0x0
        MOV       R3,#0x20
        MOV       DPTR,#bdb_TaskID
        MOVX      A,@DPTR
        MOV       R1,A
        LCALL     `??osal_stop_timerEx::?relay`; Banked call to: osal_stop_timerEx
// 2734     }
// 2735     
// 2736     // Return unprocessed events
// 2737     return (events ^ BDB_IDENTIFY_TIMEOUT);
??bdb_event_loop_36:
        MOV       A,R6
        MOV       R2,A
        MOV       A,R7
        XRL       A,#0x20
        SJMP      ??bdb_event_loop_19
// 2738   }
// 2739   
// 2740   if(events & BDB_RESPONDENT_PROCESS_TIMEOUT)
??bdb_event_loop_31:
        MOV       A,R7
        ANL       A,#0x40
        JZ        ??bdb_event_loop_37
// 2741   {
// 2742     // Send Simple Descriptor request to a respondent node
// 2743     bdb_ProcessRespondentList();
        ; Setup parameters for call to function bdb_ProcessRespondentList
        LCALL     `??bdb_ProcessRespondentList::?relay`; Banked call to: bdb_ProcessRespondentList
// 2744 
// 2745     return (events ^ BDB_RESPONDENT_PROCESS_TIMEOUT);
        MOV       A,R6
        MOV       R2,A
        MOV       A,R7
        XRL       A,#0x40
??bdb_event_loop_19:
        MOV       R3,A
        SJMP      ??bdb_event_loop_21
// 2746   }
// 2747 #endif
// 2748   
// 2749   return 0;
??bdb_event_loop_37:
        MOV       R2,#0x0
        MOV       R3,#0x0
??bdb_event_loop_21:
        MOV       A,#0xd
        LCALL     ?DEALLOC_XSTACK8
          CFI CFA_XSP16 add(XSP16, 16)
        MOV       R7,#0x8
        LJMP      ?BANKED_LEAVE_XDATA
// 2750 }
          CFI EndBlock cfiBlock130

        RSEG BANKED_CODE:HUGECODE:NOROOT(0)
?Subroutine22:
          CFI Block cfiCond131 Using cfiCommon0
          CFI Function bdb_filterNwkDisc
          CFI Conditional ??CrossCallReturnLabel_37
          CFI R6 load(1, XDATA, add(CFA_XSP16, literal(-11)))
          CFI VB load(1, XDATA, add(CFA_XSP16, literal(-10)))
          CFI V0 load(1, XDATA, add(CFA_XSP16, literal(-9)))
          CFI V1 load(1, XDATA, add(CFA_XSP16, literal(-8)))
          CFI V2 load(1, XDATA, add(CFA_XSP16, literal(-7)))
          CFI R7 load(1, XDATA, add(CFA_XSP16, literal(-6)))
          CFI ?RET_LOW load(1, XDATA, add(CFA_XSP16, literal(-5)))
          CFI ?RET_HIGH load(1, XDATA, add(CFA_XSP16, literal(-4)))
          CFI ?BRET_EXT load(1, XDATA, add(CFA_XSP16, literal(-3)))
          CFI DPL0 load(1, XDATA, add(CFA_XSP16, literal(-2)))
          CFI DPH0 load(1, XDATA, add(CFA_XSP16, literal(-1)))
          CFI CFA_SP SP+-2
          CFI CFA_XSP16 add(XSP16, 11)
          CFI Block cfiCond132 Using cfiCommon0
          CFI (cfiCond132) Function bdb_filterNwkDisc
          CFI (cfiCond132) Conditional ??CrossCallReturnLabel_38
          CFI (cfiCond132) R6 load(1, XDATA, add(CFA_XSP16, literal(-11)))
          CFI (cfiCond132) VB load(1, XDATA, add(CFA_XSP16, literal(-10)))
          CFI (cfiCond132) V0 load(1, XDATA, add(CFA_XSP16, literal(-9)))
          CFI (cfiCond132) V1 load(1, XDATA, add(CFA_XSP16, literal(-8)))
          CFI (cfiCond132) V2 load(1, XDATA, add(CFA_XSP16, literal(-7)))
          CFI (cfiCond132) R7 load(1, XDATA, add(CFA_XSP16, literal(-6)))
          CFI (cfiCond132) ?RET_LOW load(1, XDATA, add(CFA_XSP16, literal(-5)))
          CFI (cfiCond132) ?RET_HIGH load(1, XDATA, add(CFA_XSP16, literal(-4)))
          CFI (cfiCond132) ?BRET_EXT load(1, XDATA, add(CFA_XSP16, literal(-3)))
          CFI (cfiCond132) DPL0 load(1, XDATA, add(CFA_XSP16, literal(-2)))
          CFI (cfiCond132) DPH0 load(1, XDATA, add(CFA_XSP16, literal(-1)))
          CFI (cfiCond132) CFA_SP SP+-2
          CFI (cfiCond132) CFA_XSP16 add(XSP16, 11)
          CFI Block cfiCond133 Using cfiCommon0
          CFI (cfiCond133) Function bdb_event_loop
          CFI (cfiCond133) Conditional ??CrossCallReturnLabel_39
          CFI (cfiCond133) R6 load(1, XDATA, add(CFA_XSP16, literal(-16)))
          CFI (cfiCond133) VB load(1, XDATA, add(CFA_XSP16, literal(-15)))
          CFI (cfiCond133) V0 load(1, XDATA, add(CFA_XSP16, literal(-14)))
          CFI (cfiCond133) V1 load(1, XDATA, add(CFA_XSP16, literal(-13)))
          CFI (cfiCond133) V2 load(1, XDATA, add(CFA_XSP16, literal(-12)))
          CFI (cfiCond133) V3 load(1, XDATA, add(CFA_XSP16, literal(-11)))
          CFI (cfiCond133) V4 load(1, XDATA, add(CFA_XSP16, literal(-10)))
          CFI (cfiCond133) V5 load(1, XDATA, add(CFA_XSP16, literal(-9)))
          CFI (cfiCond133) V6 load(1, XDATA, add(CFA_XSP16, literal(-8)))
          CFI (cfiCond133) V7 load(1, XDATA, add(CFA_XSP16, literal(-7)))
          CFI (cfiCond133) R7 load(1, XDATA, add(CFA_XSP16, literal(-6)))
          CFI (cfiCond133) ?RET_LOW load(1, XDATA, add(CFA_XSP16, literal(-5)))
          CFI (cfiCond133) ?RET_HIGH load(1, XDATA, add(CFA_XSP16, literal(-4)))
          CFI (cfiCond133) ?BRET_EXT load(1, XDATA, add(CFA_XSP16, literal(-3)))
          CFI (cfiCond133) DPL0 load(1, XDATA, add(CFA_XSP16, literal(-2)))
          CFI (cfiCond133) DPH0 load(1, XDATA, add(CFA_XSP16, literal(-1)))
          CFI (cfiCond133) CFA_SP SP+-2
          CFI (cfiCond133) CFA_XSP16 add(XSP16, 29)
          CFI Block cfiCond134 Using cfiCommon0
          CFI (cfiCond134) Function bdb_crcInit
          CFI (cfiCond134) Conditional ??CrossCallReturnLabel_40
          CFI (cfiCond134) R6 load(1, XDATA, add(CFA_XSP16, literal(-9)))
          CFI (cfiCond134) VB load(1, XDATA, add(CFA_XSP16, literal(-8)))
          CFI (cfiCond134) V0 load(1, XDATA, add(CFA_XSP16, literal(-7)))
          CFI (cfiCond134) R7 load(1, XDATA, add(CFA_XSP16, literal(-6)))
          CFI (cfiCond134) ?RET_LOW load(1, XDATA, add(CFA_XSP16, literal(-5)))
          CFI (cfiCond134) ?RET_HIGH load(1, XDATA, add(CFA_XSP16, literal(-4)))
          CFI (cfiCond134) ?BRET_EXT load(1, XDATA, add(CFA_XSP16, literal(-3)))
          CFI (cfiCond134) DPL0 load(1, XDATA, add(CFA_XSP16, literal(-2)))
          CFI (cfiCond134) DPH0 load(1, XDATA, add(CFA_XSP16, literal(-1)))
          CFI (cfiCond134) CFA_SP SP+-2
          CFI (cfiCond134) CFA_XSP16 add(XSP16, 9)
          CFI Block cfiPicker135 Using cfiCommon1
          CFI (cfiPicker135) NoFunction
          CFI (cfiPicker135) Picker
        MOVX      A,@DPTR
        MOV       R0,A
        INC       DPTR
        MOVX      A,@DPTR
        MOV       R1,A
        RET
          CFI EndBlock cfiCond131
          CFI EndBlock cfiCond132
          CFI EndBlock cfiCond133
          CFI EndBlock cfiCond134
          CFI EndBlock cfiPicker135

        RSEG BANKED_CODE:HUGECODE:NOROOT(0)
?Subroutine12:
          CFI Block cfiCond136 Using cfiCommon0
          CFI Function bdb_reportCommissioningState
          CFI Conditional ??CrossCallReturnLabel_89
          CFI R6 load(1, XDATA, add(CFA_XSP16, literal(-10)))
          CFI VB load(1, XDATA, add(CFA_XSP16, literal(-9)))
          CFI V0 load(1, XDATA, add(CFA_XSP16, literal(-8)))
          CFI V1 load(1, XDATA, add(CFA_XSP16, literal(-7)))
          CFI R7 load(1, XDATA, add(CFA_XSP16, literal(-6)))
          CFI ?RET_LOW load(1, XDATA, add(CFA_XSP16, literal(-5)))
          CFI ?RET_HIGH load(1, XDATA, add(CFA_XSP16, literal(-4)))
          CFI ?BRET_EXT load(1, XDATA, add(CFA_XSP16, literal(-3)))
          CFI DPL0 load(1, XDATA, add(CFA_XSP16, literal(-2)))
          CFI DPH0 load(1, XDATA, add(CFA_XSP16, literal(-1)))
          CFI CFA_SP SP+-2
          CFI CFA_XSP16 add(XSP16, 14)
          CFI Block cfiCond137 Using cfiCommon0
          CFI (cfiCond137) Function bdb_reportCommissioningState
          CFI (cfiCond137) Conditional ??CrossCallReturnLabel_90
          CFI (cfiCond137) R6 load(1, XDATA, add(CFA_XSP16, literal(-10)))
          CFI (cfiCond137) VB load(1, XDATA, add(CFA_XSP16, literal(-9)))
          CFI (cfiCond137) V0 load(1, XDATA, add(CFA_XSP16, literal(-8)))
          CFI (cfiCond137) V1 load(1, XDATA, add(CFA_XSP16, literal(-7)))
          CFI (cfiCond137) R7 load(1, XDATA, add(CFA_XSP16, literal(-6)))
          CFI (cfiCond137) ?RET_LOW load(1, XDATA, add(CFA_XSP16, literal(-5)))
          CFI (cfiCond137) ?RET_HIGH load(1, XDATA, add(CFA_XSP16, literal(-4)))
          CFI (cfiCond137) ?BRET_EXT load(1, XDATA, add(CFA_XSP16, literal(-3)))
          CFI (cfiCond137) DPL0 load(1, XDATA, add(CFA_XSP16, literal(-2)))
          CFI (cfiCond137) DPH0 load(1, XDATA, add(CFA_XSP16, literal(-1)))
          CFI (cfiCond137) CFA_SP SP+-2
          CFI (cfiCond137) CFA_XSP16 add(XSP16, 14)
          CFI Block cfiCond138 Using cfiCommon0
          CFI (cfiCond138) Function bdb_reportCommissioningState
          CFI (cfiCond138) Conditional ??CrossCallReturnLabel_91
          CFI (cfiCond138) R6 load(1, XDATA, add(CFA_XSP16, literal(-10)))
          CFI (cfiCond138) VB load(1, XDATA, add(CFA_XSP16, literal(-9)))
          CFI (cfiCond138) V0 load(1, XDATA, add(CFA_XSP16, literal(-8)))
          CFI (cfiCond138) V1 load(1, XDATA, add(CFA_XSP16, literal(-7)))
          CFI (cfiCond138) R7 load(1, XDATA, add(CFA_XSP16, literal(-6)))
          CFI (cfiCond138) ?RET_LOW load(1, XDATA, add(CFA_XSP16, literal(-5)))
          CFI (cfiCond138) ?RET_HIGH load(1, XDATA, add(CFA_XSP16, literal(-4)))
          CFI (cfiCond138) ?BRET_EXT load(1, XDATA, add(CFA_XSP16, literal(-3)))
          CFI (cfiCond138) DPL0 load(1, XDATA, add(CFA_XSP16, literal(-2)))
          CFI (cfiCond138) DPH0 load(1, XDATA, add(CFA_XSP16, literal(-1)))
          CFI (cfiCond138) CFA_SP SP+-2
          CFI (cfiCond138) CFA_XSP16 add(XSP16, 14)
          CFI Block cfiPicker139 Using cfiCommon1
          CFI (cfiPicker139) NoFunction
          CFI (cfiPicker139) Picker
        MOV       DPTR,#bdbCommissioningProcedureState
          CFI EndBlock cfiCond136
          CFI EndBlock cfiCond137
          CFI EndBlock cfiCond138
          CFI EndBlock cfiPicker139
        REQUIRE ??Subroutine39_0
        ; // Fall through to label ??Subroutine39_0

        RSEG BANKED_CODE:HUGECODE:NOROOT(0)
??Subroutine39_0:
          CFI Block cfiCond140 Using cfiCommon0
          CFI Function bdb_reportCommissioningState
          CFI Conditional ??CrossCallReturnLabel_92
          CFI R6 load(1, XDATA, add(CFA_XSP16, literal(-10)))
          CFI VB load(1, XDATA, add(CFA_XSP16, literal(-9)))
          CFI V0 load(1, XDATA, add(CFA_XSP16, literal(-8)))
          CFI V1 load(1, XDATA, add(CFA_XSP16, literal(-7)))
          CFI R7 load(1, XDATA, add(CFA_XSP16, literal(-6)))
          CFI ?RET_LOW load(1, XDATA, add(CFA_XSP16, literal(-5)))
          CFI ?RET_HIGH load(1, XDATA, add(CFA_XSP16, literal(-4)))
          CFI ?BRET_EXT load(1, XDATA, add(CFA_XSP16, literal(-3)))
          CFI DPL0 load(1, XDATA, add(CFA_XSP16, literal(-2)))
          CFI DPH0 load(1, XDATA, add(CFA_XSP16, literal(-1)))
          CFI CFA_SP SP+-2
          CFI CFA_XSP16 add(XSP16, 14)
          CFI Block cfiCond141 Using cfiCommon0
          CFI (cfiCond141) Function bdb_reportCommissioningState
          CFI (cfiCond141) Conditional ??CrossCallReturnLabel_89
          CFI (cfiCond141) R6 load(1, XDATA, add(CFA_XSP16, literal(-10)))
          CFI (cfiCond141) VB load(1, XDATA, add(CFA_XSP16, literal(-9)))
          CFI (cfiCond141) V0 load(1, XDATA, add(CFA_XSP16, literal(-8)))
          CFI (cfiCond141) V1 load(1, XDATA, add(CFA_XSP16, literal(-7)))
          CFI (cfiCond141) R7 load(1, XDATA, add(CFA_XSP16, literal(-6)))
          CFI (cfiCond141) ?RET_LOW load(1, XDATA, add(CFA_XSP16, literal(-5)))
          CFI (cfiCond141) ?RET_HIGH load(1, XDATA, add(CFA_XSP16, literal(-4)))
          CFI (cfiCond141) ?BRET_EXT load(1, XDATA, add(CFA_XSP16, literal(-3)))
          CFI (cfiCond141) DPL0 load(1, XDATA, add(CFA_XSP16, literal(-2)))
          CFI (cfiCond141) DPH0 load(1, XDATA, add(CFA_XSP16, literal(-1)))
          CFI (cfiCond141) CFA_SP SP+-2
          CFI (cfiCond141) CFA_XSP16 add(XSP16, 14)
          CFI Block cfiCond142 Using cfiCommon0
          CFI (cfiCond142) Function bdb_reportCommissioningState
          CFI (cfiCond142) Conditional ??CrossCallReturnLabel_90
          CFI (cfiCond142) R6 load(1, XDATA, add(CFA_XSP16, literal(-10)))
          CFI (cfiCond142) VB load(1, XDATA, add(CFA_XSP16, literal(-9)))
          CFI (cfiCond142) V0 load(1, XDATA, add(CFA_XSP16, literal(-8)))
          CFI (cfiCond142) V1 load(1, XDATA, add(CFA_XSP16, literal(-7)))
          CFI (cfiCond142) R7 load(1, XDATA, add(CFA_XSP16, literal(-6)))
          CFI (cfiCond142) ?RET_LOW load(1, XDATA, add(CFA_XSP16, literal(-5)))
          CFI (cfiCond142) ?RET_HIGH load(1, XDATA, add(CFA_XSP16, literal(-4)))
          CFI (cfiCond142) ?BRET_EXT load(1, XDATA, add(CFA_XSP16, literal(-3)))
          CFI (cfiCond142) DPL0 load(1, XDATA, add(CFA_XSP16, literal(-2)))
          CFI (cfiCond142) DPH0 load(1, XDATA, add(CFA_XSP16, literal(-1)))
          CFI (cfiCond142) CFA_SP SP+-2
          CFI (cfiCond142) CFA_XSP16 add(XSP16, 14)
          CFI Block cfiCond143 Using cfiCommon0
          CFI (cfiCond143) Function bdb_reportCommissioningState
          CFI (cfiCond143) Conditional ??CrossCallReturnLabel_91
          CFI (cfiCond143) R6 load(1, XDATA, add(CFA_XSP16, literal(-10)))
          CFI (cfiCond143) VB load(1, XDATA, add(CFA_XSP16, literal(-9)))
          CFI (cfiCond143) V0 load(1, XDATA, add(CFA_XSP16, literal(-8)))
          CFI (cfiCond143) V1 load(1, XDATA, add(CFA_XSP16, literal(-7)))
          CFI (cfiCond143) R7 load(1, XDATA, add(CFA_XSP16, literal(-6)))
          CFI (cfiCond143) ?RET_LOW load(1, XDATA, add(CFA_XSP16, literal(-5)))
          CFI (cfiCond143) ?RET_HIGH load(1, XDATA, add(CFA_XSP16, literal(-4)))
          CFI (cfiCond143) ?BRET_EXT load(1, XDATA, add(CFA_XSP16, literal(-3)))
          CFI (cfiCond143) DPL0 load(1, XDATA, add(CFA_XSP16, literal(-2)))
          CFI (cfiCond143) DPH0 load(1, XDATA, add(CFA_XSP16, literal(-1)))
          CFI (cfiCond143) CFA_SP SP+-2
          CFI (cfiCond143) CFA_XSP16 add(XSP16, 14)
          CFI Block cfiPicker144 Using cfiCommon1
          CFI (cfiPicker144) NoFunction
          CFI (cfiPicker144) Picker
        CLR       A
          CFI EndBlock cfiCond140
          CFI EndBlock cfiCond141
          CFI EndBlock cfiCond142
          CFI EndBlock cfiCond143
          CFI EndBlock cfiPicker144
        REQUIRE ??Subroutine40_0
        ; // Fall through to label ??Subroutine40_0

        RSEG BANKED_CODE:HUGECODE:NOROOT(0)
??Subroutine40_0:
          CFI Block cfiCond145 Using cfiCommon0
          CFI Function bdb_reportCommissioningState
          CFI Conditional ??CrossCallReturnLabel_93
          CFI R6 load(1, XDATA, add(CFA_XSP16, literal(-10)))
          CFI VB load(1, XDATA, add(CFA_XSP16, literal(-9)))
          CFI V0 load(1, XDATA, add(CFA_XSP16, literal(-8)))
          CFI V1 load(1, XDATA, add(CFA_XSP16, literal(-7)))
          CFI R7 load(1, XDATA, add(CFA_XSP16, literal(-6)))
          CFI ?RET_LOW load(1, XDATA, add(CFA_XSP16, literal(-5)))
          CFI ?RET_HIGH load(1, XDATA, add(CFA_XSP16, literal(-4)))
          CFI ?BRET_EXT load(1, XDATA, add(CFA_XSP16, literal(-3)))
          CFI DPL0 load(1, XDATA, add(CFA_XSP16, literal(-2)))
          CFI DPH0 load(1, XDATA, add(CFA_XSP16, literal(-1)))
          CFI CFA_SP SP+-2
          CFI CFA_XSP16 add(XSP16, 14)
          CFI Block cfiCond146 Using cfiCommon0
          CFI (cfiCond146) Function bdb_event_loop
          CFI (cfiCond146) Conditional ??CrossCallReturnLabel_94
          CFI (cfiCond146) R6 load(1, XDATA, add(CFA_XSP16, literal(-16)))
          CFI (cfiCond146) VB load(1, XDATA, add(CFA_XSP16, literal(-15)))
          CFI (cfiCond146) V0 load(1, XDATA, add(CFA_XSP16, literal(-14)))
          CFI (cfiCond146) V1 load(1, XDATA, add(CFA_XSP16, literal(-13)))
          CFI (cfiCond146) V2 load(1, XDATA, add(CFA_XSP16, literal(-12)))
          CFI (cfiCond146) V3 load(1, XDATA, add(CFA_XSP16, literal(-11)))
          CFI (cfiCond146) V4 load(1, XDATA, add(CFA_XSP16, literal(-10)))
          CFI (cfiCond146) V5 load(1, XDATA, add(CFA_XSP16, literal(-9)))
          CFI (cfiCond146) V6 load(1, XDATA, add(CFA_XSP16, literal(-8)))
          CFI (cfiCond146) V7 load(1, XDATA, add(CFA_XSP16, literal(-7)))
          CFI (cfiCond146) R7 load(1, XDATA, add(CFA_XSP16, literal(-6)))
          CFI (cfiCond146) ?RET_LOW load(1, XDATA, add(CFA_XSP16, literal(-5)))
          CFI (cfiCond146) ?RET_HIGH load(1, XDATA, add(CFA_XSP16, literal(-4)))
          CFI (cfiCond146) ?BRET_EXT load(1, XDATA, add(CFA_XSP16, literal(-3)))
          CFI (cfiCond146) DPL0 load(1, XDATA, add(CFA_XSP16, literal(-2)))
          CFI (cfiCond146) DPH0 load(1, XDATA, add(CFA_XSP16, literal(-1)))
          CFI (cfiCond146) CFA_SP SP+-2
          CFI (cfiCond146) CFA_XSP16 add(XSP16, 29)
          CFI Block cfiCond147 Using cfiCommon0
          CFI (cfiCond147) Function bdb_reportCommissioningState
          CFI (cfiCond147) Conditional ??CrossCallReturnLabel_92
          CFI (cfiCond147) R6 load(1, XDATA, add(CFA_XSP16, literal(-10)))
          CFI (cfiCond147) VB load(1, XDATA, add(CFA_XSP16, literal(-9)))
          CFI (cfiCond147) V0 load(1, XDATA, add(CFA_XSP16, literal(-8)))
          CFI (cfiCond147) V1 load(1, XDATA, add(CFA_XSP16, literal(-7)))
          CFI (cfiCond147) R7 load(1, XDATA, add(CFA_XSP16, literal(-6)))
          CFI (cfiCond147) ?RET_LOW load(1, XDATA, add(CFA_XSP16, literal(-5)))
          CFI (cfiCond147) ?RET_HIGH load(1, XDATA, add(CFA_XSP16, literal(-4)))
          CFI (cfiCond147) ?BRET_EXT load(1, XDATA, add(CFA_XSP16, literal(-3)))
          CFI (cfiCond147) DPL0 load(1, XDATA, add(CFA_XSP16, literal(-2)))
          CFI (cfiCond147) DPH0 load(1, XDATA, add(CFA_XSP16, literal(-1)))
          CFI (cfiCond147) CFA_SP SP+-2
          CFI (cfiCond147) CFA_XSP16 add(XSP16, 14)
          CFI Block cfiCond148 Using cfiCommon0
          CFI (cfiCond148) Function bdb_reportCommissioningState
          CFI (cfiCond148) Conditional ??CrossCallReturnLabel_89
          CFI (cfiCond148) R6 load(1, XDATA, add(CFA_XSP16, literal(-10)))
          CFI (cfiCond148) VB load(1, XDATA, add(CFA_XSP16, literal(-9)))
          CFI (cfiCond148) V0 load(1, XDATA, add(CFA_XSP16, literal(-8)))
          CFI (cfiCond148) V1 load(1, XDATA, add(CFA_XSP16, literal(-7)))
          CFI (cfiCond148) R7 load(1, XDATA, add(CFA_XSP16, literal(-6)))
          CFI (cfiCond148) ?RET_LOW load(1, XDATA, add(CFA_XSP16, literal(-5)))
          CFI (cfiCond148) ?RET_HIGH load(1, XDATA, add(CFA_XSP16, literal(-4)))
          CFI (cfiCond148) ?BRET_EXT load(1, XDATA, add(CFA_XSP16, literal(-3)))
          CFI (cfiCond148) DPL0 load(1, XDATA, add(CFA_XSP16, literal(-2)))
          CFI (cfiCond148) DPH0 load(1, XDATA, add(CFA_XSP16, literal(-1)))
          CFI (cfiCond148) CFA_SP SP+-2
          CFI (cfiCond148) CFA_XSP16 add(XSP16, 14)
          CFI Block cfiCond149 Using cfiCommon0
          CFI (cfiCond149) Function bdb_reportCommissioningState
          CFI (cfiCond149) Conditional ??CrossCallReturnLabel_90
          CFI (cfiCond149) R6 load(1, XDATA, add(CFA_XSP16, literal(-10)))
          CFI (cfiCond149) VB load(1, XDATA, add(CFA_XSP16, literal(-9)))
          CFI (cfiCond149) V0 load(1, XDATA, add(CFA_XSP16, literal(-8)))
          CFI (cfiCond149) V1 load(1, XDATA, add(CFA_XSP16, literal(-7)))
          CFI (cfiCond149) R7 load(1, XDATA, add(CFA_XSP16, literal(-6)))
          CFI (cfiCond149) ?RET_LOW load(1, XDATA, add(CFA_XSP16, literal(-5)))
          CFI (cfiCond149) ?RET_HIGH load(1, XDATA, add(CFA_XSP16, literal(-4)))
          CFI (cfiCond149) ?BRET_EXT load(1, XDATA, add(CFA_XSP16, literal(-3)))
          CFI (cfiCond149) DPL0 load(1, XDATA, add(CFA_XSP16, literal(-2)))
          CFI (cfiCond149) DPH0 load(1, XDATA, add(CFA_XSP16, literal(-1)))
          CFI (cfiCond149) CFA_SP SP+-2
          CFI (cfiCond149) CFA_XSP16 add(XSP16, 14)
          CFI Block cfiCond150 Using cfiCommon0
          CFI (cfiCond150) Function bdb_reportCommissioningState
          CFI (cfiCond150) Conditional ??CrossCallReturnLabel_91
          CFI (cfiCond150) R6 load(1, XDATA, add(CFA_XSP16, literal(-10)))
          CFI (cfiCond150) VB load(1, XDATA, add(CFA_XSP16, literal(-9)))
          CFI (cfiCond150) V0 load(1, XDATA, add(CFA_XSP16, literal(-8)))
          CFI (cfiCond150) V1 load(1, XDATA, add(CFA_XSP16, literal(-7)))
          CFI (cfiCond150) R7 load(1, XDATA, add(CFA_XSP16, literal(-6)))
          CFI (cfiCond150) ?RET_LOW load(1, XDATA, add(CFA_XSP16, literal(-5)))
          CFI (cfiCond150) ?RET_HIGH load(1, XDATA, add(CFA_XSP16, literal(-4)))
          CFI (cfiCond150) ?BRET_EXT load(1, XDATA, add(CFA_XSP16, literal(-3)))
          CFI (cfiCond150) DPL0 load(1, XDATA, add(CFA_XSP16, literal(-2)))
          CFI (cfiCond150) DPH0 load(1, XDATA, add(CFA_XSP16, literal(-1)))
          CFI (cfiCond150) CFA_SP SP+-2
          CFI (cfiCond150) CFA_XSP16 add(XSP16, 14)
          CFI Block cfiPicker151 Using cfiCommon1
          CFI (cfiPicker151) NoFunction
          CFI (cfiPicker151) Picker
        MOVX      @DPTR,A
        ; Setup parameters for call to function osal_start_timerEx
        ; Setup parameters for call to function osal_start_timerEx
        ; Setup parameters for call to function osal_start_timerEx
        ; Setup parameters for call to function osal_start_timerEx
        ; Setup parameters for call to function osal_start_timerEx
        ; Setup parameters for call to function osal_start_timerEx
        MOV       DPTR,#__Constant_32
        RET
          CFI EndBlock cfiCond145
          CFI EndBlock cfiCond146
          CFI EndBlock cfiCond147
          CFI EndBlock cfiCond148
          CFI EndBlock cfiCond149
          CFI EndBlock cfiCond150
          CFI EndBlock cfiPicker151
// 2751 
// 2752 /*********************************************************************
// 2753  * @fn          bdb_processZDOMgs
// 2754  *
// 2755  * @brief       Process ZDO messages used as part of BDB commissioning methods
// 2756  *
// 2757  * @param       zdoIncomingMsg_t - ZDO message
// 2758  *
// 2759  * @return      
// 2760  */
// 2761 static void bdb_processZDOMgs(zdoIncomingMsg_t *pMsg)
// 2762 {
// 2763   switch ( pMsg->clusterID )
// 2764   {
// 2765 #if (BDB_FINDING_BINDING_CAPABILITY_ENABLED==1)      
// 2766     case IEEE_addr_rsp:
// 2767        bdb_ProcessIEEEAddrRsp(pMsg);
// 2768     break;
// 2769     case Simple_Desc_rsp:
// 2770       bdb_ProcessSimpleDesc(pMsg);
// 2771     break;
// 2772 #endif
// 2773 
// 2774 #if (ZG_BUILD_JOINING_TYPE)    
// 2775     case Node_Desc_rsp:
// 2776       bdb_ProcessNodeDescRsp(pMsg);
// 2777     break;
// 2778 #endif
// 2779     
// 2780     default:
// 2781     break;
// 2782   }
// 2783 }
// 2784 
// 2785 
// 2786 /*********************************************************************
// 2787  * @fn      bdb_ProcessNodeDescRsp
// 2788  *
// 2789  * @brief   Process Node Descriptor response to validate the stack version of the
// 2790  *
// 2791  * @param   zdoIncomingMsg_t *pMsg
// 2792  *
// 2793  * @return  none
// 2794  */

        RSEG BANKED_CODE:HUGECODE:NOROOT(0)
// 2795 void bdb_ProcessNodeDescRsp(zdoIncomingMsg_t *pMsg)
bdb_ProcessNodeDescRsp:
          CFI Block cfiBlock152 Using cfiCommon0
          CFI Function bdb_ProcessNodeDescRsp
        CODE
// 2796 {
        FUNCALL bdb_ProcessNodeDescRsp, APSME_IsDistributedSecurity
        LOCFRAME ISTACK, 0, STACK
        LOCFRAME PSTACK, 0, STACK
        LOCFRAME XSTACK, 45, STACK
        LOCFRAME IOVERLAY, 0, STATIC
        LOCFRAME DOVERLAY, 0, STATIC
        ARGFRAME ISTACK, 0, STACK
        ARGFRAME PSTACK, 0, STACK
        ARGFRAME XSTACK, 45, STACK
        ARGFRAME IOVERLAY, 0, STATIC
        ARGFRAME DOVERLAY, 0, STATIC
        FUNCALL bdb_ProcessNodeDescRsp, osal_stop_timerEx
        LOCFRAME ISTACK, 0, STACK
        LOCFRAME PSTACK, 0, STACK
        LOCFRAME XSTACK, 45, STACK
        LOCFRAME IOVERLAY, 0, STATIC
        LOCFRAME DOVERLAY, 0, STATIC
        ARGFRAME ISTACK, 0, STACK
        ARGFRAME PSTACK, 0, STACK
        ARGFRAME XSTACK, 45, STACK
        ARGFRAME IOVERLAY, 0, STATIC
        ARGFRAME DOVERLAY, 0, STATIC
        FUNCALL bdb_ProcessNodeDescRsp, ZDO_ParseNodeDescRsp
        LOCFRAME ISTACK, 0, STACK
        LOCFRAME PSTACK, 0, STACK
        LOCFRAME XSTACK, 45, STACK
        LOCFRAME IOVERLAY, 0, STATIC
        LOCFRAME DOVERLAY, 0, STATIC
        ARGFRAME ISTACK, 0, STACK
        ARGFRAME PSTACK, 0, STACK
        ARGFRAME XSTACK, 45, STACK
        ARGFRAME IOVERLAY, 0, STATIC
        ARGFRAME DOVERLAY, 0, STATIC
        FUNCALL bdb_ProcessNodeDescRsp, bdb_tcLinkKeyExchangeAttempt
        LOCFRAME ISTACK, 0, STACK
        LOCFRAME PSTACK, 0, STACK
        LOCFRAME XSTACK, 45, STACK
        LOCFRAME IOVERLAY, 0, STATIC
        LOCFRAME DOVERLAY, 0, STATIC
        ARGFRAME ISTACK, 0, STACK
        ARGFRAME PSTACK, 0, STACK
        ARGFRAME XSTACK, 45, STACK
        ARGFRAME IOVERLAY, 0, STATIC
        ARGFRAME DOVERLAY, 0, STATIC
        FUNCALL bdb_ProcessNodeDescRsp, osal_nv_write
        LOCFRAME ISTACK, 0, STACK
        LOCFRAME PSTACK, 0, STACK
        LOCFRAME XSTACK, 49, STACK
        LOCFRAME IOVERLAY, 0, STATIC
        LOCFRAME DOVERLAY, 0, STATIC
        ARGFRAME ISTACK, 0, STACK
        ARGFRAME PSTACK, 0, STACK
        ARGFRAME XSTACK, 49, STACK
        ARGFRAME IOVERLAY, 0, STATIC
        ARGFRAME DOVERLAY, 0, STATIC
        FUNCALL bdb_ProcessNodeDescRsp, bdb_setNodeJoinLinkKeyType
        LOCFRAME ISTACK, 0, STACK
        LOCFRAME PSTACK, 0, STACK
        LOCFRAME XSTACK, 45, STACK
        LOCFRAME IOVERLAY, 0, STATIC
        LOCFRAME DOVERLAY, 0, STATIC
        ARGFRAME ISTACK, 0, STACK
        ARGFRAME PSTACK, 0, STACK
        ARGFRAME XSTACK, 45, STACK
        ARGFRAME IOVERLAY, 0, STATIC
        ARGFRAME DOVERLAY, 0, STATIC
        FUNCALL bdb_ProcessNodeDescRsp, bdb_reportCommissioningState
        LOCFRAME ISTACK, 0, STACK
        LOCFRAME PSTACK, 0, STACK
        LOCFRAME XSTACK, 45, STACK
        LOCFRAME IOVERLAY, 0, STATIC
        LOCFRAME DOVERLAY, 0, STATIC
        ARGFRAME ISTACK, 0, STACK
        ARGFRAME PSTACK, 0, STACK
        ARGFRAME XSTACK, 45, STACK
        ARGFRAME IOVERLAY, 0, STATIC
        ARGFRAME DOVERLAY, 0, STATIC
        REQUIRE ?V0
        REQUIRE ?V1
        MOV       A,#-0xa
        LCALL     ?BANKED_ENTER_XDATA
          CFI DPH0 load(1, XDATA, add(CFA_XSP16, literal(-1)))
          CFI DPL0 load(1, XDATA, add(CFA_XSP16, literal(-2)))
          CFI ?BRET_EXT load(1, XDATA, add(CFA_XSP16, literal(-3)))
          CFI ?RET_HIGH load(1, XDATA, add(CFA_XSP16, literal(-4)))
          CFI ?RET_LOW load(1, XDATA, add(CFA_XSP16, literal(-5)))
          CFI R7 load(1, XDATA, add(CFA_XSP16, literal(-6)))
          CFI V1 load(1, XDATA, add(CFA_XSP16, literal(-7)))
          CFI V0 load(1, XDATA, add(CFA_XSP16, literal(-8)))
          CFI VB load(1, XDATA, add(CFA_XSP16, literal(-9)))
          CFI R6 load(1, XDATA, add(CFA_XSP16, literal(-10)))
          CFI CFA_SP SP+0
          CFI CFA_XSP16 add(XSP16, 10)
        ; Saved register size: 10
        ; Auto size: 35
        MOV       A,#-0x23
        LCALL     ?ALLOC_XSTACK8
          CFI CFA_XSP16 add(XSP16, 45)
        MOV       A,R2
        MOV       R6,A
        MOV       A,R3
        MOV       R7,A
// 2797   //Avoid processing unintended messages
// 2798   if(requestNewTrustCenterLinkKey && 
// 2799     (bdbCommissioningProcedureState.bdbCommissioningState == BDB_COMMISSIONING_STATE_TC_LINK_KEY_EXCHANGE))
        MOV       DPTR,#requestNewTrustCenterLinkKey
        MOVX      A,@DPTR
        JNZ       $+5
        LJMP      ??bdb_ProcessNodeDescRsp_0 & 0xFFFF
        MOV       DPTR,#bdbCommissioningProcedureState
        MOVX      A,@DPTR
        XRL       A,#0x1
        JZ        $+5
        LJMP      ??bdb_ProcessNodeDescRsp_0 & 0xFFFF
// 2800   {
// 2801     if(!APSME_IsDistributedSecurity())
        ; Setup parameters for call to function APSME_IsDistributedSecurity
        LCALL     `??APSME_IsDistributedSecurity::?relay`; Banked call to: APSME_IsDistributedSecurity
        MOV       A,R1
        JZ        $+5
        LJMP      ??bdb_ProcessNodeDescRsp_0 & 0xFFFF
// 2802     {
// 2803       //Is this from the coordinator?
// 2804       if(pMsg->srcAddr.addr.shortAddr == 0x0000)
        MOV       DPL,R6
        MOV       DPH,R7
        INC       DPTR
        INC       DPTR
        LCALL     ??Subroutine37_0 & 0xFFFF
??CrossCallReturnLabel_84:
        JNZ       ??bdb_ProcessNodeDescRsp_0
// 2805       {
// 2806         ZDO_NodeDescRsp_t NDRsp;
// 2807         uint8 StackComplianceRev;
// 2808 
// 2809         //Stop timer to avoid unintended resets
// 2810         osal_stop_timerEx( bdb_TaskID, BDB_PROCESS_TIMEOUT);
        ; Setup parameters for call to function osal_stop_timerEx
        MOV       R2,#0x0
        MOV       R3,#0x10
        MOV       DPTR,#bdb_TaskID
        MOVX      A,@DPTR
        MOV       R1,A
        LCALL     `??osal_stop_timerEx::?relay`; Banked call to: osal_stop_timerEx
// 2811         
// 2812         ZDO_ParseNodeDescRsp(pMsg, &NDRsp);
        ; Setup parameters for call to function ZDO_ParseNodeDescRsp
        MOV       A,#0x13
        LCALL     ?XSTACK_DISP102_8
        MOV       A,R6
        MOV       R2,A
        MOV       A,R7
        MOV       R3,A
        LCALL     `??ZDO_ParseNodeDescRsp::?relay`; Banked call to: ZDO_ParseNodeDescRsp
// 2813         
// 2814         StackComplianceRev = NDRsp.nodeDesc.ServerMask >> STACK_COMPLIANCE_CURRENT_REV_POS;
// 2815         
// 2816         if( StackComplianceRev >= STACK_COMPL_REV_21 )
        MOV       A,#0x1e
        LCALL     ?XSTACK_DISP0_8
        LCALL     ?Subroutine20 & 0xFFFF
??CrossCallReturnLabel_31:
        MOV       A,#0x9
        MOV       R0,#?V0
        LCALL     ?US_SHR
        CLR       C
        MOV       A,?V0
        SUBB      A,#0x15
        SUBB      A,0xE0 /* A   */
        CLR       C
        XRL       A,PSW
        RLC       A
        JC        ??bdb_ProcessNodeDescRsp_1
// 2817         {
// 2818           bdb_tcLinkKeyExchangeAttempt(TRUE,BDB_REQ_TC_LINK_KEY);
        ; Setup parameters for call to function bdb_tcLinkKeyExchangeAttempt
        MOV       R2,#0x2
        MOV       R1,#0x1
        LCALL     `??bdb_tcLinkKeyExchangeAttempt::?relay`; Banked call to: bdb_tcLinkKeyExchangeAttempt
        SJMP      ??bdb_ProcessNodeDescRsp_0
// 2819         }
// 2820         else
// 2821         {
// 2822           APSME_TCLKDevEntry_t TCLKDevEntry;
// 2823           
// 2824           //Save the KeyAttribute for joining device that it has joined non-R21 nwk
// 2825           TCLKDevEntry.keyAttributes = ZG_NON_R21_NWK_JOINED;
??bdb_ProcessNodeDescRsp_1:
        MOV       A,#0x10
        LCALL     ?XSTACK_DISP0_8
        MOV       A,#-0x3
        MOVX      @DPTR,A
// 2826           osal_nv_write(ZCD_NV_TCLK_TABLE_START,osal_offsetof(APSME_TCLKDevEntry_t,keyAttributes),sizeof(uint8),&TCLKDevEntry.keyAttributes);
        ; Setup parameters for call to function osal_nv_write
        MOV       ?V0,DPL
        MOV       ?V1,DPH
        MOV       R0,#?V0
        LCALL     ?PUSH_XSTACK_I_TWO
          CFI CFA_XSP16 add(XSP16, 47)
        MOV       ?V0,#0x1
        MOV       ?V1,#0x0
        MOV       R0,#?V0
        LCALL     ?PUSH_XSTACK_I_TWO
          CFI CFA_XSP16 add(XSP16, 49)
        MOV       R4,#0x10
        MOV       R5,#0x0
        MOV       R2,#0x11
        MOV       R3,#0x1
        LCALL     `??osal_nv_write::?relay`; Banked call to: osal_nv_write
        MOV       A,#0x4
        LCALL     ?DEALLOC_XSTACK8
          CFI CFA_XSP16 add(XSP16, 45)
// 2827           
// 2828           bdb_setNodeJoinLinkKeyType(BDB_DEFAULT_GLOBAL_TRUST_CENTER_LINK_KEY);
        ; Setup parameters for call to function bdb_setNodeJoinLinkKeyType
        MOV       R1,#0x0
        LCALL     `??bdb_setNodeJoinLinkKeyType::?relay`; Banked call to: bdb_setNodeJoinLinkKeyType
// 2829           bdb_reportCommissioningState(BDB_COMMISSIONING_STATE_TC_LINK_KEY_EXCHANGE, TRUE);
        ; Setup parameters for call to function bdb_reportCommissioningState
        MOV       R2,#0x1
        MOV       R1,#0x1
        LCALL     `??bdb_reportCommissioningState::?relay`; Banked call to: bdb_reportCommissioningState
// 2830         }
// 2831       }
// 2832     }
// 2833   }
// 2834 }
??bdb_ProcessNodeDescRsp_0:
        MOV       A,#0x23
        SJMP      ??Subroutine41_0
          CFI EndBlock cfiBlock152

        RSEG BANKED_CODE:HUGECODE:NOROOT(0)
?Subroutine20:
          CFI Block cfiCond153 Using cfiCommon0
          CFI Function bdb_event_loop
          CFI Conditional ??CrossCallReturnLabel_30
          CFI R6 load(1, XDATA, add(CFA_XSP16, literal(-16)))
          CFI VB load(1, XDATA, add(CFA_XSP16, literal(-15)))
          CFI V0 load(1, XDATA, add(CFA_XSP16, literal(-14)))
          CFI V1 load(1, XDATA, add(CFA_XSP16, literal(-13)))
          CFI V2 load(1, XDATA, add(CFA_XSP16, literal(-12)))
          CFI V3 load(1, XDATA, add(CFA_XSP16, literal(-11)))
          CFI V4 load(1, XDATA, add(CFA_XSP16, literal(-10)))
          CFI V5 load(1, XDATA, add(CFA_XSP16, literal(-9)))
          CFI V6 load(1, XDATA, add(CFA_XSP16, literal(-8)))
          CFI V7 load(1, XDATA, add(CFA_XSP16, literal(-7)))
          CFI R7 load(1, XDATA, add(CFA_XSP16, literal(-6)))
          CFI ?RET_LOW load(1, XDATA, add(CFA_XSP16, literal(-5)))
          CFI ?RET_HIGH load(1, XDATA, add(CFA_XSP16, literal(-4)))
          CFI ?BRET_EXT load(1, XDATA, add(CFA_XSP16, literal(-3)))
          CFI DPL0 load(1, XDATA, add(CFA_XSP16, literal(-2)))
          CFI DPH0 load(1, XDATA, add(CFA_XSP16, literal(-1)))
          CFI CFA_SP SP+-2
          CFI CFA_XSP16 add(XSP16, 29)
          CFI Block cfiCond154 Using cfiCommon0
          CFI (cfiCond154) Function bdb_ProcessNodeDescRsp
          CFI (cfiCond154) Conditional ??CrossCallReturnLabel_31
          CFI (cfiCond154) R6 load(1, XDATA, add(CFA_XSP16, literal(-10)))
          CFI (cfiCond154) VB load(1, XDATA, add(CFA_XSP16, literal(-9)))
          CFI (cfiCond154) V0 load(1, XDATA, add(CFA_XSP16, literal(-8)))
          CFI (cfiCond154) V1 load(1, XDATA, add(CFA_XSP16, literal(-7)))
          CFI (cfiCond154) R7 load(1, XDATA, add(CFA_XSP16, literal(-6)))
          CFI (cfiCond154) ?RET_LOW load(1, XDATA, add(CFA_XSP16, literal(-5)))
          CFI (cfiCond154) ?RET_HIGH load(1, XDATA, add(CFA_XSP16, literal(-4)))
          CFI (cfiCond154) ?BRET_EXT load(1, XDATA, add(CFA_XSP16, literal(-3)))
          CFI (cfiCond154) DPL0 load(1, XDATA, add(CFA_XSP16, literal(-2)))
          CFI (cfiCond154) DPH0 load(1, XDATA, add(CFA_XSP16, literal(-1)))
          CFI (cfiCond154) CFA_SP SP+-2
          CFI (cfiCond154) CFA_XSP16 add(XSP16, 45)
          CFI Block cfiCond155 Using cfiCommon0
          CFI (cfiCond155) Function bdb_SendMsg
          CFI (cfiCond155) Conditional ??CrossCallReturnLabel_32
          CFI (cfiCond155) R6 load(1, XDATA, add(CFA_XSP16, literal(-17)))
          CFI (cfiCond155) VB load(1, XDATA, add(CFA_XSP16, literal(-16)))
          CFI (cfiCond155) V0 load(1, XDATA, add(CFA_XSP16, literal(-15)))
          CFI (cfiCond155) V1 load(1, XDATA, add(CFA_XSP16, literal(-14)))
          CFI (cfiCond155) V2 load(1, XDATA, add(CFA_XSP16, literal(-13)))
          CFI (cfiCond155) V3 load(1, XDATA, add(CFA_XSP16, literal(-12)))
          CFI (cfiCond155) V4 load(1, XDATA, add(CFA_XSP16, literal(-11)))
          CFI (cfiCond155) V5 load(1, XDATA, add(CFA_XSP16, literal(-10)))
          CFI (cfiCond155) V6 load(1, XDATA, add(CFA_XSP16, literal(-9)))
          CFI (cfiCond155) V7 load(1, XDATA, add(CFA_XSP16, literal(-8)))
          CFI (cfiCond155) V8 load(1, XDATA, add(CFA_XSP16, literal(-7)))
          CFI (cfiCond155) R7 load(1, XDATA, add(CFA_XSP16, literal(-6)))
          CFI (cfiCond155) ?RET_LOW load(1, XDATA, add(CFA_XSP16, literal(-5)))
          CFI (cfiCond155) ?RET_HIGH load(1, XDATA, add(CFA_XSP16, literal(-4)))
          CFI (cfiCond155) ?BRET_EXT load(1, XDATA, add(CFA_XSP16, literal(-3)))
          CFI (cfiCond155) DPL0 load(1, XDATA, add(CFA_XSP16, literal(-2)))
          CFI (cfiCond155) DPH0 load(1, XDATA, add(CFA_XSP16, literal(-1)))
          CFI (cfiCond155) CFA_SP SP+-2
          CFI (cfiCond155) CFA_XSP16 add(XSP16, 17)
          CFI Block cfiPicker156 Using cfiCommon1
          CFI (cfiPicker156) NoFunction
          CFI (cfiPicker156) Picker
        MOVX      A,@DPTR
        MOV       ?V0,A
        INC       DPTR
        MOVX      A,@DPTR
        MOV       ?V1,A
        RET
          CFI EndBlock cfiCond153
          CFI EndBlock cfiCond154
          CFI EndBlock cfiCond155
          CFI EndBlock cfiPicker156

        RSEG BANKED_CODE:HUGECODE:NOROOT(0)
?Subroutine1:
          CFI Block cfiBlock157 Using cfiCommon0
          CFI NoFunction
          CFI CFA_SP SP+0
          CFI CFA_XSP16 add(XSP16, 11)
          CFI VB load(1, XDATA, add(CFA_XSP16, literal(-9)))
          CFI DPL0 load(1, XDATA, add(CFA_XSP16, literal(-2)))
          CFI DPH0 load(1, XDATA, add(CFA_XSP16, literal(-1)))
          CFI R6 load(1, XDATA, add(CFA_XSP16, literal(-10)))
          CFI R7 load(1, XDATA, add(CFA_XSP16, literal(-6)))
          CFI V0 load(1, XDATA, add(CFA_XSP16, literal(-8)))
          CFI V1 load(1, XDATA, add(CFA_XSP16, literal(-7)))
          CFI ?BRET_EXT load(1, XDATA, add(CFA_XSP16, literal(-3)))
          CFI ?RET_HIGH load(1, XDATA, add(CFA_XSP16, literal(-4)))
          CFI ?RET_LOW load(1, XDATA, add(CFA_XSP16, literal(-5)))
        MOV       A,#0x1
          CFI EndBlock cfiBlock157
        REQUIRE ??Subroutine41_0
        ; // Fall through to label ??Subroutine41_0

        RSEG BANKED_CODE:HUGECODE:NOROOT(0)
??Subroutine41_0:
          CFI Block cfiBlock158 Using cfiCommon0
          CFI NoFunction
          CFI CFA_SP SP+0
          CFI CFA_XSP16 add(XSP16, 13)
          CFI VB load(1, XDATA, add(CFA_XSP16, literal(-9)))
          CFI DPL0 load(1, XDATA, add(CFA_XSP16, literal(-2)))
          CFI DPH0 load(1, XDATA, add(CFA_XSP16, literal(-1)))
          CFI R6 load(1, XDATA, add(CFA_XSP16, literal(-10)))
          CFI R7 load(1, XDATA, add(CFA_XSP16, literal(-6)))
          CFI V0 load(1, XDATA, add(CFA_XSP16, literal(-8)))
          CFI V1 load(1, XDATA, add(CFA_XSP16, literal(-7)))
          CFI ?BRET_EXT load(1, XDATA, add(CFA_XSP16, literal(-3)))
          CFI ?RET_HIGH load(1, XDATA, add(CFA_XSP16, literal(-4)))
          CFI ?RET_LOW load(1, XDATA, add(CFA_XSP16, literal(-5)))
          CFI Invalid
        LCALL     ?DEALLOC_XSTACK8
          CFI EndBlock cfiBlock158
        REQUIRE ??Subroutine42_0
        ; // Fall through to label ??Subroutine42_0

        RSEG BANKED_CODE:HUGECODE:NOROOT(0)
??Subroutine42_0:
          CFI Block cfiBlock159 Using cfiCommon0
          CFI NoFunction
          CFI CFA_SP SP+0
          CFI CFA_XSP16 add(XSP16, 10)
          CFI VB load(1, XDATA, add(CFA_XSP16, literal(-9)))
          CFI DPL0 load(1, XDATA, add(CFA_XSP16, literal(-2)))
          CFI DPH0 load(1, XDATA, add(CFA_XSP16, literal(-1)))
          CFI R6 load(1, XDATA, add(CFA_XSP16, literal(-10)))
          CFI R7 load(1, XDATA, add(CFA_XSP16, literal(-6)))
          CFI V0 load(1, XDATA, add(CFA_XSP16, literal(-8)))
          CFI V1 load(1, XDATA, add(CFA_XSP16, literal(-7)))
          CFI ?BRET_EXT load(1, XDATA, add(CFA_XSP16, literal(-3)))
          CFI ?RET_HIGH load(1, XDATA, add(CFA_XSP16, literal(-4)))
          CFI ?RET_LOW load(1, XDATA, add(CFA_XSP16, literal(-5)))
        MOV       R7,#0x2
        LJMP      ?BANKED_LEAVE_XDATA
          CFI EndBlock cfiBlock159
// 2835 
// 2836 
// 2837 /*********************************************************************
// 2838  * @fn          bdb_touchlinkSendFNReset
// 2839  *
// 2840  * @brief       Starts the Factory New Procedure for Initiator
// 2841  *
// 2842  * @param       isOnANetwork - TRUE if the devices is not FN, FALSE otherwise
// 2843  *
// 2844  * @return      none
// 2845  */

        RSEG BANKED_CODE:HUGECODE:NOROOT(0)
// 2846 void bdb_touchlinkSendFNReset( void )
bdb_touchlinkSendFNReset:
          CFI Block cfiBlock160 Using cfiCommon0
          CFI Function bdb_touchlinkSendFNReset
        CODE
// 2847 {
        ; Saved register size: 0
        ; Auto size: 0
// 2848 #ifdef BDB_TL_INITIATOR
// 2849   touchLinkInitiator_ResetToFNProcedure( );
// 2850 #endif
// 2851 }
        LJMP      ?BRET
          CFI EndBlock cfiBlock160
// 2852 
// 2853 
// 2854 /*********************************************************************
// 2855  * @fn          bdb_setNodeIsOnANetwork
// 2856  *
// 2857  * @brief       Sets and saves in Nv bdbNodeIsOnANetwork attribute
// 2858  *
// 2859  * @param       isOnANetwork - TRUE if the devices is not FN, FALSE otherwise
// 2860  *
// 2861  * @return      none
// 2862  */

        RSEG BANKED_CODE:HUGECODE:NOROOT(0)
// 2863 void bdb_setNodeIsOnANetwork(bool isOnANetwork)
bdb_setNodeIsOnANetwork:
          CFI Block cfiBlock161 Using cfiCommon0
          CFI Function bdb_setNodeIsOnANetwork
        CODE
// 2864 {
        FUNCALL bdb_setNodeIsOnANetwork, osal_nv_write
        LOCFRAME ISTACK, 0, STACK
        LOCFRAME PSTACK, 0, STACK
        LOCFRAME XSTACK, 14, STACK
        LOCFRAME IOVERLAY, 0, STATIC
        LOCFRAME DOVERLAY, 0, STATIC
        ARGFRAME ISTACK, 0, STACK
        ARGFRAME PSTACK, 0, STACK
        ARGFRAME XSTACK, 14, STACK
        ARGFRAME IOVERLAY, 0, STATIC
        ARGFRAME DOVERLAY, 0, STATIC
        REQUIRE ?V0
        REQUIRE ?V1
        MOV       A,#-0xa
        LCALL     ?BANKED_ENTER_XDATA
          CFI DPH0 load(1, XDATA, add(CFA_XSP16, literal(-1)))
          CFI DPL0 load(1, XDATA, add(CFA_XSP16, literal(-2)))
          CFI ?BRET_EXT load(1, XDATA, add(CFA_XSP16, literal(-3)))
          CFI ?RET_HIGH load(1, XDATA, add(CFA_XSP16, literal(-4)))
          CFI ?RET_LOW load(1, XDATA, add(CFA_XSP16, literal(-5)))
          CFI R7 load(1, XDATA, add(CFA_XSP16, literal(-6)))
          CFI V1 load(1, XDATA, add(CFA_XSP16, literal(-7)))
          CFI V0 load(1, XDATA, add(CFA_XSP16, literal(-8)))
          CFI VB load(1, XDATA, add(CFA_XSP16, literal(-9)))
          CFI R6 load(1, XDATA, add(CFA_XSP16, literal(-10)))
          CFI CFA_SP SP+0
          CFI CFA_XSP16 add(XSP16, 10)
        ; Saved register size: 10
        ; Auto size: 0
        MOV       A,R1
        MOV       R6,A
// 2865   if((bdbAttributes.bdbNodeIsOnANetwork != isOnANetwork) || (!bdb_initialization))
        MOV       DPTR,#bdbAttributes + 14
        MOVX      A,@DPTR
        XRL       A,R6
        JNZ       ??bdb_setNodeIsOnANetwork_0
        MOV       DPTR,#bdb_initialization
        MOVX      A,@DPTR
        JNZ       ??bdb_setNodeIsOnANetwork_1
// 2866   {
// 2867     //We lose our network
// 2868     if(!isOnANetwork)
??bdb_setNodeIsOnANetwork_0:
        MOV       A,R6
        JNZ       ??bdb_setNodeIsOnANetwork_2
// 2869     {
// 2870       bdbAttributes.bdbCommissioningMode = 0;
        MOV       DPTR,#bdbAttributes + 11
        CLR       A
        MOVX      @DPTR,A
// 2871     }
// 2872     
// 2873     bdbAttributes.bdbNodeIsOnANetwork = isOnANetwork;
??bdb_setNodeIsOnANetwork_2:
        MOV       A,R6
        MOV       DPTR,#bdbAttributes + 14
        MOVX      @DPTR,A
// 2874     
// 2875     osal_nv_write(ZCD_NV_BDBNODEISONANETWORK,0,sizeof(bdbAttributes.bdbNodeIsOnANetwork),&bdbAttributes.bdbNodeIsOnANetwork);
        ; Setup parameters for call to function osal_nv_write
        MOV       ?V0,#(bdbAttributes + 14) & 0xff
        MOV       ?V1,#((bdbAttributes + 14) >> 8) & 0xff
        MOV       R0,#?V0
        LCALL     ?PUSH_XSTACK_I_TWO
          CFI CFA_XSP16 add(XSP16, 12)
        MOV       ?V0,#0x1
        MOV       ?V1,#0x0
        MOV       R0,#?V0
        LCALL     ?PUSH_XSTACK_I_TWO
          CFI CFA_XSP16 add(XSP16, 14)
        MOV       R4,#0x0
        MOV       R5,#0x0
        MOV       R2,#0x55
        MOV       R3,#0x0
        LCALL     `??osal_nv_write::?relay`; Banked call to: osal_nv_write
        MOV       A,#0x4
        LCALL     ?DEALLOC_XSTACK8
          CFI CFA_XSP16 add(XSP16, 10)
// 2876   }
// 2877 }
??bdb_setNodeIsOnANetwork_1:
        SJMP      ??Subroutine42_0
          CFI EndBlock cfiBlock161
// 2878 
// 2879 /*********************************************************************
// 2880  * @fn          bdb_setCommissioningGroupID
// 2881  *
// 2882  * @brief       Sets the commissioning groupd ID
// 2883  *
// 2884  * @param       groupID
// 2885  *
// 2886  * @return      none
// 2887  */

        RSEG BANKED_CODE:HUGECODE:NOROOT(0)
// 2888 void bdb_setCommissioningGroupID(uint16 groupID)
bdb_setCommissioningGroupID:
          CFI Block cfiBlock162 Using cfiCommon0
          CFI Function bdb_setCommissioningGroupID
        CODE
// 2889 {
        PUSH      DPL
          CFI DPL0 Frame(CFA_SP, 4)
          CFI CFA_SP SP+-4
        PUSH      DPH
          CFI DPH0 Frame(CFA_SP, 5)
          CFI CFA_SP SP+-5
        ; Saved register size: 2
        ; Auto size: 0
// 2890   bdbAttributes.bdbCommissioningGroupID = groupID;
        MOV       DPTR,#bdbAttributes + 8
        LJMP      ?Subroutine3 & 0xFFFF
// 2891 }
          CFI EndBlock cfiBlock162
// 2892 
// 2893 /*********************************************************************
// 2894  * @fn      bdb_CreateRespondentList
// 2895  *
// 2896  * @brief   Create respondent list for finding and binding if empty
// 2897  *
// 2898  * @param   pHead - pointer to a pointer of the list head
// 2899  *
// 2900  * @return  none
// 2901  */

        RSEG BANKED_CODE:HUGECODE:NOROOT(0)
// 2902 void bdb_CreateRespondentList( bdbFindingBindingRespondent_t **pHead )
bdb_CreateRespondentList:
          CFI Block cfiBlock163 Using cfiCommon0
          CFI Function bdb_CreateRespondentList
        CODE
// 2903 {
        FUNCALL bdb_CreateRespondentList, osal_mem_alloc
        LOCFRAME ISTACK, 0, STACK
        LOCFRAME PSTACK, 0, STACK
        LOCFRAME XSTACK, 10, STACK
        LOCFRAME IOVERLAY, 0, STATIC
        LOCFRAME DOVERLAY, 0, STATIC
        ARGFRAME ISTACK, 0, STACK
        ARGFRAME PSTACK, 0, STACK
        ARGFRAME XSTACK, 10, STACK
        ARGFRAME IOVERLAY, 0, STATIC
        ARGFRAME DOVERLAY, 0, STATIC
        REQUIRE ?V0
        REQUIRE ?V1
        MOV       A,#-0xa
        LCALL     ?BANKED_ENTER_XDATA
          CFI DPH0 load(1, XDATA, add(CFA_XSP16, literal(-1)))
          CFI DPL0 load(1, XDATA, add(CFA_XSP16, literal(-2)))
          CFI ?BRET_EXT load(1, XDATA, add(CFA_XSP16, literal(-3)))
          CFI ?RET_HIGH load(1, XDATA, add(CFA_XSP16, literal(-4)))
          CFI ?RET_LOW load(1, XDATA, add(CFA_XSP16, literal(-5)))
          CFI R7 load(1, XDATA, add(CFA_XSP16, literal(-6)))
          CFI V1 load(1, XDATA, add(CFA_XSP16, literal(-7)))
          CFI V0 load(1, XDATA, add(CFA_XSP16, literal(-8)))
          CFI VB load(1, XDATA, add(CFA_XSP16, literal(-9)))
          CFI R6 load(1, XDATA, add(CFA_XSP16, literal(-10)))
          CFI CFA_SP SP+0
          CFI CFA_XSP16 add(XSP16, 10)
        ; Saved register size: 10
        ; Auto size: 0
        LCALL     ?Subroutine13 & 0xFFFF
// 2904 
// 2905   // Create the list if empty
// 2906   if ( *pHead == NULL )
??CrossCallReturnLabel_68:
        JNZ       ??CrossCallReturnLabel_43
// 2907   {
// 2908     *pHead = ( bdbFindingBindingRespondent_t* )osal_mem_alloc( sizeof( bdbFindingBindingRespondent_t ) );
        ; Setup parameters for call to function osal_mem_alloc
        MOV       R2,#0x11
        MOV       R3,#0x0
        LCALL     `??osal_mem_alloc::?relay`; Banked call to: osal_mem_alloc
        MOV       ?V0,R2
        MOV       ?V1,R3
        MOV       R0,?V0
        MOV       R1,?V1
        MOV       DPL,R6
        MOV       DPH,R7
        MOV       A,R0
        MOVX      @DPTR,A
        INC       DPTR
        MOV       A,R1
        MOVX      @DPTR,A
// 2909     
// 2910     if ( *pHead != NULL )
        MOV       A,R0
        ORL       A,R1
        JZ        ??CrossCallReturnLabel_43
// 2911     {
// 2912       (*pHead)->pNext = NULL;
        LCALL     ?Subroutine24 & 0xFFFF
// 2913     }
// 2914   }
// 2915   return;
??CrossCallReturnLabel_43:
        LJMP      ??Subroutine42_0 & 0xFFFF
// 2916 }
          CFI EndBlock cfiBlock163
// 2917 
// 2918 /*********************************************************************
// 2919  * @fn      bdb_AddRespondentNode
// 2920  *
// 2921  * @brief   Add node to respondent list for finding and binding
// 2922  *
// 2923  * @param   pHead - pointer to a pointer of the list head
// 2924  *
// 2925  * @return  pointer to new node
// 2926  */

        RSEG BANKED_CODE:HUGECODE:NOROOT(0)
// 2927 bdbFindingBindingRespondent_t* bdb_AddRespondentNode( bdbFindingBindingRespondent_t **pHead, zclIdentifyQueryRsp_t *pCmd )
bdb_AddRespondentNode:
          CFI Block cfiBlock164 Using cfiCommon0
          CFI Function bdb_AddRespondentNode
        CODE
// 2928 {
        FUNCALL bdb_AddRespondentNode, bdb_CreateRespondentList
        LOCFRAME ISTACK, 0, STACK
        LOCFRAME PSTACK, 0, STACK
        LOCFRAME XSTACK, 10, STACK
        LOCFRAME IOVERLAY, 0, STATIC
        LOCFRAME DOVERLAY, 0, STATIC
        ARGFRAME ISTACK, 0, STACK
        ARGFRAME PSTACK, 0, STACK
        ARGFRAME XSTACK, 10, STACK
        ARGFRAME IOVERLAY, 0, STATIC
        ARGFRAME DOVERLAY, 0, STATIC
        FUNCALL bdb_AddRespondentNode, osal_mem_alloc
        LOCFRAME ISTACK, 0, STACK
        LOCFRAME PSTACK, 0, STACK
        LOCFRAME XSTACK, 10, STACK
        LOCFRAME IOVERLAY, 0, STATIC
        LOCFRAME DOVERLAY, 0, STATIC
        ARGFRAME ISTACK, 0, STACK
        ARGFRAME PSTACK, 0, STACK
        ARGFRAME XSTACK, 10, STACK
        ARGFRAME IOVERLAY, 0, STATIC
        ARGFRAME DOVERLAY, 0, STATIC
        REQUIRE ?V0
        REQUIRE ?V1
        MOV       A,#-0xa
        LCALL     ?BANKED_ENTER_XDATA
          CFI DPH0 load(1, XDATA, add(CFA_XSP16, literal(-1)))
          CFI DPL0 load(1, XDATA, add(CFA_XSP16, literal(-2)))
          CFI ?BRET_EXT load(1, XDATA, add(CFA_XSP16, literal(-3)))
          CFI ?RET_HIGH load(1, XDATA, add(CFA_XSP16, literal(-4)))
          CFI ?RET_LOW load(1, XDATA, add(CFA_XSP16, literal(-5)))
          CFI R7 load(1, XDATA, add(CFA_XSP16, literal(-6)))
          CFI V1 load(1, XDATA, add(CFA_XSP16, literal(-7)))
          CFI V0 load(1, XDATA, add(CFA_XSP16, literal(-8)))
          CFI VB load(1, XDATA, add(CFA_XSP16, literal(-9)))
          CFI R6 load(1, XDATA, add(CFA_XSP16, literal(-10)))
          CFI CFA_SP SP+0
          CFI CFA_XSP16 add(XSP16, 10)
        ; Saved register size: 10
        ; Auto size: 0
        LCALL     ?Subroutine13 & 0xFFFF
// 2929   bdbFindingBindingRespondent_t **pCurr;
// 2930   bdbFindingBindingRespondent_t *temp;
// 2931   
// 2932     // Create respondent list if empty
// 2933   if ( *pHead == NULL )
??CrossCallReturnLabel_69:
        JNZ       ??bdb_AddRespondentNode_0
// 2934   {
// 2935     bdb_CreateRespondentList( pHead );
        ; Setup parameters for call to function bdb_CreateRespondentList
        LCALL     `??bdb_CreateRespondentList::?relay`; Banked call to: bdb_CreateRespondentList
// 2936     return *pHead;
        LJMP      ??CrossCallReturnLabel_44 & 0xFFFF
// 2937   }
// 2938   else
// 2939   {
// 2940     // if pCmd is equal to NULL, don't look for duplucates
// 2941     if( pCmd != NULL )
??bdb_AddRespondentNode_0:
        MOV       A,R4
        ORL       A,R5
        JZ        ??bdb_AddRespondentNode_1
// 2942     {
// 2943       //Find if any duplicate in the list
// 2944       temp = *pHead;
        MOV       A,R0
        MOV       R2,A
        MOV       A,R1
        MOV       R3,A
        MOV       DPL,R4
        MOV       DPH,R5
        LCALL     ?Subroutine21 & 0xFFFF
// 2945       
// 2946       while(temp != NULL)
// 2947       {
// 2948         if((temp->data.endPoint == pCmd->srcAddr->endPoint) && (temp->data.panId == pCmd->srcAddr->panId))
??CrossCallReturnLabel_35:
        MOV       DPL,R2
        MOV       DPH,R3
        INC       DPTR
        INC       DPTR
        INC       DPTR
        INC       DPTR
        INC       DPTR
        INC       DPTR
        INC       DPTR
        INC       DPTR
        INC       DPTR
        MOVX      A,@DPTR
        MOV       R6,A
        MOV       DPL,R4
        MOV       DPH,R5
        INC       DPTR
        INC       DPTR
        INC       DPTR
        INC       DPTR
        INC       DPTR
        INC       DPTR
        INC       DPTR
        INC       DPTR
        INC       DPTR
        MOVX      A,@DPTR
        XRL       A,R6
        JNZ       ??bdb_AddRespondentNode_2
        MOV       DPL,R2
        MOV       DPH,R3
        INC       DPTR
        INC       DPTR
        INC       DPTR
        INC       DPTR
        INC       DPTR
        INC       DPTR
        INC       DPTR
        INC       DPTR
        INC       DPTR
        INC       DPTR
        LCALL     ?Subroutine23 & 0xFFFF
??CrossCallReturnLabel_41:
        INC       DPTR
        INC       DPTR
        INC       DPTR
        INC       DPTR
        INC       DPTR
        INC       DPTR
        INC       DPTR
        INC       DPTR
        INC       DPTR
        INC       DPTR
        MOVX      A,@DPTR
        XRL       A,R6
        JNZ       ??bdb_AddRespondentNode_3
        INC       DPTR
        MOVX      A,@DPTR
        XRL       A,R7
??bdb_AddRespondentNode_3:
        JNZ       ??bdb_AddRespondentNode_2
// 2949         {
// 2950           //Duplicate
// 2951           if(temp->data.addr.shortAddr == pCmd->srcAddr->addr.shortAddr)
        MOV       DPL,R2
        MOV       DPH,R3
        LCALL     ?Subroutine23 & 0xFFFF
// 2952           {
// 2953             return NULL;
// 2954           }
// 2955         }
??CrossCallReturnLabel_42:
        MOVX      A,@DPTR
        XRL       A,R6
        JNZ       ??bdb_AddRespondentNode_4
        INC       DPTR
        MOVX      A,@DPTR
        XRL       A,R7
??bdb_AddRespondentNode_4:
        JZ        ??bdb_AddRespondentNode_5
// 2956         temp = temp->pNext;
??bdb_AddRespondentNode_2:
        MOV       A,R2
        ADD       A,#0xf
        MOV       DPL,A
        CLR       A
        ADDC      A,R3
        MOV       DPH,A
        LCALL     ?Subroutine15 & 0xFFFF
// 2957       }
// 2958     }
??CrossCallReturnLabel_20:
        JNZ       ??CrossCallReturnLabel_35
// 2959     
// 2960     pCurr = &((*pHead)->pNext);
// 2961     
// 2962     while ( *pCurr != NULL )
// 2963     {
// 2964       pCurr = &((*pCurr)->pNext);
??bdb_AddRespondentNode_1:
        MOV       A,R0
        ADD       A,#0xf
        MOV       R6,A
        CLR       A
        ADDC      A,R1
        LCALL     ??Subroutine36_0 & 0xFFFF
// 2965     }
??CrossCallReturnLabel_71:
        JNZ       ??bdb_AddRespondentNode_1
// 2966 
// 2967     *pCurr = ( bdbFindingBindingRespondent_t* )osal_mem_alloc( sizeof( bdbFindingBindingRespondent_t ) );
        ; Setup parameters for call to function osal_mem_alloc
        MOV       R2,#0x11
        MOV       R3,#0x0
        LCALL     `??osal_mem_alloc::?relay`; Banked call to: osal_mem_alloc
        MOV       ?V0,R2
        MOV       ?V1,R3
        MOV       R0,?V0
        MOV       R1,?V1
        MOV       DPL,R6
        MOV       DPH,R7
        MOV       A,R0
        MOVX      @DPTR,A
        INC       DPTR
        MOV       A,R1
        MOVX      @DPTR,A
// 2968     
// 2969     if(*pCurr == NULL)
        MOV       A,R0
        ORL       A,R1
        JNZ       ??bdb_AddRespondentNode_6
// 2970     {
// 2971       //No memory
// 2972       return NULL;
??bdb_AddRespondentNode_5:
        MOV       R2,#0x0
        MOV       R3,#0x0
        SJMP      ??CrossCallReturnLabel_100
// 2973     }
// 2974     
// 2975     (*pCurr)->pNext = NULL;
??bdb_AddRespondentNode_6:
        LCALL     ?Subroutine24 & 0xFFFF
// 2976   }
// 2977   
// 2978   return *pCurr;
??CrossCallReturnLabel_44:
        MOV       DPL,R6
        MOV       DPH,R7
        LCALL     ??Subroutine43_0 & 0xFFFF
??CrossCallReturnLabel_100:
        LJMP      ??Subroutine42_0 & 0xFFFF
// 2979 }
          CFI EndBlock cfiBlock164

        RSEG BANKED_CODE:HUGECODE:NOROOT(0)
?Subroutine24:
          CFI Block cfiCond165 Using cfiCommon0
          CFI Function bdb_CreateRespondentList
          CFI Conditional ??CrossCallReturnLabel_43
          CFI R6 load(1, XDATA, add(CFA_XSP16, literal(-10)))
          CFI VB load(1, XDATA, add(CFA_XSP16, literal(-9)))
          CFI V0 load(1, XDATA, add(CFA_XSP16, literal(-8)))
          CFI V1 load(1, XDATA, add(CFA_XSP16, literal(-7)))
          CFI R7 load(1, XDATA, add(CFA_XSP16, literal(-6)))
          CFI ?RET_LOW load(1, XDATA, add(CFA_XSP16, literal(-5)))
          CFI ?RET_HIGH load(1, XDATA, add(CFA_XSP16, literal(-4)))
          CFI ?BRET_EXT load(1, XDATA, add(CFA_XSP16, literal(-3)))
          CFI DPL0 load(1, XDATA, add(CFA_XSP16, literal(-2)))
          CFI DPH0 load(1, XDATA, add(CFA_XSP16, literal(-1)))
          CFI CFA_SP SP+-2
          CFI CFA_XSP16 add(XSP16, 10)
          CFI Block cfiCond166 Using cfiCommon0
          CFI (cfiCond166) Function bdb_AddRespondentNode
          CFI (cfiCond166) Conditional ??CrossCallReturnLabel_44
          CFI (cfiCond166) R6 load(1, XDATA, add(CFA_XSP16, literal(-10)))
          CFI (cfiCond166) VB load(1, XDATA, add(CFA_XSP16, literal(-9)))
          CFI (cfiCond166) V0 load(1, XDATA, add(CFA_XSP16, literal(-8)))
          CFI (cfiCond166) V1 load(1, XDATA, add(CFA_XSP16, literal(-7)))
          CFI (cfiCond166) R7 load(1, XDATA, add(CFA_XSP16, literal(-6)))
          CFI (cfiCond166) ?RET_LOW load(1, XDATA, add(CFA_XSP16, literal(-5)))
          CFI (cfiCond166) ?RET_HIGH load(1, XDATA, add(CFA_XSP16, literal(-4)))
          CFI (cfiCond166) ?BRET_EXT load(1, XDATA, add(CFA_XSP16, literal(-3)))
          CFI (cfiCond166) DPL0 load(1, XDATA, add(CFA_XSP16, literal(-2)))
          CFI (cfiCond166) DPH0 load(1, XDATA, add(CFA_XSP16, literal(-1)))
          CFI (cfiCond166) CFA_SP SP+-2
          CFI (cfiCond166) CFA_XSP16 add(XSP16, 10)
          CFI Block cfiPicker167 Using cfiCommon1
          CFI (cfiPicker167) NoFunction
          CFI (cfiPicker167) Picker
        LCALL     ?Subroutine29 & 0xFFFF
??CrossCallReturnLabel_56:
        CLR       A
        MOVX      @DPTR,A
        INC       DPTR
        MOVX      @DPTR,A
        RET
          CFI EndBlock cfiCond165
          CFI EndBlock cfiCond166
          CFI EndBlock cfiPicker167

        RSEG BANKED_CODE:HUGECODE:NOROOT(0)
?Subroutine29:
          CFI Block cfiCond168 Using cfiCommon0
          CFI Function bdb_NetworkRestoredResumeState
          CFI Conditional ??CrossCallReturnLabel_55
          CFI DPL0 Frame(CFA_SP, 4)
          CFI DPH0 Frame(CFA_SP, 5)
          CFI CFA_SP SP+-7
          CFI Block cfiCond169 Using cfiCommon0
          CFI (cfiCond169) Function bdb_CreateRespondentList
          CFI (cfiCond169) Conditional ??CrossCallReturnLabel_56, ??CrossCallReturnLabel_43
          CFI (cfiCond169) R6 load(1, XDATA, add(CFA_XSP16, literal(-10)))
          CFI (cfiCond169) VB load(1, XDATA, add(CFA_XSP16, literal(-9)))
          CFI (cfiCond169) V0 load(1, XDATA, add(CFA_XSP16, literal(-8)))
          CFI (cfiCond169) V1 load(1, XDATA, add(CFA_XSP16, literal(-7)))
          CFI (cfiCond169) R7 load(1, XDATA, add(CFA_XSP16, literal(-6)))
          CFI (cfiCond169) ?RET_LOW load(1, XDATA, add(CFA_XSP16, literal(-5)))
          CFI (cfiCond169) ?RET_HIGH load(1, XDATA, add(CFA_XSP16, literal(-4)))
          CFI (cfiCond169) ?BRET_EXT load(1, XDATA, add(CFA_XSP16, literal(-3)))
          CFI (cfiCond169) DPL0 load(1, XDATA, add(CFA_XSP16, literal(-2)))
          CFI (cfiCond169) DPH0 load(1, XDATA, add(CFA_XSP16, literal(-1)))
          CFI (cfiCond169) CFA_SP SP+-4
          CFI (cfiCond169) CFA_XSP16 add(XSP16, 10)
          CFI Block cfiCond170 Using cfiCommon0
          CFI (cfiCond170) Function bdb_AddRespondentNode
          CFI (cfiCond170) Conditional ??CrossCallReturnLabel_56, ??CrossCallReturnLabel_44
          CFI (cfiCond170) R6 load(1, XDATA, add(CFA_XSP16, literal(-10)))
          CFI (cfiCond170) VB load(1, XDATA, add(CFA_XSP16, literal(-9)))
          CFI (cfiCond170) V0 load(1, XDATA, add(CFA_XSP16, literal(-8)))
          CFI (cfiCond170) V1 load(1, XDATA, add(CFA_XSP16, literal(-7)))
          CFI (cfiCond170) R7 load(1, XDATA, add(CFA_XSP16, literal(-6)))
          CFI (cfiCond170) ?RET_LOW load(1, XDATA, add(CFA_XSP16, literal(-5)))
          CFI (cfiCond170) ?RET_HIGH load(1, XDATA, add(CFA_XSP16, literal(-4)))
          CFI (cfiCond170) ?BRET_EXT load(1, XDATA, add(CFA_XSP16, literal(-3)))
          CFI (cfiCond170) DPL0 load(1, XDATA, add(CFA_XSP16, literal(-2)))
          CFI (cfiCond170) DPH0 load(1, XDATA, add(CFA_XSP16, literal(-1)))
          CFI (cfiCond170) CFA_SP SP+-4
          CFI (cfiCond170) CFA_XSP16 add(XSP16, 10)
          CFI Block cfiPicker171 Using cfiCommon1
          CFI (cfiPicker171) NoFunction
          CFI (cfiPicker171) Picker
        MOV       A,R0
        ADD       A,#0xf
        MOV       DPL,A
        CLR       A
        ADDC      A,R1
        MOV       DPH,A
        RET
          CFI EndBlock cfiCond168
          CFI EndBlock cfiCond169
          CFI EndBlock cfiCond170
          CFI EndBlock cfiPicker171

        RSEG BANKED_CODE:HUGECODE:NOROOT(0)
?Subroutine23:
          CFI Block cfiCond172 Using cfiCommon0
          CFI Function bdb_AddRespondentNode
          CFI Conditional ??CrossCallReturnLabel_41
          CFI R6 load(1, XDATA, add(CFA_XSP16, literal(-10)))
          CFI VB load(1, XDATA, add(CFA_XSP16, literal(-9)))
          CFI V0 load(1, XDATA, add(CFA_XSP16, literal(-8)))
          CFI V1 load(1, XDATA, add(CFA_XSP16, literal(-7)))
          CFI R7 load(1, XDATA, add(CFA_XSP16, literal(-6)))
          CFI ?RET_LOW load(1, XDATA, add(CFA_XSP16, literal(-5)))
          CFI ?RET_HIGH load(1, XDATA, add(CFA_XSP16, literal(-4)))
          CFI ?BRET_EXT load(1, XDATA, add(CFA_XSP16, literal(-3)))
          CFI DPL0 load(1, XDATA, add(CFA_XSP16, literal(-2)))
          CFI DPH0 load(1, XDATA, add(CFA_XSP16, literal(-1)))
          CFI CFA_SP SP+-2
          CFI CFA_XSP16 add(XSP16, 10)
          CFI Block cfiCond173 Using cfiCommon0
          CFI (cfiCond173) Function bdb_AddRespondentNode
          CFI (cfiCond173) Conditional ??CrossCallReturnLabel_42
          CFI (cfiCond173) R6 load(1, XDATA, add(CFA_XSP16, literal(-10)))
          CFI (cfiCond173) VB load(1, XDATA, add(CFA_XSP16, literal(-9)))
          CFI (cfiCond173) V0 load(1, XDATA, add(CFA_XSP16, literal(-8)))
          CFI (cfiCond173) V1 load(1, XDATA, add(CFA_XSP16, literal(-7)))
          CFI (cfiCond173) R7 load(1, XDATA, add(CFA_XSP16, literal(-6)))
          CFI (cfiCond173) ?RET_LOW load(1, XDATA, add(CFA_XSP16, literal(-5)))
          CFI (cfiCond173) ?RET_HIGH load(1, XDATA, add(CFA_XSP16, literal(-4)))
          CFI (cfiCond173) ?BRET_EXT load(1, XDATA, add(CFA_XSP16, literal(-3)))
          CFI (cfiCond173) DPL0 load(1, XDATA, add(CFA_XSP16, literal(-2)))
          CFI (cfiCond173) DPH0 load(1, XDATA, add(CFA_XSP16, literal(-1)))
          CFI (cfiCond173) CFA_SP SP+-2
          CFI (cfiCond173) CFA_XSP16 add(XSP16, 10)
          CFI Block cfiPicker174 Using cfiCommon1
          CFI (cfiPicker174) NoFunction
          CFI (cfiPicker174) Picker
        LCALL     ?Subroutine28 & 0xFFFF
??CrossCallReturnLabel_54:
        MOV       DPL,R4
        MOV       DPH,R5
        RET
          CFI EndBlock cfiCond172
          CFI EndBlock cfiCond173
          CFI EndBlock cfiPicker174

        RSEG BANKED_CODE:HUGECODE:NOROOT(0)
?Subroutine28:
          CFI Block cfiCond175 Using cfiCommon0
          CFI Function bdb_filterNwkDisc
          CFI Conditional ??CrossCallReturnLabel_51
          CFI R6 load(1, XDATA, add(CFA_XSP16, literal(-11)))
          CFI VB load(1, XDATA, add(CFA_XSP16, literal(-10)))
          CFI V0 load(1, XDATA, add(CFA_XSP16, literal(-9)))
          CFI V1 load(1, XDATA, add(CFA_XSP16, literal(-8)))
          CFI V2 load(1, XDATA, add(CFA_XSP16, literal(-7)))
          CFI R7 load(1, XDATA, add(CFA_XSP16, literal(-6)))
          CFI ?RET_LOW load(1, XDATA, add(CFA_XSP16, literal(-5)))
          CFI ?RET_HIGH load(1, XDATA, add(CFA_XSP16, literal(-4)))
          CFI ?BRET_EXT load(1, XDATA, add(CFA_XSP16, literal(-3)))
          CFI DPL0 load(1, XDATA, add(CFA_XSP16, literal(-2)))
          CFI DPH0 load(1, XDATA, add(CFA_XSP16, literal(-1)))
          CFI CFA_SP SP+-2
          CFI CFA_XSP16 add(XSP16, 11)
          CFI Block cfiCond176 Using cfiCommon0
          CFI (cfiCond176) Function bdb_filterNwkDisc
          CFI (cfiCond176) Conditional ??CrossCallReturnLabel_52
          CFI (cfiCond176) R6 load(1, XDATA, add(CFA_XSP16, literal(-11)))
          CFI (cfiCond176) VB load(1, XDATA, add(CFA_XSP16, literal(-10)))
          CFI (cfiCond176) V0 load(1, XDATA, add(CFA_XSP16, literal(-9)))
          CFI (cfiCond176) V1 load(1, XDATA, add(CFA_XSP16, literal(-8)))
          CFI (cfiCond176) V2 load(1, XDATA, add(CFA_XSP16, literal(-7)))
          CFI (cfiCond176) R7 load(1, XDATA, add(CFA_XSP16, literal(-6)))
          CFI (cfiCond176) ?RET_LOW load(1, XDATA, add(CFA_XSP16, literal(-5)))
          CFI (cfiCond176) ?RET_HIGH load(1, XDATA, add(CFA_XSP16, literal(-4)))
          CFI (cfiCond176) ?BRET_EXT load(1, XDATA, add(CFA_XSP16, literal(-3)))
          CFI (cfiCond176) DPL0 load(1, XDATA, add(CFA_XSP16, literal(-2)))
          CFI (cfiCond176) DPH0 load(1, XDATA, add(CFA_XSP16, literal(-1)))
          CFI (cfiCond176) CFA_SP SP+-2
          CFI (cfiCond176) CFA_XSP16 add(XSP16, 11)
          CFI Block cfiCond177 Using cfiCommon0
          CFI (cfiCond177) Function bdb_filterNwkDisc
          CFI (cfiCond177) Conditional ??CrossCallReturnLabel_53
          CFI (cfiCond177) R6 load(1, XDATA, add(CFA_XSP16, literal(-11)))
          CFI (cfiCond177) VB load(1, XDATA, add(CFA_XSP16, literal(-10)))
          CFI (cfiCond177) V0 load(1, XDATA, add(CFA_XSP16, literal(-9)))
          CFI (cfiCond177) V1 load(1, XDATA, add(CFA_XSP16, literal(-8)))
          CFI (cfiCond177) V2 load(1, XDATA, add(CFA_XSP16, literal(-7)))
          CFI (cfiCond177) R7 load(1, XDATA, add(CFA_XSP16, literal(-6)))
          CFI (cfiCond177) ?RET_LOW load(1, XDATA, add(CFA_XSP16, literal(-5)))
          CFI (cfiCond177) ?RET_HIGH load(1, XDATA, add(CFA_XSP16, literal(-4)))
          CFI (cfiCond177) ?BRET_EXT load(1, XDATA, add(CFA_XSP16, literal(-3)))
          CFI (cfiCond177) DPL0 load(1, XDATA, add(CFA_XSP16, literal(-2)))
          CFI (cfiCond177) DPH0 load(1, XDATA, add(CFA_XSP16, literal(-1)))
          CFI (cfiCond177) CFA_SP SP+-2
          CFI (cfiCond177) CFA_XSP16 add(XSP16, 11)
          CFI Block cfiCond178 Using cfiCommon0
          CFI (cfiCond178) Function bdb_AddRespondentNode
          CFI (cfiCond178) Conditional ??CrossCallReturnLabel_54, ??CrossCallReturnLabel_41
          CFI (cfiCond178) R6 load(1, XDATA, add(CFA_XSP16, literal(-10)))
          CFI (cfiCond178) VB load(1, XDATA, add(CFA_XSP16, literal(-9)))
          CFI (cfiCond178) V0 load(1, XDATA, add(CFA_XSP16, literal(-8)))
          CFI (cfiCond178) V1 load(1, XDATA, add(CFA_XSP16, literal(-7)))
          CFI (cfiCond178) R7 load(1, XDATA, add(CFA_XSP16, literal(-6)))
          CFI (cfiCond178) ?RET_LOW load(1, XDATA, add(CFA_XSP16, literal(-5)))
          CFI (cfiCond178) ?RET_HIGH load(1, XDATA, add(CFA_XSP16, literal(-4)))
          CFI (cfiCond178) ?BRET_EXT load(1, XDATA, add(CFA_XSP16, literal(-3)))
          CFI (cfiCond178) DPL0 load(1, XDATA, add(CFA_XSP16, literal(-2)))
          CFI (cfiCond178) DPH0 load(1, XDATA, add(CFA_XSP16, literal(-1)))
          CFI (cfiCond178) CFA_SP SP+-4
          CFI (cfiCond178) CFA_XSP16 add(XSP16, 10)
          CFI Block cfiCond179 Using cfiCommon0
          CFI (cfiCond179) Function bdb_AddRespondentNode
          CFI (cfiCond179) Conditional ??CrossCallReturnLabel_54, ??CrossCallReturnLabel_42
          CFI (cfiCond179) R6 load(1, XDATA, add(CFA_XSP16, literal(-10)))
          CFI (cfiCond179) VB load(1, XDATA, add(CFA_XSP16, literal(-9)))
          CFI (cfiCond179) V0 load(1, XDATA, add(CFA_XSP16, literal(-8)))
          CFI (cfiCond179) V1 load(1, XDATA, add(CFA_XSP16, literal(-7)))
          CFI (cfiCond179) R7 load(1, XDATA, add(CFA_XSP16, literal(-6)))
          CFI (cfiCond179) ?RET_LOW load(1, XDATA, add(CFA_XSP16, literal(-5)))
          CFI (cfiCond179) ?RET_HIGH load(1, XDATA, add(CFA_XSP16, literal(-4)))
          CFI (cfiCond179) ?BRET_EXT load(1, XDATA, add(CFA_XSP16, literal(-3)))
          CFI (cfiCond179) DPL0 load(1, XDATA, add(CFA_XSP16, literal(-2)))
          CFI (cfiCond179) DPH0 load(1, XDATA, add(CFA_XSP16, literal(-1)))
          CFI (cfiCond179) CFA_SP SP+-4
          CFI (cfiCond179) CFA_XSP16 add(XSP16, 10)
          CFI Block cfiPicker180 Using cfiCommon1
          CFI (cfiPicker180) NoFunction
          CFI (cfiPicker180) Picker
        MOVX      A,@DPTR
        MOV       R6,A
        INC       DPTR
        MOVX      A,@DPTR
        MOV       R7,A
        RET
          CFI EndBlock cfiCond175
          CFI EndBlock cfiCond176
          CFI EndBlock cfiCond177
          CFI EndBlock cfiCond178
          CFI EndBlock cfiCond179
          CFI EndBlock cfiPicker180

        RSEG BANKED_CODE:HUGECODE:NOROOT(0)
?Subroutine21:
          CFI Block cfiCond181 Using cfiCommon0
          CFI Function bdb_NetworkRestoredResumeState
          CFI Conditional ??CrossCallReturnLabel_33
          CFI DPL0 Frame(CFA_SP, 4)
          CFI DPH0 Frame(CFA_SP, 5)
          CFI CFA_SP SP+-7
          CFI Block cfiCond182 Using cfiCommon0
          CFI (cfiCond182) Function bdb_joinProcess
          CFI (cfiCond182) Conditional ??CrossCallReturnLabel_34
          CFI (cfiCond182) R6 load(1, XDATA, add(CFA_XSP16, literal(-10)))
          CFI (cfiCond182) VB load(1, XDATA, add(CFA_XSP16, literal(-9)))
          CFI (cfiCond182) V0 load(1, XDATA, add(CFA_XSP16, literal(-8)))
          CFI (cfiCond182) V1 load(1, XDATA, add(CFA_XSP16, literal(-7)))
          CFI (cfiCond182) R7 load(1, XDATA, add(CFA_XSP16, literal(-6)))
          CFI (cfiCond182) ?RET_LOW load(1, XDATA, add(CFA_XSP16, literal(-5)))
          CFI (cfiCond182) ?RET_HIGH load(1, XDATA, add(CFA_XSP16, literal(-4)))
          CFI (cfiCond182) ?BRET_EXT load(1, XDATA, add(CFA_XSP16, literal(-3)))
          CFI (cfiCond182) DPL0 load(1, XDATA, add(CFA_XSP16, literal(-2)))
          CFI (cfiCond182) DPH0 load(1, XDATA, add(CFA_XSP16, literal(-1)))
          CFI (cfiCond182) CFA_SP SP+-2
          CFI (cfiCond182) CFA_XSP16 add(XSP16, 14)
          CFI Block cfiCond183 Using cfiCommon0
          CFI (cfiCond183) Function bdb_AddRespondentNode
          CFI (cfiCond183) Conditional ??CrossCallReturnLabel_35
          CFI (cfiCond183) R6 load(1, XDATA, add(CFA_XSP16, literal(-10)))
          CFI (cfiCond183) VB load(1, XDATA, add(CFA_XSP16, literal(-9)))
          CFI (cfiCond183) V0 load(1, XDATA, add(CFA_XSP16, literal(-8)))
          CFI (cfiCond183) V1 load(1, XDATA, add(CFA_XSP16, literal(-7)))
          CFI (cfiCond183) R7 load(1, XDATA, add(CFA_XSP16, literal(-6)))
          CFI (cfiCond183) ?RET_LOW load(1, XDATA, add(CFA_XSP16, literal(-5)))
          CFI (cfiCond183) ?RET_HIGH load(1, XDATA, add(CFA_XSP16, literal(-4)))
          CFI (cfiCond183) ?BRET_EXT load(1, XDATA, add(CFA_XSP16, literal(-3)))
          CFI (cfiCond183) DPL0 load(1, XDATA, add(CFA_XSP16, literal(-2)))
          CFI (cfiCond183) DPH0 load(1, XDATA, add(CFA_XSP16, literal(-1)))
          CFI (cfiCond183) CFA_SP SP+-2
          CFI (cfiCond183) CFA_XSP16 add(XSP16, 10)
          CFI Block cfiCond184 Using cfiCommon0
          CFI (cfiCond184) Function bdb_calculateCCITT_CRC
          CFI (cfiCond184) Conditional ??CrossCallReturnLabel_36
          CFI (cfiCond184) R6 load(1, XDATA, add(CFA_XSP16, literal(-12)))
          CFI (cfiCond184) VB load(1, XDATA, add(CFA_XSP16, literal(-11)))
          CFI (cfiCond184) V0 load(1, XDATA, add(CFA_XSP16, literal(-10)))
          CFI (cfiCond184) V1 load(1, XDATA, add(CFA_XSP16, literal(-9)))
          CFI (cfiCond184) V2 load(1, XDATA, add(CFA_XSP16, literal(-8)))
          CFI (cfiCond184) V3 load(1, XDATA, add(CFA_XSP16, literal(-7)))
          CFI (cfiCond184) R7 load(1, XDATA, add(CFA_XSP16, literal(-6)))
          CFI (cfiCond184) ?RET_LOW load(1, XDATA, add(CFA_XSP16, literal(-5)))
          CFI (cfiCond184) ?RET_HIGH load(1, XDATA, add(CFA_XSP16, literal(-4)))
          CFI (cfiCond184) ?BRET_EXT load(1, XDATA, add(CFA_XSP16, literal(-3)))
          CFI (cfiCond184) DPL0 load(1, XDATA, add(CFA_XSP16, literal(-2)))
          CFI (cfiCond184) DPH0 load(1, XDATA, add(CFA_XSP16, literal(-1)))
          CFI (cfiCond184) CFA_SP SP+-2
          CFI (cfiCond184) CFA_XSP16 add(XSP16, 22)
          CFI Block cfiPicker185 Using cfiCommon1
          CFI (cfiPicker185) NoFunction
          CFI (cfiPicker185) Picker
        MOVX      A,@DPTR
        MOV       R4,A
        INC       DPTR
        MOVX      A,@DPTR
        MOV       R5,A
        RET
          CFI EndBlock cfiCond181
          CFI EndBlock cfiCond182
          CFI EndBlock cfiCond183
          CFI EndBlock cfiCond184
          CFI EndBlock cfiPicker185

        RSEG BANKED_CODE:HUGECODE:NOROOT(0)
?Subroutine16:
          CFI Block cfiCond186 Using cfiCommon0
          CFI Function bdb_parentLost
          CFI Conditional ??CrossCallReturnLabel_102
          CFI DPL0 Frame(CFA_SP, 4)
          CFI DPH0 Frame(CFA_SP, 5)
          CFI CFA_SP SP+-7
          CFI CFA_XSP16 add(XSP16, 1)
          CFI Block cfiCond187 Using cfiCommon0
          CFI (cfiCond187) Function bdb_reportCommissioningState
          CFI (cfiCond187) Conditional ??CrossCallReturnLabel_103
          CFI (cfiCond187) R6 load(1, XDATA, add(CFA_XSP16, literal(-10)))
          CFI (cfiCond187) VB load(1, XDATA, add(CFA_XSP16, literal(-9)))
          CFI (cfiCond187) V0 load(1, XDATA, add(CFA_XSP16, literal(-8)))
          CFI (cfiCond187) V1 load(1, XDATA, add(CFA_XSP16, literal(-7)))
          CFI (cfiCond187) R7 load(1, XDATA, add(CFA_XSP16, literal(-6)))
          CFI (cfiCond187) ?RET_LOW load(1, XDATA, add(CFA_XSP16, literal(-5)))
          CFI (cfiCond187) ?RET_HIGH load(1, XDATA, add(CFA_XSP16, literal(-4)))
          CFI (cfiCond187) ?BRET_EXT load(1, XDATA, add(CFA_XSP16, literal(-3)))
          CFI (cfiCond187) DPL0 load(1, XDATA, add(CFA_XSP16, literal(-2)))
          CFI (cfiCond187) DPH0 load(1, XDATA, add(CFA_XSP16, literal(-1)))
          CFI (cfiCond187) CFA_SP SP+-2
          CFI (cfiCond187) CFA_XSP16 add(XSP16, 14)
          CFI Block cfiCond188 Using cfiCommon0
          CFI (cfiCond188) Function bdb_reportCommissioningState
          CFI (cfiCond188) Conditional ??CrossCallReturnLabel_104
          CFI (cfiCond188) R6 load(1, XDATA, add(CFA_XSP16, literal(-10)))
          CFI (cfiCond188) VB load(1, XDATA, add(CFA_XSP16, literal(-9)))
          CFI (cfiCond188) V0 load(1, XDATA, add(CFA_XSP16, literal(-8)))
          CFI (cfiCond188) V1 load(1, XDATA, add(CFA_XSP16, literal(-7)))
          CFI (cfiCond188) R7 load(1, XDATA, add(CFA_XSP16, literal(-6)))
          CFI (cfiCond188) ?RET_LOW load(1, XDATA, add(CFA_XSP16, literal(-5)))
          CFI (cfiCond188) ?RET_HIGH load(1, XDATA, add(CFA_XSP16, literal(-4)))
          CFI (cfiCond188) ?BRET_EXT load(1, XDATA, add(CFA_XSP16, literal(-3)))
          CFI (cfiCond188) DPL0 load(1, XDATA, add(CFA_XSP16, literal(-2)))
          CFI (cfiCond188) DPH0 load(1, XDATA, add(CFA_XSP16, literal(-1)))
          CFI (cfiCond188) CFA_SP SP+-2
          CFI (cfiCond188) CFA_XSP16 add(XSP16, 14)
          CFI Block cfiCond189 Using cfiCommon0
          CFI (cfiCond189) Function bdb_filterNwkDisc
          CFI (cfiCond189) Conditional ??CrossCallReturnLabel_105
          CFI (cfiCond189) R6 load(1, XDATA, add(CFA_XSP16, literal(-11)))
          CFI (cfiCond189) VB load(1, XDATA, add(CFA_XSP16, literal(-10)))
          CFI (cfiCond189) V0 load(1, XDATA, add(CFA_XSP16, literal(-9)))
          CFI (cfiCond189) V1 load(1, XDATA, add(CFA_XSP16, literal(-8)))
          CFI (cfiCond189) V2 load(1, XDATA, add(CFA_XSP16, literal(-7)))
          CFI (cfiCond189) R7 load(1, XDATA, add(CFA_XSP16, literal(-6)))
          CFI (cfiCond189) ?RET_LOW load(1, XDATA, add(CFA_XSP16, literal(-5)))
          CFI (cfiCond189) ?RET_HIGH load(1, XDATA, add(CFA_XSP16, literal(-4)))
          CFI (cfiCond189) ?BRET_EXT load(1, XDATA, add(CFA_XSP16, literal(-3)))
          CFI (cfiCond189) DPL0 load(1, XDATA, add(CFA_XSP16, literal(-2)))
          CFI (cfiCond189) DPH0 load(1, XDATA, add(CFA_XSP16, literal(-1)))
          CFI (cfiCond189) CFA_SP SP+-2
          CFI (cfiCond189) CFA_XSP16 add(XSP16, 11)
          CFI Block cfiCond190 Using cfiCommon0
          CFI (cfiCond190) Function bdb_nwkAssocAttemt
          CFI (cfiCond190) Conditional ??CrossCallReturnLabel_106
          CFI (cfiCond190) R6 load(1, XDATA, add(CFA_XSP16, literal(-10)))
          CFI (cfiCond190) VB load(1, XDATA, add(CFA_XSP16, literal(-9)))
          CFI (cfiCond190) V0 load(1, XDATA, add(CFA_XSP16, literal(-8)))
          CFI (cfiCond190) V1 load(1, XDATA, add(CFA_XSP16, literal(-7)))
          CFI (cfiCond190) R7 load(1, XDATA, add(CFA_XSP16, literal(-6)))
          CFI (cfiCond190) ?RET_LOW load(1, XDATA, add(CFA_XSP16, literal(-5)))
          CFI (cfiCond190) ?RET_HIGH load(1, XDATA, add(CFA_XSP16, literal(-4)))
          CFI (cfiCond190) ?BRET_EXT load(1, XDATA, add(CFA_XSP16, literal(-3)))
          CFI (cfiCond190) DPL0 load(1, XDATA, add(CFA_XSP16, literal(-2)))
          CFI (cfiCond190) DPH0 load(1, XDATA, add(CFA_XSP16, literal(-1)))
          CFI (cfiCond190) CFA_SP SP+-2
          CFI (cfiCond190) CFA_XSP16 add(XSP16, 11)
          CFI Block cfiCond191 Using cfiCommon0
          CFI (cfiCond191) Function bdb_nwkDescFree
          CFI (cfiCond191) Conditional ??CrossCallReturnLabel_107
          CFI (cfiCond191) DPL0 Frame(CFA_SP, 4)
          CFI (cfiCond191) DPH0 Frame(CFA_SP, 5)
          CFI (cfiCond191) CFA_SP SP+-7
          CFI Block cfiPicker192 Using cfiCommon1
          CFI (cfiPicker192) NoFunction
          CFI (cfiPicker192) Picker
        MOV       DPTR,#pBDBListNwk
          CFI EndBlock cfiCond186
          CFI EndBlock cfiCond187
          CFI EndBlock cfiCond188
          CFI EndBlock cfiCond189
          CFI EndBlock cfiCond190
          CFI EndBlock cfiCond191
          CFI EndBlock cfiPicker192
        REQUIRE ??Subroutine43_0
        ; // Fall through to label ??Subroutine43_0

        RSEG BANKED_CODE:HUGECODE:NOROOT(0)
??Subroutine43_0:
          CFI Block cfiCond193 Using cfiCommon0
          CFI Function bdb_StartCommissioning
          CFI Conditional ??CrossCallReturnLabel_95
          CFI R6 load(1, XDATA, add(CFA_XSP16, literal(-12)))
          CFI VB load(1, XDATA, add(CFA_XSP16, literal(-11)))
          CFI V0 load(1, XDATA, add(CFA_XSP16, literal(-10)))
          CFI V1 load(1, XDATA, add(CFA_XSP16, literal(-9)))
          CFI V2 load(1, XDATA, add(CFA_XSP16, literal(-8)))
          CFI V3 load(1, XDATA, add(CFA_XSP16, literal(-7)))
          CFI R7 load(1, XDATA, add(CFA_XSP16, literal(-6)))
          CFI ?RET_LOW load(1, XDATA, add(CFA_XSP16, literal(-5)))
          CFI ?RET_HIGH load(1, XDATA, add(CFA_XSP16, literal(-4)))
          CFI ?BRET_EXT load(1, XDATA, add(CFA_XSP16, literal(-3)))
          CFI DPL0 load(1, XDATA, add(CFA_XSP16, literal(-2)))
          CFI DPH0 load(1, XDATA, add(CFA_XSP16, literal(-1)))
          CFI CFA_SP SP+-2
          CFI CFA_XSP16 add(XSP16, 32)
          CFI Block cfiCond194 Using cfiCommon0
          CFI (cfiCond194) Function bdb_reportCommissioningState
          CFI (cfiCond194) Conditional ??CrossCallReturnLabel_96
          CFI (cfiCond194) R6 load(1, XDATA, add(CFA_XSP16, literal(-10)))
          CFI (cfiCond194) VB load(1, XDATA, add(CFA_XSP16, literal(-9)))
          CFI (cfiCond194) V0 load(1, XDATA, add(CFA_XSP16, literal(-8)))
          CFI (cfiCond194) V1 load(1, XDATA, add(CFA_XSP16, literal(-7)))
          CFI (cfiCond194) R7 load(1, XDATA, add(CFA_XSP16, literal(-6)))
          CFI (cfiCond194) ?RET_LOW load(1, XDATA, add(CFA_XSP16, literal(-5)))
          CFI (cfiCond194) ?RET_HIGH load(1, XDATA, add(CFA_XSP16, literal(-4)))
          CFI (cfiCond194) ?BRET_EXT load(1, XDATA, add(CFA_XSP16, literal(-3)))
          CFI (cfiCond194) DPL0 load(1, XDATA, add(CFA_XSP16, literal(-2)))
          CFI (cfiCond194) DPH0 load(1, XDATA, add(CFA_XSP16, literal(-1)))
          CFI (cfiCond194) CFA_SP SP+-2
          CFI (cfiCond194) CFA_XSP16 add(XSP16, 14)
          CFI Block cfiCond195 Using cfiCommon0
          CFI (cfiCond195) Function bdb_nwkDescFree
          CFI (cfiCond195) Conditional ??CrossCallReturnLabel_97
          CFI (cfiCond195) DPL0 Frame(CFA_SP, 4)
          CFI (cfiCond195) DPH0 Frame(CFA_SP, 5)
          CFI (cfiCond195) CFA_SP SP+-7
          CFI Block cfiCond196 Using cfiCommon0
          CFI (cfiCond196) Function bdb_nwkDescFree
          CFI (cfiCond196) Conditional ??CrossCallReturnLabel_98
          CFI (cfiCond196) DPL0 Frame(CFA_SP, 4)
          CFI (cfiCond196) DPH0 Frame(CFA_SP, 5)
          CFI (cfiCond196) CFA_SP SP+-7
          CFI Block cfiCond197 Using cfiCommon0
          CFI (cfiCond197) Function bdb_event_loop
          CFI (cfiCond197) Conditional ??CrossCallReturnLabel_99
          CFI (cfiCond197) R6 load(1, XDATA, add(CFA_XSP16, literal(-16)))
          CFI (cfiCond197) VB load(1, XDATA, add(CFA_XSP16, literal(-15)))
          CFI (cfiCond197) V0 load(1, XDATA, add(CFA_XSP16, literal(-14)))
          CFI (cfiCond197) V1 load(1, XDATA, add(CFA_XSP16, literal(-13)))
          CFI (cfiCond197) V2 load(1, XDATA, add(CFA_XSP16, literal(-12)))
          CFI (cfiCond197) V3 load(1, XDATA, add(CFA_XSP16, literal(-11)))
          CFI (cfiCond197) V4 load(1, XDATA, add(CFA_XSP16, literal(-10)))
          CFI (cfiCond197) V5 load(1, XDATA, add(CFA_XSP16, literal(-9)))
          CFI (cfiCond197) V6 load(1, XDATA, add(CFA_XSP16, literal(-8)))
          CFI (cfiCond197) V7 load(1, XDATA, add(CFA_XSP16, literal(-7)))
          CFI (cfiCond197) R7 load(1, XDATA, add(CFA_XSP16, literal(-6)))
          CFI (cfiCond197) ?RET_LOW load(1, XDATA, add(CFA_XSP16, literal(-5)))
          CFI (cfiCond197) ?RET_HIGH load(1, XDATA, add(CFA_XSP16, literal(-4)))
          CFI (cfiCond197) ?BRET_EXT load(1, XDATA, add(CFA_XSP16, literal(-3)))
          CFI (cfiCond197) DPL0 load(1, XDATA, add(CFA_XSP16, literal(-2)))
          CFI (cfiCond197) DPH0 load(1, XDATA, add(CFA_XSP16, literal(-1)))
          CFI (cfiCond197) CFA_SP SP+-2
          CFI (cfiCond197) CFA_XSP16 add(XSP16, 29)
          CFI Block cfiCond198 Using cfiCommon0
          CFI (cfiCond198) Function bdb_AddRespondentNode
          CFI (cfiCond198) Conditional ??CrossCallReturnLabel_100
          CFI (cfiCond198) R6 load(1, XDATA, add(CFA_XSP16, literal(-10)))
          CFI (cfiCond198) VB load(1, XDATA, add(CFA_XSP16, literal(-9)))
          CFI (cfiCond198) V0 load(1, XDATA, add(CFA_XSP16, literal(-8)))
          CFI (cfiCond198) V1 load(1, XDATA, add(CFA_XSP16, literal(-7)))
          CFI (cfiCond198) R7 load(1, XDATA, add(CFA_XSP16, literal(-6)))
          CFI (cfiCond198) ?RET_LOW load(1, XDATA, add(CFA_XSP16, literal(-5)))
          CFI (cfiCond198) ?RET_HIGH load(1, XDATA, add(CFA_XSP16, literal(-4)))
          CFI (cfiCond198) ?BRET_EXT load(1, XDATA, add(CFA_XSP16, literal(-3)))
          CFI (cfiCond198) DPL0 load(1, XDATA, add(CFA_XSP16, literal(-2)))
          CFI (cfiCond198) DPH0 load(1, XDATA, add(CFA_XSP16, literal(-1)))
          CFI (cfiCond198) CFA_SP SP+-2
          CFI (cfiCond198) CFA_XSP16 add(XSP16, 10)
          CFI Block cfiCond199 Using cfiCommon0
          CFI (cfiCond199) Function bdb_GenerateInstallCodeCRC
          CFI (cfiCond199) Conditional ??CrossCallReturnLabel_101
          CFI (cfiCond199) DPL0 Frame(CFA_SP, 4)
          CFI (cfiCond199) DPH0 Frame(CFA_SP, 5)
          CFI (cfiCond199) CFA_SP SP+-7
          CFI (cfiCond199) CFA_XSP16 add(XSP16, 2)
          CFI Block cfiCond200 Using cfiCommon0
          CFI (cfiCond200) Function bdb_parentLost
          CFI (cfiCond200) Conditional ??CrossCallReturnLabel_102
          CFI (cfiCond200) DPL0 Frame(CFA_SP, 4)
          CFI (cfiCond200) DPH0 Frame(CFA_SP, 5)
          CFI (cfiCond200) CFA_SP SP+-7
          CFI (cfiCond200) CFA_XSP16 add(XSP16, 1)
          CFI Block cfiCond201 Using cfiCommon0
          CFI (cfiCond201) Function bdb_reportCommissioningState
          CFI (cfiCond201) Conditional ??CrossCallReturnLabel_103
          CFI (cfiCond201) R6 load(1, XDATA, add(CFA_XSP16, literal(-10)))
          CFI (cfiCond201) VB load(1, XDATA, add(CFA_XSP16, literal(-9)))
          CFI (cfiCond201) V0 load(1, XDATA, add(CFA_XSP16, literal(-8)))
          CFI (cfiCond201) V1 load(1, XDATA, add(CFA_XSP16, literal(-7)))
          CFI (cfiCond201) R7 load(1, XDATA, add(CFA_XSP16, literal(-6)))
          CFI (cfiCond201) ?RET_LOW load(1, XDATA, add(CFA_XSP16, literal(-5)))
          CFI (cfiCond201) ?RET_HIGH load(1, XDATA, add(CFA_XSP16, literal(-4)))
          CFI (cfiCond201) ?BRET_EXT load(1, XDATA, add(CFA_XSP16, literal(-3)))
          CFI (cfiCond201) DPL0 load(1, XDATA, add(CFA_XSP16, literal(-2)))
          CFI (cfiCond201) DPH0 load(1, XDATA, add(CFA_XSP16, literal(-1)))
          CFI (cfiCond201) CFA_SP SP+-2
          CFI (cfiCond201) CFA_XSP16 add(XSP16, 14)
          CFI Block cfiCond202 Using cfiCommon0
          CFI (cfiCond202) Function bdb_reportCommissioningState
          CFI (cfiCond202) Conditional ??CrossCallReturnLabel_104
          CFI (cfiCond202) R6 load(1, XDATA, add(CFA_XSP16, literal(-10)))
          CFI (cfiCond202) VB load(1, XDATA, add(CFA_XSP16, literal(-9)))
          CFI (cfiCond202) V0 load(1, XDATA, add(CFA_XSP16, literal(-8)))
          CFI (cfiCond202) V1 load(1, XDATA, add(CFA_XSP16, literal(-7)))
          CFI (cfiCond202) R7 load(1, XDATA, add(CFA_XSP16, literal(-6)))
          CFI (cfiCond202) ?RET_LOW load(1, XDATA, add(CFA_XSP16, literal(-5)))
          CFI (cfiCond202) ?RET_HIGH load(1, XDATA, add(CFA_XSP16, literal(-4)))
          CFI (cfiCond202) ?BRET_EXT load(1, XDATA, add(CFA_XSP16, literal(-3)))
          CFI (cfiCond202) DPL0 load(1, XDATA, add(CFA_XSP16, literal(-2)))
          CFI (cfiCond202) DPH0 load(1, XDATA, add(CFA_XSP16, literal(-1)))
          CFI (cfiCond202) CFA_SP SP+-2
          CFI (cfiCond202) CFA_XSP16 add(XSP16, 14)
          CFI Block cfiCond203 Using cfiCommon0
          CFI (cfiCond203) Function bdb_filterNwkDisc
          CFI (cfiCond203) Conditional ??CrossCallReturnLabel_105
          CFI (cfiCond203) R6 load(1, XDATA, add(CFA_XSP16, literal(-11)))
          CFI (cfiCond203) VB load(1, XDATA, add(CFA_XSP16, literal(-10)))
          CFI (cfiCond203) V0 load(1, XDATA, add(CFA_XSP16, literal(-9)))
          CFI (cfiCond203) V1 load(1, XDATA, add(CFA_XSP16, literal(-8)))
          CFI (cfiCond203) V2 load(1, XDATA, add(CFA_XSP16, literal(-7)))
          CFI (cfiCond203) R7 load(1, XDATA, add(CFA_XSP16, literal(-6)))
          CFI (cfiCond203) ?RET_LOW load(1, XDATA, add(CFA_XSP16, literal(-5)))
          CFI (cfiCond203) ?RET_HIGH load(1, XDATA, add(CFA_XSP16, literal(-4)))
          CFI (cfiCond203) ?BRET_EXT load(1, XDATA, add(CFA_XSP16, literal(-3)))
          CFI (cfiCond203) DPL0 load(1, XDATA, add(CFA_XSP16, literal(-2)))
          CFI (cfiCond203) DPH0 load(1, XDATA, add(CFA_XSP16, literal(-1)))
          CFI (cfiCond203) CFA_SP SP+-2
          CFI (cfiCond203) CFA_XSP16 add(XSP16, 11)
          CFI Block cfiCond204 Using cfiCommon0
          CFI (cfiCond204) Function bdb_nwkAssocAttemt
          CFI (cfiCond204) Conditional ??CrossCallReturnLabel_106
          CFI (cfiCond204) R6 load(1, XDATA, add(CFA_XSP16, literal(-10)))
          CFI (cfiCond204) VB load(1, XDATA, add(CFA_XSP16, literal(-9)))
          CFI (cfiCond204) V0 load(1, XDATA, add(CFA_XSP16, literal(-8)))
          CFI (cfiCond204) V1 load(1, XDATA, add(CFA_XSP16, literal(-7)))
          CFI (cfiCond204) R7 load(1, XDATA, add(CFA_XSP16, literal(-6)))
          CFI (cfiCond204) ?RET_LOW load(1, XDATA, add(CFA_XSP16, literal(-5)))
          CFI (cfiCond204) ?RET_HIGH load(1, XDATA, add(CFA_XSP16, literal(-4)))
          CFI (cfiCond204) ?BRET_EXT load(1, XDATA, add(CFA_XSP16, literal(-3)))
          CFI (cfiCond204) DPL0 load(1, XDATA, add(CFA_XSP16, literal(-2)))
          CFI (cfiCond204) DPH0 load(1, XDATA, add(CFA_XSP16, literal(-1)))
          CFI (cfiCond204) CFA_SP SP+-2
          CFI (cfiCond204) CFA_XSP16 add(XSP16, 11)
          CFI Block cfiCond205 Using cfiCommon0
          CFI (cfiCond205) Function bdb_nwkDescFree
          CFI (cfiCond205) Conditional ??CrossCallReturnLabel_107
          CFI (cfiCond205) DPL0 Frame(CFA_SP, 4)
          CFI (cfiCond205) DPH0 Frame(CFA_SP, 5)
          CFI (cfiCond205) CFA_SP SP+-7
          CFI Block cfiPicker206 Using cfiCommon1
          CFI (cfiPicker206) NoFunction
          CFI (cfiPicker206) Picker
        MOVX      A,@DPTR
        MOV       R2,A
        INC       DPTR
        MOVX      A,@DPTR
        MOV       R3,A
        RET
          CFI EndBlock cfiCond193
          CFI EndBlock cfiCond194
          CFI EndBlock cfiCond195
          CFI EndBlock cfiCond196
          CFI EndBlock cfiCond197
          CFI EndBlock cfiCond198
          CFI EndBlock cfiCond199
          CFI EndBlock cfiCond200
          CFI EndBlock cfiCond201
          CFI EndBlock cfiCond202
          CFI EndBlock cfiCond203
          CFI EndBlock cfiCond204
          CFI EndBlock cfiCond205
          CFI EndBlock cfiPicker206

        RSEG BANKED_CODE:HUGECODE:NOROOT(0)
?Subroutine15:
          CFI Block cfiCond207 Using cfiCommon0
          CFI Function bdb_startResumeCommissioningProcess
          CFI Conditional ??CrossCallReturnLabel_21
          CFI R6 load(1, XDATA, add(CFA_XSP16, literal(-10)))
          CFI VB load(1, XDATA, add(CFA_XSP16, literal(-9)))
          CFI V0 load(1, XDATA, add(CFA_XSP16, literal(-8)))
          CFI V1 load(1, XDATA, add(CFA_XSP16, literal(-7)))
          CFI R7 load(1, XDATA, add(CFA_XSP16, literal(-6)))
          CFI ?RET_LOW load(1, XDATA, add(CFA_XSP16, literal(-5)))
          CFI ?RET_HIGH load(1, XDATA, add(CFA_XSP16, literal(-4)))
          CFI ?BRET_EXT load(1, XDATA, add(CFA_XSP16, literal(-3)))
          CFI DPL0 load(1, XDATA, add(CFA_XSP16, literal(-2)))
          CFI DPH0 load(1, XDATA, add(CFA_XSP16, literal(-1)))
          CFI CFA_SP SP+-2
          CFI CFA_XSP16 add(XSP16, 21)
          CFI Block cfiCond208 Using cfiCommon0
          CFI (cfiCond208) Function bdb_event_loop
          CFI (cfiCond208) Conditional ??CrossCallReturnLabel_22
          CFI (cfiCond208) R6 load(1, XDATA, add(CFA_XSP16, literal(-16)))
          CFI (cfiCond208) VB load(1, XDATA, add(CFA_XSP16, literal(-15)))
          CFI (cfiCond208) V0 load(1, XDATA, add(CFA_XSP16, literal(-14)))
          CFI (cfiCond208) V1 load(1, XDATA, add(CFA_XSP16, literal(-13)))
          CFI (cfiCond208) V2 load(1, XDATA, add(CFA_XSP16, literal(-12)))
          CFI (cfiCond208) V3 load(1, XDATA, add(CFA_XSP16, literal(-11)))
          CFI (cfiCond208) V4 load(1, XDATA, add(CFA_XSP16, literal(-10)))
          CFI (cfiCond208) V5 load(1, XDATA, add(CFA_XSP16, literal(-9)))
          CFI (cfiCond208) V6 load(1, XDATA, add(CFA_XSP16, literal(-8)))
          CFI (cfiCond208) V7 load(1, XDATA, add(CFA_XSP16, literal(-7)))
          CFI (cfiCond208) R7 load(1, XDATA, add(CFA_XSP16, literal(-6)))
          CFI (cfiCond208) ?RET_LOW load(1, XDATA, add(CFA_XSP16, literal(-5)))
          CFI (cfiCond208) ?RET_HIGH load(1, XDATA, add(CFA_XSP16, literal(-4)))
          CFI (cfiCond208) ?BRET_EXT load(1, XDATA, add(CFA_XSP16, literal(-3)))
          CFI (cfiCond208) DPL0 load(1, XDATA, add(CFA_XSP16, literal(-2)))
          CFI (cfiCond208) DPH0 load(1, XDATA, add(CFA_XSP16, literal(-1)))
          CFI (cfiCond208) CFA_SP SP+-2
          CFI (cfiCond208) CFA_XSP16 add(XSP16, 29)
          CFI Block cfiCond209 Using cfiCommon0
          CFI (cfiCond209) Function bdb_AddRespondentNode
          CFI (cfiCond209) Conditional ??CrossCallReturnLabel_20
          CFI (cfiCond209) R6 load(1, XDATA, add(CFA_XSP16, literal(-10)))
          CFI (cfiCond209) VB load(1, XDATA, add(CFA_XSP16, literal(-9)))
          CFI (cfiCond209) V0 load(1, XDATA, add(CFA_XSP16, literal(-8)))
          CFI (cfiCond209) V1 load(1, XDATA, add(CFA_XSP16, literal(-7)))
          CFI (cfiCond209) R7 load(1, XDATA, add(CFA_XSP16, literal(-6)))
          CFI (cfiCond209) ?RET_LOW load(1, XDATA, add(CFA_XSP16, literal(-5)))
          CFI (cfiCond209) ?RET_HIGH load(1, XDATA, add(CFA_XSP16, literal(-4)))
          CFI (cfiCond209) ?BRET_EXT load(1, XDATA, add(CFA_XSP16, literal(-3)))
          CFI (cfiCond209) DPL0 load(1, XDATA, add(CFA_XSP16, literal(-2)))
          CFI (cfiCond209) DPH0 load(1, XDATA, add(CFA_XSP16, literal(-1)))
          CFI (cfiCond209) CFA_SP SP+-2
          CFI (cfiCond209) CFA_XSP16 add(XSP16, 10)
          CFI Block cfiCond210 Using cfiCommon0
          CFI (cfiCond210) Function bdb_zclRespondentListClean
          CFI (cfiCond210) Conditional ??CrossCallReturnLabel_23
          CFI (cfiCond210) R6 load(1, XDATA, add(CFA_XSP16, literal(-12)))
          CFI (cfiCond210) VB load(1, XDATA, add(CFA_XSP16, literal(-11)))
          CFI (cfiCond210) V0 load(1, XDATA, add(CFA_XSP16, literal(-10)))
          CFI (cfiCond210) V1 load(1, XDATA, add(CFA_XSP16, literal(-9)))
          CFI (cfiCond210) V2 load(1, XDATA, add(CFA_XSP16, literal(-8)))
          CFI (cfiCond210) V3 load(1, XDATA, add(CFA_XSP16, literal(-7)))
          CFI (cfiCond210) R7 load(1, XDATA, add(CFA_XSP16, literal(-6)))
          CFI (cfiCond210) ?RET_LOW load(1, XDATA, add(CFA_XSP16, literal(-5)))
          CFI (cfiCond210) ?RET_HIGH load(1, XDATA, add(CFA_XSP16, literal(-4)))
          CFI (cfiCond210) ?BRET_EXT load(1, XDATA, add(CFA_XSP16, literal(-3)))
          CFI (cfiCond210) DPL0 load(1, XDATA, add(CFA_XSP16, literal(-2)))
          CFI (cfiCond210) DPH0 load(1, XDATA, add(CFA_XSP16, literal(-1)))
          CFI (cfiCond210) CFA_SP SP+-2
          CFI (cfiCond210) CFA_XSP16 add(XSP16, 12)
          CFI Block cfiPicker211 Using cfiCommon1
          CFI (cfiPicker211) NoFunction
          CFI (cfiPicker211) Picker
        MOVX      A,@DPTR
        MOV       R2,A
        INC       DPTR
        MOVX      A,@DPTR
        MOV       R3,A
        MOV       A,R2
        ORL       A,R3
        RET
          CFI EndBlock cfiCond207
          CFI EndBlock cfiCond208
          CFI EndBlock cfiCond209
          CFI EndBlock cfiCond210
          CFI EndBlock cfiPicker211
// 2980 
// 2981 /*********************************************************************
// 2982  * @fn      bdb_zclRespondentListClean
// 2983  *
// 2984  * @brief   This function free reserved memory for respondent list
// 2985  *
// 2986  * @param   pHead - begin of the respondent list
// 2987  *
// 2988  * @return  status
// 2989  */

        RSEG BANKED_CODE:HUGECODE:NOROOT(0)
// 2990 void bdb_zclRespondentListClean( bdbFindingBindingRespondent_t **pHead )
bdb_zclRespondentListClean:
          CFI Block cfiBlock212 Using cfiCommon0
          CFI Function bdb_zclRespondentListClean
        CODE
// 2991 {
        FUNCALL bdb_zclRespondentListClean, osal_mem_free
        LOCFRAME ISTACK, 0, STACK
        LOCFRAME PSTACK, 0, STACK
        LOCFRAME XSTACK, 12, STACK
        LOCFRAME IOVERLAY, 0, STATIC
        LOCFRAME DOVERLAY, 0, STATIC
        ARGFRAME ISTACK, 0, STACK
        ARGFRAME PSTACK, 0, STACK
        ARGFRAME XSTACK, 12, STACK
        ARGFRAME IOVERLAY, 0, STATIC
        ARGFRAME DOVERLAY, 0, STATIC
        REQUIRE ?V0
        REQUIRE ?V1
        REQUIRE ?V2
        REQUIRE ?V3
        MOV       A,#-0xc
        LCALL     ?BANKED_ENTER_XDATA
          CFI DPH0 load(1, XDATA, add(CFA_XSP16, literal(-1)))
          CFI DPL0 load(1, XDATA, add(CFA_XSP16, literal(-2)))
          CFI ?BRET_EXT load(1, XDATA, add(CFA_XSP16, literal(-3)))
          CFI ?RET_HIGH load(1, XDATA, add(CFA_XSP16, literal(-4)))
          CFI ?RET_LOW load(1, XDATA, add(CFA_XSP16, literal(-5)))
          CFI R7 load(1, XDATA, add(CFA_XSP16, literal(-6)))
          CFI V3 load(1, XDATA, add(CFA_XSP16, literal(-7)))
          CFI V2 load(1, XDATA, add(CFA_XSP16, literal(-8)))
          CFI V1 load(1, XDATA, add(CFA_XSP16, literal(-9)))
          CFI V0 load(1, XDATA, add(CFA_XSP16, literal(-10)))
          CFI VB load(1, XDATA, add(CFA_XSP16, literal(-11)))
          CFI R6 load(1, XDATA, add(CFA_XSP16, literal(-12)))
          CFI CFA_SP SP+0
          CFI CFA_XSP16 add(XSP16, 12)
        ; Saved register size: 12
        ; Auto size: 0
        LCALL     ?Subroutine13 & 0xFFFF
// 2992   bdbFindingBindingRespondent_t **pCurr;
// 2993   bdbFindingBindingRespondent_t **pNext;
// 2994   
// 2995   if ( *pHead == NULL )
??CrossCallReturnLabel_70:
        JZ        ??bdb_zclRespondentListClean_0
// 2996   {
// 2997     return;
// 2998   }
// 2999   
// 3000   pCurr = pHead;
        MOV       ?V0,R6
        MOV       ?V1,R7
        SJMP      ??bdb_zclRespondentListClean_1
// 3001   
// 3002   while( *pCurr != NULL )
// 3003   {
// 3004     pNext = &((*pCurr)->pNext);
??bdb_zclRespondentListClean_2:
        MOV       A,R2
        ADD       A,#0xf
        MOV       ?V2,A
        CLR       A
        ADDC      A,R3
        MOV       ?V3,A
// 3005     osal_mem_free( *pCurr );
        ; Setup parameters for call to function osal_mem_free
        LCALL     `??osal_mem_free::?relay`; Banked call to: osal_mem_free
// 3006     *pCurr = ( bdbFindingBindingRespondent_t* )NULL;
        MOV       DPL,?V0
        MOV       DPH,?V1
        CLR       A
        MOVX      @DPTR,A
        INC       DPTR
        MOVX      @DPTR,A
// 3007     pCurr = pNext;
        MOV       ?V0,?V2
        MOV       ?V1,?V3
// 3008   }
??bdb_zclRespondentListClean_1:
        MOV       DPL,?V0
        MOV       DPH,?V1
        LCALL     ?Subroutine15 & 0xFFFF
??CrossCallReturnLabel_23:
        JNZ       ??bdb_zclRespondentListClean_2
// 3009   *pHead = NULL;
        MOV       DPL,R6
        MOV       DPH,R7
        CLR       A
        MOVX      @DPTR,A
        INC       DPTR
        MOVX      @DPTR,A
// 3010 }
??bdb_zclRespondentListClean_0:
        LJMP      ??Subroutine34_0 & 0xFFFF
          CFI EndBlock cfiBlock212
// 3011 
// 3012  /*********************************************************************
// 3013  * PRIVATE FUNCTIONS
// 3014  *********************************************************************/
// 3015 
// 3016 /*********************************************************************
// 3017  * @fn      bdb_ProcessOSALMsg
// 3018  *
// 3019  * @brief   Process the incoming task message.
// 3020  *
// 3021  * @param   msgPtr - message to process
// 3022  *
// 3023  * @return  none
// 3024  */

        RSEG BANKED_CODE:HUGECODE:NOROOT(0)
// 3025 void bdb_ProcessOSALMsg( bdbInMsg_t *msgPtr )
bdb_ProcessOSALMsg:
          CFI Block cfiBlock213 Using cfiCommon0
          CFI Function bdb_ProcessOSALMsg
        CODE
// 3026 {
        FUNCALL bdb_ProcessOSALMsg, bdb_filterNwkDisc
        LOCFRAME ISTACK, 0, STACK
        LOCFRAME PSTACK, 0, STACK
        LOCFRAME XSTACK, 36, STACK
        LOCFRAME IOVERLAY, 0, STATIC
        LOCFRAME DOVERLAY, 0, STATIC
        ARGFRAME ISTACK, 0, STACK
        ARGFRAME PSTACK, 0, STACK
        ARGFRAME XSTACK, 36, STACK
        ARGFRAME IOVERLAY, 0, STATIC
        ARGFRAME DOVERLAY, 0, STATIC
        FUNCALL bdb_ProcessOSALMsg, bdb_tryNwkAssoc
        LOCFRAME ISTACK, 0, STACK
        LOCFRAME PSTACK, 0, STACK
        LOCFRAME XSTACK, 36, STACK
        LOCFRAME IOVERLAY, 0, STATIC
        LOCFRAME DOVERLAY, 0, STATIC
        ARGFRAME ISTACK, 0, STACK
        ARGFRAME PSTACK, 0, STACK
        ARGFRAME XSTACK, 36, STACK
        ARGFRAME IOVERLAY, 0, STATIC
        ARGFRAME DOVERLAY, 0, STATIC
        FUNCALL bdb_ProcessOSALMsg, bdb_nwkDiscoveryAttempt
        LOCFRAME ISTACK, 0, STACK
        LOCFRAME PSTACK, 0, STACK
        LOCFRAME XSTACK, 36, STACK
        LOCFRAME IOVERLAY, 0, STATIC
        LOCFRAME DOVERLAY, 0, STATIC
        ARGFRAME ISTACK, 0, STACK
        ARGFRAME PSTACK, 0, STACK
        ARGFRAME XSTACK, 36, STACK
        ARGFRAME IOVERLAY, 0, STATIC
        ARGFRAME DOVERLAY, 0, STATIC
        FUNCALL bdb_ProcessOSALMsg, osal_start_timerEx
        LOCFRAME ISTACK, 0, STACK
        LOCFRAME PSTACK, 0, STACK
        LOCFRAME XSTACK, 40, STACK
        LOCFRAME IOVERLAY, 0, STATIC
        LOCFRAME DOVERLAY, 0, STATIC
        ARGFRAME ISTACK, 0, STACK
        ARGFRAME PSTACK, 0, STACK
        ARGFRAME XSTACK, 40, STACK
        ARGFRAME IOVERLAY, 0, STATIC
        ARGFRAME DOVERLAY, 0, STATIC
        FUNCALL bdb_ProcessOSALMsg, NLME_GetShortAddr
        LOCFRAME ISTACK, 0, STACK
        LOCFRAME PSTACK, 0, STACK
        LOCFRAME XSTACK, 36, STACK
        LOCFRAME IOVERLAY, 0, STATIC
        LOCFRAME DOVERLAY, 0, STATIC
        ARGFRAME ISTACK, 0, STACK
        ARGFRAME PSTACK, 0, STACK
        ARGFRAME XSTACK, 36, STACK
        ARGFRAME IOVERLAY, 0, STATIC
        ARGFRAME DOVERLAY, 0, STATIC
        FUNCALL bdb_ProcessOSALMsg, ZMacSetReq
        LOCFRAME ISTACK, 0, STACK
        LOCFRAME PSTACK, 0, STACK
        LOCFRAME XSTACK, 36, STACK
        LOCFRAME IOVERLAY, 0, STATIC
        LOCFRAME DOVERLAY, 0, STATIC
        ARGFRAME ISTACK, 0, STACK
        ARGFRAME PSTACK, 0, STACK
        ARGFRAME XSTACK, 36, STACK
        ARGFRAME IOVERLAY, 0, STATIC
        ARGFRAME DOVERLAY, 0, STATIC
        FUNCALL bdb_ProcessOSALMsg, nwkNeighborInitTable
        LOCFRAME ISTACK, 0, STACK
        LOCFRAME PSTACK, 0, STACK
        LOCFRAME XSTACK, 36, STACK
        LOCFRAME IOVERLAY, 0, STATIC
        LOCFRAME DOVERLAY, 0, STATIC
        ARGFRAME ISTACK, 0, STACK
        ARGFRAME PSTACK, 0, STACK
        ARGFRAME XSTACK, 36, STACK
        ARGFRAME IOVERLAY, 0, STATIC
        ARGFRAME DOVERLAY, 0, STATIC
        FUNCALL bdb_ProcessOSALMsg, NLME_NwkDiscTerm
        LOCFRAME ISTACK, 0, STACK
        LOCFRAME PSTACK, 0, STACK
        LOCFRAME XSTACK, 36, STACK
        LOCFRAME IOVERLAY, 0, STATIC
        LOCFRAME DOVERLAY, 0, STATIC
        ARGFRAME ISTACK, 0, STACK
        ARGFRAME PSTACK, 0, STACK
        ARGFRAME XSTACK, 36, STACK
        ARGFRAME IOVERLAY, 0, STATIC
        ARGFRAME DOVERLAY, 0, STATIC
        FUNCALL bdb_ProcessOSALMsg, bdb_tryNwkAssoc
        LOCFRAME ISTACK, 0, STACK
        LOCFRAME PSTACK, 0, STACK
        LOCFRAME XSTACK, 36, STACK
        LOCFRAME IOVERLAY, 0, STATIC
        LOCFRAME DOVERLAY, 0, STATIC
        ARGFRAME ISTACK, 0, STACK
        ARGFRAME PSTACK, 0, STACK
        ARGFRAME XSTACK, 36, STACK
        ARGFRAME IOVERLAY, 0, STATIC
        ARGFRAME DOVERLAY, 0, STATIC
        FUNCALL bdb_ProcessOSALMsg, bdb_reportCommissioningState
        LOCFRAME ISTACK, 0, STACK
        LOCFRAME PSTACK, 0, STACK
        LOCFRAME XSTACK, 36, STACK
        LOCFRAME IOVERLAY, 0, STATIC
        LOCFRAME DOVERLAY, 0, STATIC
        ARGFRAME ISTACK, 0, STACK
        ARGFRAME PSTACK, 0, STACK
        ARGFRAME XSTACK, 36, STACK
        ARGFRAME IOVERLAY, 0, STATIC
        ARGFRAME DOVERLAY, 0, STATIC
        FUNCALL bdb_ProcessOSALMsg, APSME_IsDistributedSecurity
        LOCFRAME ISTACK, 0, STACK
        LOCFRAME PSTACK, 0, STACK
        LOCFRAME XSTACK, 36, STACK
        LOCFRAME IOVERLAY, 0, STATIC
        LOCFRAME DOVERLAY, 0, STATIC
        ARGFRAME ISTACK, 0, STACK
        ARGFRAME PSTACK, 0, STACK
        ARGFRAME XSTACK, 36, STACK
        ARGFRAME IOVERLAY, 0, STATIC
        ARGFRAME DOVERLAY, 0, STATIC
        FUNCALL bdb_ProcessOSALMsg, ZDP_NWKAddrOfInterestReq
        LOCFRAME ISTACK, 0, STACK
        LOCFRAME PSTACK, 0, STACK
        LOCFRAME XSTACK, 37, STACK
        LOCFRAME IOVERLAY, 0, STATIC
        LOCFRAME DOVERLAY, 0, STATIC
        ARGFRAME ISTACK, 0, STACK
        ARGFRAME PSTACK, 0, STACK
        ARGFRAME XSTACK, 37, STACK
        ARGFRAME IOVERLAY, 0, STATIC
        ARGFRAME DOVERLAY, 0, STATIC
        FUNCALL bdb_ProcessOSALMsg, osal_stop_timerEx
        LOCFRAME ISTACK, 0, STACK
        LOCFRAME PSTACK, 0, STACK
        LOCFRAME XSTACK, 36, STACK
        LOCFRAME IOVERLAY, 0, STATIC
        LOCFRAME DOVERLAY, 0, STATIC
        ARGFRAME ISTACK, 0, STACK
        ARGFRAME PSTACK, 0, STACK
        ARGFRAME XSTACK, 36, STACK
        ARGFRAME IOVERLAY, 0, STATIC
        ARGFRAME DOVERLAY, 0, STATIC
        FUNCALL bdb_ProcessOSALMsg, osal_start_timerEx
        LOCFRAME ISTACK, 0, STACK
        LOCFRAME PSTACK, 0, STACK
        LOCFRAME XSTACK, 40, STACK
        LOCFRAME IOVERLAY, 0, STATIC
        LOCFRAME DOVERLAY, 0, STATIC
        ARGFRAME ISTACK, 0, STACK
        ARGFRAME PSTACK, 0, STACK
        ARGFRAME XSTACK, 40, STACK
        ARGFRAME IOVERLAY, 0, STATIC
        ARGFRAME DOVERLAY, 0, STATIC
        FUNCALL bdb_ProcessOSALMsg, bdb_setNodeJoinLinkKeyType
        LOCFRAME ISTACK, 0, STACK
        LOCFRAME PSTACK, 0, STACK
        LOCFRAME XSTACK, 36, STACK
        LOCFRAME IOVERLAY, 0, STATIC
        LOCFRAME DOVERLAY, 0, STATIC
        ARGFRAME ISTACK, 0, STACK
        ARGFRAME PSTACK, 0, STACK
        ARGFRAME XSTACK, 36, STACK
        ARGFRAME IOVERLAY, 0, STATIC
        ARGFRAME DOVERLAY, 0, STATIC
        FUNCALL bdb_ProcessOSALMsg, bdb_setNodeJoinLinkKeyType
        LOCFRAME ISTACK, 0, STACK
        LOCFRAME PSTACK, 0, STACK
        LOCFRAME XSTACK, 36, STACK
        LOCFRAME IOVERLAY, 0, STATIC
        LOCFRAME DOVERLAY, 0, STATIC
        ARGFRAME ISTACK, 0, STACK
        ARGFRAME PSTACK, 0, STACK
        ARGFRAME XSTACK, 36, STACK
        ARGFRAME IOVERLAY, 0, STATIC
        ARGFRAME DOVERLAY, 0, STATIC
        FUNCALL bdb_ProcessOSALMsg, bdb_reportCommissioningState
        LOCFRAME ISTACK, 0, STACK
        LOCFRAME PSTACK, 0, STACK
        LOCFRAME XSTACK, 36, STACK
        LOCFRAME IOVERLAY, 0, STATIC
        LOCFRAME DOVERLAY, 0, STATIC
        ARGFRAME ISTACK, 0, STACK
        ARGFRAME PSTACK, 0, STACK
        ARGFRAME XSTACK, 36, STACK
        ARGFRAME IOVERLAY, 0, STATIC
        ARGFRAME DOVERLAY, 0, STATIC
        FUNCALL bdb_ProcessOSALMsg, APSME_RequestKeyReq
        LOCFRAME ISTACK, 0, STACK
        LOCFRAME PSTACK, 0, STACK
        LOCFRAME XSTACK, 36, STACK
        LOCFRAME IOVERLAY, 0, STATIC
        LOCFRAME DOVERLAY, 0, STATIC
        ARGFRAME ISTACK, 0, STACK
        ARGFRAME PSTACK, 0, STACK
        ARGFRAME XSTACK, 36, STACK
        ARGFRAME IOVERLAY, 0, STATIC
        ARGFRAME DOVERLAY, 0, STATIC
        FUNCALL bdb_ProcessOSALMsg, osal_stop_timerEx
        LOCFRAME ISTACK, 0, STACK
        LOCFRAME PSTACK, 0, STACK
        LOCFRAME XSTACK, 36, STACK
        LOCFRAME IOVERLAY, 0, STATIC
        LOCFRAME DOVERLAY, 0, STATIC
        ARGFRAME ISTACK, 0, STACK
        ARGFRAME PSTACK, 0, STACK
        ARGFRAME XSTACK, 36, STACK
        ARGFRAME IOVERLAY, 0, STATIC
        ARGFRAME DOVERLAY, 0, STATIC
        FUNCALL bdb_ProcessOSALMsg, osal_start_timerEx
        LOCFRAME ISTACK, 0, STACK
        LOCFRAME PSTACK, 0, STACK
        LOCFRAME XSTACK, 40, STACK
        LOCFRAME IOVERLAY, 0, STATIC
        LOCFRAME DOVERLAY, 0, STATIC
        ARGFRAME ISTACK, 0, STACK
        ARGFRAME PSTACK, 0, STACK
        ARGFRAME XSTACK, 40, STACK
        ARGFRAME IOVERLAY, 0, STATIC
        ARGFRAME DOVERLAY, 0, STATIC
        FUNCALL bdb_ProcessOSALMsg, APSME_GetRequest
        LOCFRAME ISTACK, 0, STACK
        LOCFRAME PSTACK, 0, STACK
        LOCFRAME XSTACK, 36, STACK
        LOCFRAME IOVERLAY, 0, STATIC
        LOCFRAME DOVERLAY, 0, STATIC
        ARGFRAME ISTACK, 0, STACK
        ARGFRAME PSTACK, 0, STACK
        ARGFRAME XSTACK, 36, STACK
        ARGFRAME IOVERLAY, 0, STATIC
        ARGFRAME DOVERLAY, 0, STATIC
        FUNCALL bdb_ProcessOSALMsg, APSME_VerifyKeyReq
        LOCFRAME ISTACK, 0, STACK
        LOCFRAME PSTACK, 0, STACK
        LOCFRAME XSTACK, 36, STACK
        LOCFRAME IOVERLAY, 0, STATIC
        LOCFRAME DOVERLAY, 0, STATIC
        ARGFRAME ISTACK, 0, STACK
        ARGFRAME PSTACK, 0, STACK
        ARGFRAME XSTACK, 36, STACK
        ARGFRAME IOVERLAY, 0, STATIC
        ARGFRAME DOVERLAY, 0, STATIC
        FUNCALL bdb_ProcessOSALMsg, osal_stop_timerEx
        LOCFRAME ISTACK, 0, STACK
        LOCFRAME PSTACK, 0, STACK
        LOCFRAME XSTACK, 36, STACK
        LOCFRAME IOVERLAY, 0, STATIC
        LOCFRAME DOVERLAY, 0, STATIC
        ARGFRAME ISTACK, 0, STACK
        ARGFRAME PSTACK, 0, STACK
        ARGFRAME XSTACK, 36, STACK
        ARGFRAME IOVERLAY, 0, STATIC
        ARGFRAME DOVERLAY, 0, STATIC
        FUNCALL bdb_ProcessOSALMsg, osal_start_timerEx
        LOCFRAME ISTACK, 0, STACK
        LOCFRAME PSTACK, 0, STACK
        LOCFRAME XSTACK, 40, STACK
        LOCFRAME IOVERLAY, 0, STATIC
        LOCFRAME DOVERLAY, 0, STATIC
        ARGFRAME ISTACK, 0, STACK
        ARGFRAME PSTACK, 0, STACK
        ARGFRAME XSTACK, 40, STACK
        ARGFRAME IOVERLAY, 0, STATIC
        ARGFRAME DOVERLAY, 0, STATIC
        REQUIRE ?V0
        REQUIRE ?V1
        MOV       A,#-0xa
        LCALL     ?BANKED_ENTER_XDATA
          CFI DPH0 load(1, XDATA, add(CFA_XSP16, literal(-1)))
          CFI DPL0 load(1, XDATA, add(CFA_XSP16, literal(-2)))
          CFI ?BRET_EXT load(1, XDATA, add(CFA_XSP16, literal(-3)))
          CFI ?RET_HIGH load(1, XDATA, add(CFA_XSP16, literal(-4)))
          CFI ?RET_LOW load(1, XDATA, add(CFA_XSP16, literal(-5)))
          CFI R7 load(1, XDATA, add(CFA_XSP16, literal(-6)))
          CFI V1 load(1, XDATA, add(CFA_XSP16, literal(-7)))
          CFI V0 load(1, XDATA, add(CFA_XSP16, literal(-8)))
          CFI VB load(1, XDATA, add(CFA_XSP16, literal(-9)))
          CFI R6 load(1, XDATA, add(CFA_XSP16, literal(-10)))
          CFI CFA_SP SP+0
          CFI CFA_XSP16 add(XSP16, 10)
        ; Saved register size: 10
        ; Auto size: 26
        MOV       A,#-0x1a
        LCALL     ?ALLOC_XSTACK8
          CFI CFA_XSP16 add(XSP16, 36)
// 3027   
// 3028   switch(msgPtr->hdr.event)
        MOV       DPL,R2
        MOV       DPH,R3
        MOVX      A,@DPTR
        DEC       A
        JNZ       $+5
        LJMP      ??bdb_ProcessOSALMsg_0 & 0xFFFF
        ADD       A,#-0x2
        JZ        $+5
        LJMP      ??bdb_ProcessOSALMsg_1 & 0xFFFF
// 3029   {
// 3030 #if (ZG_BUILD_JOINING_TYPE)
// 3031     case BDB_COMMISSIONING_STATE_JOINING:
// 3032       if(ZG_DEVICE_JOINING_TYPE)
        MOV       DPTR,#zgDeviceLogicalType
        MOVX      A,@DPTR
        XRL       A,#0x1
        JZ        ??bdb_ProcessOSALMsg_2
        MOVX      A,@DPTR
        XRL       A,#0x2
        JZ        $+5
        LJMP      ??bdb_ProcessOSALMsg_1 & 0xFFFF
// 3033       {
// 3034         switch(msgPtr->buf[0])
??bdb_ProcessOSALMsg_2:
        MOV       DPL,R2
        MOV       DPH,R3
        INC       DPTR
        INC       DPTR
        MOVX      A,@DPTR
        JZ        ??bdb_ProcessOSALMsg_3
        DEC       A
        JZ        ??bdb_ProcessOSALMsg_4
        LJMP      ??bdb_ProcessOSALMsg_1 & 0xFFFF
// 3035         {
// 3036           case BDB_JOIN_EVENT_NWK_DISCOVERY:
// 3037             if(msgPtr->hdr.status == BDB_MSG_EVENT_SUCCESS)
??bdb_ProcessOSALMsg_3:
        MOV       DPL,R2
        MOV       DPH,R3
        INC       DPTR
        MOVX      A,@DPTR
        JNZ       ??bdb_ProcessOSALMsg_5
// 3038             {
// 3039               bdb_filterNwkDisc();
        ; Setup parameters for call to function bdb_filterNwkDisc
        LCALL     `??bdb_filterNwkDisc::?relay`; Banked call to: bdb_filterNwkDisc
// 3040               bdb_tryNwkAssoc();
        ; Setup parameters for call to function bdb_tryNwkAssoc
        SJMP      ??bdb_ProcessOSALMsg_6
// 3041             }
// 3042             else
// 3043             {
// 3044               bdb_nwkDiscoveryAttempt(FALSE);
??bdb_ProcessOSALMsg_5:
        ; Setup parameters for call to function bdb_nwkDiscoveryAttempt
        MOV       R1,#0x0
        LCALL     `??bdb_nwkDiscoveryAttempt::?relay`; Banked call to: bdb_nwkDiscoveryAttempt
        LJMP      ??bdb_ProcessOSALMsg_1 & 0xFFFF
// 3045             }
// 3046           break;
// 3047           
// 3048           case BDB_JOIN_EVENT_ASSOCIATION:
// 3049             if(msgPtr->hdr.status == BDB_MSG_EVENT_SUCCESS)
??bdb_ProcessOSALMsg_4:
        MOV       DPL,R2
        MOV       DPH,R3
        INC       DPTR
        MOVX      A,@DPTR
        JNZ       ??bdb_ProcessOSALMsg_7
// 3050             {
// 3051               bdbCommissioningProcedureState.bdbJoinState = BDB_JOIN_STATE_WAITING_NWK_KEY;
        MOV       DPTR,#bdbCommissioningProcedureState + 2
        MOV       A,#0x2
        MOVX      @DPTR,A
// 3052               //Nwk key timeout get right timing
// 3053               osal_start_timerEx(bdb_TaskID,BDB_PROCESS_TIMEOUT, BDB_DEFAULT_DEVICE_UNAUTH_TIMEOUT);
        ; Setup parameters for call to function osal_start_timerEx
        MOV       DPTR,#__Constant_bb8
        LJMP      ??bdb_ProcessOSALMsg_8 & 0xFFFF
// 3054             }
// 3055             else
// 3056             {
// 3057               if ( (NLME_GetShortAddr() != INVALID_NODE_ADDR) ||
// 3058                    (_NIB.nwkDevAddress != INVALID_NODE_ADDR) )
??bdb_ProcessOSALMsg_7:
        ; Setup parameters for call to function NLME_GetShortAddr
        LCALL     `??NLME_GetShortAddr::?relay`; Banked call to: NLME_GetShortAddr
        MOV       ?V0,R2
        MOV       ?V1,R3
        MOV       A,#-0x2
        XRL       A,?V0
        JNZ       ??bdb_ProcessOSALMsg_9
        MOV       A,#-0x1
        XRL       A,?V1
??bdb_ProcessOSALMsg_9:
        JNZ       ??bdb_ProcessOSALMsg_10
        MOV       DPTR,#_NIB + 20
        MOVX      A,@DPTR
        XRL       A,#0xfe
        JNZ       ??bdb_ProcessOSALMsg_11
        INC       DPTR
        MOVX      A,@DPTR
        CPL       A
??bdb_ProcessOSALMsg_11:
        JZ        ??bdb_ProcessOSALMsg_12
// 3059               {
// 3060                 uint16 addr = INVALID_NODE_ADDR;
??bdb_ProcessOSALMsg_10:
        MOV       A,#0x7
        LCALL     ?XSTACK_DISP0_8
        MOV       A,#-0x2
        MOVX      @DPTR,A
        INC       DPTR
        INC       A
        MOVX      @DPTR,A
// 3061                 // Invalidate nwk addr so end device does not use in its data reqs.
// 3062                 _NIB.nwkDevAddress = INVALID_NODE_ADDR;
        MOV       DPTR,#_NIB + 20
        DEC       A
        MOVX      @DPTR,A
        INC       DPTR
        INC       A
        MOVX      @DPTR,A
// 3063                 ZMacSetReq( ZMacShortAddress, (uint8 *)&addr );
        ; Setup parameters for call to function ZMacSetReq
        MOV       A,#0x7
        LCALL     ?XSTACK_DISP101_8
        MOV       R1,#0x53
        LCALL     `??ZMacSetReq::?relay`; Banked call to: ZMacSetReq
// 3064               }
// 3065 
// 3066               //Clear the neighbor Table and network discovery tables.
// 3067               nwkNeighborInitTable();
??bdb_ProcessOSALMsg_12:
        ; Setup parameters for call to function nwkNeighborInitTable
        LCALL     `??nwkNeighborInitTable::?relay`; Banked call to: nwkNeighborInitTable
// 3068               NLME_NwkDiscTerm();
        ; Setup parameters for call to function NLME_NwkDiscTerm
        LCALL     `??NLME_NwkDiscTerm::?relay`; Banked call to: NLME_NwkDiscTerm
// 3069               _NIB.nwkState = NWK_INIT;
        MOV       DPTR,#_NIB + 35
        CLR       A
        MOVX      @DPTR,A
// 3070               
// 3071               bdb_tryNwkAssoc();
        ; Setup parameters for call to function bdb_tryNwkAssoc
??bdb_ProcessOSALMsg_6:
        LCALL     `??bdb_tryNwkAssoc::?relay`; Banked call to: bdb_tryNwkAssoc
        LJMP      ??bdb_ProcessOSALMsg_1 & 0xFFFF
// 3072             }
// 3073           break;
// 3074         }
// 3075       }
// 3076     break;
// 3077     
// 3078     case BDB_COMMISSIONING_STATE_TC_LINK_KEY_EXCHANGE:
// 3079       if(ZG_DEVICE_JOINING_TYPE)
??bdb_ProcessOSALMsg_0:
        MOV       DPTR,#zgDeviceLogicalType
        MOVX      A,@DPTR
        XRL       A,#0x1
        JZ        ??bdb_ProcessOSALMsg_13
        MOVX      A,@DPTR
        XRL       A,#0x2
        JZ        $+5
        LJMP      ??bdb_ProcessOSALMsg_1 & 0xFFFF
// 3080       {
// 3081         if(msgPtr->hdr.status != BDB_MSG_EVENT_SUCCESS)
??bdb_ProcessOSALMsg_13:
        MOV       DPL,R2
        MOV       DPH,R3
        INC       DPTR
        MOVX      A,@DPTR
        JZ        ??bdb_ProcessOSALMsg_14
// 3082         {
// 3083           bdbAttributes.bdbTCLinkKeyExchangeAttempts++;
        MOV       DPTR,#bdbAttributes + 16
        MOVX      A,@DPTR
        INC       A
        MOVX      @DPTR,A
// 3084           if(bdbAttributes.bdbTCLinkKeyExchangeAttempts > bdbAttributes.bdbTCLinkKeyExchangeAttemptsMax)
        MOV       R0,A
        INC       DPTR
        MOVX      A,@DPTR
        CLR       C
        SUBB      A,R0
        JNC       ??bdb_ProcessOSALMsg_14
// 3085           {
// 3086             //TCLK process fail due to many attempts fails
// 3087             bdb_reportCommissioningState(BDB_COMMISSIONING_STATE_TC_LINK_KEY_EXCHANGE, FALSE);
        ; Setup parameters for call to function bdb_reportCommissioningState
        MOV       R2,#0x0
        SJMP      ??bdb_ProcessOSALMsg_15
// 3088             return;
// 3089           }
// 3090         }
// 3091         switch(bdbCommissioningProcedureState.bdbTCExchangeState)
??bdb_ProcessOSALMsg_14:
        MOV       DPTR,#bdbCommissioningProcedureState + 1
        MOVX      A,@DPTR
        DEC       A
        JZ        ??bdb_ProcessOSALMsg_16
        DEC       A
        JZ        ??bdb_ProcessOSALMsg_17
        DEC       A
        JNZ       $+5
        LJMP      ??bdb_ProcessOSALMsg_18 & 0xFFFF
        LJMP      ??bdb_ProcessOSALMsg_1 & 0xFFFF
// 3092         {
// 3093           case BDB_REQ_TC_STACK_VERSION:
// 3094             bdb_requestTCStackVersion();
??bdb_ProcessOSALMsg_16:
        MOV       DPTR,#requestNewTrustCenterLinkKey
        MOVX      A,@DPTR
        JZ        ??bdb_ProcessOSALMsg_19
        ; Setup parameters for call to function APSME_IsDistributedSecurity
        LCALL     `??APSME_IsDistributedSecurity::?relay`; Banked call to: APSME_IsDistributedSecurity
        MOV       A,R1
        JNZ       ??bdb_ProcessOSALMsg_20
        MOV       DPTR,#bdbAttributes + 18
        MOVX      A,@DPTR
        JNZ       ??bdb_ProcessOSALMsg_21
        MOV       A,#0x19
        LCALL     ?XSTACK_DISP0_8
        MOV       A,#0x2
        MOVX      @DPTR,A
        MOV       A,#0x11
        LCALL     ?XSTACK_DISP0_8
        CLR       A
        MOVX      @DPTR,A
        INC       DPTR
        MOVX      @DPTR,A
        ; Setup parameters for call to function ZDP_NWKAddrOfInterestReq
        MOV       ?V0,A
        MOV       R0,#?V0
        LCALL     ?PUSH_XSTACK_I_ONE
          CFI CFA_XSP16 add(XSP16, 37)
        MOV       R1,#0x2
        MOV       R4,#0x0
        MOV       R5,#0x0
        MOV       A,#0x12
        LCALL     ?XSTACK_DISP101_8
        LCALL     `??ZDP_NWKAddrOfInterestReq::?relay`; Banked call to: ZDP_NWKAddrOfInterestReq
        MOV       A,#0x1
        LCALL     ?DEALLOC_XSTACK8
          CFI CFA_XSP16 add(XSP16, 36)
        ; Setup parameters for call to function osal_stop_timerEx
        SJMP      ??bdb_ProcessOSALMsg_22
??bdb_ProcessOSALMsg_21:
        MOV       DPTR,#pfnCBKETCLinkKeyExchange
        LCALL     ??Subroutine37_0 & 0xFFFF
??CrossCallReturnLabel_85:
        JNZ       $+5
        LJMP      ??bdb_ProcessOSALMsg_1 & 0xFFFF
        ; Setup parameters for indirect call
        LCALL     ??Subroutine35_0 & 0xFFFF
??CrossCallReturnLabel_65:
        LCALL     ?CALL_IND
        LJMP      ??bdb_ProcessOSALMsg_1 & 0xFFFF
??bdb_ProcessOSALMsg_20:
        ; Setup parameters for call to function bdb_setNodeJoinLinkKeyType
        MOV       R1,#0x1
        SJMP      ??bdb_ProcessOSALMsg_23
??bdb_ProcessOSALMsg_19:
        ; Setup parameters for call to function bdb_setNodeJoinLinkKeyType
        MOV       R1,#0x0
??bdb_ProcessOSALMsg_23:
        LCALL     `??bdb_setNodeJoinLinkKeyType::?relay`; Banked call to: bdb_setNodeJoinLinkKeyType
        ; Setup parameters for call to function bdb_reportCommissioningState
        MOV       R2,#0x1
??bdb_ProcessOSALMsg_15:
        MOV       R1,#0x1
        LCALL     `??bdb_reportCommissioningState::?relay`; Banked call to: bdb_reportCommissioningState
        SJMP      ??bdb_ProcessOSALMsg_1
// 3095           break;
// 3096           case BDB_REQ_TC_LINK_KEY:
// 3097             bdb_requestTCLinkKey();
??bdb_ProcessOSALMsg_17:
        MOV       A,#0x3
        LCALL     ?XSTACK_DISP0_8
        CLR       A
        MOVX      @DPTR,A
        MOV       A,#0x4
        LCALL     ?XSTACK_DISP0_8
        MOV       A,#0x4
        MOVX      @DPTR,A
        ; Setup parameters for call to function APSME_RequestKeyReq
        DEC       A
        LCALL     ?XSTACK_DISP101_8
        LCALL     `??APSME_RequestKeyReq::?relay`; Banked call to: APSME_RequestKeyReq
        ; Setup parameters for call to function osal_stop_timerEx
        MOV       R2,#0x0
        MOV       R3,#0x10
        MOV       DPTR,#bdb_TaskID
        MOVX      A,@DPTR
        MOV       R1,A
        LCALL     `??osal_stop_timerEx::?relay`; Banked call to: osal_stop_timerEx
        ; Setup parameters for call to function osal_start_timerEx
        MOV       DPTR,#requestLinkKeyTimeout
        SJMP      ??bdb_ProcessOSALMsg_8
// 3098           break;
// 3099           case BDB_REQ_VERIFY_TC_LINK_KEY:
// 3100             bdb_requestVerifyTCLinkKey();
??bdb_ProcessOSALMsg_18:
        ; Setup parameters for call to function APSME_GetRequest
        MOV       A,#0x9
        LCALL     ?XSTACK_DISP102_8
        MOV       R2,#0x0
        MOV       R3,#0x0
        MOV       R1,#-0x55
        LCALL     `??APSME_GetRequest::?relay`; Banked call to: APSME_GetRequest
        MOV       A,#0x9
        LCALL     ?XSTACK_DISP100_8
        MOV       DPL,?XSP + 0
        MOV       DPH,?XSP + 1
        MOV       A,R0
        MOVX      @DPTR,A
        INC       DPTR
        MOV       A,R1
        MOVX      @DPTR,A
        MOV       A,#0x2
        LCALL     ?XSTACK_DISP0_8
        MOV       A,#0x4
        MOVX      @DPTR,A
        ; Setup parameters for call to function APSME_VerifyKeyReq
        MOV       R2,?XSP + 0
        MOV       R3,?XSP + 1
        LCALL     `??APSME_VerifyKeyReq::?relay`; Banked call to: APSME_VerifyKeyReq
        ; Setup parameters for call to function osal_stop_timerEx
??bdb_ProcessOSALMsg_22:
        MOV       R2,#0x0
        MOV       R3,#0x10
        MOV       DPTR,#bdb_TaskID
        MOVX      A,@DPTR
        MOV       R1,A
        LCALL     `??osal_stop_timerEx::?relay`; Banked call to: osal_stop_timerEx
        ; Setup parameters for call to function osal_start_timerEx
        MOV       DPTR,#__Constant_1388
??bdb_ProcessOSALMsg_8:
        LCALL     ?PUSH_XSTACK8_X_FOUR
          CFI CFA_XSP16 add(XSP16, 40)
        MOV       R2,#0x0
        MOV       R3,#0x10
        MOV       DPTR,#bdb_TaskID
        MOVX      A,@DPTR
        MOV       R1,A
        LCALL     `??osal_start_timerEx::?relay`; Banked call to: osal_start_timerEx
        MOV       A,#0x4
        LCALL     ?DEALLOC_XSTACK8
          CFI CFA_XSP16 add(XSP16, 36)
// 3101           break;
// 3102         }
// 3103       }
// 3104    break;
// 3105 #endif
// 3106    }
// 3107 }
??bdb_ProcessOSALMsg_1:
        MOV       A,#0x1a
        LJMP      ??Subroutine41_0 & 0xFFFF
          CFI EndBlock cfiBlock213
// 3108 
// 3109 
// 3110 /*********************************************************************
// 3111  * @fn      bdb_processTimeout
// 3112  *
// 3113  * @brief   Handles timeout of the bdb process
// 3114  *
// 3115  * @param   msgPtr - message to process
// 3116  *
// 3117  * @return  none
// 3118  */
// 3119 void bdb_processTimeout(void)
// 3120 {
// 3121 #if (ZG_BUILD_JOINING_TYPE)
// 3122   if(ZG_DEVICE_JOINING_TYPE)
// 3123   {
// 3124     switch(bdbCommissioningProcedureState.bdbCommissioningState)
// 3125     {
// 3126       case BDB_COMMISSIONING_STATE_TC_LINK_KEY_EXCHANGE:
// 3127         
// 3128         bdb_tcLinkKeyExchangeAttempt(FALSE,bdbCommissioningProcedureState.bdbTCExchangeState);
// 3129       break;
// 3130       case BDB_COMMISSIONING_STATE_JOINING:
// 3131         if(bdbCommissioningProcedureState.bdbJoinState == BDB_JOIN_STATE_WAITING_NWK_KEY)
// 3132         {
// 3133           //If nwk key fails, then try association again
// 3134           bdbCommissioningProcedureState.bdbJoinState = BDB_JOIN_STATE_ASSOC;
// 3135           bdb_nwkAssocAttemt(FALSE);
// 3136         }
// 3137       break;
// 3138     }
// 3139   }
// 3140 #endif
// 3141   
// 3142 }
// 3143 
// 3144 
// 3145 /*********************************************************************
// 3146  * @fn      bdb_SendMsg
// 3147  *
// 3148  * @brief   Send messages to bdb processing with the expected format
// 3149  *
// 3150  * @param   msgPtr - message to process
// 3151  *
// 3152  * @return  none
// 3153  */

        RSEG BANKED_CODE:HUGECODE:NOROOT(0)
// 3154 void bdb_SendMsg(uint8 taskID, uint8 toCommissioningState,uint8 status, uint8 len, uint8 *buf)
bdb_SendMsg:
          CFI Block cfiBlock214 Using cfiCommon0
          CFI Function bdb_SendMsg
        CODE
// 3155 {
        FUNCALL bdb_SendMsg, osal_msg_allocate
        LOCFRAME ISTACK, 0, STACK
        LOCFRAME PSTACK, 0, STACK
        LOCFRAME XSTACK, 17, STACK
        LOCFRAME IOVERLAY, 0, STATIC
        LOCFRAME DOVERLAY, 0, STATIC
        ARGFRAME ISTACK, 0, STACK
        ARGFRAME PSTACK, 0, STACK
        ARGFRAME XSTACK, 17, STACK
        ARGFRAME IOVERLAY, 0, STATIC
        ARGFRAME DOVERLAY, 0, STATIC
        FUNCALL bdb_SendMsg, osal_memcpy
        LOCFRAME ISTACK, 0, STACK
        LOCFRAME PSTACK, 0, STACK
        LOCFRAME XSTACK, 20, STACK
        LOCFRAME IOVERLAY, 0, STATIC
        LOCFRAME DOVERLAY, 0, STATIC
        ARGFRAME ISTACK, 0, STACK
        ARGFRAME PSTACK, 0, STACK
        ARGFRAME XSTACK, 20, STACK
        ARGFRAME IOVERLAY, 0, STATIC
        ARGFRAME DOVERLAY, 0, STATIC
        FUNCALL bdb_SendMsg, osal_msg_send
        LOCFRAME ISTACK, 0, STACK
        LOCFRAME PSTACK, 0, STACK
        LOCFRAME XSTACK, 17, STACK
        LOCFRAME IOVERLAY, 0, STATIC
        LOCFRAME DOVERLAY, 0, STATIC
        ARGFRAME ISTACK, 0, STACK
        ARGFRAME PSTACK, 0, STACK
        ARGFRAME XSTACK, 17, STACK
        ARGFRAME IOVERLAY, 0, STATIC
        ARGFRAME DOVERLAY, 0, STATIC
        REQUIRE ?V0
        REQUIRE ?V1
        REQUIRE ?V2
        REQUIRE ?V3
        REQUIRE ?V4
        REQUIRE ?V5
        REQUIRE ?V6
        REQUIRE ?V7
        REQUIRE ?V8
        MOV       A,#-0x11
        LCALL     ?BANKED_ENTER_XDATA
          CFI DPH0 load(1, XDATA, add(CFA_XSP16, literal(-1)))
          CFI DPL0 load(1, XDATA, add(CFA_XSP16, literal(-2)))
          CFI ?BRET_EXT load(1, XDATA, add(CFA_XSP16, literal(-3)))
          CFI ?RET_HIGH load(1, XDATA, add(CFA_XSP16, literal(-4)))
          CFI ?RET_LOW load(1, XDATA, add(CFA_XSP16, literal(-5)))
          CFI R7 load(1, XDATA, add(CFA_XSP16, literal(-6)))
          CFI V8 load(1, XDATA, add(CFA_XSP16, literal(-7)))
          CFI V7 load(1, XDATA, add(CFA_XSP16, literal(-8)))
          CFI V6 load(1, XDATA, add(CFA_XSP16, literal(-9)))
          CFI V5 load(1, XDATA, add(CFA_XSP16, literal(-10)))
          CFI V4 load(1, XDATA, add(CFA_XSP16, literal(-11)))
          CFI V3 load(1, XDATA, add(CFA_XSP16, literal(-12)))
          CFI V2 load(1, XDATA, add(CFA_XSP16, literal(-13)))
          CFI V1 load(1, XDATA, add(CFA_XSP16, literal(-14)))
          CFI V0 load(1, XDATA, add(CFA_XSP16, literal(-15)))
          CFI VB load(1, XDATA, add(CFA_XSP16, literal(-16)))
          CFI R6 load(1, XDATA, add(CFA_XSP16, literal(-17)))
          CFI CFA_SP SP+0
          CFI CFA_XSP16 add(XSP16, 17)
        ; Saved register size: 17
        ; Auto size: 0
        MOV       ?V2,R1
        MOV       ?V7,R2
        MOV       ?V8,R3
        MOV       ?V3,R4
// 3156   bdbInMsg_t *msgPtr = NULL;
// 3157 
// 3158   if ( (len > 0) && (buf != NULL) )
        MOV       A,R4
        JZ        ??bdb_SendMsg_0
        MOV       A,#0x11
        LCALL     ?XSTACK_DISP0_8
        LCALL     ?Subroutine20 & 0xFFFF
??CrossCallReturnLabel_32:
        MOV       A,?V0
        ORL       A,?V1
        JZ        ??bdb_SendMsg_0
// 3159   {
// 3160     uint8 tmpLength;
// 3161     tmpLength = len;
// 3162     tmpLength += sizeof(osal_event_hdr_t);
// 3163     
// 3164     msgPtr = (bdbInMsg_t *)osal_msg_allocate( tmpLength );
        ; Setup parameters for call to function osal_msg_allocate
        MOV       A,#0x2
        ADD       A,R4
        MOV       R2,A
        MOV       R3,#0x0
        LCALL     `??osal_msg_allocate::?relay`; Banked call to: osal_msg_allocate
        MOV       ?V4,R2
        MOV       ?V5,R3
        MOV       R6,?V4
        MOV       R7,?V5
// 3165     
// 3166     if ( msgPtr )
        MOV       A,R6
        ORL       A,R7
        JZ        ??bdb_SendMsg_0
// 3167     {
// 3168       osal_memcpy( msgPtr->buf, buf, len );
        ; Setup parameters for call to function osal_memcpy
        MOV       ?V4,?V0
        MOV       ?V5,?V1
        MOV       ?V6,#0x0
        MOV       R0,#?V4
        LCALL     ?PUSH_XSTACK_I_THREE
          CFI CFA_XSP16 add(XSP16, 20)
        MOV       R4,?V3
        MOV       R5,#0x0
        MOV       A,R6
        ADD       A,#0x2
        MOV       R2,A
        CLR       A
        ADDC      A,R7
        MOV       R3,A
        LCALL     `??osal_memcpy::?relay`; Banked call to: osal_memcpy
        MOV       A,#0x3
        LCALL     ?DEALLOC_XSTACK8
          CFI CFA_XSP16 add(XSP16, 17)
// 3169     
// 3170       msgPtr->hdr.event = toCommissioningState;
        MOV       DPL,R6
        MOV       DPH,R7
        MOV       A,?V7
        MOVX      @DPTR,A
// 3171       msgPtr->hdr.status = status;
        INC       DPTR
        MOV       A,?V8
        MOVX      @DPTR,A
// 3172       osal_msg_send( taskID, (uint8 *)msgPtr );
        ; Setup parameters for call to function osal_msg_send
        MOV       A,R6
        MOV       R2,A
        MOV       A,R7
        MOV       R3,A
        MOV       R1,?V2
        LCALL     `??osal_msg_send::?relay`; Banked call to: osal_msg_send
// 3173     }
// 3174   }
// 3175 }
??bdb_SendMsg_0:
        MOV       R7,#0x9
        LJMP      ?BANKED_LEAVE_XDATA
          CFI EndBlock cfiBlock214
// 3176 
// 3177 
// 3178 /*********************************************************************
// 3179  * @fn      bdb_RegisterCommissioningStatusCB
// 3180  *
// 3181  * @brief   Register a callback in which the status of the procedures done in
// 3182  *          BDB commissioning process will be reported
// 3183  *
// 3184  * @param   bdbGCB_CommissioningStatus - application callback
// 3185  *
// 3186  * @return  none
// 3187  */

        RSEG BANKED_CODE:HUGECODE:NOROOT(0)
// 3188 void bdb_RegisterCommissioningStatusCB(bdbGCB_CommissioningStatus_t bdbGCB_CommissioningStatus)
bdb_RegisterCommissioningStatusCB:
          CFI Block cfiBlock215 Using cfiCommon0
          CFI Function bdb_RegisterCommissioningStatusCB
        CODE
// 3189 {
        PUSH      DPL
          CFI DPL0 Frame(CFA_SP, 4)
          CFI CFA_SP SP+-4
        PUSH      DPH
          CFI DPH0 Frame(CFA_SP, 5)
          CFI CFA_SP SP+-5
        ; Saved register size: 2
        ; Auto size: 0
// 3190   pfnCommissioningStatusCB = bdbGCB_CommissioningStatus;
        MOV       DPTR,#pfnCommissioningStatusCB
        LJMP      ?Subroutine3 & 0xFFFF
// 3191 }
          CFI EndBlock cfiBlock215
// 3192 
// 3193 /*********************************************************************
// 3194  * @fn      bdb_ClearNetworkParams
// 3195  *
// 3196  * @brief   Restore nwk parameters to invalid if the device is not on a network
// 3197  *
// 3198  * @param   void
// 3199  *
// 3200  * @return  void
// 3201  */

        RSEG BANKED_CODE:HUGECODE:NOROOT(0)
// 3202 void bdb_ClearNetworkParams(void)
bdb_ClearNetworkParams:
          CFI Block cfiBlock216 Using cfiCommon0
          CFI Function bdb_ClearNetworkParams
        CODE
// 3203 {
        ; Saved register size: 0
        ; Auto size: 0
// 3204 #if (BDB_TOUCHLINK_CAPABILITY_ENABLED == TRUE)
// 3205   if ( bdbAttributes.bdbNodeIsOnANetwork == FALSE )
// 3206   {
// 3207     //Clear the event
// 3208     _NIB.nwkPanId = INVALID_NODE_ADDR;
// 3209     _NIB.nwkLogicalChannel = 0;
// 3210     _NIB.nwkDevAddress = INVALID_NODE_ADDR;
// 3211     touchLink_SetMacNwkParams( _NIB.nwkDevAddress, _NIB.nwkPanId, _NIB.nwkLogicalChannel );
// 3212   }
// 3213 #endif
// 3214 }
        LJMP      ?BRET
          CFI EndBlock cfiBlock216
// 3215 
// 3216 /*********************************************************************
// 3217  * @fn      bdb_getZCLFrameCounter
// 3218  *
// 3219  * @brief   Get the next ZCL Frame Counter for packet sequence number
// 3220  *
// 3221  * @param   none
// 3222  *
// 3223  * @return  next ZCL frame counter
// 3224  */

        RSEG BANKED_CODE:HUGECODE:NOROOT(0)
// 3225 uint8 bdb_getZCLFrameCounter(void)
bdb_getZCLFrameCounter:
          CFI Block cfiBlock217 Using cfiCommon0
          CFI Function bdb_getZCLFrameCounter
        CODE
// 3226 {
        PUSH      DPL
          CFI DPL0 Frame(CFA_SP, 4)
          CFI CFA_SP SP+-4
        PUSH      DPH
          CFI DPH0 Frame(CFA_SP, 5)
          CFI CFA_SP SP+-5
        ; Saved register size: 2
        ; Auto size: 0
// 3227   bdb_ZclTransactionSequenceNumber++;
        MOV       DPTR,#bdb_ZclTransactionSequenceNumber
        MOVX      A,@DPTR
        INC       A
        MOVX      @DPTR,A
// 3228   return bdb_ZclTransactionSequenceNumber;
        MOV       R1,A
        LJMP      ??Subroutine32_0 & 0xFFFF
// 3229 
// 3230 }
          CFI EndBlock cfiBlock217
// 3231 
// 3232 
// 3233 #if (ZG_BUILD_JOINING_TYPE)
// 3234 /*********************************************************************
// 3235  * @fn      bdb_RegisterCBKETCLinkKeyExchangeCB
// 3236  *
// 3237  * @brief   Register a callback in which the TC link key exchange procedure will 
// 3238  *          be performed by application.
// 3239  *          Upon fail or success bdb must be notified, see bdb_CBKETCLinkKeyExchangeAttempt
// 3240  *
// 3241  * @param   bdbGCB_TCLinkKeyExchangeMethod - application callback
// 3242  *
// 3243  * @return  none
// 3244  */

        RSEG BANKED_CODE:HUGECODE:NOROOT(0)
// 3245 void bdb_RegisterCBKETCLinkKeyExchangeCB(bdbGCB_CBKETCLinkKeyExchange_t bdbGCB_CBKETCLinkKeyExchange)
bdb_RegisterCBKETCLinkKeyExchangeCB:
          CFI Block cfiBlock218 Using cfiCommon0
          CFI Function bdb_RegisterCBKETCLinkKeyExchangeCB
        CODE
// 3246 {
        PUSH      DPL
          CFI DPL0 Frame(CFA_SP, 4)
          CFI CFA_SP SP+-4
        PUSH      DPH
          CFI DPH0 Frame(CFA_SP, 5)
          CFI CFA_SP SP+-5
        ; Saved register size: 2
        ; Auto size: 0
// 3247   if(bdbGCB_CBKETCLinkKeyExchange)
        MOV       A,R2
        ORL       A,R3
        MOV       DPTR,#pfnCBKETCLinkKeyExchange
        JZ        ??bdb_RegisterCBKETCLinkKeyExchangeCB_0
// 3248   {
// 3249     pfnCBKETCLinkKeyExchange = bdbGCB_CBKETCLinkKeyExchange;
        LCALL     ?Subroutine11 & 0xFFFF
// 3250     bdbAttributes.bdbTCLinkKeyExchangeMethod = BDB_TC_LINK_KEY_EXCHANGE_CBKE;
??CrossCallReturnLabel_15:
        MOV       DPTR,#bdbAttributes + 18
        MOV       A,#0x1
        SJMP      ??bdb_RegisterCBKETCLinkKeyExchangeCB_1
// 3251   }
// 3252   else
// 3253   {
// 3254     pfnCBKETCLinkKeyExchange = NULL;
??bdb_RegisterCBKETCLinkKeyExchangeCB_0:
        CLR       A
        MOVX      @DPTR,A
        INC       DPTR
        MOVX      @DPTR,A
// 3255     bdbAttributes.bdbTCLinkKeyExchangeMethod = BDB_TC_LINK_KEY_EXCHANGE_APS_KEY;
        MOV       DPTR,#bdbAttributes + 18
// 3256   }
??bdb_RegisterCBKETCLinkKeyExchangeCB_1:
        LJMP      ??Subroutine31_0 & 0xFFFF
// 3257 }
          CFI EndBlock cfiBlock218

        RSEG BANKED_CODE:HUGECODE:NOROOT(0)
?Subroutine11:
          CFI Block cfiCond219 Using cfiCommon0
          CFI Function bdb_filterNwkDisc
          CFI Conditional ??CrossCallReturnLabel_12
          CFI R6 load(1, XDATA, add(CFA_XSP16, literal(-11)))
          CFI VB load(1, XDATA, add(CFA_XSP16, literal(-10)))
          CFI V0 load(1, XDATA, add(CFA_XSP16, literal(-9)))
          CFI V1 load(1, XDATA, add(CFA_XSP16, literal(-8)))
          CFI V2 load(1, XDATA, add(CFA_XSP16, literal(-7)))
          CFI R7 load(1, XDATA, add(CFA_XSP16, literal(-6)))
          CFI ?RET_LOW load(1, XDATA, add(CFA_XSP16, literal(-5)))
          CFI ?RET_HIGH load(1, XDATA, add(CFA_XSP16, literal(-4)))
          CFI ?BRET_EXT load(1, XDATA, add(CFA_XSP16, literal(-3)))
          CFI DPL0 load(1, XDATA, add(CFA_XSP16, literal(-2)))
          CFI DPH0 load(1, XDATA, add(CFA_XSP16, literal(-1)))
          CFI CFA_SP SP+-2
          CFI CFA_XSP16 add(XSP16, 11)
          CFI Block cfiCond220 Using cfiCommon0
          CFI (cfiCond220) Function bdb_nwkDescFree
          CFI (cfiCond220) Conditional ??CrossCallReturnLabel_13
          CFI (cfiCond220) DPL0 Frame(CFA_SP, 4)
          CFI (cfiCond220) DPH0 Frame(CFA_SP, 5)
          CFI (cfiCond220) CFA_SP SP+-7
          CFI Block cfiCond221 Using cfiCommon0
          CFI (cfiCond221) Function bdb_event_loop
          CFI (cfiCond221) Conditional ??CrossCallReturnLabel_14
          CFI (cfiCond221) R6 load(1, XDATA, add(CFA_XSP16, literal(-16)))
          CFI (cfiCond221) VB load(1, XDATA, add(CFA_XSP16, literal(-15)))
          CFI (cfiCond221) V0 load(1, XDATA, add(CFA_XSP16, literal(-14)))
          CFI (cfiCond221) V1 load(1, XDATA, add(CFA_XSP16, literal(-13)))
          CFI (cfiCond221) V2 load(1, XDATA, add(CFA_XSP16, literal(-12)))
          CFI (cfiCond221) V3 load(1, XDATA, add(CFA_XSP16, literal(-11)))
          CFI (cfiCond221) V4 load(1, XDATA, add(CFA_XSP16, literal(-10)))
          CFI (cfiCond221) V5 load(1, XDATA, add(CFA_XSP16, literal(-9)))
          CFI (cfiCond221) V6 load(1, XDATA, add(CFA_XSP16, literal(-8)))
          CFI (cfiCond221) V7 load(1, XDATA, add(CFA_XSP16, literal(-7)))
          CFI (cfiCond221) R7 load(1, XDATA, add(CFA_XSP16, literal(-6)))
          CFI (cfiCond221) ?RET_LOW load(1, XDATA, add(CFA_XSP16, literal(-5)))
          CFI (cfiCond221) ?RET_HIGH load(1, XDATA, add(CFA_XSP16, literal(-4)))
          CFI (cfiCond221) ?BRET_EXT load(1, XDATA, add(CFA_XSP16, literal(-3)))
          CFI (cfiCond221) DPL0 load(1, XDATA, add(CFA_XSP16, literal(-2)))
          CFI (cfiCond221) DPH0 load(1, XDATA, add(CFA_XSP16, literal(-1)))
          CFI (cfiCond221) CFA_SP SP+-2
          CFI (cfiCond221) CFA_XSP16 add(XSP16, 29)
          CFI Block cfiCond222 Using cfiCommon0
          CFI (cfiCond222) Function bdb_RegisterCBKETCLinkKeyExchangeCB
          CFI (cfiCond222) Conditional ??CrossCallReturnLabel_15
          CFI (cfiCond222) DPL0 Frame(CFA_SP, 4)
          CFI (cfiCond222) DPH0 Frame(CFA_SP, 5)
          CFI (cfiCond222) CFA_SP SP+-7
          CFI Block cfiCond223 Using cfiCommon0
          CFI (cfiCond223) Function bdb_RegisterForFilterNwkDescCB
          CFI (cfiCond223) Conditional ??CrossCallReturnLabel_16
          CFI (cfiCond223) DPL0 Frame(CFA_SP, 4)
          CFI (cfiCond223) DPH0 Frame(CFA_SP, 5)
          CFI (cfiCond223) CFA_SP SP+-7
          CFI Block cfiCond224 Using cfiCommon0
          CFI (cfiCond224) Function bdb_calculateCCITT_CRC
          CFI (cfiCond224) Conditional ??CrossCallReturnLabel_17
          CFI (cfiCond224) R6 load(1, XDATA, add(CFA_XSP16, literal(-12)))
          CFI (cfiCond224) VB load(1, XDATA, add(CFA_XSP16, literal(-11)))
          CFI (cfiCond224) V0 load(1, XDATA, add(CFA_XSP16, literal(-10)))
          CFI (cfiCond224) V1 load(1, XDATA, add(CFA_XSP16, literal(-9)))
          CFI (cfiCond224) V2 load(1, XDATA, add(CFA_XSP16, literal(-8)))
          CFI (cfiCond224) V3 load(1, XDATA, add(CFA_XSP16, literal(-7)))
          CFI (cfiCond224) R7 load(1, XDATA, add(CFA_XSP16, literal(-6)))
          CFI (cfiCond224) ?RET_LOW load(1, XDATA, add(CFA_XSP16, literal(-5)))
          CFI (cfiCond224) ?RET_HIGH load(1, XDATA, add(CFA_XSP16, literal(-4)))
          CFI (cfiCond224) ?BRET_EXT load(1, XDATA, add(CFA_XSP16, literal(-3)))
          CFI (cfiCond224) DPL0 load(1, XDATA, add(CFA_XSP16, literal(-2)))
          CFI (cfiCond224) DPH0 load(1, XDATA, add(CFA_XSP16, literal(-1)))
          CFI (cfiCond224) CFA_SP SP+-2
          CFI (cfiCond224) CFA_XSP16 add(XSP16, 16)
          CFI Block cfiPicker225 Using cfiCommon1
          CFI (cfiPicker225) NoFunction
          CFI (cfiPicker225) Picker
        MOV       A,R2
        MOVX      @DPTR,A
        INC       DPTR
        MOV       A,R3
        MOVX      @DPTR,A
        RET
          CFI EndBlock cfiCond219
          CFI EndBlock cfiCond220
          CFI EndBlock cfiCond221
          CFI EndBlock cfiCond222
          CFI EndBlock cfiCond223
          CFI EndBlock cfiCond224
          CFI EndBlock cfiPicker225
// 3258 
// 3259 /*********************************************************************
// 3260  * @fn      bdb_RegisterForFilterNwkDescCB
// 3261  *
// 3262  * @brief   Register a callback in which the application gets the list of network
// 3263  *          descriptors got from active scan.
// 3264  *          Use bdb_nwkDescFree to release the network descriptors that are not 
// 3265  *          of interest and leave those which are to be attempted.
// 3266  *
// 3267  * @param   bdbGCB_FilterNwkDesc - application callback
// 3268  *
// 3269  * @return  none
// 3270  */

        RSEG BANKED_CODE:HUGECODE:NOROOT(0)
// 3271 void bdb_RegisterForFilterNwkDescCB(bdbGCB_FilterNwkDesc_t bdbGCB_FilterNwkDesc)
bdb_RegisterForFilterNwkDescCB:
          CFI Block cfiBlock226 Using cfiCommon0
          CFI Function bdb_RegisterForFilterNwkDescCB
        CODE
// 3272 {
        PUSH      DPL
          CFI DPL0 Frame(CFA_SP, 4)
          CFI CFA_SP SP+-4
        PUSH      DPH
          CFI DPH0 Frame(CFA_SP, 5)
          CFI CFA_SP SP+-5
        ; Saved register size: 2
        ; Auto size: 0
// 3273   if(bdbGCB_FilterNwkDesc)
        MOV       A,R2
        ORL       A,R3
        JZ        ??CrossCallReturnLabel_16
// 3274   {
// 3275     pfnFilterNwkDesc = bdbGCB_FilterNwkDesc;
        MOV       DPTR,#pfnFilterNwkDesc
        LCALL     ?Subroutine11 & 0xFFFF
// 3276   }
// 3277 }
??CrossCallReturnLabel_16:
        LJMP      ??Subroutine32_0 & 0xFFFF
          CFI EndBlock cfiBlock226
// 3278 
// 3279 
// 3280 /*********************************************************************
// 3281  * @fn          bdb_CBKETCLinkKeyExchangeAttempt
// 3282  *
// 3283  * @brief       Tell BDB module the result of the TC link key exchange, to try
// 3284  *              the default process or to keep going with the joining process.
// 3285  *
// 3286  * @param       didSuccess - TRUE if the process was succes, False otherwise
// 3287  *
// 3288  * @return      unprocessed events
// 3289  */

        RSEG BANKED_CODE:HUGECODE:NOROOT(0)
// 3290 void bdb_CBKETCLinkKeyExchangeAttempt(bool didSuccess)
bdb_CBKETCLinkKeyExchangeAttempt:
          CFI Block cfiBlock227 Using cfiCommon0
          CFI Function bdb_CBKETCLinkKeyExchangeAttempt
        CODE
// 3291 {
        FUNCALL bdb_CBKETCLinkKeyExchangeAttempt, bdb_setNodeJoinLinkKeyType
        LOCFRAME ISTACK, 0, STACK
        LOCFRAME PSTACK, 0, STACK
        LOCFRAME XSTACK, 9, STACK
        LOCFRAME IOVERLAY, 0, STATIC
        LOCFRAME DOVERLAY, 0, STATIC
        ARGFRAME ISTACK, 0, STACK
        ARGFRAME PSTACK, 0, STACK
        ARGFRAME XSTACK, 9, STACK
        ARGFRAME IOVERLAY, 0, STATIC
        ARGFRAME DOVERLAY, 0, STATIC
        FUNCALL bdb_CBKETCLinkKeyExchangeAttempt, bdb_reportCommissioningState
        LOCFRAME ISTACK, 0, STACK
        LOCFRAME PSTACK, 0, STACK
        LOCFRAME XSTACK, 9, STACK
        LOCFRAME IOVERLAY, 0, STATIC
        LOCFRAME DOVERLAY, 0, STATIC
        ARGFRAME ISTACK, 0, STACK
        ARGFRAME PSTACK, 0, STACK
        ARGFRAME XSTACK, 9, STACK
        ARGFRAME IOVERLAY, 0, STATIC
        ARGFRAME DOVERLAY, 0, STATIC
        FUNCALL bdb_CBKETCLinkKeyExchangeAttempt, bdb_tcLinkKeyExchangeAttempt
        LOCFRAME ISTACK, 0, STACK
        LOCFRAME PSTACK, 0, STACK
        LOCFRAME XSTACK, 9, STACK
        LOCFRAME IOVERLAY, 0, STATIC
        LOCFRAME DOVERLAY, 0, STATIC
        ARGFRAME ISTACK, 0, STACK
        ARGFRAME PSTACK, 0, STACK
        ARGFRAME XSTACK, 9, STACK
        ARGFRAME IOVERLAY, 0, STATIC
        ARGFRAME DOVERLAY, 0, STATIC
        MOV       A,#-0x9
        LCALL     ?BANKED_ENTER_XDATA
          CFI DPH0 load(1, XDATA, add(CFA_XSP16, literal(-1)))
          CFI DPL0 load(1, XDATA, add(CFA_XSP16, literal(-2)))
          CFI ?BRET_EXT load(1, XDATA, add(CFA_XSP16, literal(-3)))
          CFI ?RET_HIGH load(1, XDATA, add(CFA_XSP16, literal(-4)))
          CFI ?RET_LOW load(1, XDATA, add(CFA_XSP16, literal(-5)))
          CFI R7 load(1, XDATA, add(CFA_XSP16, literal(-6)))
          CFI V0 load(1, XDATA, add(CFA_XSP16, literal(-7)))
          CFI VB load(1, XDATA, add(CFA_XSP16, literal(-8)))
          CFI R6 load(1, XDATA, add(CFA_XSP16, literal(-9)))
          CFI CFA_SP SP+0
          CFI CFA_XSP16 add(XSP16, 9)
        ; Saved register size: 9
        ; Auto size: 0
        MOV       A,R1
// 3292   if(didSuccess)
        JZ        ??bdb_CBKETCLinkKeyExchangeAttempt_0
// 3293   {
// 3294     bdb_setNodeJoinLinkKeyType(BDB_DEFAULT_GLOBAL_TRUST_CENTER_LINK_KEY);
        ; Setup parameters for call to function bdb_setNodeJoinLinkKeyType
        MOV       R1,#0x0
        LCALL     `??bdb_setNodeJoinLinkKeyType::?relay`; Banked call to: bdb_setNodeJoinLinkKeyType
// 3295     bdb_reportCommissioningState(BDB_COMMISSIONING_STATE_TC_LINK_KEY_EXCHANGE, TRUE);
        ; Setup parameters for call to function bdb_reportCommissioningState
        MOV       R2,#0x1
        MOV       R1,#0x1
        LCALL     `??bdb_reportCommissioningState::?relay`; Banked call to: bdb_reportCommissioningState
        SJMP      ??bdb_CBKETCLinkKeyExchangeAttempt_1
// 3296   }
// 3297   else
// 3298   {
// 3299     bdbAttributes.bdbTCLinkKeyExchangeMethod = BDB_TC_LINK_KEY_EXCHANGE_APS_KEY;
??bdb_CBKETCLinkKeyExchangeAttempt_0:
        MOV       DPTR,#bdbAttributes + 18
        CLR       A
        MOVX      @DPTR,A
// 3300     //We are going back one state to try it again
// 3301     bdbCommissioningProcedureState.bdbTCExchangeState -= BDB_TC_EXCHANGE_NEXT_STATE;
        MOV       DPTR,#bdbCommissioningProcedureState + 1
        MOVX      A,@DPTR
        DEC       A
        MOVX      @DPTR,A
// 3302     bdb_tcLinkKeyExchangeAttempt(TRUE,BDB_REQ_TC_STACK_VERSION);
        ; Setup parameters for call to function bdb_tcLinkKeyExchangeAttempt
        MOV       R2,#0x1
        MOV       R1,#0x1
        LCALL     `??bdb_tcLinkKeyExchangeAttempt::?relay`; Banked call to: bdb_tcLinkKeyExchangeAttempt
// 3303   }
// 3304 
// 3305 }
??bdb_CBKETCLinkKeyExchangeAttempt_1:
        LJMP      ?Subroutine0 & 0xFFFF
          CFI EndBlock cfiBlock227
// 3306 #endif
// 3307 
// 3308 #if !defined (DISABLE_GREENPOWER_BASIC_PROXY) && (ZG_BUILD_RTR_TYPE)
// 3309 
// 3310 /*********************************************************************
// 3311  * @fn      gp_ChangeChannelReq
// 3312  *
// 3313  * @brief   Callback function to notify the BDB about a GP commissioning 
// 3314  * request that will change the current channel for at most 
// 3315  * gpBirectionalCommissioningChangeChannelTimeout ms
// 3316  *
// 3317  * @param   channel - Channel in which the commissioning will take place
// 3318  *
// 3319  * @return  TRUE to allow change channel, FALSE to do not allow
// 3320  */
// 3321 static uint8 gp_ChangeChannelReq(void)
// 3322 {
// 3323   uint8 allowChangeChannel = TRUE;
// 3324   
// 3325   //Do not allow changes of channel if any process is in place
// 3326   if(bdbAttributes.bdbCommissioningMode)
// 3327   {
// 3328     allowChangeChannel = FALSE;
// 3329   }
// 3330   
// 3331   //Check application state to decide if allow change channel or not
// 3332   
// 3333   return allowChangeChannel;
// 3334 }
// 3335 
// 3336 
// 3337 /*********************************************************************
// 3338  * @fn          gp_CBInit
// 3339  *
// 3340  * @brief       Register the callbacks for GP endpoint
// 3341  *
// 3342  * @param       none
// 3343  *
// 3344  * @return      none
// 3345  */
// 3346 void gp_CBInit(void)
// 3347 {
// 3348   GP_DataCnfGCB = GP_DataCnf;
// 3349   GP_endpointInitGCB = gp_endpointInit;  
// 3350   GP_expireDuplicateFilteringGCB = gp_expireDuplicateFiltering;
// 3351   GP_stopCommissioningModeGCB = gp_stopCommissioningMode;
// 3352   GP_returnOperationalChannelGCB = gp_returnOperationalChannel;
// 3353   GP_DataIndGCB = GP_DataInd;
// 3354   GP_SecReqGCB = GP_SecReq;   
// 3355   GP_CheckAnnouncedDeviceGCB = gp_CheckAnnouncedDevice;
// 3356     
// 3357   GP_aliasConflictAnnce = &aliasConflictAnnce;
// 3358   
// 3359   GP_endpointInitGCB();
// 3360 }
// 3361 
// 3362 #endif
// 3363 
// 3364 /*********************************************************************
// 3365 *********************************************************************/
// 3366 
// 3367 
// 3368 /******************************************************************************
// 3369  * @fn          bdb_GenerateInstallCodeCRC
// 3370  *
// 3371  * @brief       Creates a CRC for the install code passed.
// 3372  *
// 3373  * @param       installCode - install code from which CRC will be generated
// 3374  *
// 3375  * @return      CRC
// 3376  */

        RSEG BANKED_CODE:HUGECODE:NOROOT(0)
// 3377 uint16 bdb_GenerateInstallCodeCRC(uint8 *installCode)
bdb_GenerateInstallCodeCRC:
          CFI Block cfiBlock228 Using cfiCommon0
          CFI Function bdb_GenerateInstallCodeCRC
        CODE
// 3378 {
        FUNCALL bdb_GenerateInstallCodeCRC, bdb_calculateCCITT_CRC
        LOCFRAME ISTACK, 2, STACK
        LOCFRAME PSTACK, 0, STACK
        LOCFRAME XSTACK, 6, STACK
        LOCFRAME IOVERLAY, 0, STATIC
        LOCFRAME DOVERLAY, 0, STATIC
        ARGFRAME ISTACK, 2, STACK
        ARGFRAME PSTACK, 0, STACK
        ARGFRAME XSTACK, 6, STACK
        ARGFRAME IOVERLAY, 0, STATIC
        ARGFRAME DOVERLAY, 0, STATIC
        PUSH      DPL
          CFI DPL0 Frame(CFA_SP, 4)
          CFI CFA_SP SP+-4
        PUSH      DPH
          CFI DPH0 Frame(CFA_SP, 5)
          CFI CFA_SP SP+-5
        ; Saved register size: 2
        ; Auto size: 2
        MOV       A,#-0x2
        LCALL     ?ALLOC_XSTACK8
          CFI CFA_XSP16 add(XSP16, 2)
// 3379   uint16 CRC;
// 3380   
// 3381   bdb_calculateCCITT_CRC(installCode, INSTALL_CODE_LEN, &CRC);
        ; Setup parameters for call to function bdb_calculateCCITT_CRC
        MOV       DPTR,#__Constant_10
        LCALL     ?PUSH_XSTACK8_X_FOUR
          CFI CFA_XSP16 add(XSP16, 6)
        MOV       A,#0x4
        LCALL     ?XSTACK_DISP102_8
        LCALL     `??bdb_calculateCCITT_CRC::?relay`; Banked call to: bdb_calculateCCITT_CRC
        MOV       A,#0x4
        LCALL     ?DEALLOC_XSTACK8
          CFI CFA_XSP16 add(XSP16, 2)
// 3382 
// 3383   return CRC;
        MOV       DPL,?XSP + 0
        MOV       DPH,?XSP + 1
        LCALL     ??Subroutine43_0 & 0xFFFF
??CrossCallReturnLabel_101:
        MOV       A,#0x2
        LJMP      ?Subroutine4 & 0xFFFF
// 3384 }
          CFI EndBlock cfiBlock228
// 3385 
// 3386 /******************************************************************************
// 3387  * @fn          bdb_calculateCCITT_CRC
// 3388  *
// 3389  * @brief       Creates a CRC for the install code passed.
// 3390  *
// 3391  * @param       Mb - install code from which CRC will be generated
// 3392  * @param       msglen - install code length
// 3393  * @param       crc - 
// 3394  *
// 3395  * @return      none
// 3396  */

        RSEG BANKED_CODE:HUGECODE:NOROOT(0)
// 3397 void bdb_calculateCCITT_CRC (uint8 *Mb, uint32 msglen, uint16 *crc)
bdb_calculateCCITT_CRC:
          CFI Block cfiBlock229 Using cfiCommon0
          CFI Function bdb_calculateCCITT_CRC
        CODE
// 3398 {
        FUNCALL bdb_calculateCCITT_CRC, bdb_crcInit
        LOCFRAME ISTACK, 0, STACK
        LOCFRAME PSTACK, 0, STACK
        LOCFRAME XSTACK, 18, STACK
        LOCFRAME IOVERLAY, 0, STATIC
        LOCFRAME DOVERLAY, 0, STATIC
        ARGFRAME ISTACK, 0, STACK
        ARGFRAME PSTACK, 0, STACK
        ARGFRAME XSTACK, 18, STACK
        ARGFRAME IOVERLAY, 0, STATIC
        ARGFRAME DOVERLAY, 0, STATIC
        FUNCALL bdb_calculateCCITT_CRC, bdb_crcBitByBitFast
        LOCFRAME ISTACK, 0, STACK
        LOCFRAME PSTACK, 0, STACK
        LOCFRAME XSTACK, 22, STACK
        LOCFRAME IOVERLAY, 0, STATIC
        LOCFRAME DOVERLAY, 0, STATIC
        ARGFRAME ISTACK, 0, STACK
        ARGFRAME PSTACK, 0, STACK
        ARGFRAME XSTACK, 22, STACK
        ARGFRAME IOVERLAY, 0, STATIC
        ARGFRAME DOVERLAY, 0, STATIC
        REQUIRE ?V0
        REQUIRE ?V1
        REQUIRE ?V2
        REQUIRE ?V3
        MOV       A,#-0xc
        LCALL     ?BANKED_ENTER_XDATA
          CFI DPH0 load(1, XDATA, add(CFA_XSP16, literal(-1)))
          CFI DPL0 load(1, XDATA, add(CFA_XSP16, literal(-2)))
          CFI ?BRET_EXT load(1, XDATA, add(CFA_XSP16, literal(-3)))
          CFI ?RET_HIGH load(1, XDATA, add(CFA_XSP16, literal(-4)))
          CFI ?RET_LOW load(1, XDATA, add(CFA_XSP16, literal(-5)))
          CFI R7 load(1, XDATA, add(CFA_XSP16, literal(-6)))
          CFI V3 load(1, XDATA, add(CFA_XSP16, literal(-7)))
          CFI V2 load(1, XDATA, add(CFA_XSP16, literal(-8)))
          CFI V1 load(1, XDATA, add(CFA_XSP16, literal(-9)))
          CFI V0 load(1, XDATA, add(CFA_XSP16, literal(-10)))
          CFI VB load(1, XDATA, add(CFA_XSP16, literal(-11)))
          CFI R6 load(1, XDATA, add(CFA_XSP16, literal(-12)))
          CFI CFA_SP SP+0
          CFI CFA_XSP16 add(XSP16, 12)
        ; Saved register size: 12
        ; Auto size: 4
        MOV       A,#-0x4
        LCALL     ?ALLOC_XSTACK8
          CFI CFA_XSP16 add(XSP16, 16)
        MOV       A,R2
        MOV       R6,A
        MOV       A,R3
        MOV       R7,A
        MOV       ?V0,R4
        MOV       ?V1,R5
// 3399   uint16 crcinit_direct; 
// 3400   uint16 crcinit_nondirect;
// 3401   bdb_crcInit(crc, &crcinit_direct, &crcinit_nondirect);
        ; Setup parameters for call to function bdb_crcInit
        MOV       R0,?XSP + 0
        MOV       R1,?XSP + 1
        MOV       ?V2,R0
        MOV       ?V3,R1
        MOV       R0,#?V2
        LCALL     ?PUSH_XSTACK_I_TWO
          CFI CFA_XSP16 add(XSP16, 18)
        MOV       A,#0x4
        LCALL     ?XSTACK_DISP102_8
        MOV       R2,?V0
        MOV       R3,?V1
        LCALL     `??bdb_crcInit::?relay`; Banked call to: bdb_crcInit
        MOV       A,#0x2
        LCALL     ?DEALLOC_XSTACK8
          CFI CFA_XSP16 add(XSP16, 16)
// 3402   *crc = bdb_crcBitByBitFast(Mb, msglen, crcinit_direct, crcinit_nondirect);
        ; Setup parameters for call to function bdb_crcBitByBitFast
        MOV       DPL,?XSP + 0
        MOV       DPH,?XSP + 1
        LCALL     ?PUSH_XSTACK8_X_TWO
          CFI CFA_XSP16 add(XSP16, 18)
        MOV       A,#0x12
        LCALL     ?XSTACK_DISP0_8
        LCALL     ?PUSH_XSTACK8_X_FOUR
          CFI CFA_XSP16 add(XSP16, 22)
        MOV       A,#0x8
        LCALL     ?XSTACK_DISP0_8
        LCALL     ?Subroutine21 & 0xFFFF
??CrossCallReturnLabel_36:
        MOV       A,R6
        MOV       R2,A
        MOV       A,R7
        MOV       R3,A
        LCALL     `??bdb_crcBitByBitFast::?relay`; Banked call to: bdb_crcBitByBitFast
        MOV       A,#0x6
        LCALL     ?DEALLOC_XSTACK8
          CFI CFA_XSP16 add(XSP16, 16)
        MOV       DPL,?V0
        MOV       DPH,?V1
        LCALL     ?Subroutine11 & 0xFFFF
// 3403 }
??CrossCallReturnLabel_17:
        LJMP      ?Subroutine2 & 0xFFFF
          CFI EndBlock cfiBlock229
// 3404 
// 3405 
// 3406 /******************************************************************************
// 3407  * @fn          bdb_crcInit
// 3408  *
// 3409  * @brief       Initialize CRC calculation
// 3410  *
// 3411  * @param       crc - 
// 3412  * @param       crcinit_direct -
// 3413  * @param       crcinit_nondirect - 
// 3414  *
// 3415  * @return      none
// 3416  */

        RSEG BANKED_CODE:HUGECODE:NOROOT(0)
// 3417 void bdb_crcInit(uint16 *crc, uint16 *crcinit_direct, uint16 *crcinit_nondirect)
bdb_crcInit:
          CFI Block cfiBlock230 Using cfiCommon0
          CFI Function bdb_crcInit
        CODE
// 3418 {
        MOV       A,#-0x9
        LCALL     ?BANKED_ENTER_XDATA
          CFI DPH0 load(1, XDATA, add(CFA_XSP16, literal(-1)))
          CFI DPL0 load(1, XDATA, add(CFA_XSP16, literal(-2)))
          CFI ?BRET_EXT load(1, XDATA, add(CFA_XSP16, literal(-3)))
          CFI ?RET_HIGH load(1, XDATA, add(CFA_XSP16, literal(-4)))
          CFI ?RET_LOW load(1, XDATA, add(CFA_XSP16, literal(-5)))
          CFI R7 load(1, XDATA, add(CFA_XSP16, literal(-6)))
          CFI V0 load(1, XDATA, add(CFA_XSP16, literal(-7)))
          CFI VB load(1, XDATA, add(CFA_XSP16, literal(-8)))
          CFI R6 load(1, XDATA, add(CFA_XSP16, literal(-9)))
          CFI CFA_SP SP+0
          CFI CFA_XSP16 add(XSP16, 9)
        ; Saved register size: 9
        ; Auto size: 0
// 3419 
// 3420   uint16 i;
// 3421   uint16 bit;
// 3422 
// 3423   *crcinit_direct = CRC_INIT;
        MOV       DPL,R4
        MOV       DPH,R5
        MOV       A,#-0x1
        MOVX      @DPTR,A
        INC       DPTR
        MOVX      @DPTR,A
// 3424   *crc = CRC_INIT;
        MOV       DPL,R2
        MOV       DPH,R3
        MOVX      @DPTR,A
        INC       DPTR
        MOVX      @DPTR,A
// 3425   for (i=0; i<CRC_ORDER; i++) 
        MOV       R6,#0x10
// 3426   {
// 3427     bit = *crc & 1;
??bdb_crcInit_0:
        MOV       DPL,R2
        MOV       DPH,R3
        MOVX      A,@DPTR
        MOV       R0,A
// 3428     if (bit) *crc^= CRC_POLYNOM;
        MOV       C,0xE0 /* A   */.0
        JNC       ??bdb_crcInit_1
        XRL       A,#0x21
        MOVX      @DPTR,A
        INC       DPTR
        MOVX      A,@DPTR
        XRL       A,#0x10
        MOVX      @DPTR,A
// 3429     *crc >>= 1;
??bdb_crcInit_1:
        MOV       DPL,R2
        MOV       DPH,R3
        MOVX      A,@DPTR
        MOV       R4,A
        INC       DPTR
        MOVX      A,@DPTR
        CLR       C
        RRC       A
        MOV       R5,A
        MOV       A,R4
        RRC       A
        MOV       DPL,R2
        MOV       DPH,R3
        MOVX      @DPTR,A
        INC       DPTR
        MOV       A,R5
        MOVX      @DPTR,A
// 3430     if (bit) *crc|= CRC_HIGHBIT;
        MOV       A,R0
        MOV       C,0xE0 /* A   */.0
        JNC       ??bdb_crcInit_2
        MOV       DPL,R2
        MOV       DPH,R3
        INC       DPTR
        MOVX      A,@DPTR
        ORL       A,#0x80
        MOVX      @DPTR,A
// 3431   }	
??bdb_crcInit_2:
        DEC       R6
        MOV       A,R6
        JNZ       ??bdb_crcInit_0
// 3432   *crcinit_nondirect = *crc;
        MOV       DPL,R2
        MOV       DPH,R3
        LCALL     ?Subroutine22 & 0xFFFF
??CrossCallReturnLabel_40:
        MOV       A,#0x9
        LCALL     ?XSTACK_DISP0_8
        MOVX      A,@DPTR
        MOV       R2,A
        INC       DPTR
        MOVX      A,@DPTR
        MOV       DPH,A
        MOV       DPL,R2
        MOV       A,R0
        MOVX      @DPTR,A
        INC       DPTR
        MOV       A,R1
        MOVX      @DPTR,A
// 3433 
// 3434 }
        LJMP      ?Subroutine0 & 0xFFFF
          CFI EndBlock cfiBlock230
// 3435 
// 3436 
// 3437 /******************************************************************************
// 3438  * @fn          bdb_crcReflect
// 3439  *
// 3440  * @brief       
// 3441  *
// 3442  * @param       crc - 
// 3443  * @param       bitnum -
// 3444  *
// 3445  * @return      none
// 3446  */

        RSEG BANKED_CODE:HUGECODE:NOROOT(0)
// 3447 uint16 bdb_crcReflect (uint16 crc, uint16 bitnum)
bdb_crcReflect:
          CFI Block cfiBlock231 Using cfiCommon0
          CFI Function bdb_crcReflect
        CODE
// 3448 {
        REQUIRE ?V0
        REQUIRE ?V1
        REQUIRE ?V2
        REQUIRE ?V3
        MOV       A,#-0xc
        LCALL     ?BANKED_ENTER_XDATA
          CFI DPH0 load(1, XDATA, add(CFA_XSP16, literal(-1)))
          CFI DPL0 load(1, XDATA, add(CFA_XSP16, literal(-2)))
          CFI ?BRET_EXT load(1, XDATA, add(CFA_XSP16, literal(-3)))
          CFI ?RET_HIGH load(1, XDATA, add(CFA_XSP16, literal(-4)))
          CFI ?RET_LOW load(1, XDATA, add(CFA_XSP16, literal(-5)))
          CFI R7 load(1, XDATA, add(CFA_XSP16, literal(-6)))
          CFI V3 load(1, XDATA, add(CFA_XSP16, literal(-7)))
          CFI V2 load(1, XDATA, add(CFA_XSP16, literal(-8)))
          CFI V1 load(1, XDATA, add(CFA_XSP16, literal(-9)))
          CFI V0 load(1, XDATA, add(CFA_XSP16, literal(-10)))
          CFI VB load(1, XDATA, add(CFA_XSP16, literal(-11)))
          CFI R6 load(1, XDATA, add(CFA_XSP16, literal(-12)))
          CFI CFA_SP SP+0
          CFI CFA_XSP16 add(XSP16, 12)
        ; Saved register size: 12
        ; Auto size: 0
// 3449 
// 3450   // reflects the lower 'bitnum' bits of 'crc'
// 3451 
// 3452   uint16 i, j=1, crcout=0;
        MOV       R6,#0x1
        MOV       R7,#0x0
        MOV       ?V0,R7
        MOV       ?V1,R7
// 3453 
// 3454   for (i=(uint16)1<<(bitnum-1); i; i>>=1) {
        MOV       ?V2,R6
        MOV       ?V3,R7
        MOV       A,R4
        DEC       A
        MOV       R0,#?V2
        LCALL     ?S_SHL
        MOV       R0,?V2
        MOV       R1,?V3
        SJMP      ??bdb_crcReflect_0
// 3455     if (crc & i) crcout|=j;
??bdb_crcReflect_1:
        MOV       A,R2
        ANL       A,R0
        MOV       R4,A
        MOV       A,R3
        ANL       A,R1
        MOV       R5,A
        MOV       A,R4
        ORL       A,R5
        JZ        ??bdb_crcReflect_2
        MOV       A,R6
        ORL       A,?V0
        MOV       ?V0,A
        MOV       A,R7
        ORL       A,?V1
        MOV       ?V1,A
// 3456     j<<= 1;
??bdb_crcReflect_2:
        MOV       A,R6
        ADD       A,0xE0 /* A   */
        MOV       R6,A
        MOV       A,R7
        RLC       A
        MOV       R7,A
// 3457   }
        MOV       A,R1
        CLR       C
        RRC       A
        MOV       R1,A
        MOV       A,R0
        RRC       A
        MOV       R0,A
??bdb_crcReflect_0:
        MOV       A,R0
        ORL       A,R1
        JNZ       ??bdb_crcReflect_1
// 3458   return (crcout);
        MOV       R2,?V0
        MOV       R3,?V1
        LJMP      ??Subroutine34_0 & 0xFFFF
// 3459 }
          CFI EndBlock cfiBlock231
// 3460 
// 3461 
// 3462 /******************************************************************************
// 3463  * @fn          bdb_crcBitByBitFast
// 3464  *
// 3465  * @brief       
// 3466  *
// 3467  * @param       p - 
// 3468  * @param       len -
// 3469  * @param       crcinit_direct - 
// 3470  * @param       crcinit_nondirect -
// 3471  *
// 3472  * @return      crc
// 3473  */

        RSEG BANKED_CODE:HUGECODE:NOROOT(0)
// 3474 uint16 bdb_crcBitByBitFast(uint8 * p, uint32 len, uint16 crcinit_direct, uint16 crcinit_nondirect) 
bdb_crcBitByBitFast:
          CFI Block cfiBlock232 Using cfiCommon0
          CFI Function bdb_crcBitByBitFast
        CODE
// 3475 {
        FUNCALL bdb_crcBitByBitFast, bdb_crcReflect
        LOCFRAME ISTACK, 0, STACK
        LOCFRAME PSTACK, 0, STACK
        LOCFRAME XSTACK, 20, STACK
        LOCFRAME IOVERLAY, 0, STATIC
        LOCFRAME DOVERLAY, 0, STATIC
        ARGFRAME ISTACK, 0, STACK
        ARGFRAME PSTACK, 0, STACK
        ARGFRAME XSTACK, 20, STACK
        ARGFRAME IOVERLAY, 0, STATIC
        ARGFRAME DOVERLAY, 0, STATIC
        FUNCALL bdb_crcBitByBitFast, bdb_crcReflect
        LOCFRAME ISTACK, 0, STACK
        LOCFRAME PSTACK, 0, STACK
        LOCFRAME XSTACK, 20, STACK
        LOCFRAME IOVERLAY, 0, STATIC
        LOCFRAME DOVERLAY, 0, STATIC
        ARGFRAME ISTACK, 0, STACK
        ARGFRAME PSTACK, 0, STACK
        ARGFRAME XSTACK, 20, STACK
        ARGFRAME IOVERLAY, 0, STATIC
        ARGFRAME DOVERLAY, 0, STATIC
        REQUIRE ?V0
        REQUIRE ?V1
        REQUIRE ?V2
        REQUIRE ?V3
        REQUIRE ?V4
        REQUIRE ?V5
        REQUIRE ?V6
        REQUIRE ?V7
        REQUIRE ?V8
        REQUIRE ?V9
        REQUIRE ?V10
        REQUIRE ?V11
        MOV       A,#-0x14
        LCALL     ?BANKED_ENTER_XDATA
          CFI DPH0 load(1, XDATA, add(CFA_XSP16, literal(-1)))
          CFI DPL0 load(1, XDATA, add(CFA_XSP16, literal(-2)))
          CFI ?BRET_EXT load(1, XDATA, add(CFA_XSP16, literal(-3)))
          CFI ?RET_HIGH load(1, XDATA, add(CFA_XSP16, literal(-4)))
          CFI ?RET_LOW load(1, XDATA, add(CFA_XSP16, literal(-5)))
          CFI R7 load(1, XDATA, add(CFA_XSP16, literal(-6)))
          CFI V11 load(1, XDATA, add(CFA_XSP16, literal(-7)))
          CFI V10 load(1, XDATA, add(CFA_XSP16, literal(-8)))
          CFI V9 load(1, XDATA, add(CFA_XSP16, literal(-9)))
          CFI V8 load(1, XDATA, add(CFA_XSP16, literal(-10)))
          CFI V7 load(1, XDATA, add(CFA_XSP16, literal(-11)))
          CFI V6 load(1, XDATA, add(CFA_XSP16, literal(-12)))
          CFI V5 load(1, XDATA, add(CFA_XSP16, literal(-13)))
          CFI V4 load(1, XDATA, add(CFA_XSP16, literal(-14)))
          CFI V3 load(1, XDATA, add(CFA_XSP16, literal(-15)))
          CFI V2 load(1, XDATA, add(CFA_XSP16, literal(-16)))
          CFI V1 load(1, XDATA, add(CFA_XSP16, literal(-17)))
          CFI V0 load(1, XDATA, add(CFA_XSP16, literal(-18)))
          CFI VB load(1, XDATA, add(CFA_XSP16, literal(-19)))
          CFI R6 load(1, XDATA, add(CFA_XSP16, literal(-20)))
          CFI CFA_SP SP+0
          CFI CFA_XSP16 add(XSP16, 20)
        ; Saved register size: 20
        ; Auto size: 0
        MOV       ?V2,R2
        MOV       ?V3,R3
// 3476   // fast bit by bit algorithm without augmented zero bytes.
// 3477   // does not use lookup table, suited for polynom orders between 1...32.
// 3478 
// 3479   uint16 i, j, c, bit;
// 3480   uint16 crc = crcinit_direct;
        MOV       A,R4
        MOV       R6,A
        MOV       A,R5
        MOV       R7,A
// 3481 
// 3482   for (i=0; i<len; i++) {
        MOV       ?V0,#0x0
        MOV       ?V1,#0x0
        MOV       A,#0x14
        LCALL     ?XSTACK_DISP0_8
        MOV       R0,#?V8
        LCALL     ?L_MOV_X
        SJMP      ??bdb_crcBitByBitFast_0
// 3483 
// 3484     c = (uint16)*p++;
??bdb_crcBitByBitFast_1:
        MOV       DPL,?V2
        MOV       DPH,?V3
        MOVX      A,@DPTR
        MOV       R2,A
        MOV       R3,#0x0
        INC       DPTR
        MOV       ?V2,DPL
        MOV       ?V3,DPH
// 3485     c = bdb_crcReflect(c, 8);
        ; Setup parameters for call to function bdb_crcReflect
        MOV       R4,#0x8
        MOV       R5,#0x0
        LCALL     `??bdb_crcReflect::?relay`; Banked call to: bdb_crcReflect
// 3486 
// 3487     for (j=0x80; j; j>>=1) {
        MOV       R0,#-0x80
// 3488 
// 3489       bit = crc & CRC_HIGHBIT;
??bdb_crcBitByBitFast_2:
        MOV       A,R7
        ANL       A,#0x80
        MOV       R5,A
// 3490       crc<<= 1;
        MOV       A,R6
        ADD       A,0xE0 /* A   */
        MOV       R6,A
        MOV       A,R7
        RLC       A
        MOV       R7,A
// 3491       if (c & j) bit^= CRC_HIGHBIT;
        MOV       A,R2
        ANL       A,R0
        JZ        ??bdb_crcBitByBitFast_3
        MOV       A,#-0x80
        XRL       A,R5
        MOV       R5,A
// 3492       if (bit) crc^= CRC_POLYNOM;
??bdb_crcBitByBitFast_3:
        MOV       A,R5
        JZ        ??bdb_crcBitByBitFast_4
        MOV       A,#0x21
        XRL       A,R6
        MOV       R6,A
        MOV       A,#0x10
        XRL       A,R7
        MOV       R7,A
// 3493     }
??bdb_crcBitByBitFast_4:
        CLR       C
        MOV       A,R0
        RRC       A
        MOV       R0,A
        JNZ       ??bdb_crcBitByBitFast_2
// 3494   }	
        INC       ?V0
        MOV       A,?V0
        JNZ       ??bdb_crcBitByBitFast_0
        INC       ?V1
??bdb_crcBitByBitFast_0:
        MOV       ?V4,?V0
        MOV       ?V5,?V1
        CLR       A
        MOV       ?V6,A
        MOV       ?V7,A
        MOV       R0,#?V8
        MOV       R1,#?V4
        LCALL     ?UL_GT
        JC        ??bdb_crcBitByBitFast_1
// 3495 
// 3496   crc=bdb_crcReflect(crc, CRC_ORDER);
// 3497   crc^= CRC_XOR;
// 3498 
// 3499   return(crc);
        ; Setup parameters for call to function bdb_crcReflect
        MOV       R4,#0x10
        MOV       R5,#0x0
        MOV       A,R6
        MOV       R2,A
        MOV       A,R7
        MOV       R3,A
        LCALL     `??bdb_crcReflect::?relay`; Banked call to: bdb_crcReflect
        MOV       A,R2
        CPL       A
        MOV       R2,A
        MOV       A,R3
        CPL       A
        MOV       R3,A
        MOV       R7,#0xc
        LJMP      ?BANKED_LEAVE_XDATA
// 3500 }
          CFI EndBlock cfiBlock232

        RSEG XDATA_ID:CODE:NOROOT(0)
`?<Initializer for bdbAttributes>`:
        DATA32
        DD 133167104
        DD 1048576
        DATA16
        DW 65535
        DATA8
        DB 0
        DB 0
        DB 5
        DB 4
        DB 0
        DB 0
        DB 0
        DB 3
        DB 0

        RSEG XDATA_ID:CODE:NOROOT(0)
`?<Initializer for vDoPrimaryScan>`:
        DATA8
        DB 1

        RSEG XDATA_ID:CODE:NOROOT(0)
`?<Initializer for zgBdbInstallCodeCRC>`:
        DATA8
        DB 131
        DB 254
        DB 211
        DB 64
        DB 122
        DB 147
        DB 151
        DB 35
        DB 165
        DB 198
        DB 57
        DB 178
        DB 105
        DB 22
        DB 213
        DB 5
        DB 195
        DB 181

        RSEG XDATA_ROM_C:CONST:REORDER:NOROOT(0)
        DATA32
__Constant_3e8:
        DD 1000

        RSEG XDATA_ROM_C:CONST:REORDER:NOROOT(0)
        DATA32
__Constant_32:
        DD 50

        RSEG XDATA_ROM_C:CONST:REORDER:NOROOT(0)
        DATA32
__Constant_1388:
        DD 5000

        RSEG XDATA_ROM_C:CONST:REORDER:NOROOT(0)
        DATA32
__Constant_c8:
        DD 200

        RSEG XDATA_ROM_C:CONST:REORDER:NOROOT(0)
        DATA32
__Constant_0:
        DD 0

        RSEG XDATA_ROM_C:CONST:REORDER:NOROOT(0)
        DATA32
__Constant_3a98:
        DD 15000

        RSEG XDATA_ROM_C:CONST:REORDER:NOROOT(0)
        DATA32
__Constant_bb8:
        DD 3000

        RSEG XDATA_ROM_C:CONST:REORDER:NOROOT(0)
        DATA32
__Constant_10:
        DD 16

        RSEG BANK_RELAYS:CODE:REORDER:NOROOT(0)
`??bdb_Init::?relay`:
        CODE
        LCALL   ?BDISPATCH
        DATA24
        DC24    bdb_Init

        RSEG BANK_RELAYS:CODE:REORDER:NOROOT(0)
`??bdb_RegisterSimpleDescriptor::?relay`:
        CODE
        LCALL   ?BDISPATCH
        DATA24
        DC24    bdb_RegisterSimpleDescriptor

        RSEG BANK_RELAYS:CODE:REORDER:NOROOT(0)
`??bdb_ZclIdentifyCmdInd::?relay`:
        CODE
        LCALL   ?BDISPATCH
        DATA24
        DC24    bdb_ZclIdentifyCmdInd

        RSEG BANK_RELAYS:CODE:REORDER:NOROOT(0)
`??bdb_setActiveCentralizedLinkKey::?relay`:
        CODE
        LCALL   ?BDISPATCH
        DATA24
        DC24    bdb_setActiveCentralizedLinkKey

        RSEG BANK_RELAYS:CODE:REORDER:NOROOT(0)
`??bdb_addInstallCode::?relay`:
        CODE
        LCALL   ?BDISPATCH
        DATA24
        DC24    bdb_addInstallCode

        RSEG BANK_RELAYS:CODE:REORDER:NOROOT(0)
`??bdb_StartCommissioning::?relay`:
        CODE
        LCALL   ?BDISPATCH
        DATA24
        DC24    bdb_StartCommissioning

        RSEG BANK_RELAYS:CODE:REORDER:NOROOT(0)
`??bdb_NotifyCommissioningModeStart::?relay`:
        CODE
        LCALL   ?BDISPATCH
        DATA24
        DC24    bdb_NotifyCommissioningModeStart

        RSEG BANK_RELAYS:CODE:REORDER:NOROOT(0)
`??bdb_setNodeJoinLinkKeyType::?relay`:
        CODE
        LCALL   ?BDISPATCH
        DATA24
        DC24    bdb_setNodeJoinLinkKeyType

        RSEG BANK_RELAYS:CODE:REORDER:NOROOT(0)
`??bdb_setFN::?relay`:
        CODE
        LCALL   ?BDISPATCH
        DATA24
        DC24    bdb_setFN

        RSEG BANK_RELAYS:CODE:REORDER:NOROOT(0)
`??bdb_resetLocalAction::?relay`:
        CODE
        LCALL   ?BDISPATCH
        DATA24
        DC24    bdb_resetLocalAction

        RSEG BANK_RELAYS:CODE:REORDER:NOROOT(0)
`??bdb_parentLost::?relay`:
        CODE
        LCALL   ?BDISPATCH
        DATA24
        DC24    bdb_parentLost

        RSEG BANK_RELAYS:CODE:REORDER:NOROOT(0)
`??bdb_NetworkRestoredResumeState::?relay`:
        CODE
        LCALL   ?BDISPATCH
        DATA24
        DC24    bdb_NetworkRestoredResumeState

        RSEG BANK_RELAYS:CODE:REORDER:NOROOT(0)
`??bdb_ZedAttemptRecoverNwk::?relay`:
        CODE
        LCALL   ?BDISPATCH
        DATA24
        DC24    bdb_ZedAttemptRecoverNwk

        RSEG BANK_RELAYS:CODE:REORDER:NOROOT(0)
`??bdb_reportCommissioningState::?relay`:
        CODE
        LCALL   ?BDISPATCH
        DATA24
        DC24    bdb_reportCommissioningState

        RSEG BANK_RELAYS:CODE:REORDER:NOROOT(0)
`??bdb_nwkFormationAttempt::?relay`:
        CODE
        LCALL   ?BDISPATCH
        DATA24
        DC24    bdb_nwkFormationAttempt

        RSEG BANK_RELAYS:CODE:REORDER:NOROOT(0)
`??bdb_isDeviceNonFactoryNew::?relay`:
        CODE
        LCALL   ?BDISPATCH
        DATA24
        DC24    bdb_isDeviceNonFactoryNew

        RSEG BANK_RELAYS:CODE:REORDER:NOROOT(0)
`??bdb_doTrustCenterRequireKeyExchange::?relay`:
        CODE
        LCALL   ?BDISPATCH
        DATA24
        DC24    bdb_doTrustCenterRequireKeyExchange

        RSEG BANK_RELAYS:CODE:REORDER:NOROOT(0)
`??bdb_rejoinNwk::?relay`:
        CODE
        LCALL   ?BDISPATCH
        DATA24
        DC24    bdb_rejoinNwk

        RSEG BANK_RELAYS:CODE:REORDER:NOROOT(0)
`??bdb_nwkDiscoveryAttempt::?relay`:
        CODE
        LCALL   ?BDISPATCH
        DATA24
        DC24    bdb_nwkDiscoveryAttempt

        RSEG BANK_RELAYS:CODE:REORDER:NOROOT(0)
`??bdb_filterNwkDisc::?relay`:
        CODE
        LCALL   ?BDISPATCH
        DATA24
        DC24    bdb_filterNwkDisc

        RSEG BANK_RELAYS:CODE:REORDER:NOROOT(0)
`??bdb_tryNwkAssoc::?relay`:
        CODE
        LCALL   ?BDISPATCH
        DATA24
        DC24    bdb_tryNwkAssoc

        RSEG BANK_RELAYS:CODE:REORDER:NOROOT(0)
`??bdb_nwkAssocAttemt::?relay`:
        CODE
        LCALL   ?BDISPATCH
        DATA24
        DC24    bdb_nwkAssocAttemt

        RSEG BANK_RELAYS:CODE:REORDER:NOROOT(0)
`??bdb_nwkDescFree::?relay`:
        CODE
        LCALL   ?BDISPATCH
        DATA24
        DC24    bdb_nwkDescFree

        RSEG BANK_RELAYS:CODE:REORDER:NOROOT(0)
`??bdb_joinProcess::?relay`:
        CODE
        LCALL   ?BDISPATCH
        DATA24
        DC24    bdb_joinProcess

        RSEG BANK_RELAYS:CODE:REORDER:NOROOT(0)
`??bdb_setChannelAttribute::?relay`:
        CODE
        LCALL   ?BDISPATCH
        DATA24
        DC24    bdb_setChannelAttribute

        RSEG BANK_RELAYS:CODE:REORDER:NOROOT(0)
`??bdb_setChannel::?relay`:
        CODE
        LCALL   ?BDISPATCH
        DATA24
        DC24    bdb_setChannel

        RSEG BANK_RELAYS:CODE:REORDER:NOROOT(0)
`??bdb_nwkJoiningFormation::?relay`:
        CODE
        LCALL   ?BDISPATCH
        DATA24
        DC24    bdb_nwkJoiningFormation

        RSEG BANK_RELAYS:CODE:REORDER:NOROOT(0)
`??bdb_tcLinkKeyExchangeAttempt::?relay`:
        CODE
        LCALL   ?BDISPATCH
        DATA24
        DC24    bdb_tcLinkKeyExchangeAttempt

        RSEG BANK_RELAYS:CODE:REORDER:NOROOT(0)
`??bdb_nwkSteeringDeviceOnNwk::?relay`:
        CODE
        LCALL   ?BDISPATCH
        DATA24
        DC24    bdb_nwkSteeringDeviceOnNwk

        RSEG BANK_RELAYS:CODE:REORDER:NOROOT(0)
`??bdb_startResumeCommissioningProcess::?relay`:
        CODE
        LCALL   ?BDISPATCH
        DATA24
        DC24    bdb_startResumeCommissioningProcess

        RSEG BANK_RELAYS:CODE:REORDER:NOROOT(0)
`??bdb_event_loop::?relay`:
        CODE
        LCALL   ?BDISPATCH
        DATA24
        DC24    bdb_event_loop

        RSEG BANK_RELAYS:CODE:REORDER:NOROOT(0)
`??bdb_ProcessNodeDescRsp::?relay`:
        CODE
        LCALL   ?BDISPATCH
        DATA24
        DC24    bdb_ProcessNodeDescRsp

        RSEG BANK_RELAYS:CODE:REORDER:NOROOT(0)
`??bdb_touchlinkSendFNReset::?relay`:
        CODE
        LCALL   ?BDISPATCH
        DATA24
        DC24    bdb_touchlinkSendFNReset

        RSEG BANK_RELAYS:CODE:REORDER:NOROOT(0)
`??bdb_setNodeIsOnANetwork::?relay`:
        CODE
        LCALL   ?BDISPATCH
        DATA24
        DC24    bdb_setNodeIsOnANetwork

        RSEG BANK_RELAYS:CODE:REORDER:NOROOT(0)
`??bdb_setCommissioningGroupID::?relay`:
        CODE
        LCALL   ?BDISPATCH
        DATA24
        DC24    bdb_setCommissioningGroupID

        RSEG BANK_RELAYS:CODE:REORDER:NOROOT(0)
`??bdb_CreateRespondentList::?relay`:
        CODE
        LCALL   ?BDISPATCH
        DATA24
        DC24    bdb_CreateRespondentList

        RSEG BANK_RELAYS:CODE:REORDER:NOROOT(0)
`??bdb_AddRespondentNode::?relay`:
        CODE
        LCALL   ?BDISPATCH
        DATA24
        DC24    bdb_AddRespondentNode

        RSEG BANK_RELAYS:CODE:REORDER:NOROOT(0)
`??bdb_zclRespondentListClean::?relay`:
        CODE
        LCALL   ?BDISPATCH
        DATA24
        DC24    bdb_zclRespondentListClean

        RSEG BANK_RELAYS:CODE:REORDER:NOROOT(0)
`??bdb_ProcessOSALMsg::?relay`:
        CODE
        LCALL   ?BDISPATCH
        DATA24
        DC24    bdb_ProcessOSALMsg

        RSEG BANK_RELAYS:CODE:REORDER:NOROOT(0)
`??bdb_SendMsg::?relay`:
        CODE
        LCALL   ?BDISPATCH
        DATA24
        DC24    bdb_SendMsg

        RSEG BANK_RELAYS:CODE:REORDER:NOROOT(0)
`??bdb_RegisterCommissioningStatusCB::?relay`:
        CODE
        LCALL   ?BDISPATCH
        DATA24
        DC24    bdb_RegisterCommissioningStatusCB

        RSEG BANK_RELAYS:CODE:REORDER:NOROOT(0)
`??bdb_ClearNetworkParams::?relay`:
        CODE
        LCALL   ?BDISPATCH
        DATA24
        DC24    bdb_ClearNetworkParams

        RSEG BANK_RELAYS:CODE:REORDER:NOROOT(0)
`??bdb_getZCLFrameCounter::?relay`:
        CODE
        LCALL   ?BDISPATCH
        DATA24
        DC24    bdb_getZCLFrameCounter

        RSEG BANK_RELAYS:CODE:REORDER:NOROOT(0)
`??bdb_RegisterCBKETCLinkKeyExchangeCB::?relay`:
        CODE
        LCALL   ?BDISPATCH
        DATA24
        DC24    bdb_RegisterCBKETCLinkKeyExchangeCB

        RSEG BANK_RELAYS:CODE:REORDER:NOROOT(0)
`??bdb_RegisterForFilterNwkDescCB::?relay`:
        CODE
        LCALL   ?BDISPATCH
        DATA24
        DC24    bdb_RegisterForFilterNwkDescCB

        RSEG BANK_RELAYS:CODE:REORDER:NOROOT(0)
`??bdb_CBKETCLinkKeyExchangeAttempt::?relay`:
        CODE
        LCALL   ?BDISPATCH
        DATA24
        DC24    bdb_CBKETCLinkKeyExchangeAttempt

        RSEG BANK_RELAYS:CODE:REORDER:NOROOT(0)
`??bdb_GenerateInstallCodeCRC::?relay`:
        CODE
        LCALL   ?BDISPATCH
        DATA24
        DC24    bdb_GenerateInstallCodeCRC

        RSEG BANK_RELAYS:CODE:REORDER:NOROOT(0)
`??bdb_calculateCCITT_CRC::?relay`:
        CODE
        LCALL   ?BDISPATCH
        DATA24
        DC24    bdb_calculateCCITT_CRC

        RSEG BANK_RELAYS:CODE:REORDER:NOROOT(0)
`??bdb_crcInit::?relay`:
        CODE
        LCALL   ?BDISPATCH
        DATA24
        DC24    bdb_crcInit

        RSEG BANK_RELAYS:CODE:REORDER:NOROOT(0)
`??bdb_crcReflect::?relay`:
        CODE
        LCALL   ?BDISPATCH
        DATA24
        DC24    bdb_crcReflect

        RSEG BANK_RELAYS:CODE:REORDER:NOROOT(0)
`??bdb_crcBitByBitFast::?relay`:
        CODE
        LCALL   ?BDISPATCH
        DATA24
        DC24    bdb_crcBitByBitFast

        END
// 3501 
// 3502 
// 
// 6 937 bytes in segment BANKED_CODE
//   306 bytes in segment BANK_RELAYS
//    38 bytes in segment XDATA_I
//    38 bytes in segment XDATA_ID
//    32 bytes in segment XDATA_ROM_C
//    29 bytes in segment XDATA_Z
// 
//   344 bytes of CODE     memory
//     0 bytes of CONST    memory (+ 32 bytes shared)
// 6 937 bytes of HUGECODE memory
//    67 bytes of XDATA    memory
//
//Errors: none
//Warnings: none
