///////////////////////////////////////////////////////////////////////////////
//
// IAR C/C++ Compiler V10.10.1.4655 for 8051              21/Jul/2021  15:47:05
// Copyright 2004-2017 IAR Systems AB.
// Standalone license - IAR Embedded Workbench for 8051
//
//    Core               =  plain
//    Code model         =  banked
//    Data model         =  large
//    Calling convention =  xdata reentrant
//    Constant location  =  data_rom
//    Dptr setup         =  1,16
//                          
//    Source file        =  
//        D:\work\zigbee\ti_cc2530_zstack\Z-Stack 3.0.2\Components\mt\MT_AF.c
//    Command line       =  
//        -f C:\Users\WenHao\AppData\Local\Temp\EWC8E9.tmp
//        ("D:\work\zigbee\ti_cc2530_zstack\Z-Stack
//        3.0.2\Components\mt\MT_AF.c" -D CSTX_BOARD -D SECURE=1 -D
//        TC_LINKKEY_JOIN -D NV_INIT -D NV_RESTORE -D xPOWER_SAVING -D
//        NWK_AUTO_POLL -D xZTOOL_P1 -D xMT_TASK -D xMT_APP_FUNC -D
//        xMT_SYS_FUNC -D xMT_ZDO_FUNC -D xMT_ZDO_MGMT -D xMT_APP_CNF_FUNC -D
//        LCD_SUPPORTED=DEBUG -D MULTICAST_ENABLED=FALSE -D ZCL_IDENTIFY -D
//        ZCL_READ -D ZCL_DISCOVER -D ZCL_WRITE -D ZCL_BASIC -D
//        ZCL_REPORTING_DEVICE -D HAL_LED=TRUE -D HAL_UART=TRUE -D HAL_KEY=TRUE
//        -D ISR_KEYINTERRUPT -lC "D:\work\zigbee\ti_cc2530_zstack\Z-Stack
//        3.0.2\Projects\zstack\HomeAutomation\AcoinfoZigBeeSampleLight\CC2530DB\EndDeviceEB\List"
//        -lA "D:\work\zigbee\ti_cc2530_zstack\Z-Stack
//        3.0.2\Projects\zstack\HomeAutomation\AcoinfoZigBeeSampleLight\CC2530DB\EndDeviceEB\List"
//        --diag_suppress Pe001,Pa010 -o
//        "D:\work\zigbee\ti_cc2530_zstack\Z-Stack
//        3.0.2\Projects\zstack\HomeAutomation\AcoinfoZigBeeSampleLight\CC2530DB\EndDeviceEB\Obj"
//        -e --debug --core=plain --dptr=16,1 --data_model=large
//        --code_model=banked --calling_convention=xdata_reentrant
//        --place_constants=data_rom --nr_virtual_regs 16 -f
//        "D:\work\zigbee\ti_cc2530_zstack\Z-Stack
//        3.0.2\Projects\zstack\HomeAutomation\AcoinfoZigBeeSampleLight\CC2530DB\..\..\..\Tools\CC2530DB\f8wEndev.cfg"
//        (-DCPU32MHZ -DROOT=__near_func -DMAC_CFG_TX_DATA_MAX=3
//        -DMAC_CFG_TX_MAX=6 -DMAC_CFG_RX_MAX=3) -f
//        "D:\work\zigbee\ti_cc2530_zstack\Z-Stack
//        3.0.2\Projects\zstack\HomeAutomation\AcoinfoZigBeeSampleLight\CC2530DB\..\..\..\Tools\CC2530DB\f8wConfig.cfg"
//        (-DZIGBEEPRO -DSECURE=1 -DZG_SECURE_DYNAMIC=0 -DREFLECTOR
//        -DDEFAULT_CHANLIST=0x00100000 -DZDAPP_CONFIG_PAN_ID=0xFFFF
//        -DNWK_START_DELAY=100 -DEXTENDED_JOINING_RANDOM_MASK=0x007F
//        -DBEACON_REQUEST_DELAY=100 -DBEACON_REQ_DELAY_MASK=0x00FF
//        -DLINK_STATUS_JITTER_MASK=0x007F -DROUTE_EXPIRY_TIME=30
//        -DAPSC_ACK_WAIT_DURATION_POLLED=3000 -DNWK_INDIRECT_MSG_TIMEOUT=7
//        -DMAX_RREQ_ENTRIES=8 -DAPSC_MAX_FRAME_RETRIES=3
//        -DNWK_MAX_DATA_RETRIES=2 -DMAX_POLL_FAILURE_RETRIES=2 -DMAX_BCAST=9
//        -DAPS_MAX_GROUPS=16 -DMAX_RTG_ENTRIES=40 -DNWK_MAX_BINDING_ENTRIES=4
//        -DMAX_BINDING_CLUSTER_IDS=4 -DDEFAULT_KEY={0}
//        -DMAC_MAX_FRAME_SIZE=116 -DZDNWKMGR_MIN_TRANSMISSIONS=20
//        "-DCONST=const __code" -DGENERIC=__generic -DRFD_RCVC_ALWAYS_ON=FALSE
//        -DPOLL_RATE=1000 -DQUEUED_POLL_RATE=100 -DRESPONSE_POLL_RATE=100
//        -DREJOIN_POLL_RATE=440 -DREJOIN_BACKOFF=900000 -DREJOIN_SCAN=900000
//        -DENABLE_LED4_DISABLE_S1) -f "D:\work\zigbee\ti_cc2530_zstack\Z-Stack
//        3.0.2\Projects\zstack\HomeAutomation\AcoinfoZigBeeSampleLight\CC2530DB\..\..\..\Tools\CC2530DB\f8wZCL.cfg"
//        -I "D:\work\zigbee\ti_cc2530_zstack\Z-Stack
//        3.0.2\Projects\zstack\HomeAutomation\AcoinfoZigBeeSampleLight\CC2530DB\"
//        -I "D:\work\zigbee\ti_cc2530_zstack\Z-Stack
//        3.0.2\Projects\zstack\HomeAutomation\AcoinfoZigBeeSampleLight\CC2530DB\..\Source\"
//        -I "D:\work\zigbee\ti_cc2530_zstack\Z-Stack
//        3.0.2\Projects\zstack\HomeAutomation\AcoinfoZigBeeSampleLight\CC2530DB\..\..\Source\"
//        -I "D:\work\zigbee\ti_cc2530_zstack\Z-Stack
//        3.0.2\Projects\zstack\HomeAutomation\AcoinfoZigBeeSampleLight\CC2530DB\..\..\..\ZMain\TI2530DB\"
//        -I "D:\work\zigbee\ti_cc2530_zstack\Z-Stack
//        3.0.2\Projects\zstack\HomeAutomation\AcoinfoZigBeeSampleLight\CC2530DB\..\..\..\..\..\Components\hal\include\"
//        -I "D:\work\zigbee\ti_cc2530_zstack\Z-Stack
//        3.0.2\Projects\zstack\HomeAutomation\AcoinfoZigBeeSampleLight\CC2530DB\..\..\..\..\..\Components\hal\target\CC2530EB\"
//        -I "D:\work\zigbee\ti_cc2530_zstack\Z-Stack
//        3.0.2\Projects\zstack\HomeAutomation\AcoinfoZigBeeSampleLight\CC2530DB\..\..\..\..\..\Components\mac\include\"
//        -I "D:\work\zigbee\ti_cc2530_zstack\Z-Stack
//        3.0.2\Projects\zstack\HomeAutomation\AcoinfoZigBeeSampleLight\CC2530DB\..\..\..\..\..\Components\mac\high_level\"
//        -I "D:\work\zigbee\ti_cc2530_zstack\Z-Stack
//        3.0.2\Projects\zstack\HomeAutomation\AcoinfoZigBeeSampleLight\CC2530DB\..\..\..\..\..\Components\mac\low_level\srf04\"
//        -I "D:\work\zigbee\ti_cc2530_zstack\Z-Stack
//        3.0.2\Projects\zstack\HomeAutomation\AcoinfoZigBeeSampleLight\CC2530DB\..\..\..\..\..\Components\mac\low_level\srf04\single_chip\"
//        -I "D:\work\zigbee\ti_cc2530_zstack\Z-Stack
//        3.0.2\Projects\zstack\HomeAutomation\AcoinfoZigBeeSampleLight\CC2530DB\..\..\..\..\..\Components\mt\"
//        -I "D:\work\zigbee\ti_cc2530_zstack\Z-Stack
//        3.0.2\Projects\zstack\HomeAutomation\AcoinfoZigBeeSampleLight\CC2530DB\..\..\..\..\..\Components\osal\include\"
//        -I "D:\work\zigbee\ti_cc2530_zstack\Z-Stack
//        3.0.2\Projects\zstack\HomeAutomation\AcoinfoZigBeeSampleLight\CC2530DB\..\..\..\..\..\Components\services\saddr\"
//        -I "D:\work\zigbee\ti_cc2530_zstack\Z-Stack
//        3.0.2\Projects\zstack\HomeAutomation\AcoinfoZigBeeSampleLight\CC2530DB\..\..\..\..\..\Components\services\sdata\"
//        -I "D:\work\zigbee\ti_cc2530_zstack\Z-Stack
//        3.0.2\Projects\zstack\HomeAutomation\AcoinfoZigBeeSampleLight\CC2530DB\..\..\..\..\..\Components\stack\af\"
//        -I "D:\work\zigbee\ti_cc2530_zstack\Z-Stack
//        3.0.2\Projects\zstack\HomeAutomation\AcoinfoZigBeeSampleLight\CC2530DB\..\..\..\..\..\Components\stack\bdb\"
//        -I "D:\work\zigbee\ti_cc2530_zstack\Z-Stack
//        3.0.2\Projects\zstack\HomeAutomation\AcoinfoZigBeeSampleLight\CC2530DB\..\..\..\..\..\Components\stack\gp\"
//        -I "D:\work\zigbee\ti_cc2530_zstack\Z-Stack
//        3.0.2\Projects\zstack\HomeAutomation\AcoinfoZigBeeSampleLight\CC2530DB\..\..\..\..\..\Components\stack\nwk\"
//        -I "D:\work\zigbee\ti_cc2530_zstack\Z-Stack
//        3.0.2\Projects\zstack\HomeAutomation\AcoinfoZigBeeSampleLight\CC2530DB\..\..\..\..\..\Components\stack\sapi\"
//        -I "D:\work\zigbee\ti_cc2530_zstack\Z-Stack
//        3.0.2\Projects\zstack\HomeAutomation\AcoinfoZigBeeSampleLight\CC2530DB\..\..\..\..\..\Components\stack\sec\"
//        -I "D:\work\zigbee\ti_cc2530_zstack\Z-Stack
//        3.0.2\Projects\zstack\HomeAutomation\AcoinfoZigBeeSampleLight\CC2530DB\..\..\..\..\..\Components\stack\sys\"
//        -I "D:\work\zigbee\ti_cc2530_zstack\Z-Stack
//        3.0.2\Projects\zstack\HomeAutomation\AcoinfoZigBeeSampleLight\CC2530DB\..\..\..\..\..\Components\stack\zcl\"
//        -I "D:\work\zigbee\ti_cc2530_zstack\Z-Stack
//        3.0.2\Projects\zstack\HomeAutomation\AcoinfoZigBeeSampleLight\CC2530DB\..\..\..\..\..\Components\stack\zdo\"
//        -I "D:\work\zigbee\ti_cc2530_zstack\Z-Stack
//        3.0.2\Projects\zstack\HomeAutomation\AcoinfoZigBeeSampleLight\CC2530DB\..\..\..\..\..\Components\zmac\"
//        -I "D:\work\zigbee\ti_cc2530_zstack\Z-Stack
//        3.0.2\Projects\zstack\HomeAutomation\AcoinfoZigBeeSampleLight\CC2530DB\..\..\..\..\..\Components\zmac\f8w\"
//        -Ohz --require_prototypes)
//    Locale             =  Chinese (Simplified)_China.936
//    List file          =  
//        D:\work\zigbee\ti_cc2530_zstack\Z-Stack
//        3.0.2\Projects\zstack\HomeAutomation\AcoinfoZigBeeSampleLight\CC2530DB\EndDeviceEB\List\MT_AF.s51
//
///////////////////////////////////////////////////////////////////////////////

        NAME MT_AF

        RTMODEL "__SystemLibrary", "CLib"
        RTMODEL "__calling_convention", "xdata_reentrant"
        RTMODEL "__code_model", "banked"
        RTMODEL "__core", "plain"
        RTMODEL "__data_model", "large"
        RTMODEL "__dptr_size", "16"
        RTMODEL "__extended_stack", "disabled"
        RTMODEL "__location_for_constants", "data"
        RTMODEL "__number_of_dptrs", "1"
        RTMODEL "__register_banks", "*"
        RTMODEL "__rt_version", "1"

        RSEG DOVERLAY:DATA:NOROOT(0)
        RSEG IOVERLAY:IDATA:NOROOT(0)
        RSEG ISTACK:IDATA:NOROOT(0)
        RSEG PSTACK:XDATA:NOROOT(0)
        RSEG XSTACK:XDATA:NOROOT(0)

        EXTERN ?V0
        EXTERN ?V1
        EXTERN ?V2
        EXTERN ?V3
        EXTERN ?V4
        EXTERN ?V5
        EXTERN ?V6
        EXTERN ?V7
        EXTERN ?V8
        EXTERN ?V9
        EXTERN ?V10
        EXTERN ?V11
        EXTERN ?V12
        EXTERN ?V13
        EXTERN ?V14
        EXTERN ?V15
        EXTERN ?ALLOC_XSTACK8
        EXTERN ?BANKED_ENTER_XDATA
        EXTERN ?BANKED_LEAVE_XDATA
        EXTERN ?BDISPATCH
        EXTERN ?BRET
        EXTERN ?DEALLOC_XSTACK8
        EXTERN ?L_EQ_X
        EXTERN ?MOVE_LONG8_XDATA_XDATA
        EXTERN ?PUSH_XSTACK8_X_FOUR
        EXTERN ?PUSH_XSTACK8_X_TWO
        EXTERN ?PUSH_XSTACK_I_ONE
        EXTERN ?PUSH_XSTACK_I_THREE
        EXTERN ?PUSH_XSTACK_I_TWO
        EXTERN ?XLOAD_R0123
        EXTERN ?XSP
        EXTERN ?XSTACK_DISP0_8
        EXTERN ?XSTACK_DISP100_8
        EXTERN ?XSTACK_DISP101_8
        EXTERN ?XSTACK_DISP102_8
        EXTERN ?XSTORE_R0123
        EXTERN __INIT_XDATA_Z

        PUBLIC `??MT_AfCommandProcessing::?relay`
        FUNCTION `??MT_AfCommandProcessing::?relay`,0203H
        PUBLIC `??MT_AfDataConfirm::?relay`
        FUNCTION `??MT_AfDataConfirm::?relay`,0203H
        FUNCTION `??MT_AfDataRequest::?relay`,0203H
        FUNCTION `??MT_AfDataRequestSrcRtg::?relay`,0203H
        FUNCTION `??MT_AfDataRetrieve::?relay`,0203H
        FUNCTION `??MT_AfDataStore::?relay`,0203H
        PUBLIC `??MT_AfExec::?relay`
        FUNCTION `??MT_AfExec::?relay`,0203H
        PUBLIC `??MT_AfIncomingMsg::?relay`
        FUNCTION `??MT_AfIncomingMsg::?relay`,0203H
        PUBLIC `??MT_AfReflectError::?relay`
        FUNCTION `??MT_AfReflectError::?relay`,0203H
        PUBLIC MT_AfCommandProcessing
        FUNCTION MT_AfCommandProcessing,0a1203H
        ARGFRAME XSTACK, 0, STACK
        LOCFRAME ISTACK, 1, STACK
        LOCFRAME XSTACK, 19, STACK
        PUBLIC MT_AfDataConfirm
        FUNCTION MT_AfDataConfirm,021203H
        ARGFRAME XSTACK, 0, STACK
        LOCFRAME ISTACK, 3, STACK
        LOCFRAME XSTACK, 3, STACK
        FUNCTION MT_AfDataRequest,0a1203H
        ARGFRAME XSTACK, 19, STACK
        ARGFRAME IOVERLAY, 0, STATIC
        ARGFRAME DOVERLAY, 0, STATIC
        LOCFRAME ISTACK, 1, STACK
        LOCFRAME XSTACK, 44, STACK
        FUNCTION MT_AfDataRequestSrcRtg,0a1203H
        ARGFRAME XSTACK, 19, STACK
        ARGFRAME IOVERLAY, 0, STATIC
        ARGFRAME DOVERLAY, 0, STATIC
        LOCFRAME ISTACK, 1, STACK
        LOCFRAME XSTACK, 46, STACK
        FUNCTION MT_AfDataRetrieve,0a1203H
        ARGFRAME XSTACK, 19, STACK
        ARGFRAME IOVERLAY, 0, STATIC
        ARGFRAME DOVERLAY, 0, STATIC
        LOCFRAME ISTACK, 1, STACK
        LOCFRAME XSTACK, 22, STACK
        FUNCTION MT_AfDataStore,0a1203H
        ARGFRAME XSTACK, 19, STACK
        ARGFRAME IOVERLAY, 0, STATIC
        ARGFRAME DOVERLAY, 0, STATIC
        LOCFRAME ISTACK, 1, STACK
        LOCFRAME XSTACK, 26, STACK
        PUBLIC MT_AfExec
        FUNCTION MT_AfExec,021203H
        ARGFRAME XSTACK, 0, STACK
        LOCFRAME XSTACK, 13, STACK
        PUBLIC MT_AfIncomingMsg
        FUNCTION MT_AfIncomingMsg,0a1203H
        ARGFRAME XSTACK, 0, STACK
        LOCFRAME ISTACK, 1, STACK
        LOCFRAME XSTACK, 28, STACK
        PUBLIC MT_AfReflectError
        FUNCTION MT_AfReflectError,021203H
        ARGFRAME XSTACK, 0, STACK
        LOCFRAME ISTACK, 3, STACK
        LOCFRAME XSTACK, 6, STACK
        PUBWEAK __Constant_3e8
        PUBLIC pMtAfDataReq
        PUBLIC pMtAfInMsgList
        
          CFI Names cfiNames0
          CFI StackFrame CFA_SP SP IDATA
          CFI StackFrame CFA_PSP16 PSP16 XDATA
          CFI StackFrame CFA_XSP16 XSP16 XDATA
          CFI StaticOverlayFrame CFA_IOVERLAY IOVERLAY
          CFI StaticOverlayFrame CFA_DOVERLAY DOVERLAY
          CFI Resource `PSW.CY`:1, `B.BR0`:1, `B.BR1`:1, `B.BR2`:1, `B.BR3`:1
          CFI Resource `B.BR4`:1, `B.BR5`:1, `B.BR6`:1, `B.BR7`:1, `VB.BR8`:1
          CFI Resource `VB.BR9`:1, `VB.BR10`:1, `VB.BR11`:1, `VB.BR12`:1
          CFI Resource `VB.BR13`:1, `VB.BR14`:1, `VB.BR15`:1, VB:8, B:8, A:8
          CFI Resource PSW:8, DPL0:8, DPH0:8, R0:8, R1:8, R2:8, R3:8, R4:8, R5:8
          CFI Resource R6:8, R7:8, V0:8, V1:8, V2:8, V3:8, V4:8, V5:8, V6:8, V7:8
          CFI Resource V8:8, V9:8, V10:8, V11:8, V12:8, V13:8, V14:8, V15:8, SP:8
          CFI Resource PSPH:8, PSPL:8, PSP16:16, XSPH:8, XSPL:8, XSP16:16
          CFI VirtualResource ?RET:24
          CFI Resource ?BRET_EXT:8
          CFI VirtualResource ?RET_HIGH:8, ?RET_LOW:8
          CFI ResourceParts PSP16 PSPH, PSPL
          CFI ResourceParts XSP16 XSPH, XSPL
          CFI ResourceParts ?RET ?BRET_EXT, ?RET_HIGH, ?RET_LOW
          CFI EndNames cfiNames0
        
          CFI Common cfiCommon0 Using cfiNames0
          CFI CodeAlign 1
          CFI DataAlign -1
          CFI ReturnAddress ?RET CODE
          CFI CFA_DOVERLAY Used
          CFI CFA_IOVERLAY Used
          CFI CFA_SP SP+-3
          CFI CFA_PSP16 PSP16+0
          CFI CFA_XSP16 XSP16+0
          CFI `PSW.CY` SameValue
          CFI `B.BR0` SameValue
          CFI `B.BR1` SameValue
          CFI `B.BR2` SameValue
          CFI `B.BR3` SameValue
          CFI `B.BR4` SameValue
          CFI `B.BR5` SameValue
          CFI `B.BR6` SameValue
          CFI `B.BR7` SameValue
          CFI `VB.BR8` SameValue
          CFI `VB.BR9` SameValue
          CFI `VB.BR10` SameValue
          CFI `VB.BR11` SameValue
          CFI `VB.BR12` SameValue
          CFI `VB.BR13` SameValue
          CFI `VB.BR14` SameValue
          CFI `VB.BR15` SameValue
          CFI VB SameValue
          CFI B Undefined
          CFI A Undefined
          CFI PSW SameValue
          CFI DPL0 SameValue
          CFI DPH0 SameValue
          CFI R0 Undefined
          CFI R1 Undefined
          CFI R2 Undefined
          CFI R3 Undefined
          CFI R4 Undefined
          CFI R5 Undefined
          CFI R6 SameValue
          CFI R7 SameValue
          CFI V0 SameValue
          CFI V1 SameValue
          CFI V2 SameValue
          CFI V3 SameValue
          CFI V4 SameValue
          CFI V5 SameValue
          CFI V6 SameValue
          CFI V7 SameValue
          CFI V8 SameValue
          CFI V9 SameValue
          CFI V10 SameValue
          CFI V11 SameValue
          CFI V12 SameValue
          CFI V13 SameValue
          CFI V14 SameValue
          CFI V15 SameValue
          CFI PSPH Undefined
          CFI PSPL Undefined
          CFI XSPH Undefined
          CFI XSPL Undefined
          CFI ?RET Concat
          CFI ?BRET_EXT Frame(CFA_SP, 3)
          CFI ?RET_HIGH Frame(CFA_SP, 2)
          CFI ?RET_LOW Frame(CFA_SP, 1)
          CFI EndCommon cfiCommon0
        
        
          CFI Common cfiCommon1 Using cfiNames0
          CFI CodeAlign 1
          CFI DataAlign -1
          CFI ReturnAddress ?RET CODE
          CFI CFA_DOVERLAY Used
          CFI CFA_IOVERLAY Used
          CFI CFA_SP SP+-2
          CFI CFA_PSP16 PSP16+0
          CFI CFA_XSP16 XSP16+0
          CFI `PSW.CY` SameValue
          CFI `B.BR0` SameValue
          CFI `B.BR1` SameValue
          CFI `B.BR2` SameValue
          CFI `B.BR3` SameValue
          CFI `B.BR4` SameValue
          CFI `B.BR5` SameValue
          CFI `B.BR6` SameValue
          CFI `B.BR7` SameValue
          CFI `VB.BR8` SameValue
          CFI `VB.BR9` SameValue
          CFI `VB.BR10` SameValue
          CFI `VB.BR11` SameValue
          CFI `VB.BR12` SameValue
          CFI `VB.BR13` SameValue
          CFI `VB.BR14` SameValue
          CFI `VB.BR15` SameValue
          CFI VB SameValue
          CFI B SameValue
          CFI A SameValue
          CFI PSW SameValue
          CFI DPL0 SameValue
          CFI DPH0 SameValue
          CFI R0 SameValue
          CFI R1 SameValue
          CFI R2 SameValue
          CFI R3 SameValue
          CFI R4 SameValue
          CFI R5 SameValue
          CFI R6 SameValue
          CFI R7 SameValue
          CFI V0 SameValue
          CFI V1 SameValue
          CFI V2 SameValue
          CFI V3 SameValue
          CFI V4 SameValue
          CFI V5 SameValue
          CFI V6 SameValue
          CFI V7 SameValue
          CFI V8 SameValue
          CFI V9 SameValue
          CFI V10 SameValue
          CFI V11 SameValue
          CFI V12 SameValue
          CFI V13 SameValue
          CFI V14 SameValue
          CFI V15 SameValue
          CFI PSPH Undefined
          CFI PSPL Undefined
          CFI XSPH Undefined
          CFI XSPL Undefined
          CFI ?RET Concat
          CFI ?BRET_EXT SameValue
          CFI ?RET_HIGH Frame(CFA_SP, 2)
          CFI ?RET_LOW Frame(CFA_SP, 1)
          CFI EndCommon cfiCommon1
        
AF_DataRequest      SYMBOL "AF_DataRequest"
`??AF_DataRequest::?relay` SYMBOL "?relay", AF_DataRequest
AF_DataRequestSrcRtg SYMBOL "AF_DataRequestSrcRtg"
`??AF_DataRequestSrcRtg::?relay` SYMBOL "?relay", AF_DataRequestSrcRtg
MT_BuildAndSendZToolResponse SYMBOL "MT_BuildAndSendZToolResponse"
`??MT_BuildAndSendZToolResponse::?relay` SYMBOL "?relay", MT_BuildAndSendZToolResponse
MT_BuildEndpointDesc SYMBOL "MT_BuildEndpointDesc"
`??MT_BuildEndpointDesc::?relay` SYMBOL "?relay", MT_BuildEndpointDesc
afAPSF_ConfigGet    SYMBOL "afAPSF_ConfigGet"
`??afAPSF_ConfigGet::?relay` SYMBOL "?relay", afAPSF_ConfigGet
afAPSF_ConfigSet    SYMBOL "afAPSF_ConfigSet"
`??afAPSF_ConfigSet::?relay` SYMBOL "?relay", afAPSF_ConfigSet
afDelete            SYMBOL "afDelete"
`??afDelete::?relay` SYMBOL "?relay", afDelete
afFindEndPointDesc  SYMBOL "afFindEndPointDesc"
`??afFindEndPointDesc::?relay` SYMBOL "?relay", afFindEndPointDesc
afRegister          SYMBOL "afRegister"
`??afRegister::?relay` SYMBOL "?relay", afRegister
osal_buffer_uint32  SYMBOL "osal_buffer_uint32"
`??osal_buffer_uint32::?relay` SYMBOL "?relay", osal_buffer_uint32
osal_build_uint16   SYMBOL "osal_build_uint16"
`??osal_build_uint16::?relay` SYMBOL "?relay", osal_build_uint16
osal_build_uint32   SYMBOL "osal_build_uint32"
`??osal_build_uint32::?relay` SYMBOL "?relay", osal_build_uint32
osal_mem_alloc      SYMBOL "osal_mem_alloc"
`??osal_mem_alloc::?relay` SYMBOL "?relay", osal_mem_alloc
osal_mem_free       SYMBOL "osal_mem_free"
`??osal_mem_free::?relay` SYMBOL "?relay", osal_mem_free
osal_memcpy         SYMBOL "osal_memcpy"
`??osal_memcpy::?relay` SYMBOL "?relay", osal_memcpy
osal_memset         SYMBOL "osal_memset"
`??osal_memset::?relay` SYMBOL "?relay", osal_memset
osal_set_event      SYMBOL "osal_set_event"
`??osal_set_event::?relay` SYMBOL "?relay", osal_set_event
osal_start_timerEx  SYMBOL "osal_start_timerEx"
`??osal_start_timerEx::?relay` SYMBOL "?relay", osal_start_timerEx
MT_AfCommandProcessing SYMBOL "MT_AfCommandProcessing"
`??MT_AfCommandProcessing::?relay` SYMBOL "?relay", MT_AfCommandProcessing
MT_AfDataConfirm    SYMBOL "MT_AfDataConfirm"
`??MT_AfDataConfirm::?relay` SYMBOL "?relay", MT_AfDataConfirm
MT_AfExec           SYMBOL "MT_AfExec"
`??MT_AfExec::?relay` SYMBOL "?relay", MT_AfExec
MT_AfIncomingMsg    SYMBOL "MT_AfIncomingMsg"
`??MT_AfIncomingMsg::?relay` SYMBOL "?relay", MT_AfIncomingMsg
MT_AfReflectError   SYMBOL "MT_AfReflectError"
`??MT_AfReflectError::?relay` SYMBOL "?relay", MT_AfReflectError

        EXTERN `??AF_DataRequest::?relay`
        FUNCTION `??AF_DataRequest::?relay`,00H
        EXTERN `??AF_DataRequestSrcRtg::?relay`
        FUNCTION `??AF_DataRequestSrcRtg::?relay`,00H
        EXTERN `??MT_BuildAndSendZToolResponse::?relay`
        FUNCTION `??MT_BuildAndSendZToolResponse::?relay`,00H
        EXTERN `??MT_BuildEndpointDesc::?relay`
        FUNCTION `??MT_BuildEndpointDesc::?relay`,00H
        EXTERN `??afAPSF_ConfigGet::?relay`
        FUNCTION `??afAPSF_ConfigGet::?relay`,00H
        EXTERN `??afAPSF_ConfigSet::?relay`
        FUNCTION `??afAPSF_ConfigSet::?relay`,00H
        EXTERN `??afDelete::?relay`
        FUNCTION `??afDelete::?relay`,00H
        EXTERN `??afFindEndPointDesc::?relay`
        FUNCTION `??afFindEndPointDesc::?relay`,00H
        EXTERN `??afRegister::?relay`
        FUNCTION `??afRegister::?relay`,00H
        EXTERN `??osal_buffer_uint32::?relay`
        FUNCTION `??osal_buffer_uint32::?relay`,00H
        EXTERN `??osal_build_uint16::?relay`
        FUNCTION `??osal_build_uint16::?relay`,00H
        EXTERN `??osal_build_uint32::?relay`
        FUNCTION `??osal_build_uint32::?relay`,00H
        EXTERN `??osal_mem_alloc::?relay`
        FUNCTION `??osal_mem_alloc::?relay`,00H
        EXTERN `??osal_mem_free::?relay`
        FUNCTION `??osal_mem_free::?relay`,00H
        EXTERN `??osal_memcpy::?relay`
        FUNCTION `??osal_memcpy::?relay`,00H
        EXTERN `??osal_memset::?relay`
        FUNCTION `??osal_memset::?relay`,00H
        EXTERN `??osal_set_event::?relay`
        FUNCTION `??osal_set_event::?relay`,00H
        EXTERN `??osal_start_timerEx::?relay`
        FUNCTION `??osal_start_timerEx::?relay`,00H
        EXTERN AF_DataRequest
        FUNCTION AF_DataRequest,0202H
        ARGFRAME ISTACK, 0, STACK
        ARGFRAME PSTACK, 0, STACK
        ARGFRAME XSTACK, 44, STACK
        ARGFRAME IOVERLAY, 0, STATIC
        ARGFRAME DOVERLAY, 0, STATIC
        EXTERN AF_DataRequestSrcRtg
        FUNCTION AF_DataRequestSrcRtg,0202H
        ARGFRAME ISTACK, 0, STACK
        ARGFRAME PSTACK, 0, STACK
        ARGFRAME XSTACK, 46, STACK
        ARGFRAME IOVERLAY, 0, STATIC
        ARGFRAME DOVERLAY, 0, STATIC
        EXTERN MT_BuildAndSendZToolResponse
        FUNCTION MT_BuildAndSendZToolResponse,0202H
        ARGFRAME ISTACK, 2, STACK
        ARGFRAME PSTACK, 0, STACK
        ARGFRAME XSTACK, 35, STACK
        ARGFRAME IOVERLAY, 0, STATIC
        ARGFRAME DOVERLAY, 0, STATIC
        EXTERN MT_BuildEndpointDesc
        FUNCTION MT_BuildEndpointDesc,0202H
        ARGFRAME ISTACK, 0, STACK
        ARGFRAME PSTACK, 0, STACK
        ARGFRAME XSTACK, 19, STACK
        ARGFRAME IOVERLAY, 0, STATIC
        ARGFRAME DOVERLAY, 0, STATIC
        EXTERN MT_TaskID
        EXTERN afAPSF_ConfigGet
        FUNCTION afAPSF_ConfigGet,0202H
        ARGFRAME ISTACK, 0, STACK
        ARGFRAME PSTACK, 0, STACK
        ARGFRAME XSTACK, 19, STACK
        ARGFRAME IOVERLAY, 0, STATIC
        ARGFRAME DOVERLAY, 0, STATIC
        EXTERN afAPSF_ConfigSet
        FUNCTION afAPSF_ConfigSet,0202H
        ARGFRAME ISTACK, 0, STACK
        ARGFRAME PSTACK, 0, STACK
        ARGFRAME XSTACK, 19, STACK
        ARGFRAME IOVERLAY, 0, STATIC
        ARGFRAME DOVERLAY, 0, STATIC
        EXTERN afDelete
        FUNCTION afDelete,0202H
        ARGFRAME ISTACK, 0, STACK
        ARGFRAME PSTACK, 0, STACK
        ARGFRAME XSTACK, 19, STACK
        ARGFRAME IOVERLAY, 0, STATIC
        ARGFRAME DOVERLAY, 0, STATIC
        EXTERN afFindEndPointDesc
        FUNCTION afFindEndPointDesc,0202H
        ARGFRAME ISTACK, 0, STACK
        ARGFRAME PSTACK, 0, STACK
        ARGFRAME XSTACK, 35, STACK
        ARGFRAME IOVERLAY, 0, STATIC
        ARGFRAME DOVERLAY, 0, STATIC
        EXTERN afRegister
        FUNCTION afRegister,0202H
        ARGFRAME ISTACK, 0, STACK
        ARGFRAME PSTACK, 0, STACK
        ARGFRAME XSTACK, 19, STACK
        ARGFRAME IOVERLAY, 0, STATIC
        ARGFRAME DOVERLAY, 0, STATIC
        EXTERN osal_buffer_uint32
        FUNCTION osal_buffer_uint32,0202H
        ARGFRAME ISTACK, 0, STACK
        ARGFRAME PSTACK, 0, STACK
        ARGFRAME XSTACK, 28, STACK
        ARGFRAME IOVERLAY, 0, STATIC
        ARGFRAME DOVERLAY, 0, STATIC
        EXTERN osal_build_uint16
        FUNCTION osal_build_uint16,0202H
        ARGFRAME ISTACK, 0, STACK
        ARGFRAME PSTACK, 0, STACK
        ARGFRAME XSTACK, 35, STACK
        ARGFRAME IOVERLAY, 0, STATIC
        ARGFRAME DOVERLAY, 0, STATIC
        EXTERN osal_build_uint32
        FUNCTION osal_build_uint32,0202H
        ARGFRAME ISTACK, 0, STACK
        ARGFRAME PSTACK, 0, STACK
        ARGFRAME XSTACK, 19, STACK
        ARGFRAME IOVERLAY, 0, STATIC
        ARGFRAME DOVERLAY, 0, STATIC
        EXTERN osal_mem_alloc
        FUNCTION osal_mem_alloc,0202H
        ARGFRAME ISTACK, 0, STACK
        ARGFRAME PSTACK, 0, STACK
        ARGFRAME XSTACK, 35, STACK
        ARGFRAME IOVERLAY, 0, STATIC
        ARGFRAME DOVERLAY, 0, STATIC
        EXTERN osal_mem_free
        FUNCTION osal_mem_free,0202H
        ARGFRAME ISTACK, 0, STACK
        ARGFRAME PSTACK, 0, STACK
        ARGFRAME XSTACK, 34, STACK
        ARGFRAME IOVERLAY, 0, STATIC
        ARGFRAME DOVERLAY, 0, STATIC
        EXTERN osal_memcpy
        FUNCTION osal_memcpy,0202H
        ARGFRAME ISTACK, 0, STACK
        ARGFRAME PSTACK, 0, STACK
        ARGFRAME XSTACK, 38, STACK
        ARGFRAME IOVERLAY, 0, STATIC
        ARGFRAME DOVERLAY, 0, STATIC
        EXTERN osal_memset
        FUNCTION osal_memset,0202H
        ARGFRAME ISTACK, 0, STACK
        ARGFRAME PSTACK, 0, STACK
        ARGFRAME XSTACK, 34, STACK
        ARGFRAME IOVERLAY, 0, STATIC
        ARGFRAME DOVERLAY, 0, STATIC
        EXTERN osal_set_event
        FUNCTION osal_set_event,0202H
        ARGFRAME ISTACK, 0, STACK
        ARGFRAME PSTACK, 0, STACK
        ARGFRAME XSTACK, 35, STACK
        ARGFRAME IOVERLAY, 0, STATIC
        ARGFRAME DOVERLAY, 0, STATIC
        EXTERN osal_start_timerEx
        FUNCTION osal_start_timerEx,0202H
        ARGFRAME ISTACK, 0, STACK
        ARGFRAME PSTACK, 0, STACK
        ARGFRAME XSTACK, 39, STACK
        ARGFRAME IOVERLAY, 0, STATIC
        ARGFRAME DOVERLAY, 0, STATIC

// D:\work\zigbee\ti_cc2530_zstack\Z-Stack 3.0.2\Components\mt\MT_AF.c
//    1 /**************************************************************************************************
//    2   Filename:       MT_AF.c
//    3   Revised:        $Date: 2015-01-26 08:25:50 -0800 (Mon, 26 Jan 2015) $
//    4   Revision:       $Revision: 42025 $
//    5 
//    6   Description:    MonitorTest functions for the AF layer.
//    7 
//    8   Copyright 2007-2015 Texas Instruments Incorporated. All rights reserved.
//    9 
//   10   IMPORTANT: Your use of this Software is limited to those specific rights
//   11   granted under the terms of a software license agreement between the user
//   12   who downloaded the software, his/her employer (which must be your employer)
//   13   and Texas Instruments Incorporated (the "License"). You may not use this
//   14   Software unless you agree to abide by the terms of the License. The License
//   15   limits your use, and you acknowledge, that the Software may not be modified,
//   16   copied or distributed unless embedded on a Texas Instruments microcontroller
//   17   or used solely and exclusively in conjunction with a Texas Instruments radio
//   18   frequency transceiver, which is integrated into your product. Other than for
//   19   the foregoing purpose, you may not use, reproduce, copy, prepare derivative
//   20   works of, modify, distribute, perform, display or sell this Software and/or
//   21   its documentation for any purpose.
//   22 
//   23   YOU FURTHER ACKNOWLEDGE AND AGREE THAT THE SOFTWARE AND DOCUMENTATION ARE
//   24   PROVIDED “AS IS” WITHOUT WARRANTY OF ANY KIND, EITHER EXPRESS OR IMPLIED,
//   25   INCLUDING WITHOUT LIMITATION, ANY WARRANTY OF MERCHANTABILITY, TITLE,
//   26   NON-INFRINGEMENT AND FITNESS FOR A PARTICULAR PURPOSE. IN NO EVENT SHALL
//   27   TEXAS INSTRUMENTS OR ITS LICENSORS BE LIABLE OR OBLIGATED UNDER CONTRACT,
//   28   NEGLIGENCE, STRICT LIABILITY, CONTRIBUTION, BREACH OF WARRANTY, OR OTHER
//   29   LEGAL EQUITABLE THEORY ANY DIRECT OR INDIRECT DAMAGES OR EXPENSES
//   30   INCLUDING BUT NOT LIMITED TO ANY INCIDENTAL, SPECIAL, INDIRECT, PUNITIVE
//   31   OR CONSEQUENTIAL DAMAGES, LOST PROFITS OR LOST DATA, COST OF PROCUREMENT
//   32   OF SUBSTITUTE GOODS, TECHNOLOGY, SERVICES, OR ANY CLAIMS BY THIRD PARTIES
//   33   (INCLUDING BUT NOT LIMITED TO ANY DEFENSE THEREOF), OR OTHER SIMILAR COSTS.
//   34 
//   35   Should you have any questions regarding your right to use this Software,
//   36   contact Texas Instruments Incorporated at www.TI.com.
//   37 
//   38 **************************************************************************************************/
//   39 
//   40 /* ------------------------------------------------------------------------------------------------
//   41  *                                          Includes
//   42  * ------------------------------------------------------------------------------------------------
//   43  */
//   44 #include "ZComDef.h"
//   45 #include "OSAL.h"
//   46 #include "MT.h"
//   47 #include "MT_AF.h"
//   48 #include "MT_ZDO.h"
//   49 #include "nwk.h"
//   50 #include "OnBoard.h"
//   51 #include "MT_UART.h"
//   52 
//   53 #if defined INTER_PAN
//   54 #include "stub_aps.h"
//   55 #endif
//   56 
//   57 
//   58 /* ------------------------------------------------------------------------------------------------
//   59  *                                          Constants
//   60  * ------------------------------------------------------------------------------------------------
//   61  */
//   62 
//   63 #if !defined MT_AF_EXEC_CNT
//   64 #define MT_AF_EXEC_CNT  15
//   65 #endif
//   66 
//   67 #if !defined MT_AF_EXEC_DLY
//   68 #define MT_AF_EXEC_DLY  1000
//   69 #endif
//   70 
//   71 /* ------------------------------------------------------------------------------------------------
//   72  *                                           Typedefs
//   73  * ------------------------------------------------------------------------------------------------
//   74  */
//   75 
//   76 typedef struct
//   77 {
//   78   uint8 *data;
//   79   afAddrType_t dstAddr;
//   80   endPointDesc_t *epDesc;
//   81   uint16 cId;
//   82   uint16 dataLen;
//   83   uint8 transId;
//   84   uint8 txOpts;
//   85   uint8 radius;
//   86   uint8 tick;
//   87 } mtAfDataReq_t;
//   88 
//   89 typedef struct _mtAfInMsgList_t
//   90 {
//   91   struct _mtAfInMsgList_t *next;
//   92   uint8 *data;
//   93   uint32 timestamp;         // Receipt timestamp from MAC.
//   94   uint8 tick;
//   95 } mtAfInMsgList_t;
//   96 
//   97 /* ------------------------------------------------------------------------------------------------
//   98  *                                        Local Variables
//   99  * ------------------------------------------------------------------------------------------------
//  100  */
//  101 

        RSEG XDATA_Z:XDATA:NOROOT(0)
        DATA16
//  102 mtAfInMsgList_t *pMtAfInMsgList = NULL;
pMtAfInMsgList:
        DS 2
        REQUIRE __INIT_XDATA_Z

        RSEG XDATA_Z:XDATA:NOROOT(0)
        DATA16
//  103 mtAfDataReq_t *pMtAfDataReq = NULL;
pMtAfDataReq:
        DS 2
        REQUIRE __INIT_XDATA_Z
//  104 
//  105 /* ------------------------------------------------------------------------------------------------
//  106  *                                        Global Variables
//  107  * ------------------------------------------------------------------------------------------------
//  108  */
//  109 
//  110 #if defined ( MT_AF_CB_FUNC )
//  111 uint16 _afCallbackSub;
//  112 #endif
//  113 
//  114 /* ------------------------------------------------------------------------------------------------
//  115  *                                        Local Functions
//  116  * ------------------------------------------------------------------------------------------------
//  117  */
//  118 
//  119 static void MT_AfRegister(uint8 *pBuf);
//  120 static void MT_AfDelete(uint8 *pBuf);
//  121 static void MT_AfDataRequest(uint8 *pBuf);
//  122 
//  123 #if defined ( ZIGBEEPRO )
//  124 static void MT_AfDataRequestSrcRtg(uint8 *pBuf);
//  125 #endif
//  126 
//  127 #if defined INTER_PAN
//  128 static void MT_AfInterPanCtl(uint8 *pBuf);
//  129 #endif
//  130 
//  131 static void MT_AfDataRetrieve(uint8 *pBuf);
//  132 static void MT_AfDataStore(uint8 *pBuf);
//  133 static void MT_AfAPSF_ConfigSet(uint8 *pBuf);
//  134 static void MT_AfAPSF_ConfigGet(uint8 *pBuf);
//  135 
//  136 
//  137 /**************************************************************************************************
//  138  * @fn          MT_AfExec
//  139  *
//  140  * @brief       This function is invoked by an MT timer event.
//  141  *
//  142  * input parameters
//  143  *
//  144  * None.
//  145  *
//  146  * output parameters
//  147  *
//  148  * None.
//  149  *
//  150  * @return      None.
//  151  **************************************************************************************************
//  152  */

        RSEG BANKED_CODE:HUGECODE:NOROOT(0)
//  153 void MT_AfExec(void)
MT_AfExec:
          CFI Block cfiBlock0 Using cfiCommon0
          CFI Function MT_AfExec
        CODE
//  154 {
        FUNCALL MT_AfExec, osal_mem_free
        LOCFRAME ISTACK, 0, STACK
        LOCFRAME PSTACK, 0, STACK
        LOCFRAME XSTACK, 9, STACK
        LOCFRAME IOVERLAY, 0, STATIC
        LOCFRAME DOVERLAY, 0, STATIC
        ARGFRAME ISTACK, 0, STACK
        ARGFRAME PSTACK, 0, STACK
        ARGFRAME XSTACK, 9, STACK
        ARGFRAME IOVERLAY, 0, STATIC
        ARGFRAME DOVERLAY, 0, STATIC
        FUNCALL MT_AfExec, osal_mem_free
        LOCFRAME ISTACK, 0, STACK
        LOCFRAME PSTACK, 0, STACK
        LOCFRAME XSTACK, 9, STACK
        LOCFRAME IOVERLAY, 0, STATIC
        LOCFRAME DOVERLAY, 0, STATIC
        ARGFRAME ISTACK, 0, STACK
        ARGFRAME PSTACK, 0, STACK
        ARGFRAME XSTACK, 9, STACK
        ARGFRAME IOVERLAY, 0, STATIC
        ARGFRAME DOVERLAY, 0, STATIC
        FUNCALL MT_AfExec, osal_mem_free
        LOCFRAME ISTACK, 0, STACK
        LOCFRAME PSTACK, 0, STACK
        LOCFRAME XSTACK, 9, STACK
        LOCFRAME IOVERLAY, 0, STATIC
        LOCFRAME DOVERLAY, 0, STATIC
        ARGFRAME ISTACK, 0, STACK
        ARGFRAME PSTACK, 0, STACK
        ARGFRAME XSTACK, 9, STACK
        ARGFRAME IOVERLAY, 0, STATIC
        ARGFRAME DOVERLAY, 0, STATIC
        FUNCALL MT_AfExec, osal_start_timerEx
        LOCFRAME ISTACK, 0, STACK
        LOCFRAME PSTACK, 0, STACK
        LOCFRAME XSTACK, 13, STACK
        LOCFRAME IOVERLAY, 0, STATIC
        LOCFRAME DOVERLAY, 0, STATIC
        ARGFRAME ISTACK, 0, STACK
        ARGFRAME PSTACK, 0, STACK
        ARGFRAME XSTACK, 13, STACK
        ARGFRAME IOVERLAY, 0, STATIC
        ARGFRAME DOVERLAY, 0, STATIC
        FUNCALL MT_AfExec, osal_set_event
        LOCFRAME ISTACK, 0, STACK
        LOCFRAME PSTACK, 0, STACK
        LOCFRAME XSTACK, 9, STACK
        LOCFRAME IOVERLAY, 0, STATIC
        LOCFRAME DOVERLAY, 0, STATIC
        ARGFRAME ISTACK, 0, STACK
        ARGFRAME PSTACK, 0, STACK
        ARGFRAME XSTACK, 9, STACK
        ARGFRAME IOVERLAY, 0, STATIC
        ARGFRAME DOVERLAY, 0, STATIC
        MOV       A,#-0x9
        LCALL     ?BANKED_ENTER_XDATA
          CFI R6 load(1, XDATA, add(CFA_XSP16, literal(-9)))
          CFI VB load(1, XDATA, add(CFA_XSP16, literal(-8)))
          CFI V0 load(1, XDATA, add(CFA_XSP16, literal(-7)))
          CFI R7 load(1, XDATA, add(CFA_XSP16, literal(-6)))
          CFI ?RET_LOW load(1, XDATA, add(CFA_XSP16, literal(-5)))
          CFI ?RET_HIGH load(1, XDATA, add(CFA_XSP16, literal(-4)))
          CFI ?BRET_EXT load(1, XDATA, add(CFA_XSP16, literal(-3)))
          CFI DPL0 load(1, XDATA, add(CFA_XSP16, literal(-2)))
          CFI DPH0 load(1, XDATA, add(CFA_XSP16, literal(-1)))
          CFI CFA_SP SP+0
          CFI CFA_XSP16 add(XSP16, 9)
        ; Saved register size: 9
        ; Auto size: 0
//  155   mtAfInMsgList_t *pPrev, *pItem = pMtAfInMsgList;
??MT_AfExec_0:
        MOV       DPTR,#pMtAfInMsgList
        SJMP      ??MT_AfExec_1
//  156 
//  157   while (pItem != NULL)
//  158   {
//  159     if (--(pItem->tick) == 0)
//  160     {
//  161       if (pMtAfInMsgList == pItem)
//  162       {
//  163         pMtAfInMsgList = pItem->next;
//  164         (void)osal_mem_free(pItem);
//  165         pItem = pMtAfInMsgList;
//  166       }
//  167       else
//  168       {
//  169         pPrev->next = pItem->next;
//  170         (void)osal_mem_free(pItem);
//  171         pItem = pPrev->next;
//  172       }
//  173     }
//  174     else
//  175     {
//  176       pPrev = pItem;
??MT_AfExec_2:
        MOV       A,R2
        MOV       R6,A
        MOV       A,R3
        MOV       R7,A
//  177       pItem = pItem->next;
        MOV       DPL,R2
        MOV       DPH,R3
//  178     }
??MT_AfExec_1:
        LCALL     ??Subroutine45_0 & 0xFFFF
??CrossCallReturnLabel_97:
        MOV       A,R2
        ORL       A,R3
        JZ        ??MT_AfExec_3
        MOV       A,R2
        ADD       A,#0x8
        MOV       DPL,A
        CLR       A
        ADDC      A,R3
        MOV       DPH,A
        MOVX      A,@DPTR
        DEC       A
        MOVX      @DPTR,A
        JNZ       ??MT_AfExec_2
        LCALL     ?Subroutine30 & 0xFFFF
??CrossCallReturnLabel_94:
        MOV       A,R2
        XRL       A,R0
        JNZ       ??MT_AfExec_4
        MOV       A,R3
        XRL       A,R1
??MT_AfExec_4:
        MOV       DPL,R2
        MOV       DPH,R3
        JNZ       ??MT_AfExec_5
        LCALL     ?Subroutine18 & 0xFFFF
??CrossCallReturnLabel_29:
        MOV       A,R0
        MOVX      @DPTR,A
        INC       DPTR
        MOV       A,R1
        MOVX      @DPTR,A
        ; Setup parameters for call to function osal_mem_free
        LCALL     `??osal_mem_free::?relay`; Banked call to: osal_mem_free
        SJMP      ??MT_AfExec_0
??MT_AfExec_5:
        LCALL     ??Subroutine44_0 & 0xFFFF
??CrossCallReturnLabel_92:
        MOV       DPL,R6
        MOV       DPH,R7
        MOV       A,R0
        MOVX      @DPTR,A
        INC       DPTR
        MOV       A,R1
        MOVX      @DPTR,A
        ; Setup parameters for call to function osal_mem_free
        LCALL     `??osal_mem_free::?relay`; Banked call to: osal_mem_free
        MOV       DPL,R6
        MOV       DPH,R7
        SJMP      ??MT_AfExec_1
//  179   }
//  180 
//  181   if (pMtAfDataReq != NULL)
??MT_AfExec_3:
        LCALL     ?Subroutine1 & 0xFFFF
??CrossCallReturnLabel_80:
        JZ        ??MT_AfExec_6
//  182   {
//  183     if (--(pMtAfDataReq->tick) == 0)
        MOVX      A,@DPTR
        XCH       A,R0
        LCALL     ?Subroutine36 & 0xFFFF
??CrossCallReturnLabel_59:
        MOVX      A,@DPTR
        DEC       A
        LCALL     ?Subroutine4 & 0xFFFF
??CrossCallReturnLabel_5:
        MOVX      A,@DPTR
        JNZ       ??MT_AfExec_6
//  184     {
//  185       (void)osal_mem_free(pMtAfDataReq);
        ; Setup parameters for call to function osal_mem_free
        LCALL     ?Subroutine10 & 0xFFFF
??CrossCallReturnLabel_100:
        LCALL     `??osal_mem_free::?relay`; Banked call to: osal_mem_free
//  186       pMtAfDataReq = NULL;
        MOV       DPTR,#pMtAfDataReq
        CLR       A
        MOVX      @DPTR,A
        INC       DPTR
        MOVX      @DPTR,A
//  187     }
//  188   }
//  189 
//  190   if ((pMtAfInMsgList != NULL) || (pMtAfDataReq != NULL))
??MT_AfExec_6:
        MOV       DPTR,#pMtAfInMsgList
        LCALL     ??Subroutine41_0 & 0xFFFF
??CrossCallReturnLabel_79:
        JNZ       ??MT_AfExec_7
        LCALL     ?Subroutine1 & 0xFFFF
??CrossCallReturnLabel_81:
        JZ        ??MT_AfExec_8
//  191   {
//  192     if (ZSuccess != osal_start_timerEx(MT_TaskID, MT_AF_EXEC_EVT, MT_AF_EXEC_DLY))
??MT_AfExec_7:
        ; Setup parameters for call to function osal_start_timerEx
        MOV       DPTR,#__Constant_3e8
        LCALL     ?PUSH_XSTACK8_X_FOUR
          CFI CFA_XSP16 add(XSP16, 13)
        MOV       R2,#0x8
        MOV       R3,#0x0
        MOV       DPTR,#MT_TaskID
        MOVX      A,@DPTR
        MOV       R1,A
        LCALL     `??osal_start_timerEx::?relay`; Banked call to: osal_start_timerEx
        MOV       A,#0x4
        LCALL     ?DEALLOC_XSTACK8
          CFI CFA_XSP16 add(XSP16, 9)
        MOV       A,R1
        JZ        ??MT_AfExec_8
//  193     {
//  194       osal_set_event(MT_TaskID, MT_AF_EXEC_EVT);
        ; Setup parameters for call to function osal_set_event
        MOV       R2,#0x8
        MOV       R3,#0x0
        MOV       DPTR,#MT_TaskID
        MOVX      A,@DPTR
        MOV       R1,A
        LCALL     `??osal_set_event::?relay`; Banked call to: osal_set_event
//  195     }
//  196   }
//  197 }
??MT_AfExec_8:
        MOV       R7,#0x1
        LJMP      ?BANKED_LEAVE_XDATA
          CFI EndBlock cfiBlock0
//  198 
//  199 /***************************************************************************************************
//  200  * @fn      MT_AfCommandProcessing
//  201  *
//  202  * @brief   Process all the AF commands that are issued by test tool
//  203  *
//  204  * @param   pBuf - pointer to the received buffer
//  205  *
//  206  * @return  status
//  207  ***************************************************************************************************/

        RSEG BANKED_CODE:HUGECODE:NOROOT(0)
//  208 uint8 MT_AfCommandProcessing(uint8 *pBuf)
MT_AfCommandProcessing:
          CFI Block cfiBlock1 Using cfiCommon0
          CFI Function MT_AfCommandProcessing
        CODE
//  209 {
        FUNCALL MT_AfCommandProcessing, osal_mem_alloc
        LOCFRAME ISTACK, 0, STACK
        LOCFRAME PSTACK, 0, STACK
        LOCFRAME XSTACK, 19, STACK
        LOCFRAME IOVERLAY, 0, STATIC
        LOCFRAME DOVERLAY, 0, STATIC
        ARGFRAME ISTACK, 0, STACK
        ARGFRAME PSTACK, 0, STACK
        ARGFRAME XSTACK, 19, STACK
        ARGFRAME IOVERLAY, 0, STATIC
        ARGFRAME DOVERLAY, 0, STATIC
        FUNCALL MT_AfCommandProcessing, MT_BuildEndpointDesc
        LOCFRAME ISTACK, 0, STACK
        LOCFRAME PSTACK, 0, STACK
        LOCFRAME XSTACK, 19, STACK
        LOCFRAME IOVERLAY, 0, STATIC
        LOCFRAME DOVERLAY, 0, STATIC
        ARGFRAME ISTACK, 0, STACK
        ARGFRAME PSTACK, 0, STACK
        ARGFRAME XSTACK, 19, STACK
        ARGFRAME IOVERLAY, 0, STATIC
        ARGFRAME DOVERLAY, 0, STATIC
        FUNCALL MT_AfCommandProcessing, afRegister
        LOCFRAME ISTACK, 0, STACK
        LOCFRAME PSTACK, 0, STACK
        LOCFRAME XSTACK, 19, STACK
        LOCFRAME IOVERLAY, 0, STATIC
        LOCFRAME DOVERLAY, 0, STATIC
        ARGFRAME ISTACK, 0, STACK
        ARGFRAME PSTACK, 0, STACK
        ARGFRAME XSTACK, 19, STACK
        ARGFRAME IOVERLAY, 0, STATIC
        ARGFRAME DOVERLAY, 0, STATIC
        FUNCALL MT_AfCommandProcessing, osal_mem_free
        LOCFRAME ISTACK, 0, STACK
        LOCFRAME PSTACK, 0, STACK
        LOCFRAME XSTACK, 19, STACK
        LOCFRAME IOVERLAY, 0, STATIC
        LOCFRAME DOVERLAY, 0, STATIC
        ARGFRAME ISTACK, 0, STACK
        ARGFRAME PSTACK, 0, STACK
        ARGFRAME XSTACK, 19, STACK
        ARGFRAME IOVERLAY, 0, STATIC
        ARGFRAME DOVERLAY, 0, STATIC
        FUNCALL MT_AfCommandProcessing, MT_BuildAndSendZToolResponse
        LOCFRAME ISTACK, 0, STACK
        LOCFRAME PSTACK, 0, STACK
        LOCFRAME XSTACK, 19, STACK
        LOCFRAME IOVERLAY, 0, STATIC
        LOCFRAME DOVERLAY, 0, STATIC
        ARGFRAME ISTACK, 0, STACK
        ARGFRAME PSTACK, 0, STACK
        ARGFRAME XSTACK, 19, STACK
        ARGFRAME IOVERLAY, 0, STATIC
        ARGFRAME DOVERLAY, 0, STATIC
        FUNCALL MT_AfCommandProcessing, afDelete
        LOCFRAME ISTACK, 0, STACK
        LOCFRAME PSTACK, 0, STACK
        LOCFRAME XSTACK, 19, STACK
        LOCFRAME IOVERLAY, 0, STATIC
        LOCFRAME DOVERLAY, 0, STATIC
        ARGFRAME ISTACK, 0, STACK
        ARGFRAME PSTACK, 0, STACK
        ARGFRAME XSTACK, 19, STACK
        ARGFRAME IOVERLAY, 0, STATIC
        ARGFRAME DOVERLAY, 0, STATIC
        FUNCALL MT_AfCommandProcessing, MT_BuildAndSendZToolResponse
        LOCFRAME ISTACK, 0, STACK
        LOCFRAME PSTACK, 0, STACK
        LOCFRAME XSTACK, 19, STACK
        LOCFRAME IOVERLAY, 0, STATIC
        LOCFRAME DOVERLAY, 0, STATIC
        ARGFRAME ISTACK, 0, STACK
        ARGFRAME PSTACK, 0, STACK
        ARGFRAME XSTACK, 19, STACK
        ARGFRAME IOVERLAY, 0, STATIC
        ARGFRAME DOVERLAY, 0, STATIC
        FUNCALL MT_AfCommandProcessing, MT_AfDataRequest
        LOCFRAME ISTACK, 0, STACK
        LOCFRAME PSTACK, 0, STACK
        LOCFRAME XSTACK, 19, STACK
        LOCFRAME IOVERLAY, 0, STATIC
        LOCFRAME DOVERLAY, 0, STATIC
        ARGFRAME ISTACK, 0, STACK
        ARGFRAME PSTACK, 0, STACK
        ARGFRAME XSTACK, 19, STACK
        ARGFRAME IOVERLAY, 0, STATIC
        ARGFRAME DOVERLAY, 0, STATIC
        FUNCALL MT_AfCommandProcessing, MT_AfDataRequestSrcRtg
        LOCFRAME ISTACK, 0, STACK
        LOCFRAME PSTACK, 0, STACK
        LOCFRAME XSTACK, 19, STACK
        LOCFRAME IOVERLAY, 0, STATIC
        LOCFRAME DOVERLAY, 0, STATIC
        ARGFRAME ISTACK, 0, STACK
        ARGFRAME PSTACK, 0, STACK
        ARGFRAME XSTACK, 19, STACK
        ARGFRAME IOVERLAY, 0, STATIC
        ARGFRAME DOVERLAY, 0, STATIC
        FUNCALL MT_AfCommandProcessing, MT_AfDataRetrieve
        LOCFRAME ISTACK, 0, STACK
        LOCFRAME PSTACK, 0, STACK
        LOCFRAME XSTACK, 19, STACK
        LOCFRAME IOVERLAY, 0, STATIC
        LOCFRAME DOVERLAY, 0, STATIC
        ARGFRAME ISTACK, 0, STACK
        ARGFRAME PSTACK, 0, STACK
        ARGFRAME XSTACK, 19, STACK
        ARGFRAME IOVERLAY, 0, STATIC
        ARGFRAME DOVERLAY, 0, STATIC
        FUNCALL MT_AfCommandProcessing, MT_AfDataStore
        LOCFRAME ISTACK, 0, STACK
        LOCFRAME PSTACK, 0, STACK
        LOCFRAME XSTACK, 19, STACK
        LOCFRAME IOVERLAY, 0, STATIC
        LOCFRAME DOVERLAY, 0, STATIC
        ARGFRAME ISTACK, 0, STACK
        ARGFRAME PSTACK, 0, STACK
        ARGFRAME XSTACK, 19, STACK
        ARGFRAME IOVERLAY, 0, STATIC
        ARGFRAME DOVERLAY, 0, STATIC
        FUNCALL MT_AfCommandProcessing, afAPSF_ConfigSet
        LOCFRAME ISTACK, 0, STACK
        LOCFRAME PSTACK, 0, STACK
        LOCFRAME XSTACK, 19, STACK
        LOCFRAME IOVERLAY, 0, STATIC
        LOCFRAME DOVERLAY, 0, STATIC
        ARGFRAME ISTACK, 0, STACK
        ARGFRAME PSTACK, 0, STACK
        ARGFRAME XSTACK, 19, STACK
        ARGFRAME IOVERLAY, 0, STATIC
        ARGFRAME DOVERLAY, 0, STATIC
        FUNCALL MT_AfCommandProcessing, MT_BuildAndSendZToolResponse
        LOCFRAME ISTACK, 0, STACK
        LOCFRAME PSTACK, 0, STACK
        LOCFRAME XSTACK, 19, STACK
        LOCFRAME IOVERLAY, 0, STATIC
        LOCFRAME DOVERLAY, 0, STATIC
        ARGFRAME ISTACK, 0, STACK
        ARGFRAME PSTACK, 0, STACK
        ARGFRAME XSTACK, 19, STACK
        ARGFRAME IOVERLAY, 0, STATIC
        ARGFRAME DOVERLAY, 0, STATIC
        FUNCALL MT_AfCommandProcessing, afAPSF_ConfigGet
        LOCFRAME ISTACK, 0, STACK
        LOCFRAME PSTACK, 0, STACK
        LOCFRAME XSTACK, 19, STACK
        LOCFRAME IOVERLAY, 0, STATIC
        LOCFRAME DOVERLAY, 0, STATIC
        ARGFRAME ISTACK, 0, STACK
        ARGFRAME PSTACK, 0, STACK
        ARGFRAME XSTACK, 19, STACK
        ARGFRAME IOVERLAY, 0, STATIC
        ARGFRAME DOVERLAY, 0, STATIC
        FUNCALL MT_AfCommandProcessing, MT_BuildAndSendZToolResponse
        LOCFRAME ISTACK, 0, STACK
        LOCFRAME PSTACK, 0, STACK
        LOCFRAME XSTACK, 19, STACK
        LOCFRAME IOVERLAY, 0, STATIC
        LOCFRAME DOVERLAY, 0, STATIC
        ARGFRAME ISTACK, 0, STACK
        ARGFRAME PSTACK, 0, STACK
        ARGFRAME XSTACK, 19, STACK
        ARGFRAME IOVERLAY, 0, STATIC
        ARGFRAME DOVERLAY, 0, STATIC
        REQUIRE ?V0
        REQUIRE ?V1
        REQUIRE ?V2
        REQUIRE ?V3
        REQUIRE ?V4
        REQUIRE ?V5
        MOV       A,#-0xe
        LCALL     ?BANKED_ENTER_XDATA
          CFI DPH0 load(1, XDATA, add(CFA_XSP16, literal(-1)))
          CFI DPL0 load(1, XDATA, add(CFA_XSP16, literal(-2)))
          CFI ?BRET_EXT load(1, XDATA, add(CFA_XSP16, literal(-3)))
          CFI ?RET_HIGH load(1, XDATA, add(CFA_XSP16, literal(-4)))
          CFI ?RET_LOW load(1, XDATA, add(CFA_XSP16, literal(-5)))
          CFI R7 load(1, XDATA, add(CFA_XSP16, literal(-6)))
          CFI V5 load(1, XDATA, add(CFA_XSP16, literal(-7)))
          CFI V4 load(1, XDATA, add(CFA_XSP16, literal(-8)))
          CFI V3 load(1, XDATA, add(CFA_XSP16, literal(-9)))
          CFI V2 load(1, XDATA, add(CFA_XSP16, literal(-10)))
          CFI V1 load(1, XDATA, add(CFA_XSP16, literal(-11)))
          CFI V0 load(1, XDATA, add(CFA_XSP16, literal(-12)))
          CFI VB load(1, XDATA, add(CFA_XSP16, literal(-13)))
          CFI R6 load(1, XDATA, add(CFA_XSP16, literal(-14)))
          CFI CFA_SP SP+0
          CFI CFA_XSP16 add(XSP16, 14)
        ; Saved register size: 14
        ; Auto size: 5
        MOV       A,#-0x5
        LCALL     ?ALLOC_XSTACK8
          CFI CFA_XSP16 add(XSP16, 19)
//  210   uint8 status = MT_RPC_SUCCESS;
        MOV       ?V0,#0x0
//  211 
//  212   switch (pBuf[MT_RPC_POS_CMD1])
        MOV       A,R2
        ADD       A,#0x3
        MOV       ?V2,A
        CLR       A
        ADDC      A,R3
        MOV       ?V3,A
        MOV       A,R2
        ADD       A,#0x2
        MOV       R0,A
        CLR       A
        ADDC      A,R3
        MOV       R1,A
        MOV       DPL,R0
        MOV       DPH,R1
        MOVX      A,@DPTR
        JZ        ??MT_AfCommandProcessing_0
        DEC       A
        JNZ       $+5
        LJMP      ??MT_AfCommandProcessing_1 & 0xFFFF
        DEC       A
        JNZ       $+5
        LJMP      ??MT_AfCommandProcessing_1 & 0xFFFF
        DEC       A
        JNZ       $+5
        LJMP      ??MT_AfCommandProcessing_2 & 0xFFFF
        DEC       A
        JZ        ??MT_AfCommandProcessing_3
        ADD       A,#-0xd
        JNZ       $+5
        LJMP      ??MT_AfCommandProcessing_4 & 0xFFFF
        DEC       A
        JNZ       $+5
        LJMP      ??MT_AfCommandProcessing_5 & 0xFFFF
        DEC       A
        JNZ       $+5
        LJMP      ??MT_AfCommandProcessing_6 & 0xFFFF
        DEC       A
        JNZ       $+5
        LJMP      ??MT_AfCommandProcessing_7 & 0xFFFF
        LJMP      ??MT_AfCommandProcessing_8 & 0xFFFF
//  213   {
//  214     case MT_AF_REGISTER:
//  215       MT_AfRegister(pBuf);
??MT_AfCommandProcessing_0:
        LCALL     ?Subroutine23 & 0xFFFF
??CrossCallReturnLabel_85:
        MOVX      A,@DPTR
        MOV       ?V1,A
        ; Setup parameters for call to function osal_mem_alloc
        MOV       R2,#0x7
        MOV       R3,#0x0
        LCALL     `??osal_mem_alloc::?relay`; Banked call to: osal_mem_alloc
        MOV       ?V4,R2
        MOV       ?V5,R3
        MOV       R6,?V4
        MOV       R7,?V5
        MOV       A,R6
        ORL       A,R7
        JZ        ??MT_AfCommandProcessing_9
        MOV       DPL,R6
        MOV       DPH,R7
        INC       DPTR
        INC       DPTR
        MOV       A,#MT_TaskID & 0xff
        MOVX      @DPTR,A
        INC       DPTR
        MOV       A,#(MT_TaskID >> 8) & 0xff
        MOVX      @DPTR,A
        ; Setup parameters for call to function MT_BuildEndpointDesc
        MOV       A,R6
        MOV       R4,A
        MOV       A,R7
        MOV       R5,A
        MOV       R2,?V2
        MOV       R3,?V3
        LCALL     `??MT_BuildEndpointDesc::?relay`; Banked call to: MT_BuildEndpointDesc
        MOV       A,R1
        MOV       DPL,?XSP + 0
        MOV       DPH,?XSP + 1
        MOVX      @DPTR,A
        JNZ       ??MT_AfCommandProcessing_10
        ; Setup parameters for call to function afRegister
        MOV       A,R6
        MOV       R2,A
        MOV       A,R7
        MOV       R3,A
        LCALL     `??afRegister::?relay`; Banked call to: afRegister
        MOV       A,R1
        MOV       DPL,?XSP + 0
        MOV       DPH,?XSP + 1
        MOVX      @DPTR,A
??MT_AfCommandProcessing_10:
        MOVX      A,@DPTR
        JZ        ??MT_AfCommandProcessing_9
        ; Setup parameters for call to function osal_mem_free
        MOV       A,R6
        MOV       R2,A
        MOV       A,R7
        MOV       R3,A
        LCALL     `??osal_mem_free::?relay`; Banked call to: osal_mem_free
??MT_AfCommandProcessing_9:
        ; Setup parameters for call to function MT_BuildAndSendZToolResponse
        MOV       R4,?XSP + 0
        MOV       R5,?XSP + 1
        MOV       R3,#0x1
        MOV       R2,?V1
        LJMP      ??MT_AfCommandProcessing_11 & 0xFFFF
//  216       break;
//  217 
//  218     case MT_AF_DELETE:
//  219       MT_AfDelete( pBuf );
??MT_AfCommandProcessing_3:
        LCALL     ?Subroutine23 & 0xFFFF
??CrossCallReturnLabel_86:
        MOVX      A,@DPTR
        MOV       R6,A
        ; Setup parameters for call to function afDelete
        MOV       DPL,?V2
        MOV       DPH,?V3
        MOVX      A,@DPTR
        MOV       R1,A
        LCALL     `??afDelete::?relay`; Banked call to: afDelete
        LCALL     ?Subroutine22 & 0xFFFF
??CrossCallReturnLabel_69:
        MOV       A,R6
        MOV       R2,A
        LJMP      ??MT_AfCommandProcessing_11 & 0xFFFF
//  220       break;
//  221 
//  222     case MT_AF_DATA_REQUEST:
//  223     case MT_AF_DATA_REQUEST_EXT:
//  224       MT_AfDataRequest(pBuf);
??MT_AfCommandProcessing_1:
        ; Setup parameters for call to function MT_AfDataRequest
        LCALL     `??MT_AfDataRequest::?relay`; Banked call to: MT_AfDataRequest
//  225       break;
        LJMP      ??MT_AfCommandProcessing_12 & 0xFFFF
//  226 
//  227 #if defined( ZIGBEEPRO )
//  228     case MT_AF_DATA_REQUEST_SRCRTG:
//  229       MT_AfDataRequestSrcRtg(pBuf);
??MT_AfCommandProcessing_2:
        ; Setup parameters for call to function MT_AfDataRequestSrcRtg
        LCALL     `??MT_AfDataRequestSrcRtg::?relay`; Banked call to: MT_AfDataRequestSrcRtg
//  230       break;
        LJMP      ??MT_AfCommandProcessing_12 & 0xFFFF
//  231 #endif
//  232 
//  233 #if defined INTER_PAN
//  234     case MT_AF_INTER_PAN_CTL:
//  235       MT_AfInterPanCtl(pBuf);
//  236       break;
//  237 #endif
//  238 
//  239     case MT_AF_DATA_RETRIEVE:
//  240       MT_AfDataRetrieve(pBuf);
??MT_AfCommandProcessing_5:
        ; Setup parameters for call to function MT_AfDataRetrieve
        LCALL     `??MT_AfDataRetrieve::?relay`; Banked call to: MT_AfDataRetrieve
//  241       break;
        LJMP      ??MT_AfCommandProcessing_12 & 0xFFFF
//  242 
//  243     case MT_AF_DATA_STORE:
//  244       MT_AfDataStore(pBuf);
??MT_AfCommandProcessing_4:
        ; Setup parameters for call to function MT_AfDataStore
        LCALL     `??MT_AfDataStore::?relay`; Banked call to: MT_AfDataStore
//  245       break;
        LJMP      ??MT_AfCommandProcessing_12 & 0xFFFF
//  246 
//  247     case MT_AF_APSF_CONFIG_SET:
//  248       MT_AfAPSF_ConfigSet(pBuf);
??MT_AfCommandProcessing_6:
        MOV       DPL,R2
        MOV       DPH,R3
        INC       DPTR
        INC       DPTR
        INC       DPTR
        INC       DPTR
        MOVX      A,@DPTR
        PUSH      A
          CFI CFA_SP SP+-1
        MOV       A,#0x1
        LCALL     ?XSTACK_DISP0_8
        POP       A
          CFI CFA_SP SP+0
        LCALL     ?Subroutine24 & 0xFFFF
??CrossCallReturnLabel_35:
        INC       DPTR
        MOVX      A,@DPTR
        PUSH      A
          CFI CFA_SP SP+-1
        MOV       A,#0x2
        LCALL     ?XSTACK_DISP0_8
        POP       A
          CFI CFA_SP SP+0
        MOVX      @DPTR,A
        ; Setup parameters for call to function afAPSF_ConfigSet
        MOV       A,#0x1
        LCALL     ?XSTACK_DISP101_8
        MOV       DPL,?V2
        MOV       DPH,?V3
        MOVX      A,@DPTR
        MOV       R1,A
        LCALL     `??afAPSF_ConfigSet::?relay`; Banked call to: afAPSF_ConfigSet
        LCALL     ?Subroutine22 & 0xFFFF
??CrossCallReturnLabel_70:
        MOV       R2,#0x13
        SJMP      ??MT_AfCommandProcessing_11
//  249       break;
//  250 
//  251     case MT_AF_APSF_CONFIG_GET:
//  252       MT_AfAPSF_ConfigGet(pBuf);
??MT_AfCommandProcessing_7:
        MOV       DPTR,#`?<Constant {0, 0}>`
        MOV       A,#0x1
        LCALL     ?XSTACK_DISP102_8
        MOV       A,#0x2
        LCALL     ?MOVE_LONG8_XDATA_XDATA
        ; Setup parameters for call to function afAPSF_ConfigGet
        INC       A
        LCALL     ?XSTACK_DISP101_8
        MOV       DPL,?V2
        MOV       DPH,?V3
        MOVX      A,@DPTR
        MOV       R1,A
        LCALL     `??afAPSF_ConfigGet::?relay`; Banked call to: afAPSF_ConfigGet
        MOV       A,#0x1
        LCALL     ?XSTACK_DISP0_8
        MOVX      A,@DPTR
        PUSH      A
          CFI CFA_SP SP+-1
        MOV       A,#0x3
        LCALL     ?XSTACK_DISP0_8
        POP       A
          CFI CFA_SP SP+0
        MOVX      @DPTR,A
        MOV       A,#0x2
        LCALL     ?XSTACK_DISP0_8
        MOVX      A,@DPTR
        PUSH      A
          CFI CFA_SP SP+-1
        MOV       A,#0x4
        LCALL     ?XSTACK_DISP0_8
        POP       A
          CFI CFA_SP SP+0
        MOVX      @DPTR,A
        ; Setup parameters for call to function MT_BuildAndSendZToolResponse
        MOV       A,#0x3
        LCALL     ?XSTACK_DISP102_8
        MOV       R3,#0x3
        MOV       R2,#0x14
??MT_AfCommandProcessing_11:
        MOV       R1,#0x64
        LCALL     `??MT_BuildAndSendZToolResponse::?relay`; Banked call to: MT_BuildAndSendZToolResponse
//  253       break;
        SJMP      ??MT_AfCommandProcessing_12
//  254 
//  255     default:
//  256       status = MT_RPC_ERR_COMMAND_ID;
??MT_AfCommandProcessing_8:
        MOV       ?V0,#0x2
//  257       break;
//  258   }
//  259 
//  260   return status;
??MT_AfCommandProcessing_12:
        MOV       R1,?V0
        MOV       A,#0x5
        LCALL     ?DEALLOC_XSTACK8
          CFI CFA_XSP16 add(XSP16, 14)
        MOV       R7,#0x6
        LJMP      ?BANKED_LEAVE_XDATA
//  261 }
          CFI EndBlock cfiBlock1

        RSEG BANKED_CODE:HUGECODE:NOROOT(0)
?Subroutine22:
          CFI Block cfiCond2 Using cfiCommon0
          CFI Function MT_AfCommandProcessing
          CFI Conditional ??CrossCallReturnLabel_69
          CFI R6 load(1, XDATA, add(CFA_XSP16, literal(-14)))
          CFI VB load(1, XDATA, add(CFA_XSP16, literal(-13)))
          CFI V0 load(1, XDATA, add(CFA_XSP16, literal(-12)))
          CFI V1 load(1, XDATA, add(CFA_XSP16, literal(-11)))
          CFI V2 load(1, XDATA, add(CFA_XSP16, literal(-10)))
          CFI V3 load(1, XDATA, add(CFA_XSP16, literal(-9)))
          CFI V4 load(1, XDATA, add(CFA_XSP16, literal(-8)))
          CFI V5 load(1, XDATA, add(CFA_XSP16, literal(-7)))
          CFI R7 load(1, XDATA, add(CFA_XSP16, literal(-6)))
          CFI ?RET_LOW load(1, XDATA, add(CFA_XSP16, literal(-5)))
          CFI ?RET_HIGH load(1, XDATA, add(CFA_XSP16, literal(-4)))
          CFI ?BRET_EXT load(1, XDATA, add(CFA_XSP16, literal(-3)))
          CFI DPL0 load(1, XDATA, add(CFA_XSP16, literal(-2)))
          CFI DPH0 load(1, XDATA, add(CFA_XSP16, literal(-1)))
          CFI CFA_SP SP+-2
          CFI CFA_XSP16 add(XSP16, 19)
          CFI Block cfiCond3 Using cfiCommon0
          CFI (cfiCond3) Function MT_AfCommandProcessing
          CFI (cfiCond3) Conditional ??CrossCallReturnLabel_70
          CFI (cfiCond3) R6 load(1, XDATA, add(CFA_XSP16, literal(-14)))
          CFI (cfiCond3) VB load(1, XDATA, add(CFA_XSP16, literal(-13)))
          CFI (cfiCond3) V0 load(1, XDATA, add(CFA_XSP16, literal(-12)))
          CFI (cfiCond3) V1 load(1, XDATA, add(CFA_XSP16, literal(-11)))
          CFI (cfiCond3) V2 load(1, XDATA, add(CFA_XSP16, literal(-10)))
          CFI (cfiCond3) V3 load(1, XDATA, add(CFA_XSP16, literal(-9)))
          CFI (cfiCond3) V4 load(1, XDATA, add(CFA_XSP16, literal(-8)))
          CFI (cfiCond3) V5 load(1, XDATA, add(CFA_XSP16, literal(-7)))
          CFI (cfiCond3) R7 load(1, XDATA, add(CFA_XSP16, literal(-6)))
          CFI (cfiCond3) ?RET_LOW load(1, XDATA, add(CFA_XSP16, literal(-5)))
          CFI (cfiCond3) ?RET_HIGH load(1, XDATA, add(CFA_XSP16, literal(-4)))
          CFI (cfiCond3) ?BRET_EXT load(1, XDATA, add(CFA_XSP16, literal(-3)))
          CFI (cfiCond3) DPL0 load(1, XDATA, add(CFA_XSP16, literal(-2)))
          CFI (cfiCond3) DPH0 load(1, XDATA, add(CFA_XSP16, literal(-1)))
          CFI (cfiCond3) CFA_SP SP+-2
          CFI (cfiCond3) CFA_XSP16 add(XSP16, 19)
          CFI Block cfiPicker4 Using cfiCommon1
          CFI (cfiPicker4) NoFunction
          CFI (cfiPicker4) Picker
        MOV       A,R1
        MOV       DPL,?XSP + 0
        MOV       DPH,?XSP + 1
          CFI EndBlock cfiCond2
          CFI EndBlock cfiCond3
          CFI EndBlock cfiPicker4
        REQUIRE ??Subroutine39_0
        ; // Fall through to label ??Subroutine39_0

        RSEG BANKED_CODE:HUGECODE:NOROOT(0)
??Subroutine39_0:
          CFI Block cfiCond5 Using cfiCommon0
          CFI Function MT_AfDataStore
          CFI Conditional ??CrossCallReturnLabel_71
          CFI R6 load(1, XDATA, add(CFA_XSP16, literal(-16)))
          CFI VB load(1, XDATA, add(CFA_XSP16, literal(-15)))
          CFI V0 load(1, XDATA, add(CFA_XSP16, literal(-14)))
          CFI V1 load(1, XDATA, add(CFA_XSP16, literal(-13)))
          CFI V2 load(1, XDATA, add(CFA_XSP16, literal(-12)))
          CFI V3 load(1, XDATA, add(CFA_XSP16, literal(-11)))
          CFI V4 load(1, XDATA, add(CFA_XSP16, literal(-10)))
          CFI V5 load(1, XDATA, add(CFA_XSP16, literal(-9)))
          CFI V6 load(1, XDATA, add(CFA_XSP16, literal(-8)))
          CFI V7 load(1, XDATA, add(CFA_XSP16, literal(-7)))
          CFI R7 load(1, XDATA, add(CFA_XSP16, literal(-6)))
          CFI ?RET_LOW load(1, XDATA, add(CFA_XSP16, literal(-5)))
          CFI ?RET_HIGH load(1, XDATA, add(CFA_XSP16, literal(-4)))
          CFI ?BRET_EXT load(1, XDATA, add(CFA_XSP16, literal(-3)))
          CFI DPL0 load(1, XDATA, add(CFA_XSP16, literal(-2)))
          CFI DPH0 load(1, XDATA, add(CFA_XSP16, literal(-1)))
          CFI CFA_SP SP+-2
          CFI CFA_XSP16 add(XSP16, 17)
          CFI Block cfiCond6 Using cfiCommon0
          CFI (cfiCond6) Function MT_AfCommandProcessing
          CFI (cfiCond6) Conditional ??CrossCallReturnLabel_69
          CFI (cfiCond6) R6 load(1, XDATA, add(CFA_XSP16, literal(-14)))
          CFI (cfiCond6) VB load(1, XDATA, add(CFA_XSP16, literal(-13)))
          CFI (cfiCond6) V0 load(1, XDATA, add(CFA_XSP16, literal(-12)))
          CFI (cfiCond6) V1 load(1, XDATA, add(CFA_XSP16, literal(-11)))
          CFI (cfiCond6) V2 load(1, XDATA, add(CFA_XSP16, literal(-10)))
          CFI (cfiCond6) V3 load(1, XDATA, add(CFA_XSP16, literal(-9)))
          CFI (cfiCond6) V4 load(1, XDATA, add(CFA_XSP16, literal(-8)))
          CFI (cfiCond6) V5 load(1, XDATA, add(CFA_XSP16, literal(-7)))
          CFI (cfiCond6) R7 load(1, XDATA, add(CFA_XSP16, literal(-6)))
          CFI (cfiCond6) ?RET_LOW load(1, XDATA, add(CFA_XSP16, literal(-5)))
          CFI (cfiCond6) ?RET_HIGH load(1, XDATA, add(CFA_XSP16, literal(-4)))
          CFI (cfiCond6) ?BRET_EXT load(1, XDATA, add(CFA_XSP16, literal(-3)))
          CFI (cfiCond6) DPL0 load(1, XDATA, add(CFA_XSP16, literal(-2)))
          CFI (cfiCond6) DPH0 load(1, XDATA, add(CFA_XSP16, literal(-1)))
          CFI (cfiCond6) CFA_SP SP+-2
          CFI (cfiCond6) CFA_XSP16 add(XSP16, 19)
          CFI Block cfiCond7 Using cfiCommon0
          CFI (cfiCond7) Function MT_AfCommandProcessing
          CFI (cfiCond7) Conditional ??CrossCallReturnLabel_70
          CFI (cfiCond7) R6 load(1, XDATA, add(CFA_XSP16, literal(-14)))
          CFI (cfiCond7) VB load(1, XDATA, add(CFA_XSP16, literal(-13)))
          CFI (cfiCond7) V0 load(1, XDATA, add(CFA_XSP16, literal(-12)))
          CFI (cfiCond7) V1 load(1, XDATA, add(CFA_XSP16, literal(-11)))
          CFI (cfiCond7) V2 load(1, XDATA, add(CFA_XSP16, literal(-10)))
          CFI (cfiCond7) V3 load(1, XDATA, add(CFA_XSP16, literal(-9)))
          CFI (cfiCond7) V4 load(1, XDATA, add(CFA_XSP16, literal(-8)))
          CFI (cfiCond7) V5 load(1, XDATA, add(CFA_XSP16, literal(-7)))
          CFI (cfiCond7) R7 load(1, XDATA, add(CFA_XSP16, literal(-6)))
          CFI (cfiCond7) ?RET_LOW load(1, XDATA, add(CFA_XSP16, literal(-5)))
          CFI (cfiCond7) ?RET_HIGH load(1, XDATA, add(CFA_XSP16, literal(-4)))
          CFI (cfiCond7) ?BRET_EXT load(1, XDATA, add(CFA_XSP16, literal(-3)))
          CFI (cfiCond7) DPL0 load(1, XDATA, add(CFA_XSP16, literal(-2)))
          CFI (cfiCond7) DPH0 load(1, XDATA, add(CFA_XSP16, literal(-1)))
          CFI (cfiCond7) CFA_SP SP+-2
          CFI (cfiCond7) CFA_XSP16 add(XSP16, 19)
          CFI Block cfiPicker8 Using cfiCommon1
          CFI (cfiPicker8) NoFunction
          CFI (cfiPicker8) Picker
        MOVX      @DPTR,A
        ; Setup parameters for call to function MT_BuildAndSendZToolResponse
        ; Setup parameters for call to function MT_BuildAndSendZToolResponse
        ; Setup parameters for call to function MT_BuildAndSendZToolResponse
        MOV       R4,?XSP + 0
        MOV       R5,?XSP + 1
        MOV       R3,#0x1
        RET
          CFI EndBlock cfiCond5
          CFI EndBlock cfiCond6
          CFI EndBlock cfiCond7
          CFI EndBlock cfiPicker8
//  262 
//  263 /***************************************************************************************************
//  264  * @fn      MT_AfRegister
//  265  *
//  266  * @brief   Process AF Register command
//  267  *
//  268  * @param   pBuf - pointer to the received buffer
//  269  *
//  270  * @return  none
//  271  ***************************************************************************************************/
//  272 static void MT_AfRegister(uint8 *pBuf)
//  273 {
//  274   uint8 cmdId;
//  275   uint8 retValue = ZMemError;
//  276   endPointDesc_t *epDesc;
//  277 
//  278   /* parse header */
//  279   cmdId = pBuf[MT_RPC_POS_CMD1];
//  280   pBuf += MT_RPC_FRAME_HDR_SZ;
//  281 
//  282   epDesc = (endPointDesc_t *)osal_mem_alloc(sizeof(endPointDesc_t));
//  283   if ( epDesc )
//  284   {
//  285     epDesc->task_id = &MT_TaskID;
//  286     retValue = MT_BuildEndpointDesc( pBuf, epDesc );
//  287     if ( retValue == ZSuccess )
//  288     {
//  289       retValue = afRegister( epDesc );
//  290     }
//  291 
//  292     if ( retValue != ZSuccess )
//  293     {
//  294       osal_mem_free( epDesc );
//  295     }
//  296   }
//  297 
//  298   /* Build and send back the response */
//  299   MT_BuildAndSendZToolResponse(((uint8)MT_RPC_CMD_SRSP | (uint8)MT_RPC_SYS_AF), cmdId, 1, &retValue);
//  300 }
//  301 
//  302 /***************************************************************************************************
//  303  * @fn      MT_AfDelete
//  304  *
//  305  * @brief   Process AF Delete Endpoint command
//  306  *
//  307  * @param   pBuf - pointer to the received buffer
//  308  *
//  309  * @return  none
//  310  ***************************************************************************************************/
//  311 static void MT_AfDelete(uint8 *pBuf)
//  312 {
//  313   uint8 cmdId;
//  314   uint8 retValue = ZMemError;
//  315 
//  316   /* parse header */
//  317   cmdId = pBuf[MT_RPC_POS_CMD1];
//  318   pBuf += MT_RPC_FRAME_HDR_SZ;
//  319 
//  320   retValue = afDelete( *pBuf );
//  321 
//  322   /* Build and send back the response */
//  323   MT_BuildAndSendZToolResponse(((uint8)MT_RPC_CMD_SRSP | (uint8)MT_RPC_SYS_AF), cmdId, 1, &retValue);
//  324 }
//  325 
//  326 /***************************************************************************************************
//  327  * @fn      MT_AfDataRequest
//  328  *
//  329  * @brief   Process AF Register command
//  330  *
//  331  * @param   pBuf - pointer to the received buffer
//  332  *
//  333  * @return  none
//  334  ***************************************************************************************************/

        RSEG BANKED_CODE:HUGECODE:NOROOT(0)
//  335 static void MT_AfDataRequest(uint8 *pBuf)
MT_AfDataRequest:
          CFI Block cfiBlock9 Using cfiCommon0
          CFI Function MT_AfDataRequest
        CODE
//  336 {
        FUNCALL MT_AfDataRequest, osal_memcpy
        LOCFRAME ISTACK, 0, STACK
        LOCFRAME PSTACK, 0, STACK
        LOCFRAME XSTACK, 38, STACK
        LOCFRAME IOVERLAY, 0, STATIC
        LOCFRAME DOVERLAY, 0, STATIC
        ARGFRAME ISTACK, 0, STACK
        ARGFRAME PSTACK, 0, STACK
        ARGFRAME XSTACK, 38, STACK
        ARGFRAME IOVERLAY, 0, STATIC
        ARGFRAME DOVERLAY, 0, STATIC
        FUNCALL MT_AfDataRequest, osal_build_uint16
        LOCFRAME ISTACK, 0, STACK
        LOCFRAME PSTACK, 0, STACK
        LOCFRAME XSTACK, 35, STACK
        LOCFRAME IOVERLAY, 0, STATIC
        LOCFRAME DOVERLAY, 0, STATIC
        ARGFRAME ISTACK, 0, STACK
        ARGFRAME PSTACK, 0, STACK
        ARGFRAME XSTACK, 35, STACK
        ARGFRAME IOVERLAY, 0, STATIC
        ARGFRAME DOVERLAY, 0, STATIC
        FUNCALL MT_AfDataRequest, osal_build_uint16
        LOCFRAME ISTACK, 0, STACK
        LOCFRAME PSTACK, 0, STACK
        LOCFRAME XSTACK, 35, STACK
        LOCFRAME IOVERLAY, 0, STATIC
        LOCFRAME DOVERLAY, 0, STATIC
        ARGFRAME ISTACK, 0, STACK
        ARGFRAME PSTACK, 0, STACK
        ARGFRAME XSTACK, 35, STACK
        ARGFRAME IOVERLAY, 0, STATIC
        ARGFRAME DOVERLAY, 0, STATIC
        FUNCALL MT_AfDataRequest, osal_build_uint16
        LOCFRAME ISTACK, 0, STACK
        LOCFRAME PSTACK, 0, STACK
        LOCFRAME XSTACK, 35, STACK
        LOCFRAME IOVERLAY, 0, STATIC
        LOCFRAME DOVERLAY, 0, STATIC
        ARGFRAME ISTACK, 0, STACK
        ARGFRAME PSTACK, 0, STACK
        ARGFRAME XSTACK, 35, STACK
        ARGFRAME IOVERLAY, 0, STATIC
        ARGFRAME DOVERLAY, 0, STATIC
        FUNCALL MT_AfDataRequest, afFindEndPointDesc
        LOCFRAME ISTACK, 0, STACK
        LOCFRAME PSTACK, 0, STACK
        LOCFRAME XSTACK, 35, STACK
        LOCFRAME IOVERLAY, 0, STATIC
        LOCFRAME DOVERLAY, 0, STATIC
        ARGFRAME ISTACK, 0, STACK
        ARGFRAME PSTACK, 0, STACK
        ARGFRAME XSTACK, 35, STACK
        ARGFRAME IOVERLAY, 0, STATIC
        ARGFRAME DOVERLAY, 0, STATIC
        FUNCALL MT_AfDataRequest, osal_build_uint16
        LOCFRAME ISTACK, 0, STACK
        LOCFRAME PSTACK, 0, STACK
        LOCFRAME XSTACK, 35, STACK
        LOCFRAME IOVERLAY, 0, STATIC
        LOCFRAME DOVERLAY, 0, STATIC
        ARGFRAME ISTACK, 0, STACK
        ARGFRAME PSTACK, 0, STACK
        ARGFRAME XSTACK, 35, STACK
        ARGFRAME IOVERLAY, 0, STATIC
        ARGFRAME DOVERLAY, 0, STATIC
        FUNCALL MT_AfDataRequest, osal_build_uint16
        LOCFRAME ISTACK, 0, STACK
        LOCFRAME PSTACK, 0, STACK
        LOCFRAME XSTACK, 35, STACK
        LOCFRAME IOVERLAY, 0, STATIC
        LOCFRAME DOVERLAY, 0, STATIC
        ARGFRAME ISTACK, 0, STACK
        ARGFRAME PSTACK, 0, STACK
        ARGFRAME XSTACK, 35, STACK
        ARGFRAME IOVERLAY, 0, STATIC
        ARGFRAME DOVERLAY, 0, STATIC
        FUNCALL MT_AfDataRequest, osal_mem_alloc
        LOCFRAME ISTACK, 0, STACK
        LOCFRAME PSTACK, 0, STACK
        LOCFRAME XSTACK, 35, STACK
        LOCFRAME IOVERLAY, 0, STATIC
        LOCFRAME DOVERLAY, 0, STATIC
        ARGFRAME ISTACK, 0, STACK
        ARGFRAME PSTACK, 0, STACK
        ARGFRAME XSTACK, 35, STACK
        ARGFRAME IOVERLAY, 0, STATIC
        ARGFRAME DOVERLAY, 0, STATIC
        FUNCALL MT_AfDataRequest, osal_memcpy
        LOCFRAME ISTACK, 0, STACK
        LOCFRAME PSTACK, 0, STACK
        LOCFRAME XSTACK, 38, STACK
        LOCFRAME IOVERLAY, 0, STATIC
        LOCFRAME DOVERLAY, 0, STATIC
        ARGFRAME ISTACK, 0, STACK
        ARGFRAME PSTACK, 0, STACK
        ARGFRAME XSTACK, 38, STACK
        ARGFRAME IOVERLAY, 0, STATIC
        ARGFRAME DOVERLAY, 0, STATIC
        FUNCALL MT_AfDataRequest, osal_start_timerEx
        LOCFRAME ISTACK, 0, STACK
        LOCFRAME PSTACK, 0, STACK
        LOCFRAME XSTACK, 39, STACK
        LOCFRAME IOVERLAY, 0, STATIC
        LOCFRAME DOVERLAY, 0, STATIC
        ARGFRAME ISTACK, 0, STACK
        ARGFRAME PSTACK, 0, STACK
        ARGFRAME XSTACK, 39, STACK
        ARGFRAME IOVERLAY, 0, STATIC
        ARGFRAME DOVERLAY, 0, STATIC
        FUNCALL MT_AfDataRequest, osal_set_event
        LOCFRAME ISTACK, 0, STACK
        LOCFRAME PSTACK, 0, STACK
        LOCFRAME XSTACK, 35, STACK
        LOCFRAME IOVERLAY, 0, STATIC
        LOCFRAME DOVERLAY, 0, STATIC
        ARGFRAME ISTACK, 0, STACK
        ARGFRAME PSTACK, 0, STACK
        ARGFRAME XSTACK, 35, STACK
        ARGFRAME IOVERLAY, 0, STATIC
        ARGFRAME DOVERLAY, 0, STATIC
        FUNCALL MT_AfDataRequest, AF_DataRequest
        LOCFRAME ISTACK, 0, STACK
        LOCFRAME PSTACK, 0, STACK
        LOCFRAME XSTACK, 44, STACK
        LOCFRAME IOVERLAY, 0, STATIC
        LOCFRAME DOVERLAY, 0, STATIC
        ARGFRAME ISTACK, 0, STACK
        ARGFRAME PSTACK, 0, STACK
        ARGFRAME XSTACK, 44, STACK
        ARGFRAME IOVERLAY, 0, STATIC
        ARGFRAME DOVERLAY, 0, STATIC
        FUNCALL MT_AfDataRequest, MT_BuildAndSendZToolResponse
        LOCFRAME ISTACK, 0, STACK
        LOCFRAME PSTACK, 0, STACK
        LOCFRAME XSTACK, 35, STACK
        LOCFRAME IOVERLAY, 0, STATIC
        LOCFRAME DOVERLAY, 0, STATIC
        ARGFRAME ISTACK, 0, STACK
        ARGFRAME PSTACK, 0, STACK
        ARGFRAME XSTACK, 35, STACK
        ARGFRAME IOVERLAY, 0, STATIC
        ARGFRAME DOVERLAY, 0, STATIC
        REQUIRE ?V0
        REQUIRE ?V1
        REQUIRE ?V2
        REQUIRE ?V3
        REQUIRE ?V4
        REQUIRE ?V5
        REQUIRE ?V6
        REQUIRE ?V7
        REQUIRE ?V8
        REQUIRE ?V9
        REQUIRE ?V10
        REQUIRE ?V11
        REQUIRE ?V12
        MOV       A,#-0x15
        LCALL     ?BANKED_ENTER_XDATA
          CFI DPH0 load(1, XDATA, add(CFA_XSP16, literal(-1)))
          CFI DPL0 load(1, XDATA, add(CFA_XSP16, literal(-2)))
          CFI ?BRET_EXT load(1, XDATA, add(CFA_XSP16, literal(-3)))
          CFI ?RET_HIGH load(1, XDATA, add(CFA_XSP16, literal(-4)))
          CFI ?RET_LOW load(1, XDATA, add(CFA_XSP16, literal(-5)))
          CFI R7 load(1, XDATA, add(CFA_XSP16, literal(-6)))
          CFI V12 load(1, XDATA, add(CFA_XSP16, literal(-7)))
          CFI V11 load(1, XDATA, add(CFA_XSP16, literal(-8)))
          CFI V10 load(1, XDATA, add(CFA_XSP16, literal(-9)))
          CFI V9 load(1, XDATA, add(CFA_XSP16, literal(-10)))
          CFI V8 load(1, XDATA, add(CFA_XSP16, literal(-11)))
          CFI V7 load(1, XDATA, add(CFA_XSP16, literal(-12)))
          CFI V6 load(1, XDATA, add(CFA_XSP16, literal(-13)))
          CFI V5 load(1, XDATA, add(CFA_XSP16, literal(-14)))
          CFI V4 load(1, XDATA, add(CFA_XSP16, literal(-15)))
          CFI V3 load(1, XDATA, add(CFA_XSP16, literal(-16)))
          CFI V2 load(1, XDATA, add(CFA_XSP16, literal(-17)))
          CFI V1 load(1, XDATA, add(CFA_XSP16, literal(-18)))
          CFI V0 load(1, XDATA, add(CFA_XSP16, literal(-19)))
          CFI VB load(1, XDATA, add(CFA_XSP16, literal(-20)))
          CFI R6 load(1, XDATA, add(CFA_XSP16, literal(-21)))
          CFI CFA_SP SP+0
          CFI CFA_XSP16 add(XSP16, 21)
        ; Saved register size: 21
        ; Auto size: 14
        MOV       A,#-0xe
        LCALL     ?ALLOC_XSTACK8
          CFI CFA_XSP16 add(XSP16, 35)
        MOV       A,R2
        MOV       R6,A
        MOV       A,R3
        MOV       R7,A
//  337   #define MT_AF_REQ_MSG_LEN  10
//  338   #define MT_AF_REQ_MSG_EXT  10
//  339 
//  340   endPointDesc_t *epDesc;
//  341   afAddrType_t dstAddr;
//  342   cId_t cId;
//  343   uint8 transId, txOpts, radius;
//  344   uint8 cmd0, cmd1;
//  345   uint8 retValue = ZFailure;
        MOV       DPL,?XSP + 0
        MOV       DPH,?XSP + 1
        MOV       A,#0x1
        LCALL     ?Subroutine33 & 0xFFFF
//  346   uint16 dataLen, tempLen;
//  347 
//  348   /* Parse header */
//  349   cmd0 = pBuf[MT_RPC_POS_CMD0];
??CrossCallReturnLabel_75:
        MOVX      A,@DPTR
        MOV       ?V12,A
//  350   cmd1 = pBuf[MT_RPC_POS_CMD1];
        MOV       DPL,R6
        MOV       DPH,R7
        INC       DPTR
        INC       DPTR
        MOVX      A,@DPTR
        MOV       ?V9,A
//  351   pBuf += MT_RPC_FRAME_HDR_SZ;
        MOV       A,R6
        ADD       A,#0x3
        MOV       R6,A
        JNC       ??MT_AfDataRequest_0
        INC       R7
//  352 
//  353   if (cmd1 == MT_AF_DATA_REQUEST_EXT)
??MT_AfDataRequest_0:
        MOV       A,#0x2
        XRL       A,?V9
        JNZ       ??MT_AfDataRequest_1
//  354   {
//  355     dstAddr.addrMode = (afAddrMode_t)*pBuf++;
        MOV       DPL,R6
        MOV       DPH,R7
        MOVX      A,@DPTR
        MOV       R0,A
        MOV       A,#0xa
        LCALL     ?XSTACK_DISP0_8
        MOV       A,R0
        LCALL     ?Subroutine33 & 0xFFFF
??CrossCallReturnLabel_78:
        MOV       R6,DPL
        MOV       R7,DPH
//  356 
//  357     if (dstAddr.addrMode == afAddr64Bit)
        MOV       A,#0x3
        XRL       A,R0
        JNZ       ??MT_AfDataRequest_2
//  358     {
//  359       (void)osal_memcpy(dstAddr.addr.extAddr, pBuf, Z_EXTADDR_LEN);
        ; Setup parameters for call to function osal_memcpy
        MOV       ?V0,R6
        MOV       ?V1,R7
        MOV       ?V2,#0x0
        MOV       R0,#?V0
        LCALL     ?PUSH_XSTACK_I_THREE
          CFI CFA_XSP16 add(XSP16, 38)
        MOV       R4,#0x8
        MOV       R5,#0x0
        MOV       A,#0x5
        LCALL     ?XSTACK_DISP101_8
        LCALL     `??osal_memcpy::?relay`; Banked call to: osal_memcpy
        MOV       A,#0x3
        LCALL     ?DEALLOC_XSTACK8
          CFI CFA_XSP16 add(XSP16, 35)
        SJMP      ??MT_AfDataRequest_3
//  360     }
//  361     else
//  362     {
//  363       dstAddr.addr.shortAddr = osal_build_uint16( pBuf );
??MT_AfDataRequest_2:
        ; Setup parameters for call to function osal_build_uint16
        MOV       A,R6
        MOV       R2,A
        MOV       A,R7
        MOV       R3,A
        LCALL     `??osal_build_uint16::?relay`; Banked call to: osal_build_uint16
        MOV       A,#0x2
        LCALL     ?XSTACK_DISP0_8
        MOV       A,R2
        MOVX      @DPTR,A
        INC       DPTR
        MOV       A,R3
        MOVX      @DPTR,A
//  364     }
//  365     pBuf += Z_EXTADDR_LEN;
//  366 
//  367     dstAddr.endPoint = *pBuf++;
??MT_AfDataRequest_3:
        MOV       DPL,R6
        MOV       DPH,R7
        INC       DPTR
        INC       DPTR
        INC       DPTR
        INC       DPTR
        INC       DPTR
        INC       DPTR
        INC       DPTR
        INC       DPTR
        MOVX      A,@DPTR
        PUSH      A
          CFI CFA_SP SP+-1
        MOV       A,#0xb
        LCALL     ?XSTACK_DISP0_8
        POP       A
          CFI CFA_SP SP+0
        MOVX      @DPTR,A
        MOV       A,R6
        ADD       A,#0x9
        MOV       R6,A
        JNC       ??MT_AfDataRequest_4
        INC       R7
//  368     dstAddr.panId = osal_build_uint16( pBuf );
??MT_AfDataRequest_4:
        ; Setup parameters for call to function osal_build_uint16
        MOV       R2,A
        MOV       A,R7
        MOV       R3,A
        LCALL     `??osal_build_uint16::?relay`; Banked call to: osal_build_uint16
        MOV       A,#0xc
        LCALL     ?XSTACK_DISP0_8
        LCALL     ?Subroutine27 & 0xFFFF
//  369     pBuf += 2;
//  370   }
??CrossCallReturnLabel_41:
        JNC       ??MT_AfDataRequest_5
        INC       R7
        SJMP      ??MT_AfDataRequest_5
//  371   else
//  372   {
//  373     /* Destination address */
//  374     dstAddr.addrMode = afAddr16Bit;
??MT_AfDataRequest_1:
        MOV       A,#0xa
        LCALL     ?XSTACK_DISP0_8
        MOV       A,#0x2
        MOVX      @DPTR,A
//  375     dstAddr.addr.shortAddr = osal_build_uint16( pBuf );
        ; Setup parameters for call to function osal_build_uint16
        INC       R2
        INC       R2
        INC       R2
        MOV       A,R7
        MOV       R3,A
        LCALL     `??osal_build_uint16::?relay`; Banked call to: osal_build_uint16
        MOV       A,#0x2
        LCALL     ?XSTACK_DISP0_8
        LCALL     ?Subroutine21 & 0xFFFF
//  376     pBuf += 2;
//  377 
//  378     /* Destination endpoint */
//  379     dstAddr.endPoint = *pBuf++;
??CrossCallReturnLabel_72:
        PUSH      A
          CFI CFA_SP SP+-1
        MOV       A,#0xb
        LCALL     ?XSTACK_DISP0_8
        POP       A
          CFI CFA_SP SP+0
        MOVX      @DPTR,A
        MOV       A,R6
        ADD       A,#0x3
        MOV       R6,A
        JNC       ??MT_AfDataRequest_6
        INC       R7
//  380     dstAddr.panId = 0;
??MT_AfDataRequest_6:
        MOV       A,#0xc
        LCALL     ?XSTACK_DISP0_8
        CLR       A
        MOVX      @DPTR,A
        INC       DPTR
        MOVX      @DPTR,A
//  381   }
//  382 
//  383   /* Source endpoint */
//  384   epDesc = afFindEndPointDesc(*pBuf++);
??MT_AfDataRequest_5:
        ; Setup parameters for call to function afFindEndPointDesc
        MOV       DPL,R6
        MOV       DPH,R7
        MOVX      A,@DPTR
        MOV       R1,A
        LCALL     `??afFindEndPointDesc::?relay`; Banked call to: afFindEndPointDesc
        MOV       ?V10,R2
        MOV       ?V11,R3
        MOV       DPL,R6
        MOV       DPH,R7
        INC       DPTR
        MOV       R6,DPL
        MOV       R7,DPH
//  385 
//  386   /* ClusterId */
//  387   cId = osal_build_uint16( pBuf );
        ; Setup parameters for call to function osal_build_uint16
        MOV       A,R6
        MOV       R2,A
        MOV       A,R7
        MOV       R3,A
        LCALL     `??osal_build_uint16::?relay`; Banked call to: osal_build_uint16
        MOV       ?V2,R2
        MOV       ?V3,R3
//  388   pBuf +=2;
//  389 
//  390   /* TransId */
//  391   transId = *pBuf++;
        MOV       DPL,R6
        MOV       DPH,R7
        INC       DPTR
        INC       DPTR
        MOVX      A,@DPTR
        PUSH      A
          CFI CFA_SP SP+-1
        MOV       A,#0x1
        LCALL     ?XSTACK_DISP0_8
        POP       A
          CFI CFA_SP SP+0
        MOVX      @DPTR,A
//  392 
//  393   /* TxOption */
//  394   txOpts = *pBuf++;
        MOV       DPL,R6
        MOV       DPH,R7
        LCALL     ?Subroutine11 & 0xFFFF
//  395 
//  396   /* Radius */
//  397   radius = *pBuf++;
??CrossCallReturnLabel_16:
        MOVX      A,@DPTR
        MOV       ?V7,A
        MOV       A,R6
        ADD       A,#0x5
        MOV       R6,A
        JNC       ??MT_AfDataRequest_7
        INC       R7
//  398 
//  399   /* Length */
//  400   if (cmd1 == MT_AF_DATA_REQUEST_EXT)
??MT_AfDataRequest_7:
        MOV       A,#0x2
        XRL       A,?V9
        JNZ       ??MT_AfDataRequest_8
//  401   {
//  402     dataLen = osal_build_uint16( pBuf );
        ; Setup parameters for call to function osal_build_uint16
        MOV       A,R6
        MOV       R2,A
        MOV       A,R7
        MOV       R3,A
        LCALL     `??osal_build_uint16::?relay`; Banked call to: osal_build_uint16
        MOV       ?V0,R2
        MOV       ?V1,R3
//  403     tempLen = dataLen + MT_AF_REQ_MSG_LEN + MT_AF_REQ_MSG_EXT;
        MOV       A,R2
        ADD       A,#0x14
        MOV       R0,A
        CLR       A
        ADDC      A,?V1
        MOV       R1,A
//  404     pBuf += 2;
        MOV       A,R6
        ADD       A,#0x2
        MOV       R6,A
        JNC       ??MT_AfDataRequest_9
        INC       R7
        SJMP      ??MT_AfDataRequest_9
//  405   }
//  406   else
//  407   {
//  408     dataLen = *pBuf++;
??MT_AfDataRequest_8:
        MOV       DPL,R6
        MOV       DPH,R7
        MOVX      A,@DPTR
        MOV       ?V0,A
        MOV       ?V1,#0x0
        INC       DPTR
        INC       R6
        MOV       R7,DPH
//  409     tempLen = dataLen + MT_AF_REQ_MSG_LEN;
        ADD       A,#0xa
        MOV       R0,A
        CLR       A
        ADDC      A,#0x0
        MOV       R1,A
//  410   }
//  411 
//  412   if ( epDesc == NULL )
??MT_AfDataRequest_9:
        MOV       A,?V10
        ORL       A,?V11
        JZ        ??MT_AfDataRequest_10
//  413   {
//  414     retValue = afStatus_INVALID_PARAMETER;
//  415   }
//  416   else if (tempLen > (uint16)MT_RPC_DATA_MAX)
        CLR       C
        MOV       A,R0
        SUBB      A,#-0x5
        MOV       A,R1
        SUBB      A,#0x0
        JNC       $+5
        LJMP      ??MT_AfDataRequest_11 & 0xFFFF
//  417   {
//  418     if (pMtAfDataReq != NULL)
        LCALL     ?Subroutine1 & 0xFFFF
??CrossCallReturnLabel_82:
        JZ        ??MT_AfDataRequest_12
//  419     {
//  420       retValue = afStatus_INVALID_PARAMETER;
??MT_AfDataRequest_10:
        MOV       DPL,?XSP + 0
        MOV       DPH,?XSP + 1
        MOV       A,#0x2
        LJMP      ??MT_AfDataRequest_13 & 0xFFFF
//  421     }
//  422     else if ((pMtAfDataReq = osal_mem_alloc(sizeof(mtAfDataReq_t) + dataLen)) == NULL)
??MT_AfDataRequest_12:
        ; Setup parameters for call to function osal_mem_alloc
        MOV       A,?V0
        ADD       A,#0x18
        MOV       R2,A
        CLR       A
        ADDC      A,?V1
        MOV       R3,A
        LCALL     `??osal_mem_alloc::?relay`; Banked call to: osal_mem_alloc
        MOV       DPTR,#pMtAfDataReq
        MOV       A,R2
        MOVX      @DPTR,A
        INC       DPTR
        MOV       A,R3
        MOVX      @DPTR,A
        LCALL     ?Subroutine1 & 0xFFFF
??CrossCallReturnLabel_83:
        MOV       DPL,?XSP + 0
        MOV       DPH,?XSP + 1
        JNZ       ??MT_AfDataRequest_14
//  423     {
//  424       retValue = afStatus_MEM_FAIL;
        MOV       A,#0x10
        LJMP      ??MT_AfDataRequest_13 & 0xFFFF
//  425     }
//  426     else
//  427     {
//  428       retValue = afStatus_SUCCESS;
??MT_AfDataRequest_14:
        CLR       A
        MOVX      @DPTR,A
//  429 
//  430       pMtAfDataReq->data = (uint8 *)(pMtAfDataReq+1);
        MOV       DPTR,#pMtAfDataReq
        MOVX      A,@DPTR
        ADD       A,#0x18
        MOV       R2,A
        INC       DPTR
        MOVX      A,@DPTR
        ADDC      A,#0x0
        MOV       R3,A
        MOV       DPTR,#pMtAfDataReq
        MOVX      A,@DPTR
        MOV       R0,A
        INC       DPTR
        MOVX      A,@DPTR
        MOV       DPH,A
        MOV       DPL,R0
        MOV       A,R2
        MOVX      @DPTR,A
        INC       DPTR
        MOV       A,R3
        MOVX      @DPTR,A
//  431       (void)osal_memcpy(&(pMtAfDataReq->dstAddr), &dstAddr, sizeof(afAddrType_t));
        ; Setup parameters for call to function osal_memcpy
        MOV       A,#0x2
        LCALL     ?XSTACK_DISP100_8
        MOV       ?V4,R0
        MOV       ?V5,R1
        MOV       ?V6,#0x0
        MOV       R0,#?V4
        LCALL     ?PUSH_XSTACK_I_THREE
          CFI CFA_XSP16 add(XSP16, 38)
        MOV       R4,#0xc
        MOV       R5,#0x0
        LCALL     ?Subroutine15 & 0xFFFF
??CrossCallReturnLabel_24:
        LCALL     `??osal_memcpy::?relay`; Banked call to: osal_memcpy
        MOV       A,#0x3
        LCALL     ?DEALLOC_XSTACK8
          CFI CFA_XSP16 add(XSP16, 35)
//  432       pMtAfDataReq->epDesc = epDesc;
        LCALL     ?Subroutine5 & 0xFFFF
??CrossCallReturnLabel_6:
        MOV       A,?V10
        MOVX      @DPTR,A
        INC       DPTR
        MOV       A,?V11
        MOVX      @DPTR,A
//  433       pMtAfDataReq->cId = cId;
        LCALL     ?Subroutine6 & 0xFFFF
??CrossCallReturnLabel_8:
        MOV       A,?V2
        MOVX      @DPTR,A
        INC       DPTR
        MOV       A,?V3
        MOVX      @DPTR,A
//  434       pMtAfDataReq->dataLen = dataLen;
        LCALL     ?Subroutine7 & 0xFFFF
??CrossCallReturnLabel_10:
        MOV       A,?V0
        MOVX      @DPTR,A
        INC       DPTR
        MOV       A,?V1
        MOVX      @DPTR,A
//  435       pMtAfDataReq->transId = transId;
        MOV       A,#0x1
        LCALL     ?XSTACK_DISP0_8
        MOVX      A,@DPTR
        PUSH      A
          CFI CFA_SP SP+-1
        LCALL     ?Subroutine29 & 0xFFFF
??CrossCallReturnLabel_45:
        ADD       A,#0x14
        MOV       DPL,A
        CLR       A
        ADDC      A,R0
        MOV       DPH,A
        POP       A
          CFI CFA_SP SP+0
        MOVX      @DPTR,A
//  436       pMtAfDataReq->txOpts = txOpts;
        LCALL     ?Subroutine8 & 0xFFFF
??CrossCallReturnLabel_12:
        MOV       A,?V8
        MOVX      @DPTR,A
//  437       pMtAfDataReq->radius = radius;
        MOV       DPTR,#pMtAfDataReq
        MOVX      A,@DPTR
        MOV       R0,A
        INC       DPTR
        LCALL     ?Subroutine12 & 0xFFFF
??CrossCallReturnLabel_18:
        MOV       A,?V7
        LCALL     ?Subroutine4 & 0xFFFF
//  438 
//  439       // Setup to time-out the huge outgoing item if host does not MT_AF_DATA_STORE it.
//  440       pMtAfDataReq->tick = MT_AF_EXEC_CNT;
??CrossCallReturnLabel_4:
        MOV       A,#0xf
        MOVX      @DPTR,A
//  441       if (ZSuccess != osal_start_timerEx(MT_TaskID, MT_AF_EXEC_EVT, MT_AF_EXEC_DLY))
        ; Setup parameters for call to function osal_start_timerEx
        MOV       DPTR,#__Constant_3e8
        LCALL     ?PUSH_XSTACK8_X_FOUR
          CFI CFA_XSP16 add(XSP16, 39)
        MOV       R2,#0x8
        MOV       R3,#0x0
        MOV       DPTR,#MT_TaskID
        MOVX      A,@DPTR
        MOV       R1,A
        LCALL     `??osal_start_timerEx::?relay`; Banked call to: osal_start_timerEx
        MOV       A,#0x4
        LCALL     ?DEALLOC_XSTACK8
          CFI CFA_XSP16 add(XSP16, 35)
        MOV       A,R1
        JZ        ??MT_AfDataRequest_15
//  442       {
//  443         (void)osal_set_event(MT_TaskID, MT_AF_EXEC_EVT);
        ; Setup parameters for call to function osal_set_event
        MOV       R2,#0x8
        MOV       R3,#0x0
        MOV       DPTR,#MT_TaskID
        MOVX      A,@DPTR
        MOV       R1,A
        LCALL     `??osal_set_event::?relay`; Banked call to: osal_set_event
        SJMP      ??MT_AfDataRequest_15
//  444       }
//  445     }
//  446   }
//  447   else
//  448   {
//  449     retValue = AF_DataRequest(&dstAddr, epDesc, cId, dataLen, pBuf, &transId, txOpts, radius);
??MT_AfDataRequest_11:
        ; Setup parameters for call to function AF_DataRequest
        MOV       A,?V7
        MOV       ?V4,A
        MOV       R0,#?V4
        LCALL     ?PUSH_XSTACK_I_ONE
          CFI CFA_XSP16 add(XSP16, 36)
        MOV       A,#0x2
        LCALL     ?XSTACK_DISP100_8
        MOV       ?V4,R0
        MOV       ?V5,R1
        MOV       R0,#?V4
        LCALL     ?PUSH_XSTACK_I_TWO
          CFI CFA_XSP16 add(XSP16, 38)
        MOV       ?V4,R6
        MOV       ?V5,R7
        MOV       R0,#?V4
        LCALL     ?PUSH_XSTACK_I_TWO
          CFI CFA_XSP16 add(XSP16, 40)
        MOV       R0,#?V0
        LCALL     ?PUSH_XSTACK_I_TWO
          CFI CFA_XSP16 add(XSP16, 42)
        MOV       R0,#?V2
        LCALL     ?PUSH_XSTACK_I_TWO
          CFI CFA_XSP16 add(XSP16, 44)
        MOV       R1,?V8
        MOV       R4,?V10
        MOV       R5,?V11
        MOV       A,#0xb
        LCALL     ?XSTACK_DISP101_8
        LCALL     `??AF_DataRequest::?relay`; Banked call to: AF_DataRequest
        MOV       A,#0x9
        LCALL     ?DEALLOC_XSTACK8
          CFI CFA_XSP16 add(XSP16, 35)
        MOV       A,R1
        MOV       DPL,?XSP + 0
        MOV       DPH,?XSP + 1
??MT_AfDataRequest_13:
        MOVX      @DPTR,A
//  450   }
//  451 
//  452   if (MT_RPC_CMD_SREQ == (cmd0 & MT_RPC_CMD_TYPE_MASK))
??MT_AfDataRequest_15:
        MOV       A,#-0x20
        ANL       A,?V12
        XRL       A,#0x20
        JNZ       ??MT_AfDataRequest_16
//  453   {
//  454     MT_BuildAndSendZToolResponse(((uint8)MT_RPC_CMD_SRSP|(uint8)MT_RPC_SYS_AF), cmd1, 1, &retValue);
        ; Setup parameters for call to function MT_BuildAndSendZToolResponse
        MOV       R4,?XSP + 0
        MOV       R5,?XSP + 1
        MOV       R3,#0x1
        MOV       R2,?V9
        MOV       R1,#0x64
        LCALL     `??MT_BuildAndSendZToolResponse::?relay`; Banked call to: MT_BuildAndSendZToolResponse
//  455   }
//  456 }
??MT_AfDataRequest_16:
        MOV       A,#0xe
        LCALL     ?DEALLOC_XSTACK8
          CFI CFA_XSP16 add(XSP16, 21)
        MOV       R7,#0xd
        LJMP      ?BANKED_LEAVE_XDATA
          CFI EndBlock cfiBlock9

        RSEG BANKED_CODE:HUGECODE:NOROOT(0)
?Subroutine21:
          CFI Block cfiCond10 Using cfiCommon0
          CFI Function MT_AfDataRequest
          CFI Conditional ??CrossCallReturnLabel_72
          CFI R6 load(1, XDATA, add(CFA_XSP16, literal(-21)))
          CFI VB load(1, XDATA, add(CFA_XSP16, literal(-20)))
          CFI V0 load(1, XDATA, add(CFA_XSP16, literal(-19)))
          CFI V1 load(1, XDATA, add(CFA_XSP16, literal(-18)))
          CFI V2 load(1, XDATA, add(CFA_XSP16, literal(-17)))
          CFI V3 load(1, XDATA, add(CFA_XSP16, literal(-16)))
          CFI V4 load(1, XDATA, add(CFA_XSP16, literal(-15)))
          CFI V5 load(1, XDATA, add(CFA_XSP16, literal(-14)))
          CFI V6 load(1, XDATA, add(CFA_XSP16, literal(-13)))
          CFI V7 load(1, XDATA, add(CFA_XSP16, literal(-12)))
          CFI V8 load(1, XDATA, add(CFA_XSP16, literal(-11)))
          CFI V9 load(1, XDATA, add(CFA_XSP16, literal(-10)))
          CFI V10 load(1, XDATA, add(CFA_XSP16, literal(-9)))
          CFI V11 load(1, XDATA, add(CFA_XSP16, literal(-8)))
          CFI V12 load(1, XDATA, add(CFA_XSP16, literal(-7)))
          CFI R7 load(1, XDATA, add(CFA_XSP16, literal(-6)))
          CFI ?RET_LOW load(1, XDATA, add(CFA_XSP16, literal(-5)))
          CFI ?RET_HIGH load(1, XDATA, add(CFA_XSP16, literal(-4)))
          CFI ?BRET_EXT load(1, XDATA, add(CFA_XSP16, literal(-3)))
          CFI DPL0 load(1, XDATA, add(CFA_XSP16, literal(-2)))
          CFI DPH0 load(1, XDATA, add(CFA_XSP16, literal(-1)))
          CFI CFA_SP SP+-2
          CFI CFA_XSP16 add(XSP16, 35)
          CFI Block cfiCond11 Using cfiCommon0
          CFI (cfiCond11) Function MT_AfDataRequestSrcRtg
          CFI (cfiCond11) Conditional ??CrossCallReturnLabel_73
          CFI (cfiCond11) R6 load(1, XDATA, add(CFA_XSP16, literal(-20)))
          CFI (cfiCond11) VB load(1, XDATA, add(CFA_XSP16, literal(-19)))
          CFI (cfiCond11) V0 load(1, XDATA, add(CFA_XSP16, literal(-18)))
          CFI (cfiCond11) V1 load(1, XDATA, add(CFA_XSP16, literal(-17)))
          CFI (cfiCond11) V2 load(1, XDATA, add(CFA_XSP16, literal(-16)))
          CFI (cfiCond11) V3 load(1, XDATA, add(CFA_XSP16, literal(-15)))
          CFI (cfiCond11) V4 load(1, XDATA, add(CFA_XSP16, literal(-14)))
          CFI (cfiCond11) V5 load(1, XDATA, add(CFA_XSP16, literal(-13)))
          CFI (cfiCond11) V6 load(1, XDATA, add(CFA_XSP16, literal(-12)))
          CFI (cfiCond11) V7 load(1, XDATA, add(CFA_XSP16, literal(-11)))
          CFI (cfiCond11) V8 load(1, XDATA, add(CFA_XSP16, literal(-10)))
          CFI (cfiCond11) V9 load(1, XDATA, add(CFA_XSP16, literal(-9)))
          CFI (cfiCond11) V10 load(1, XDATA, add(CFA_XSP16, literal(-8)))
          CFI (cfiCond11) V11 load(1, XDATA, add(CFA_XSP16, literal(-7)))
          CFI (cfiCond11) R7 load(1, XDATA, add(CFA_XSP16, literal(-6)))
          CFI (cfiCond11) ?RET_LOW load(1, XDATA, add(CFA_XSP16, literal(-5)))
          CFI (cfiCond11) ?RET_HIGH load(1, XDATA, add(CFA_XSP16, literal(-4)))
          CFI (cfiCond11) ?BRET_EXT load(1, XDATA, add(CFA_XSP16, literal(-3)))
          CFI (cfiCond11) DPL0 load(1, XDATA, add(CFA_XSP16, literal(-2)))
          CFI (cfiCond11) DPH0 load(1, XDATA, add(CFA_XSP16, literal(-1)))
          CFI (cfiCond11) CFA_SP SP+-2
          CFI (cfiCond11) CFA_XSP16 add(XSP16, 34)
          CFI Block cfiPicker12 Using cfiCommon1
          CFI (cfiPicker12) NoFunction
          CFI (cfiPicker12) Picker
        MOV       A,R2
        MOVX      @DPTR,A
        INC       DPTR
        MOV       A,R3
          CFI EndBlock cfiCond10
          CFI EndBlock cfiCond11
          CFI EndBlock cfiPicker12
        REQUIRE ??Subroutine40_0
        ; // Fall through to label ??Subroutine40_0

        RSEG BANKED_CODE:HUGECODE:NOROOT(0)
??Subroutine40_0:
          CFI Block cfiCond13 Using cfiCommon0
          CFI Function MT_AfDataRequestSrcRtg
          CFI Conditional ??CrossCallReturnLabel_74
          CFI R6 load(1, XDATA, add(CFA_XSP16, literal(-20)))
          CFI VB load(1, XDATA, add(CFA_XSP16, literal(-19)))
          CFI V0 load(1, XDATA, add(CFA_XSP16, literal(-18)))
          CFI V1 load(1, XDATA, add(CFA_XSP16, literal(-17)))
          CFI V2 load(1, XDATA, add(CFA_XSP16, literal(-16)))
          CFI V3 load(1, XDATA, add(CFA_XSP16, literal(-15)))
          CFI V4 load(1, XDATA, add(CFA_XSP16, literal(-14)))
          CFI V5 load(1, XDATA, add(CFA_XSP16, literal(-13)))
          CFI V6 load(1, XDATA, add(CFA_XSP16, literal(-12)))
          CFI V7 load(1, XDATA, add(CFA_XSP16, literal(-11)))
          CFI V8 load(1, XDATA, add(CFA_XSP16, literal(-10)))
          CFI V9 load(1, XDATA, add(CFA_XSP16, literal(-9)))
          CFI V10 load(1, XDATA, add(CFA_XSP16, literal(-8)))
          CFI V11 load(1, XDATA, add(CFA_XSP16, literal(-7)))
          CFI R7 load(1, XDATA, add(CFA_XSP16, literal(-6)))
          CFI ?RET_LOW load(1, XDATA, add(CFA_XSP16, literal(-5)))
          CFI ?RET_HIGH load(1, XDATA, add(CFA_XSP16, literal(-4)))
          CFI ?BRET_EXT load(1, XDATA, add(CFA_XSP16, literal(-3)))
          CFI DPL0 load(1, XDATA, add(CFA_XSP16, literal(-2)))
          CFI DPH0 load(1, XDATA, add(CFA_XSP16, literal(-1)))
          CFI CFA_SP SP+-2
          CFI CFA_XSP16 add(XSP16, 34)
          CFI Block cfiCond14 Using cfiCommon0
          CFI (cfiCond14) Function MT_AfDataRequest
          CFI (cfiCond14) Conditional ??CrossCallReturnLabel_72
          CFI (cfiCond14) R6 load(1, XDATA, add(CFA_XSP16, literal(-21)))
          CFI (cfiCond14) VB load(1, XDATA, add(CFA_XSP16, literal(-20)))
          CFI (cfiCond14) V0 load(1, XDATA, add(CFA_XSP16, literal(-19)))
          CFI (cfiCond14) V1 load(1, XDATA, add(CFA_XSP16, literal(-18)))
          CFI (cfiCond14) V2 load(1, XDATA, add(CFA_XSP16, literal(-17)))
          CFI (cfiCond14) V3 load(1, XDATA, add(CFA_XSP16, literal(-16)))
          CFI (cfiCond14) V4 load(1, XDATA, add(CFA_XSP16, literal(-15)))
          CFI (cfiCond14) V5 load(1, XDATA, add(CFA_XSP16, literal(-14)))
          CFI (cfiCond14) V6 load(1, XDATA, add(CFA_XSP16, literal(-13)))
          CFI (cfiCond14) V7 load(1, XDATA, add(CFA_XSP16, literal(-12)))
          CFI (cfiCond14) V8 load(1, XDATA, add(CFA_XSP16, literal(-11)))
          CFI (cfiCond14) V9 load(1, XDATA, add(CFA_XSP16, literal(-10)))
          CFI (cfiCond14) V10 load(1, XDATA, add(CFA_XSP16, literal(-9)))
          CFI (cfiCond14) V11 load(1, XDATA, add(CFA_XSP16, literal(-8)))
          CFI (cfiCond14) V12 load(1, XDATA, add(CFA_XSP16, literal(-7)))
          CFI (cfiCond14) R7 load(1, XDATA, add(CFA_XSP16, literal(-6)))
          CFI (cfiCond14) ?RET_LOW load(1, XDATA, add(CFA_XSP16, literal(-5)))
          CFI (cfiCond14) ?RET_HIGH load(1, XDATA, add(CFA_XSP16, literal(-4)))
          CFI (cfiCond14) ?BRET_EXT load(1, XDATA, add(CFA_XSP16, literal(-3)))
          CFI (cfiCond14) DPL0 load(1, XDATA, add(CFA_XSP16, literal(-2)))
          CFI (cfiCond14) DPH0 load(1, XDATA, add(CFA_XSP16, literal(-1)))
          CFI (cfiCond14) CFA_SP SP+-2
          CFI (cfiCond14) CFA_XSP16 add(XSP16, 35)
          CFI Block cfiCond15 Using cfiCommon0
          CFI (cfiCond15) Function MT_AfDataRequestSrcRtg
          CFI (cfiCond15) Conditional ??CrossCallReturnLabel_73
          CFI (cfiCond15) R6 load(1, XDATA, add(CFA_XSP16, literal(-20)))
          CFI (cfiCond15) VB load(1, XDATA, add(CFA_XSP16, literal(-19)))
          CFI (cfiCond15) V0 load(1, XDATA, add(CFA_XSP16, literal(-18)))
          CFI (cfiCond15) V1 load(1, XDATA, add(CFA_XSP16, literal(-17)))
          CFI (cfiCond15) V2 load(1, XDATA, add(CFA_XSP16, literal(-16)))
          CFI (cfiCond15) V3 load(1, XDATA, add(CFA_XSP16, literal(-15)))
          CFI (cfiCond15) V4 load(1, XDATA, add(CFA_XSP16, literal(-14)))
          CFI (cfiCond15) V5 load(1, XDATA, add(CFA_XSP16, literal(-13)))
          CFI (cfiCond15) V6 load(1, XDATA, add(CFA_XSP16, literal(-12)))
          CFI (cfiCond15) V7 load(1, XDATA, add(CFA_XSP16, literal(-11)))
          CFI (cfiCond15) V8 load(1, XDATA, add(CFA_XSP16, literal(-10)))
          CFI (cfiCond15) V9 load(1, XDATA, add(CFA_XSP16, literal(-9)))
          CFI (cfiCond15) V10 load(1, XDATA, add(CFA_XSP16, literal(-8)))
          CFI (cfiCond15) V11 load(1, XDATA, add(CFA_XSP16, literal(-7)))
          CFI (cfiCond15) R7 load(1, XDATA, add(CFA_XSP16, literal(-6)))
          CFI (cfiCond15) ?RET_LOW load(1, XDATA, add(CFA_XSP16, literal(-5)))
          CFI (cfiCond15) ?RET_HIGH load(1, XDATA, add(CFA_XSP16, literal(-4)))
          CFI (cfiCond15) ?BRET_EXT load(1, XDATA, add(CFA_XSP16, literal(-3)))
          CFI (cfiCond15) DPL0 load(1, XDATA, add(CFA_XSP16, literal(-2)))
          CFI (cfiCond15) DPH0 load(1, XDATA, add(CFA_XSP16, literal(-1)))
          CFI (cfiCond15) CFA_SP SP+-2
          CFI (cfiCond15) CFA_XSP16 add(XSP16, 34)
          CFI Block cfiPicker16 Using cfiCommon1
          CFI (cfiPicker16) NoFunction
          CFI (cfiPicker16) Picker
        LCALL     ?Subroutine33 & 0xFFFF
??CrossCallReturnLabel_76:
        INC       DPTR
        MOVX      A,@DPTR
        RET
          CFI EndBlock cfiCond13
          CFI EndBlock cfiCond14
          CFI EndBlock cfiCond15
          CFI EndBlock cfiPicker16

        RSEG BANKED_CODE:HUGECODE:NOROOT(0)
?Subroutine33:
          CFI Block cfiCond17 Using cfiCommon0
          CFI Function MT_AfDataRequest
          CFI Conditional ??CrossCallReturnLabel_75
          CFI R6 load(1, XDATA, add(CFA_XSP16, literal(-21)))
          CFI VB load(1, XDATA, add(CFA_XSP16, literal(-20)))
          CFI V0 load(1, XDATA, add(CFA_XSP16, literal(-19)))
          CFI V1 load(1, XDATA, add(CFA_XSP16, literal(-18)))
          CFI V2 load(1, XDATA, add(CFA_XSP16, literal(-17)))
          CFI V3 load(1, XDATA, add(CFA_XSP16, literal(-16)))
          CFI V4 load(1, XDATA, add(CFA_XSP16, literal(-15)))
          CFI V5 load(1, XDATA, add(CFA_XSP16, literal(-14)))
          CFI V6 load(1, XDATA, add(CFA_XSP16, literal(-13)))
          CFI V7 load(1, XDATA, add(CFA_XSP16, literal(-12)))
          CFI V8 load(1, XDATA, add(CFA_XSP16, literal(-11)))
          CFI V9 load(1, XDATA, add(CFA_XSP16, literal(-10)))
          CFI V10 load(1, XDATA, add(CFA_XSP16, literal(-9)))
          CFI V11 load(1, XDATA, add(CFA_XSP16, literal(-8)))
          CFI V12 load(1, XDATA, add(CFA_XSP16, literal(-7)))
          CFI R7 load(1, XDATA, add(CFA_XSP16, literal(-6)))
          CFI ?RET_LOW load(1, XDATA, add(CFA_XSP16, literal(-5)))
          CFI ?RET_HIGH load(1, XDATA, add(CFA_XSP16, literal(-4)))
          CFI ?BRET_EXT load(1, XDATA, add(CFA_XSP16, literal(-3)))
          CFI DPL0 load(1, XDATA, add(CFA_XSP16, literal(-2)))
          CFI DPH0 load(1, XDATA, add(CFA_XSP16, literal(-1)))
          CFI CFA_SP SP+-2
          CFI CFA_XSP16 add(XSP16, 35)
          CFI Block cfiCond18 Using cfiCommon0
          CFI (cfiCond18) Function MT_AfDataRequest
          CFI (cfiCond18) Conditional ??CrossCallReturnLabel_78
          CFI (cfiCond18) R6 load(1, XDATA, add(CFA_XSP16, literal(-21)))
          CFI (cfiCond18) VB load(1, XDATA, add(CFA_XSP16, literal(-20)))
          CFI (cfiCond18) V0 load(1, XDATA, add(CFA_XSP16, literal(-19)))
          CFI (cfiCond18) V1 load(1, XDATA, add(CFA_XSP16, literal(-18)))
          CFI (cfiCond18) V2 load(1, XDATA, add(CFA_XSP16, literal(-17)))
          CFI (cfiCond18) V3 load(1, XDATA, add(CFA_XSP16, literal(-16)))
          CFI (cfiCond18) V4 load(1, XDATA, add(CFA_XSP16, literal(-15)))
          CFI (cfiCond18) V5 load(1, XDATA, add(CFA_XSP16, literal(-14)))
          CFI (cfiCond18) V6 load(1, XDATA, add(CFA_XSP16, literal(-13)))
          CFI (cfiCond18) V7 load(1, XDATA, add(CFA_XSP16, literal(-12)))
          CFI (cfiCond18) V8 load(1, XDATA, add(CFA_XSP16, literal(-11)))
          CFI (cfiCond18) V9 load(1, XDATA, add(CFA_XSP16, literal(-10)))
          CFI (cfiCond18) V10 load(1, XDATA, add(CFA_XSP16, literal(-9)))
          CFI (cfiCond18) V11 load(1, XDATA, add(CFA_XSP16, literal(-8)))
          CFI (cfiCond18) V12 load(1, XDATA, add(CFA_XSP16, literal(-7)))
          CFI (cfiCond18) R7 load(1, XDATA, add(CFA_XSP16, literal(-6)))
          CFI (cfiCond18) ?RET_LOW load(1, XDATA, add(CFA_XSP16, literal(-5)))
          CFI (cfiCond18) ?RET_HIGH load(1, XDATA, add(CFA_XSP16, literal(-4)))
          CFI (cfiCond18) ?BRET_EXT load(1, XDATA, add(CFA_XSP16, literal(-3)))
          CFI (cfiCond18) DPL0 load(1, XDATA, add(CFA_XSP16, literal(-2)))
          CFI (cfiCond18) DPH0 load(1, XDATA, add(CFA_XSP16, literal(-1)))
          CFI (cfiCond18) CFA_SP SP+-2
          CFI (cfiCond18) CFA_XSP16 add(XSP16, 35)
          CFI Block cfiCond19 Using cfiCommon0
          CFI (cfiCond19) Function MT_AfDataRequest
          CFI (cfiCond19) Conditional ??CrossCallReturnLabel_76, ??CrossCallReturnLabel_72
          CFI (cfiCond19) R6 load(1, XDATA, add(CFA_XSP16, literal(-21)))
          CFI (cfiCond19) VB load(1, XDATA, add(CFA_XSP16, literal(-20)))
          CFI (cfiCond19) V0 load(1, XDATA, add(CFA_XSP16, literal(-19)))
          CFI (cfiCond19) V1 load(1, XDATA, add(CFA_XSP16, literal(-18)))
          CFI (cfiCond19) V2 load(1, XDATA, add(CFA_XSP16, literal(-17)))
          CFI (cfiCond19) V3 load(1, XDATA, add(CFA_XSP16, literal(-16)))
          CFI (cfiCond19) V4 load(1, XDATA, add(CFA_XSP16, literal(-15)))
          CFI (cfiCond19) V5 load(1, XDATA, add(CFA_XSP16, literal(-14)))
          CFI (cfiCond19) V6 load(1, XDATA, add(CFA_XSP16, literal(-13)))
          CFI (cfiCond19) V7 load(1, XDATA, add(CFA_XSP16, literal(-12)))
          CFI (cfiCond19) V8 load(1, XDATA, add(CFA_XSP16, literal(-11)))
          CFI (cfiCond19) V9 load(1, XDATA, add(CFA_XSP16, literal(-10)))
          CFI (cfiCond19) V10 load(1, XDATA, add(CFA_XSP16, literal(-9)))
          CFI (cfiCond19) V11 load(1, XDATA, add(CFA_XSP16, literal(-8)))
          CFI (cfiCond19) V12 load(1, XDATA, add(CFA_XSP16, literal(-7)))
          CFI (cfiCond19) R7 load(1, XDATA, add(CFA_XSP16, literal(-6)))
          CFI (cfiCond19) ?RET_LOW load(1, XDATA, add(CFA_XSP16, literal(-5)))
          CFI (cfiCond19) ?RET_HIGH load(1, XDATA, add(CFA_XSP16, literal(-4)))
          CFI (cfiCond19) ?BRET_EXT load(1, XDATA, add(CFA_XSP16, literal(-3)))
          CFI (cfiCond19) DPL0 load(1, XDATA, add(CFA_XSP16, literal(-2)))
          CFI (cfiCond19) DPH0 load(1, XDATA, add(CFA_XSP16, literal(-1)))
          CFI (cfiCond19) CFA_SP SP+-4
          CFI (cfiCond19) CFA_XSP16 add(XSP16, 35)
          CFI Block cfiCond20 Using cfiCommon0
          CFI (cfiCond20) Function MT_AfDataRequestSrcRtg
          CFI (cfiCond20) Conditional ??CrossCallReturnLabel_76, ??CrossCallReturnLabel_73
          CFI (cfiCond20) R6 load(1, XDATA, add(CFA_XSP16, literal(-20)))
          CFI (cfiCond20) VB load(1, XDATA, add(CFA_XSP16, literal(-19)))
          CFI (cfiCond20) V0 load(1, XDATA, add(CFA_XSP16, literal(-18)))
          CFI (cfiCond20) V1 load(1, XDATA, add(CFA_XSP16, literal(-17)))
          CFI (cfiCond20) V2 load(1, XDATA, add(CFA_XSP16, literal(-16)))
          CFI (cfiCond20) V3 load(1, XDATA, add(CFA_XSP16, literal(-15)))
          CFI (cfiCond20) V4 load(1, XDATA, add(CFA_XSP16, literal(-14)))
          CFI (cfiCond20) V5 load(1, XDATA, add(CFA_XSP16, literal(-13)))
          CFI (cfiCond20) V6 load(1, XDATA, add(CFA_XSP16, literal(-12)))
          CFI (cfiCond20) V7 load(1, XDATA, add(CFA_XSP16, literal(-11)))
          CFI (cfiCond20) V8 load(1, XDATA, add(CFA_XSP16, literal(-10)))
          CFI (cfiCond20) V9 load(1, XDATA, add(CFA_XSP16, literal(-9)))
          CFI (cfiCond20) V10 load(1, XDATA, add(CFA_XSP16, literal(-8)))
          CFI (cfiCond20) V11 load(1, XDATA, add(CFA_XSP16, literal(-7)))
          CFI (cfiCond20) R7 load(1, XDATA, add(CFA_XSP16, literal(-6)))
          CFI (cfiCond20) ?RET_LOW load(1, XDATA, add(CFA_XSP16, literal(-5)))
          CFI (cfiCond20) ?RET_HIGH load(1, XDATA, add(CFA_XSP16, literal(-4)))
          CFI (cfiCond20) ?BRET_EXT load(1, XDATA, add(CFA_XSP16, literal(-3)))
          CFI (cfiCond20) DPL0 load(1, XDATA, add(CFA_XSP16, literal(-2)))
          CFI (cfiCond20) DPH0 load(1, XDATA, add(CFA_XSP16, literal(-1)))
          CFI (cfiCond20) CFA_SP SP+-4
          CFI (cfiCond20) CFA_XSP16 add(XSP16, 34)
          CFI Block cfiCond21 Using cfiCommon0
          CFI (cfiCond21) Function MT_AfDataRequestSrcRtg
          CFI (cfiCond21) Conditional ??CrossCallReturnLabel_76, ??CrossCallReturnLabel_74
          CFI (cfiCond21) R6 load(1, XDATA, add(CFA_XSP16, literal(-20)))
          CFI (cfiCond21) VB load(1, XDATA, add(CFA_XSP16, literal(-19)))
          CFI (cfiCond21) V0 load(1, XDATA, add(CFA_XSP16, literal(-18)))
          CFI (cfiCond21) V1 load(1, XDATA, add(CFA_XSP16, literal(-17)))
          CFI (cfiCond21) V2 load(1, XDATA, add(CFA_XSP16, literal(-16)))
          CFI (cfiCond21) V3 load(1, XDATA, add(CFA_XSP16, literal(-15)))
          CFI (cfiCond21) V4 load(1, XDATA, add(CFA_XSP16, literal(-14)))
          CFI (cfiCond21) V5 load(1, XDATA, add(CFA_XSP16, literal(-13)))
          CFI (cfiCond21) V6 load(1, XDATA, add(CFA_XSP16, literal(-12)))
          CFI (cfiCond21) V7 load(1, XDATA, add(CFA_XSP16, literal(-11)))
          CFI (cfiCond21) V8 load(1, XDATA, add(CFA_XSP16, literal(-10)))
          CFI (cfiCond21) V9 load(1, XDATA, add(CFA_XSP16, literal(-9)))
          CFI (cfiCond21) V10 load(1, XDATA, add(CFA_XSP16, literal(-8)))
          CFI (cfiCond21) V11 load(1, XDATA, add(CFA_XSP16, literal(-7)))
          CFI (cfiCond21) R7 load(1, XDATA, add(CFA_XSP16, literal(-6)))
          CFI (cfiCond21) ?RET_LOW load(1, XDATA, add(CFA_XSP16, literal(-5)))
          CFI (cfiCond21) ?RET_HIGH load(1, XDATA, add(CFA_XSP16, literal(-4)))
          CFI (cfiCond21) ?BRET_EXT load(1, XDATA, add(CFA_XSP16, literal(-3)))
          CFI (cfiCond21) DPL0 load(1, XDATA, add(CFA_XSP16, literal(-2)))
          CFI (cfiCond21) DPH0 load(1, XDATA, add(CFA_XSP16, literal(-1)))
          CFI (cfiCond21) CFA_SP SP+-4
          CFI (cfiCond21) CFA_XSP16 add(XSP16, 34)
          CFI Block cfiCond22 Using cfiCommon0
          CFI (cfiCond22) Function MT_AfDataRequestSrcRtg
          CFI (cfiCond22) Conditional ??CrossCallReturnLabel_77, ??CrossCallReturnLabel_37
          CFI (cfiCond22) R6 load(1, XDATA, add(CFA_XSP16, literal(-20)))
          CFI (cfiCond22) VB load(1, XDATA, add(CFA_XSP16, literal(-19)))
          CFI (cfiCond22) V0 load(1, XDATA, add(CFA_XSP16, literal(-18)))
          CFI (cfiCond22) V1 load(1, XDATA, add(CFA_XSP16, literal(-17)))
          CFI (cfiCond22) V2 load(1, XDATA, add(CFA_XSP16, literal(-16)))
          CFI (cfiCond22) V3 load(1, XDATA, add(CFA_XSP16, literal(-15)))
          CFI (cfiCond22) V4 load(1, XDATA, add(CFA_XSP16, literal(-14)))
          CFI (cfiCond22) V5 load(1, XDATA, add(CFA_XSP16, literal(-13)))
          CFI (cfiCond22) V6 load(1, XDATA, add(CFA_XSP16, literal(-12)))
          CFI (cfiCond22) V7 load(1, XDATA, add(CFA_XSP16, literal(-11)))
          CFI (cfiCond22) V8 load(1, XDATA, add(CFA_XSP16, literal(-10)))
          CFI (cfiCond22) V9 load(1, XDATA, add(CFA_XSP16, literal(-9)))
          CFI (cfiCond22) V10 load(1, XDATA, add(CFA_XSP16, literal(-8)))
          CFI (cfiCond22) V11 load(1, XDATA, add(CFA_XSP16, literal(-7)))
          CFI (cfiCond22) R7 load(1, XDATA, add(CFA_XSP16, literal(-6)))
          CFI (cfiCond22) ?RET_LOW load(1, XDATA, add(CFA_XSP16, literal(-5)))
          CFI (cfiCond22) ?RET_HIGH load(1, XDATA, add(CFA_XSP16, literal(-4)))
          CFI (cfiCond22) ?BRET_EXT load(1, XDATA, add(CFA_XSP16, literal(-3)))
          CFI (cfiCond22) DPL0 load(1, XDATA, add(CFA_XSP16, literal(-2)))
          CFI (cfiCond22) DPH0 load(1, XDATA, add(CFA_XSP16, literal(-1)))
          CFI (cfiCond22) CFA_SP SP+-4
          CFI (cfiCond22) CFA_XSP16 add(XSP16, 34)
          CFI Block cfiCond23 Using cfiCommon0
          CFI (cfiCond23) Function MT_AfDataRequestSrcRtg
          CFI (cfiCond23) Conditional ??CrossCallReturnLabel_77, ??CrossCallReturnLabel_38
          CFI (cfiCond23) R6 load(1, XDATA, add(CFA_XSP16, literal(-20)))
          CFI (cfiCond23) VB load(1, XDATA, add(CFA_XSP16, literal(-19)))
          CFI (cfiCond23) V0 load(1, XDATA, add(CFA_XSP16, literal(-18)))
          CFI (cfiCond23) V1 load(1, XDATA, add(CFA_XSP16, literal(-17)))
          CFI (cfiCond23) V2 load(1, XDATA, add(CFA_XSP16, literal(-16)))
          CFI (cfiCond23) V3 load(1, XDATA, add(CFA_XSP16, literal(-15)))
          CFI (cfiCond23) V4 load(1, XDATA, add(CFA_XSP16, literal(-14)))
          CFI (cfiCond23) V5 load(1, XDATA, add(CFA_XSP16, literal(-13)))
          CFI (cfiCond23) V6 load(1, XDATA, add(CFA_XSP16, literal(-12)))
          CFI (cfiCond23) V7 load(1, XDATA, add(CFA_XSP16, literal(-11)))
          CFI (cfiCond23) V8 load(1, XDATA, add(CFA_XSP16, literal(-10)))
          CFI (cfiCond23) V9 load(1, XDATA, add(CFA_XSP16, literal(-9)))
          CFI (cfiCond23) V10 load(1, XDATA, add(CFA_XSP16, literal(-8)))
          CFI (cfiCond23) V11 load(1, XDATA, add(CFA_XSP16, literal(-7)))
          CFI (cfiCond23) R7 load(1, XDATA, add(CFA_XSP16, literal(-6)))
          CFI (cfiCond23) ?RET_LOW load(1, XDATA, add(CFA_XSP16, literal(-5)))
          CFI (cfiCond23) ?RET_HIGH load(1, XDATA, add(CFA_XSP16, literal(-4)))
          CFI (cfiCond23) ?BRET_EXT load(1, XDATA, add(CFA_XSP16, literal(-3)))
          CFI (cfiCond23) DPL0 load(1, XDATA, add(CFA_XSP16, literal(-2)))
          CFI (cfiCond23) DPH0 load(1, XDATA, add(CFA_XSP16, literal(-1)))
          CFI (cfiCond23) CFA_SP SP+-4
          CFI (cfiCond23) CFA_XSP16 add(XSP16, 34)
          CFI Block cfiPicker24 Using cfiCommon1
          CFI (cfiPicker24) NoFunction
          CFI (cfiPicker24) Picker
        MOVX      @DPTR,A
        MOV       DPL,R6
        MOV       DPH,R7
        INC       DPTR
        RET
          CFI EndBlock cfiCond17
          CFI EndBlock cfiCond18
          CFI EndBlock cfiCond19
          CFI EndBlock cfiCond20
          CFI EndBlock cfiCond21
          CFI EndBlock cfiCond22
          CFI EndBlock cfiCond23
          CFI EndBlock cfiPicker24

        RSEG BANKED_CODE:HUGECODE:NOROOT(0)
?Subroutine4:
          CFI Block cfiCond25 Using cfiCommon0
          CFI Function MT_AfExec
          CFI Conditional ??CrossCallReturnLabel_5
          CFI R6 load(1, XDATA, add(CFA_XSP16, literal(-9)))
          CFI VB load(1, XDATA, add(CFA_XSP16, literal(-8)))
          CFI V0 load(1, XDATA, add(CFA_XSP16, literal(-7)))
          CFI R7 load(1, XDATA, add(CFA_XSP16, literal(-6)))
          CFI ?RET_LOW load(1, XDATA, add(CFA_XSP16, literal(-5)))
          CFI ?RET_HIGH load(1, XDATA, add(CFA_XSP16, literal(-4)))
          CFI ?BRET_EXT load(1, XDATA, add(CFA_XSP16, literal(-3)))
          CFI DPL0 load(1, XDATA, add(CFA_XSP16, literal(-2)))
          CFI DPH0 load(1, XDATA, add(CFA_XSP16, literal(-1)))
          CFI CFA_SP SP+-2
          CFI CFA_XSP16 add(XSP16, 9)
          CFI Block cfiCond26 Using cfiCommon0
          CFI (cfiCond26) Function MT_AfDataRequest
          CFI (cfiCond26) Conditional ??CrossCallReturnLabel_4
          CFI (cfiCond26) R6 load(1, XDATA, add(CFA_XSP16, literal(-21)))
          CFI (cfiCond26) VB load(1, XDATA, add(CFA_XSP16, literal(-20)))
          CFI (cfiCond26) V0 load(1, XDATA, add(CFA_XSP16, literal(-19)))
          CFI (cfiCond26) V1 load(1, XDATA, add(CFA_XSP16, literal(-18)))
          CFI (cfiCond26) V2 load(1, XDATA, add(CFA_XSP16, literal(-17)))
          CFI (cfiCond26) V3 load(1, XDATA, add(CFA_XSP16, literal(-16)))
          CFI (cfiCond26) V4 load(1, XDATA, add(CFA_XSP16, literal(-15)))
          CFI (cfiCond26) V5 load(1, XDATA, add(CFA_XSP16, literal(-14)))
          CFI (cfiCond26) V6 load(1, XDATA, add(CFA_XSP16, literal(-13)))
          CFI (cfiCond26) V7 load(1, XDATA, add(CFA_XSP16, literal(-12)))
          CFI (cfiCond26) V8 load(1, XDATA, add(CFA_XSP16, literal(-11)))
          CFI (cfiCond26) V9 load(1, XDATA, add(CFA_XSP16, literal(-10)))
          CFI (cfiCond26) V10 load(1, XDATA, add(CFA_XSP16, literal(-9)))
          CFI (cfiCond26) V11 load(1, XDATA, add(CFA_XSP16, literal(-8)))
          CFI (cfiCond26) V12 load(1, XDATA, add(CFA_XSP16, literal(-7)))
          CFI (cfiCond26) R7 load(1, XDATA, add(CFA_XSP16, literal(-6)))
          CFI (cfiCond26) ?RET_LOW load(1, XDATA, add(CFA_XSP16, literal(-5)))
          CFI (cfiCond26) ?RET_HIGH load(1, XDATA, add(CFA_XSP16, literal(-4)))
          CFI (cfiCond26) ?BRET_EXT load(1, XDATA, add(CFA_XSP16, literal(-3)))
          CFI (cfiCond26) DPL0 load(1, XDATA, add(CFA_XSP16, literal(-2)))
          CFI (cfiCond26) DPH0 load(1, XDATA, add(CFA_XSP16, literal(-1)))
          CFI (cfiCond26) CFA_SP SP+-2
          CFI (cfiCond26) CFA_XSP16 add(XSP16, 35)
          CFI Block cfiPicker27 Using cfiCommon1
          CFI (cfiPicker27) NoFunction
          CFI (cfiPicker27) Picker
        MOVX      @DPTR,A
        LCALL     ?Subroutine29 & 0xFFFF
??CrossCallReturnLabel_46:
        LCALL     ?Subroutine36 & 0xFFFF
??CrossCallReturnLabel_60:
        RET
          CFI EndBlock cfiCond25
          CFI EndBlock cfiCond26
          CFI EndBlock cfiPicker27

        RSEG BANKED_CODE:HUGECODE:NOROOT(0)
?Subroutine36:
          CFI Block cfiCond28 Using cfiCommon0
          CFI Function MT_AfExec
          CFI Conditional ??CrossCallReturnLabel_59
          CFI R6 load(1, XDATA, add(CFA_XSP16, literal(-9)))
          CFI VB load(1, XDATA, add(CFA_XSP16, literal(-8)))
          CFI V0 load(1, XDATA, add(CFA_XSP16, literal(-7)))
          CFI R7 load(1, XDATA, add(CFA_XSP16, literal(-6)))
          CFI ?RET_LOW load(1, XDATA, add(CFA_XSP16, literal(-5)))
          CFI ?RET_HIGH load(1, XDATA, add(CFA_XSP16, literal(-4)))
          CFI ?BRET_EXT load(1, XDATA, add(CFA_XSP16, literal(-3)))
          CFI DPL0 load(1, XDATA, add(CFA_XSP16, literal(-2)))
          CFI DPH0 load(1, XDATA, add(CFA_XSP16, literal(-1)))
          CFI CFA_SP SP+-2
          CFI CFA_XSP16 add(XSP16, 9)
          CFI Block cfiCond29 Using cfiCommon0
          CFI (cfiCond29) Function MT_AfExec
          CFI (cfiCond29) Conditional ??CrossCallReturnLabel_60, ??CrossCallReturnLabel_5
          CFI (cfiCond29) R6 load(1, XDATA, add(CFA_XSP16, literal(-9)))
          CFI (cfiCond29) VB load(1, XDATA, add(CFA_XSP16, literal(-8)))
          CFI (cfiCond29) V0 load(1, XDATA, add(CFA_XSP16, literal(-7)))
          CFI (cfiCond29) R7 load(1, XDATA, add(CFA_XSP16, literal(-6)))
          CFI (cfiCond29) ?RET_LOW load(1, XDATA, add(CFA_XSP16, literal(-5)))
          CFI (cfiCond29) ?RET_HIGH load(1, XDATA, add(CFA_XSP16, literal(-4)))
          CFI (cfiCond29) ?BRET_EXT load(1, XDATA, add(CFA_XSP16, literal(-3)))
          CFI (cfiCond29) DPL0 load(1, XDATA, add(CFA_XSP16, literal(-2)))
          CFI (cfiCond29) DPH0 load(1, XDATA, add(CFA_XSP16, literal(-1)))
          CFI (cfiCond29) CFA_SP SP+-4
          CFI (cfiCond29) CFA_XSP16 add(XSP16, 9)
          CFI Block cfiCond30 Using cfiCommon0
          CFI (cfiCond30) Function MT_AfDataRequest
          CFI (cfiCond30) Conditional ??CrossCallReturnLabel_60, ??CrossCallReturnLabel_4
          CFI (cfiCond30) R6 load(1, XDATA, add(CFA_XSP16, literal(-21)))
          CFI (cfiCond30) VB load(1, XDATA, add(CFA_XSP16, literal(-20)))
          CFI (cfiCond30) V0 load(1, XDATA, add(CFA_XSP16, literal(-19)))
          CFI (cfiCond30) V1 load(1, XDATA, add(CFA_XSP16, literal(-18)))
          CFI (cfiCond30) V2 load(1, XDATA, add(CFA_XSP16, literal(-17)))
          CFI (cfiCond30) V3 load(1, XDATA, add(CFA_XSP16, literal(-16)))
          CFI (cfiCond30) V4 load(1, XDATA, add(CFA_XSP16, literal(-15)))
          CFI (cfiCond30) V5 load(1, XDATA, add(CFA_XSP16, literal(-14)))
          CFI (cfiCond30) V6 load(1, XDATA, add(CFA_XSP16, literal(-13)))
          CFI (cfiCond30) V7 load(1, XDATA, add(CFA_XSP16, literal(-12)))
          CFI (cfiCond30) V8 load(1, XDATA, add(CFA_XSP16, literal(-11)))
          CFI (cfiCond30) V9 load(1, XDATA, add(CFA_XSP16, literal(-10)))
          CFI (cfiCond30) V10 load(1, XDATA, add(CFA_XSP16, literal(-9)))
          CFI (cfiCond30) V11 load(1, XDATA, add(CFA_XSP16, literal(-8)))
          CFI (cfiCond30) V12 load(1, XDATA, add(CFA_XSP16, literal(-7)))
          CFI (cfiCond30) R7 load(1, XDATA, add(CFA_XSP16, literal(-6)))
          CFI (cfiCond30) ?RET_LOW load(1, XDATA, add(CFA_XSP16, literal(-5)))
          CFI (cfiCond30) ?RET_HIGH load(1, XDATA, add(CFA_XSP16, literal(-4)))
          CFI (cfiCond30) ?BRET_EXT load(1, XDATA, add(CFA_XSP16, literal(-3)))
          CFI (cfiCond30) DPL0 load(1, XDATA, add(CFA_XSP16, literal(-2)))
          CFI (cfiCond30) DPH0 load(1, XDATA, add(CFA_XSP16, literal(-1)))
          CFI (cfiCond30) CFA_SP SP+-4
          CFI (cfiCond30) CFA_XSP16 add(XSP16, 35)
          CFI Block cfiPicker31 Using cfiCommon1
          CFI (cfiPicker31) NoFunction
          CFI (cfiPicker31) Picker
        ADD       A,#0x17
        MOV       DPL,A
        CLR       A
        ADDC      A,R0
        MOV       DPH,A
        RET
          CFI EndBlock cfiCond28
          CFI EndBlock cfiCond29
          CFI EndBlock cfiCond30
          CFI EndBlock cfiPicker31

        RSEG BANKED_CODE:HUGECODE:NOROOT(0)
?Subroutine1:
          CFI Block cfiCond32 Using cfiCommon0
          CFI Function MT_AfExec
          CFI Conditional ??CrossCallReturnLabel_80
          CFI R6 load(1, XDATA, add(CFA_XSP16, literal(-9)))
          CFI VB load(1, XDATA, add(CFA_XSP16, literal(-8)))
          CFI V0 load(1, XDATA, add(CFA_XSP16, literal(-7)))
          CFI R7 load(1, XDATA, add(CFA_XSP16, literal(-6)))
          CFI ?RET_LOW load(1, XDATA, add(CFA_XSP16, literal(-5)))
          CFI ?RET_HIGH load(1, XDATA, add(CFA_XSP16, literal(-4)))
          CFI ?BRET_EXT load(1, XDATA, add(CFA_XSP16, literal(-3)))
          CFI DPL0 load(1, XDATA, add(CFA_XSP16, literal(-2)))
          CFI DPH0 load(1, XDATA, add(CFA_XSP16, literal(-1)))
          CFI CFA_SP SP+-2
          CFI CFA_XSP16 add(XSP16, 9)
          CFI Block cfiCond33 Using cfiCommon0
          CFI (cfiCond33) Function MT_AfExec
          CFI (cfiCond33) Conditional ??CrossCallReturnLabel_81
          CFI (cfiCond33) R6 load(1, XDATA, add(CFA_XSP16, literal(-9)))
          CFI (cfiCond33) VB load(1, XDATA, add(CFA_XSP16, literal(-8)))
          CFI (cfiCond33) V0 load(1, XDATA, add(CFA_XSP16, literal(-7)))
          CFI (cfiCond33) R7 load(1, XDATA, add(CFA_XSP16, literal(-6)))
          CFI (cfiCond33) ?RET_LOW load(1, XDATA, add(CFA_XSP16, literal(-5)))
          CFI (cfiCond33) ?RET_HIGH load(1, XDATA, add(CFA_XSP16, literal(-4)))
          CFI (cfiCond33) ?BRET_EXT load(1, XDATA, add(CFA_XSP16, literal(-3)))
          CFI (cfiCond33) DPL0 load(1, XDATA, add(CFA_XSP16, literal(-2)))
          CFI (cfiCond33) DPH0 load(1, XDATA, add(CFA_XSP16, literal(-1)))
          CFI (cfiCond33) CFA_SP SP+-2
          CFI (cfiCond33) CFA_XSP16 add(XSP16, 9)
          CFI Block cfiCond34 Using cfiCommon0
          CFI (cfiCond34) Function MT_AfDataRequest
          CFI (cfiCond34) Conditional ??CrossCallReturnLabel_82
          CFI (cfiCond34) R6 load(1, XDATA, add(CFA_XSP16, literal(-21)))
          CFI (cfiCond34) VB load(1, XDATA, add(CFA_XSP16, literal(-20)))
          CFI (cfiCond34) V0 load(1, XDATA, add(CFA_XSP16, literal(-19)))
          CFI (cfiCond34) V1 load(1, XDATA, add(CFA_XSP16, literal(-18)))
          CFI (cfiCond34) V2 load(1, XDATA, add(CFA_XSP16, literal(-17)))
          CFI (cfiCond34) V3 load(1, XDATA, add(CFA_XSP16, literal(-16)))
          CFI (cfiCond34) V4 load(1, XDATA, add(CFA_XSP16, literal(-15)))
          CFI (cfiCond34) V5 load(1, XDATA, add(CFA_XSP16, literal(-14)))
          CFI (cfiCond34) V6 load(1, XDATA, add(CFA_XSP16, literal(-13)))
          CFI (cfiCond34) V7 load(1, XDATA, add(CFA_XSP16, literal(-12)))
          CFI (cfiCond34) V8 load(1, XDATA, add(CFA_XSP16, literal(-11)))
          CFI (cfiCond34) V9 load(1, XDATA, add(CFA_XSP16, literal(-10)))
          CFI (cfiCond34) V10 load(1, XDATA, add(CFA_XSP16, literal(-9)))
          CFI (cfiCond34) V11 load(1, XDATA, add(CFA_XSP16, literal(-8)))
          CFI (cfiCond34) V12 load(1, XDATA, add(CFA_XSP16, literal(-7)))
          CFI (cfiCond34) R7 load(1, XDATA, add(CFA_XSP16, literal(-6)))
          CFI (cfiCond34) ?RET_LOW load(1, XDATA, add(CFA_XSP16, literal(-5)))
          CFI (cfiCond34) ?RET_HIGH load(1, XDATA, add(CFA_XSP16, literal(-4)))
          CFI (cfiCond34) ?BRET_EXT load(1, XDATA, add(CFA_XSP16, literal(-3)))
          CFI (cfiCond34) DPL0 load(1, XDATA, add(CFA_XSP16, literal(-2)))
          CFI (cfiCond34) DPH0 load(1, XDATA, add(CFA_XSP16, literal(-1)))
          CFI (cfiCond34) CFA_SP SP+-2
          CFI (cfiCond34) CFA_XSP16 add(XSP16, 35)
          CFI Block cfiCond35 Using cfiCommon0
          CFI (cfiCond35) Function MT_AfDataRequest
          CFI (cfiCond35) Conditional ??CrossCallReturnLabel_83
          CFI (cfiCond35) R6 load(1, XDATA, add(CFA_XSP16, literal(-21)))
          CFI (cfiCond35) VB load(1, XDATA, add(CFA_XSP16, literal(-20)))
          CFI (cfiCond35) V0 load(1, XDATA, add(CFA_XSP16, literal(-19)))
          CFI (cfiCond35) V1 load(1, XDATA, add(CFA_XSP16, literal(-18)))
          CFI (cfiCond35) V2 load(1, XDATA, add(CFA_XSP16, literal(-17)))
          CFI (cfiCond35) V3 load(1, XDATA, add(CFA_XSP16, literal(-16)))
          CFI (cfiCond35) V4 load(1, XDATA, add(CFA_XSP16, literal(-15)))
          CFI (cfiCond35) V5 load(1, XDATA, add(CFA_XSP16, literal(-14)))
          CFI (cfiCond35) V6 load(1, XDATA, add(CFA_XSP16, literal(-13)))
          CFI (cfiCond35) V7 load(1, XDATA, add(CFA_XSP16, literal(-12)))
          CFI (cfiCond35) V8 load(1, XDATA, add(CFA_XSP16, literal(-11)))
          CFI (cfiCond35) V9 load(1, XDATA, add(CFA_XSP16, literal(-10)))
          CFI (cfiCond35) V10 load(1, XDATA, add(CFA_XSP16, literal(-9)))
          CFI (cfiCond35) V11 load(1, XDATA, add(CFA_XSP16, literal(-8)))
          CFI (cfiCond35) V12 load(1, XDATA, add(CFA_XSP16, literal(-7)))
          CFI (cfiCond35) R7 load(1, XDATA, add(CFA_XSP16, literal(-6)))
          CFI (cfiCond35) ?RET_LOW load(1, XDATA, add(CFA_XSP16, literal(-5)))
          CFI (cfiCond35) ?RET_HIGH load(1, XDATA, add(CFA_XSP16, literal(-4)))
          CFI (cfiCond35) ?BRET_EXT load(1, XDATA, add(CFA_XSP16, literal(-3)))
          CFI (cfiCond35) DPL0 load(1, XDATA, add(CFA_XSP16, literal(-2)))
          CFI (cfiCond35) DPH0 load(1, XDATA, add(CFA_XSP16, literal(-1)))
          CFI (cfiCond35) CFA_SP SP+-2
          CFI (cfiCond35) CFA_XSP16 add(XSP16, 35)
          CFI Block cfiCond36 Using cfiCommon0
          CFI (cfiCond36) Function MT_AfDataStore
          CFI (cfiCond36) Conditional ??CrossCallReturnLabel_84
          CFI (cfiCond36) R6 load(1, XDATA, add(CFA_XSP16, literal(-16)))
          CFI (cfiCond36) VB load(1, XDATA, add(CFA_XSP16, literal(-15)))
          CFI (cfiCond36) V0 load(1, XDATA, add(CFA_XSP16, literal(-14)))
          CFI (cfiCond36) V1 load(1, XDATA, add(CFA_XSP16, literal(-13)))
          CFI (cfiCond36) V2 load(1, XDATA, add(CFA_XSP16, literal(-12)))
          CFI (cfiCond36) V3 load(1, XDATA, add(CFA_XSP16, literal(-11)))
          CFI (cfiCond36) V4 load(1, XDATA, add(CFA_XSP16, literal(-10)))
          CFI (cfiCond36) V5 load(1, XDATA, add(CFA_XSP16, literal(-9)))
          CFI (cfiCond36) V6 load(1, XDATA, add(CFA_XSP16, literal(-8)))
          CFI (cfiCond36) V7 load(1, XDATA, add(CFA_XSP16, literal(-7)))
          CFI (cfiCond36) R7 load(1, XDATA, add(CFA_XSP16, literal(-6)))
          CFI (cfiCond36) ?RET_LOW load(1, XDATA, add(CFA_XSP16, literal(-5)))
          CFI (cfiCond36) ?RET_HIGH load(1, XDATA, add(CFA_XSP16, literal(-4)))
          CFI (cfiCond36) ?BRET_EXT load(1, XDATA, add(CFA_XSP16, literal(-3)))
          CFI (cfiCond36) DPL0 load(1, XDATA, add(CFA_XSP16, literal(-2)))
          CFI (cfiCond36) DPH0 load(1, XDATA, add(CFA_XSP16, literal(-1)))
          CFI (cfiCond36) CFA_SP SP+-2
          CFI (cfiCond36) CFA_XSP16 add(XSP16, 17)
          CFI Block cfiPicker37 Using cfiCommon1
          CFI (cfiPicker37) NoFunction
          CFI (cfiPicker37) Picker
        MOV       DPTR,#pMtAfDataReq
          CFI EndBlock cfiCond32
          CFI EndBlock cfiCond33
          CFI EndBlock cfiCond34
          CFI EndBlock cfiCond35
          CFI EndBlock cfiCond36
          CFI EndBlock cfiPicker37
        REQUIRE ??Subroutine41_0
        ; // Fall through to label ??Subroutine41_0

        RSEG BANKED_CODE:HUGECODE:NOROOT(0)
??Subroutine41_0:
          CFI Block cfiCond38 Using cfiCommon0
          CFI Function MT_AfExec
          CFI Conditional ??CrossCallReturnLabel_79
          CFI R6 load(1, XDATA, add(CFA_XSP16, literal(-9)))
          CFI VB load(1, XDATA, add(CFA_XSP16, literal(-8)))
          CFI V0 load(1, XDATA, add(CFA_XSP16, literal(-7)))
          CFI R7 load(1, XDATA, add(CFA_XSP16, literal(-6)))
          CFI ?RET_LOW load(1, XDATA, add(CFA_XSP16, literal(-5)))
          CFI ?RET_HIGH load(1, XDATA, add(CFA_XSP16, literal(-4)))
          CFI ?BRET_EXT load(1, XDATA, add(CFA_XSP16, literal(-3)))
          CFI DPL0 load(1, XDATA, add(CFA_XSP16, literal(-2)))
          CFI DPH0 load(1, XDATA, add(CFA_XSP16, literal(-1)))
          CFI CFA_SP SP+-2
          CFI CFA_XSP16 add(XSP16, 9)
          CFI Block cfiCond39 Using cfiCommon0
          CFI (cfiCond39) Function MT_AfExec
          CFI (cfiCond39) Conditional ??CrossCallReturnLabel_80
          CFI (cfiCond39) R6 load(1, XDATA, add(CFA_XSP16, literal(-9)))
          CFI (cfiCond39) VB load(1, XDATA, add(CFA_XSP16, literal(-8)))
          CFI (cfiCond39) V0 load(1, XDATA, add(CFA_XSP16, literal(-7)))
          CFI (cfiCond39) R7 load(1, XDATA, add(CFA_XSP16, literal(-6)))
          CFI (cfiCond39) ?RET_LOW load(1, XDATA, add(CFA_XSP16, literal(-5)))
          CFI (cfiCond39) ?RET_HIGH load(1, XDATA, add(CFA_XSP16, literal(-4)))
          CFI (cfiCond39) ?BRET_EXT load(1, XDATA, add(CFA_XSP16, literal(-3)))
          CFI (cfiCond39) DPL0 load(1, XDATA, add(CFA_XSP16, literal(-2)))
          CFI (cfiCond39) DPH0 load(1, XDATA, add(CFA_XSP16, literal(-1)))
          CFI (cfiCond39) CFA_SP SP+-2
          CFI (cfiCond39) CFA_XSP16 add(XSP16, 9)
          CFI Block cfiCond40 Using cfiCommon0
          CFI (cfiCond40) Function MT_AfExec
          CFI (cfiCond40) Conditional ??CrossCallReturnLabel_81
          CFI (cfiCond40) R6 load(1, XDATA, add(CFA_XSP16, literal(-9)))
          CFI (cfiCond40) VB load(1, XDATA, add(CFA_XSP16, literal(-8)))
          CFI (cfiCond40) V0 load(1, XDATA, add(CFA_XSP16, literal(-7)))
          CFI (cfiCond40) R7 load(1, XDATA, add(CFA_XSP16, literal(-6)))
          CFI (cfiCond40) ?RET_LOW load(1, XDATA, add(CFA_XSP16, literal(-5)))
          CFI (cfiCond40) ?RET_HIGH load(1, XDATA, add(CFA_XSP16, literal(-4)))
          CFI (cfiCond40) ?BRET_EXT load(1, XDATA, add(CFA_XSP16, literal(-3)))
          CFI (cfiCond40) DPL0 load(1, XDATA, add(CFA_XSP16, literal(-2)))
          CFI (cfiCond40) DPH0 load(1, XDATA, add(CFA_XSP16, literal(-1)))
          CFI (cfiCond40) CFA_SP SP+-2
          CFI (cfiCond40) CFA_XSP16 add(XSP16, 9)
          CFI Block cfiCond41 Using cfiCommon0
          CFI (cfiCond41) Function MT_AfDataRequest
          CFI (cfiCond41) Conditional ??CrossCallReturnLabel_82
          CFI (cfiCond41) R6 load(1, XDATA, add(CFA_XSP16, literal(-21)))
          CFI (cfiCond41) VB load(1, XDATA, add(CFA_XSP16, literal(-20)))
          CFI (cfiCond41) V0 load(1, XDATA, add(CFA_XSP16, literal(-19)))
          CFI (cfiCond41) V1 load(1, XDATA, add(CFA_XSP16, literal(-18)))
          CFI (cfiCond41) V2 load(1, XDATA, add(CFA_XSP16, literal(-17)))
          CFI (cfiCond41) V3 load(1, XDATA, add(CFA_XSP16, literal(-16)))
          CFI (cfiCond41) V4 load(1, XDATA, add(CFA_XSP16, literal(-15)))
          CFI (cfiCond41) V5 load(1, XDATA, add(CFA_XSP16, literal(-14)))
          CFI (cfiCond41) V6 load(1, XDATA, add(CFA_XSP16, literal(-13)))
          CFI (cfiCond41) V7 load(1, XDATA, add(CFA_XSP16, literal(-12)))
          CFI (cfiCond41) V8 load(1, XDATA, add(CFA_XSP16, literal(-11)))
          CFI (cfiCond41) V9 load(1, XDATA, add(CFA_XSP16, literal(-10)))
          CFI (cfiCond41) V10 load(1, XDATA, add(CFA_XSP16, literal(-9)))
          CFI (cfiCond41) V11 load(1, XDATA, add(CFA_XSP16, literal(-8)))
          CFI (cfiCond41) V12 load(1, XDATA, add(CFA_XSP16, literal(-7)))
          CFI (cfiCond41) R7 load(1, XDATA, add(CFA_XSP16, literal(-6)))
          CFI (cfiCond41) ?RET_LOW load(1, XDATA, add(CFA_XSP16, literal(-5)))
          CFI (cfiCond41) ?RET_HIGH load(1, XDATA, add(CFA_XSP16, literal(-4)))
          CFI (cfiCond41) ?BRET_EXT load(1, XDATA, add(CFA_XSP16, literal(-3)))
          CFI (cfiCond41) DPL0 load(1, XDATA, add(CFA_XSP16, literal(-2)))
          CFI (cfiCond41) DPH0 load(1, XDATA, add(CFA_XSP16, literal(-1)))
          CFI (cfiCond41) CFA_SP SP+-2
          CFI (cfiCond41) CFA_XSP16 add(XSP16, 35)
          CFI Block cfiCond42 Using cfiCommon0
          CFI (cfiCond42) Function MT_AfDataRequest
          CFI (cfiCond42) Conditional ??CrossCallReturnLabel_83
          CFI (cfiCond42) R6 load(1, XDATA, add(CFA_XSP16, literal(-21)))
          CFI (cfiCond42) VB load(1, XDATA, add(CFA_XSP16, literal(-20)))
          CFI (cfiCond42) V0 load(1, XDATA, add(CFA_XSP16, literal(-19)))
          CFI (cfiCond42) V1 load(1, XDATA, add(CFA_XSP16, literal(-18)))
          CFI (cfiCond42) V2 load(1, XDATA, add(CFA_XSP16, literal(-17)))
          CFI (cfiCond42) V3 load(1, XDATA, add(CFA_XSP16, literal(-16)))
          CFI (cfiCond42) V4 load(1, XDATA, add(CFA_XSP16, literal(-15)))
          CFI (cfiCond42) V5 load(1, XDATA, add(CFA_XSP16, literal(-14)))
          CFI (cfiCond42) V6 load(1, XDATA, add(CFA_XSP16, literal(-13)))
          CFI (cfiCond42) V7 load(1, XDATA, add(CFA_XSP16, literal(-12)))
          CFI (cfiCond42) V8 load(1, XDATA, add(CFA_XSP16, literal(-11)))
          CFI (cfiCond42) V9 load(1, XDATA, add(CFA_XSP16, literal(-10)))
          CFI (cfiCond42) V10 load(1, XDATA, add(CFA_XSP16, literal(-9)))
          CFI (cfiCond42) V11 load(1, XDATA, add(CFA_XSP16, literal(-8)))
          CFI (cfiCond42) V12 load(1, XDATA, add(CFA_XSP16, literal(-7)))
          CFI (cfiCond42) R7 load(1, XDATA, add(CFA_XSP16, literal(-6)))
          CFI (cfiCond42) ?RET_LOW load(1, XDATA, add(CFA_XSP16, literal(-5)))
          CFI (cfiCond42) ?RET_HIGH load(1, XDATA, add(CFA_XSP16, literal(-4)))
          CFI (cfiCond42) ?BRET_EXT load(1, XDATA, add(CFA_XSP16, literal(-3)))
          CFI (cfiCond42) DPL0 load(1, XDATA, add(CFA_XSP16, literal(-2)))
          CFI (cfiCond42) DPH0 load(1, XDATA, add(CFA_XSP16, literal(-1)))
          CFI (cfiCond42) CFA_SP SP+-2
          CFI (cfiCond42) CFA_XSP16 add(XSP16, 35)
          CFI Block cfiCond43 Using cfiCommon0
          CFI (cfiCond43) Function MT_AfDataStore
          CFI (cfiCond43) Conditional ??CrossCallReturnLabel_84
          CFI (cfiCond43) R6 load(1, XDATA, add(CFA_XSP16, literal(-16)))
          CFI (cfiCond43) VB load(1, XDATA, add(CFA_XSP16, literal(-15)))
          CFI (cfiCond43) V0 load(1, XDATA, add(CFA_XSP16, literal(-14)))
          CFI (cfiCond43) V1 load(1, XDATA, add(CFA_XSP16, literal(-13)))
          CFI (cfiCond43) V2 load(1, XDATA, add(CFA_XSP16, literal(-12)))
          CFI (cfiCond43) V3 load(1, XDATA, add(CFA_XSP16, literal(-11)))
          CFI (cfiCond43) V4 load(1, XDATA, add(CFA_XSP16, literal(-10)))
          CFI (cfiCond43) V5 load(1, XDATA, add(CFA_XSP16, literal(-9)))
          CFI (cfiCond43) V6 load(1, XDATA, add(CFA_XSP16, literal(-8)))
          CFI (cfiCond43) V7 load(1, XDATA, add(CFA_XSP16, literal(-7)))
          CFI (cfiCond43) R7 load(1, XDATA, add(CFA_XSP16, literal(-6)))
          CFI (cfiCond43) ?RET_LOW load(1, XDATA, add(CFA_XSP16, literal(-5)))
          CFI (cfiCond43) ?RET_HIGH load(1, XDATA, add(CFA_XSP16, literal(-4)))
          CFI (cfiCond43) ?BRET_EXT load(1, XDATA, add(CFA_XSP16, literal(-3)))
          CFI (cfiCond43) DPL0 load(1, XDATA, add(CFA_XSP16, literal(-2)))
          CFI (cfiCond43) DPH0 load(1, XDATA, add(CFA_XSP16, literal(-1)))
          CFI (cfiCond43) CFA_SP SP+-2
          CFI (cfiCond43) CFA_XSP16 add(XSP16, 17)
          CFI Block cfiPicker44 Using cfiCommon1
          CFI (cfiPicker44) NoFunction
          CFI (cfiPicker44) Picker
        LCALL     ??Subroutine44_0 & 0xFFFF
??CrossCallReturnLabel_96:
        MOV       A,R0
        ORL       A,R1
        RET
          CFI EndBlock cfiCond38
          CFI EndBlock cfiCond39
          CFI EndBlock cfiCond40
          CFI EndBlock cfiCond41
          CFI EndBlock cfiCond42
          CFI EndBlock cfiCond43
          CFI EndBlock cfiPicker44
//  457 
//  458 #if defined( ZIGBEEPRO )
//  459 /***************************************************************************************************
//  460  * @fn      MT_AfDataRequestSrcRtg
//  461  *
//  462  * @brief   Process AF Register command
//  463  *
//  464  * @param   pBuf - pointer to the received buffer
//  465  *
//  466  * @return  none
//  467  ***************************************************************************************************/

        RSEG BANKED_CODE:HUGECODE:NOROOT(0)
//  468 static void MT_AfDataRequestSrcRtg(uint8 *pBuf)
MT_AfDataRequestSrcRtg:
          CFI Block cfiBlock45 Using cfiCommon0
          CFI Function MT_AfDataRequestSrcRtg
        CODE
//  469 {
        FUNCALL MT_AfDataRequestSrcRtg, osal_memset
        LOCFRAME ISTACK, 0, STACK
        LOCFRAME PSTACK, 0, STACK
        LOCFRAME XSTACK, 34, STACK
        LOCFRAME IOVERLAY, 0, STATIC
        LOCFRAME DOVERLAY, 0, STATIC
        ARGFRAME ISTACK, 0, STACK
        ARGFRAME PSTACK, 0, STACK
        ARGFRAME XSTACK, 34, STACK
        ARGFRAME IOVERLAY, 0, STATIC
        ARGFRAME DOVERLAY, 0, STATIC
        FUNCALL MT_AfDataRequestSrcRtg, osal_build_uint16
        LOCFRAME ISTACK, 0, STACK
        LOCFRAME PSTACK, 0, STACK
        LOCFRAME XSTACK, 34, STACK
        LOCFRAME IOVERLAY, 0, STATIC
        LOCFRAME DOVERLAY, 0, STATIC
        ARGFRAME ISTACK, 0, STACK
        ARGFRAME PSTACK, 0, STACK
        ARGFRAME XSTACK, 34, STACK
        ARGFRAME IOVERLAY, 0, STATIC
        ARGFRAME DOVERLAY, 0, STATIC
        FUNCALL MT_AfDataRequestSrcRtg, afFindEndPointDesc
        LOCFRAME ISTACK, 0, STACK
        LOCFRAME PSTACK, 0, STACK
        LOCFRAME XSTACK, 34, STACK
        LOCFRAME IOVERLAY, 0, STATIC
        LOCFRAME DOVERLAY, 0, STATIC
        ARGFRAME ISTACK, 0, STACK
        ARGFRAME PSTACK, 0, STACK
        ARGFRAME XSTACK, 34, STACK
        ARGFRAME IOVERLAY, 0, STATIC
        ARGFRAME DOVERLAY, 0, STATIC
        FUNCALL MT_AfDataRequestSrcRtg, osal_build_uint16
        LOCFRAME ISTACK, 0, STACK
        LOCFRAME PSTACK, 0, STACK
        LOCFRAME XSTACK, 34, STACK
        LOCFRAME IOVERLAY, 0, STATIC
        LOCFRAME DOVERLAY, 0, STATIC
        ARGFRAME ISTACK, 0, STACK
        ARGFRAME PSTACK, 0, STACK
        ARGFRAME XSTACK, 34, STACK
        ARGFRAME IOVERLAY, 0, STATIC
        ARGFRAME DOVERLAY, 0, STATIC
        FUNCALL MT_AfDataRequestSrcRtg, osal_mem_alloc
        LOCFRAME ISTACK, 0, STACK
        LOCFRAME PSTACK, 0, STACK
        LOCFRAME XSTACK, 34, STACK
        LOCFRAME IOVERLAY, 0, STATIC
        LOCFRAME DOVERLAY, 0, STATIC
        ARGFRAME ISTACK, 0, STACK
        ARGFRAME PSTACK, 0, STACK
        ARGFRAME XSTACK, 34, STACK
        ARGFRAME IOVERLAY, 0, STATIC
        ARGFRAME DOVERLAY, 0, STATIC
        FUNCALL MT_AfDataRequestSrcRtg, osal_build_uint16
        LOCFRAME ISTACK, 0, STACK
        LOCFRAME PSTACK, 0, STACK
        LOCFRAME XSTACK, 34, STACK
        LOCFRAME IOVERLAY, 0, STATIC
        LOCFRAME DOVERLAY, 0, STATIC
        ARGFRAME ISTACK, 0, STACK
        ARGFRAME PSTACK, 0, STACK
        ARGFRAME XSTACK, 34, STACK
        ARGFRAME IOVERLAY, 0, STATIC
        ARGFRAME DOVERLAY, 0, STATIC
        FUNCALL MT_AfDataRequestSrcRtg, AF_DataRequestSrcRtg
        LOCFRAME ISTACK, 0, STACK
        LOCFRAME PSTACK, 0, STACK
        LOCFRAME XSTACK, 46, STACK
        LOCFRAME IOVERLAY, 0, STATIC
        LOCFRAME DOVERLAY, 0, STATIC
        ARGFRAME ISTACK, 0, STACK
        ARGFRAME PSTACK, 0, STACK
        ARGFRAME XSTACK, 46, STACK
        ARGFRAME IOVERLAY, 0, STATIC
        ARGFRAME DOVERLAY, 0, STATIC
        FUNCALL MT_AfDataRequestSrcRtg, osal_mem_free
        LOCFRAME ISTACK, 0, STACK
        LOCFRAME PSTACK, 0, STACK
        LOCFRAME XSTACK, 34, STACK
        LOCFRAME IOVERLAY, 0, STATIC
        LOCFRAME DOVERLAY, 0, STATIC
        ARGFRAME ISTACK, 0, STACK
        ARGFRAME PSTACK, 0, STACK
        ARGFRAME XSTACK, 34, STACK
        ARGFRAME IOVERLAY, 0, STATIC
        ARGFRAME DOVERLAY, 0, STATIC
        FUNCALL MT_AfDataRequestSrcRtg, MT_BuildAndSendZToolResponse
        LOCFRAME ISTACK, 0, STACK
        LOCFRAME PSTACK, 0, STACK
        LOCFRAME XSTACK, 34, STACK
        LOCFRAME IOVERLAY, 0, STATIC
        LOCFRAME DOVERLAY, 0, STATIC
        ARGFRAME ISTACK, 0, STACK
        ARGFRAME PSTACK, 0, STACK
        ARGFRAME XSTACK, 34, STACK
        ARGFRAME IOVERLAY, 0, STATIC
        ARGFRAME DOVERLAY, 0, STATIC
        REQUIRE ?V0
        REQUIRE ?V1
        REQUIRE ?V2
        REQUIRE ?V3
        REQUIRE ?V4
        REQUIRE ?V5
        REQUIRE ?V6
        REQUIRE ?V7
        REQUIRE ?V8
        REQUIRE ?V9
        REQUIRE ?V10
        REQUIRE ?V11
        MOV       A,#-0x14
        LCALL     ?BANKED_ENTER_XDATA
          CFI DPH0 load(1, XDATA, add(CFA_XSP16, literal(-1)))
          CFI DPL0 load(1, XDATA, add(CFA_XSP16, literal(-2)))
          CFI ?BRET_EXT load(1, XDATA, add(CFA_XSP16, literal(-3)))
          CFI ?RET_HIGH load(1, XDATA, add(CFA_XSP16, literal(-4)))
          CFI ?RET_LOW load(1, XDATA, add(CFA_XSP16, literal(-5)))
          CFI R7 load(1, XDATA, add(CFA_XSP16, literal(-6)))
          CFI V11 load(1, XDATA, add(CFA_XSP16, literal(-7)))
          CFI V10 load(1, XDATA, add(CFA_XSP16, literal(-8)))
          CFI V9 load(1, XDATA, add(CFA_XSP16, literal(-9)))
          CFI V8 load(1, XDATA, add(CFA_XSP16, literal(-10)))
          CFI V7 load(1, XDATA, add(CFA_XSP16, literal(-11)))
          CFI V6 load(1, XDATA, add(CFA_XSP16, literal(-12)))
          CFI V5 load(1, XDATA, add(CFA_XSP16, literal(-13)))
          CFI V4 load(1, XDATA, add(CFA_XSP16, literal(-14)))
          CFI V3 load(1, XDATA, add(CFA_XSP16, literal(-15)))
          CFI V2 load(1, XDATA, add(CFA_XSP16, literal(-16)))
          CFI V1 load(1, XDATA, add(CFA_XSP16, literal(-17)))
          CFI V0 load(1, XDATA, add(CFA_XSP16, literal(-18)))
          CFI VB load(1, XDATA, add(CFA_XSP16, literal(-19)))
          CFI R6 load(1, XDATA, add(CFA_XSP16, literal(-20)))
          CFI CFA_SP SP+0
          CFI CFA_XSP16 add(XSP16, 20)
        ; Saved register size: 20
        ; Auto size: 14
        MOV       A,#-0xe
        LCALL     ?ALLOC_XSTACK8
          CFI CFA_XSP16 add(XSP16, 34)
        MOV       A,R2
        MOV       R6,A
        MOV       A,R3
        MOV       R7,A
//  470   uint8 cmdId, dataLen = 0;
//  471   uint8 retValue = ZFailure;
        MOV       DPL,?XSP + 0
        MOV       DPH,?XSP + 1
        MOV       A,#0x1
        LCALL     ??Subroutine40_0 & 0xFFFF
//  472   endPointDesc_t *epDesc;
//  473   byte transId;
//  474   afAddrType_t dstAddr;
//  475   cId_t cId;
//  476   byte txOpts, radius, srcEP, relayCnt;
//  477   uint16 *pRelayList;
//  478   uint8 i;
//  479 
//  480   /* parse header */
//  481   cmdId = pBuf[MT_RPC_POS_CMD1];
??CrossCallReturnLabel_74:
        MOV       ?V6,A
//  482   pBuf += MT_RPC_FRAME_HDR_SZ;
        MOV       A,R6
        ADD       A,#0x3
        MOV       R6,A
        JNC       ??MT_AfDataRequestSrcRtg_0
        INC       R7
//  483 
//  484   /* Destination address */
//  485   /* Initialize the panID field to zero to avoid inter-pan */
//  486   osal_memset( &dstAddr, 0, sizeof(afAddrType_t) );
??MT_AfDataRequestSrcRtg_0:
        ; Setup parameters for call to function osal_memset
        MOV       R4,#0xc
        MOV       R5,#0x0
        MOV       R1,#0x0
        MOV       A,#0x2
        LCALL     ?XSTACK_DISP101_8
        LCALL     `??osal_memset::?relay`; Banked call to: osal_memset
//  487   dstAddr.addrMode = afAddr16Bit;
        MOV       A,#0xa
        LCALL     ?XSTACK_DISP0_8
        MOV       A,#0x2
        MOVX      @DPTR,A
//  488   dstAddr.addr.shortAddr = osal_build_uint16( pBuf );
        ; Setup parameters for call to function osal_build_uint16
        MOV       A,R6
        MOV       R2,A
        MOV       A,R7
        MOV       R3,A
        LCALL     `??osal_build_uint16::?relay`; Banked call to: osal_build_uint16
        MOV       A,#0x2
        LCALL     ?XSTACK_DISP0_8
        LCALL     ?Subroutine21 & 0xFFFF
//  489   pBuf += 2;
//  490 
//  491   /* Destination endpoint */
//  492   dstAddr.endPoint = *pBuf++;
??CrossCallReturnLabel_73:
        PUSH      A
          CFI CFA_SP SP+-1
        MOV       A,#0xb
        LCALL     ?XSTACK_DISP0_8
        POP       A
          CFI CFA_SP SP+0
        LCALL     ?Subroutine25 & 0xFFFF
//  493 
//  494   /* Source endpoint */
//  495   srcEP = *pBuf++;
??CrossCallReturnLabel_37:
        MOV       R1,A
        MOV       A,R6
        ADD       A,#0x4
        MOV       R6,A
        JNC       ??MT_AfDataRequestSrcRtg_1
        INC       R7
//  496   epDesc = afFindEndPointDesc( srcEP );
??MT_AfDataRequestSrcRtg_1:
        ; Setup parameters for call to function afFindEndPointDesc
        LCALL     `??afFindEndPointDesc::?relay`; Banked call to: afFindEndPointDesc
        MOV       ?V2,R2
        MOV       ?V3,R3
//  497 
//  498   /* ClusterId */
//  499   cId = osal_build_uint16( pBuf );
        ; Setup parameters for call to function osal_build_uint16
        MOV       A,R6
        MOV       R2,A
        MOV       A,R7
        MOV       R3,A
        LCALL     `??osal_build_uint16::?relay`; Banked call to: osal_build_uint16
        MOV       ?V4,R2
        MOV       ?V5,R3
//  500   pBuf +=2;
//  501 
//  502   /* TransId */
//  503   transId = *pBuf++;
        MOV       DPL,R6
        MOV       DPH,R7
        INC       DPTR
        INC       DPTR
        MOVX      A,@DPTR
        PUSH      A
          CFI CFA_SP SP+-1
        MOV       A,#0x1
        LCALL     ?XSTACK_DISP0_8
        POP       A
          CFI CFA_SP SP+0
        LCALL     ?Subroutine25 & 0xFFFF
//  504 
//  505   /* TxOption */
//  506   txOpts = *pBuf++;
??CrossCallReturnLabel_38:
        MOV       ?V7,A
//  507 
//  508   /* Radius */
//  509   radius = *pBuf++;
        MOV       DPL,R6
        MOV       DPH,R7
        INC       DPTR
        LCALL     ?Subroutine11 & 0xFFFF
//  510 
//  511   /* Source route relay count */
//  512   relayCnt = *pBuf++;
??CrossCallReturnLabel_17:
        INC       DPTR
        MOVX      A,@DPTR
        MOV       ?V9,A
        MOV       A,R6
        ADD       A,#0x6
        MOV       R6,A
        JNC       ??MT_AfDataRequestSrcRtg_2
        INC       R7
//  513 
//  514   /* Convert the source route relay list */
//  515   if( (pRelayList = osal_mem_alloc( relayCnt * sizeof( uint16 ))) != NULL )
??MT_AfDataRequestSrcRtg_2:
        ; Setup parameters for call to function osal_mem_alloc
        MOV       R2,?V9
        MOV       A,R2
        ADD       A,R2
        MOV       R2,A
        CLR       A
        RLC       A
        MOV       R3,A
        LCALL     `??osal_mem_alloc::?relay`; Banked call to: osal_mem_alloc
        MOV       ?V0,R2
        MOV       ?V1,R3
        MOV       A,R2
        ORL       A,?V1
        JNZ       $+5
        LJMP      ??MT_AfDataRequestSrcRtg_3 & 0xFFFF
//  516   {
//  517     for( i = 0; i < relayCnt; i++ )
        MOV       ?V10,#0x0
        SJMP      ??MT_AfDataRequestSrcRtg_4
//  518     {
//  519       pRelayList[i] = osal_build_uint16( pBuf );
??MT_AfDataRequestSrcRtg_5:
        ; Setup parameters for call to function osal_build_uint16
        MOV       A,R6
        MOV       R2,A
        MOV       A,R7
        MOV       R3,A
        LCALL     `??osal_build_uint16::?relay`; Banked call to: osal_build_uint16
        MOV       R0,?V10
        MOV       A,R0
        ADD       A,R0
        MOV       R0,A
        CLR       A
        RLC       A
        MOV       R1,A
        MOV       A,?V0
        ADD       A,R0
        MOV       DPL,A
        MOV       A,?V1
        ADDC      A,R1
        MOV       DPH,A
        LCALL     ?Subroutine27 & 0xFFFF
//  520       pBuf += 2;
//  521     }
??CrossCallReturnLabel_42:
        JNC       ??MT_AfDataRequestSrcRtg_6
        INC       R7
??MT_AfDataRequestSrcRtg_6:
        INC       ?V10
??MT_AfDataRequestSrcRtg_4:
        MOV       A,?V10
        CLR       C
        SUBB      A,?V9
        JC        ??MT_AfDataRequestSrcRtg_5
//  522 
//  523     /* Data payload Length */
//  524     dataLen = *pBuf++;
        MOV       DPL,R6
        MOV       DPH,R7
        MOVX      A,@DPTR
        MOV       R2,A
        INC       DPTR
        MOV       R6,DPL
        MOV       R7,DPH
//  525 
//  526     if ( epDesc == NULL )
        MOV       A,?V2
        ORL       A,?V3
        JNZ       ??MT_AfDataRequestSrcRtg_7
//  527     {
//  528       retValue = afStatus_INVALID_PARAMETER;
        MOV       DPL,?XSP + 0
        MOV       DPH,?XSP + 1
        MOV       A,#0x2
        SJMP      ??MT_AfDataRequestSrcRtg_8
//  529     }
//  530     else
//  531     {
//  532       retValue = AF_DataRequestSrcRtg( &dstAddr, epDesc, cId, dataLen, pBuf,
//  533                                      &transId, txOpts, radius, relayCnt, pRelayList );
??MT_AfDataRequestSrcRtg_7:
        ; Setup parameters for call to function AF_DataRequestSrcRtg
        MOV       R0,#?V0
        LCALL     ?PUSH_XSTACK_I_TWO
          CFI CFA_XSP16 add(XSP16, 36)
        MOV       R0,#?V9
        LCALL     ?PUSH_XSTACK_I_ONE
          CFI CFA_XSP16 add(XSP16, 37)
        MOV       R0,#?V8
        LCALL     ?PUSH_XSTACK_I_ONE
          CFI CFA_XSP16 add(XSP16, 38)
        MOV       A,#0x5
        LCALL     ?XSTACK_DISP100_8
        MOV       ?V8,R0
        MOV       ?V9,R1
        MOV       R0,#?V8
        LCALL     ?PUSH_XSTACK_I_TWO
          CFI CFA_XSP16 add(XSP16, 40)
        MOV       ?V8,R6
        MOV       ?V9,R7
        MOV       R0,#?V8
        LCALL     ?PUSH_XSTACK_I_TWO
          CFI CFA_XSP16 add(XSP16, 42)
        MOV       A,R2
        MOV       ?V8,A
        MOV       ?V9,#0x0
        MOV       R0,#?V8
        LCALL     ?PUSH_XSTACK_I_TWO
          CFI CFA_XSP16 add(XSP16, 44)
        MOV       R0,#?V4
        LCALL     ?PUSH_XSTACK_I_TWO
          CFI CFA_XSP16 add(XSP16, 46)
        MOV       R1,?V7
        MOV       R4,?V2
        MOV       R5,?V3
        MOV       A,#0xe
        LCALL     ?XSTACK_DISP101_8
        LCALL     `??AF_DataRequestSrcRtg::?relay`; Banked call to: AF_DataRequestSrcRtg
        MOV       A,#0xc
        LCALL     ?DEALLOC_XSTACK8
          CFI CFA_XSP16 add(XSP16, 34)
        MOV       A,R1
        MOV       DPL,?XSP + 0
        MOV       DPH,?XSP + 1
??MT_AfDataRequestSrcRtg_8:
        MOVX      @DPTR,A
//  534     }
//  535 
//  536     /* Free the memory allocated */
//  537     osal_mem_free( pRelayList );
        ; Setup parameters for call to function osal_mem_free
        MOV       R2,?V0
        MOV       R3,?V1
        LCALL     `??osal_mem_free::?relay`; Banked call to: osal_mem_free
        SJMP      ??MT_AfDataRequestSrcRtg_9
//  538   }
//  539   else
//  540   {
//  541     retValue = afStatus_MEM_FAIL;
??MT_AfDataRequestSrcRtg_3:
        MOV       DPL,?XSP + 0
        MOV       DPH,?XSP + 1
        MOV       A,#0x10
        MOVX      @DPTR,A
//  542   }
//  543 
//  544 
//  545   /* Build and send back the response */
//  546   MT_BuildAndSendZToolResponse(((uint8)MT_RPC_CMD_SRSP | (uint8)MT_RPC_SYS_AF), cmdId, 1, &retValue);
??MT_AfDataRequestSrcRtg_9:
        ; Setup parameters for call to function MT_BuildAndSendZToolResponse
        MOV       R4,?XSP + 0
        MOV       R5,?XSP + 1
        MOV       R3,#0x1
        MOV       R2,?V6
        MOV       R1,#0x64
        LCALL     `??MT_BuildAndSendZToolResponse::?relay`; Banked call to: MT_BuildAndSendZToolResponse
//  547 }
        MOV       A,#0xe
        LCALL     ?DEALLOC_XSTACK8
          CFI CFA_XSP16 add(XSP16, 20)
        MOV       R7,#0xc
        LJMP      ?BANKED_LEAVE_XDATA
          CFI EndBlock cfiBlock45

        RSEG BANKED_CODE:HUGECODE:NOROOT(0)
?Subroutine27:
          CFI Block cfiCond46 Using cfiCommon0
          CFI Function MT_AfDataRequest
          CFI Conditional ??CrossCallReturnLabel_41
          CFI R6 load(1, XDATA, add(CFA_XSP16, literal(-21)))
          CFI VB load(1, XDATA, add(CFA_XSP16, literal(-20)))
          CFI V0 load(1, XDATA, add(CFA_XSP16, literal(-19)))
          CFI V1 load(1, XDATA, add(CFA_XSP16, literal(-18)))
          CFI V2 load(1, XDATA, add(CFA_XSP16, literal(-17)))
          CFI V3 load(1, XDATA, add(CFA_XSP16, literal(-16)))
          CFI V4 load(1, XDATA, add(CFA_XSP16, literal(-15)))
          CFI V5 load(1, XDATA, add(CFA_XSP16, literal(-14)))
          CFI V6 load(1, XDATA, add(CFA_XSP16, literal(-13)))
          CFI V7 load(1, XDATA, add(CFA_XSP16, literal(-12)))
          CFI V8 load(1, XDATA, add(CFA_XSP16, literal(-11)))
          CFI V9 load(1, XDATA, add(CFA_XSP16, literal(-10)))
          CFI V10 load(1, XDATA, add(CFA_XSP16, literal(-9)))
          CFI V11 load(1, XDATA, add(CFA_XSP16, literal(-8)))
          CFI V12 load(1, XDATA, add(CFA_XSP16, literal(-7)))
          CFI R7 load(1, XDATA, add(CFA_XSP16, literal(-6)))
          CFI ?RET_LOW load(1, XDATA, add(CFA_XSP16, literal(-5)))
          CFI ?RET_HIGH load(1, XDATA, add(CFA_XSP16, literal(-4)))
          CFI ?BRET_EXT load(1, XDATA, add(CFA_XSP16, literal(-3)))
          CFI DPL0 load(1, XDATA, add(CFA_XSP16, literal(-2)))
          CFI DPH0 load(1, XDATA, add(CFA_XSP16, literal(-1)))
          CFI CFA_SP SP+-2
          CFI CFA_XSP16 add(XSP16, 35)
          CFI Block cfiCond47 Using cfiCommon0
          CFI (cfiCond47) Function MT_AfDataRequestSrcRtg
          CFI (cfiCond47) Conditional ??CrossCallReturnLabel_42
          CFI (cfiCond47) R6 load(1, XDATA, add(CFA_XSP16, literal(-20)))
          CFI (cfiCond47) VB load(1, XDATA, add(CFA_XSP16, literal(-19)))
          CFI (cfiCond47) V0 load(1, XDATA, add(CFA_XSP16, literal(-18)))
          CFI (cfiCond47) V1 load(1, XDATA, add(CFA_XSP16, literal(-17)))
          CFI (cfiCond47) V2 load(1, XDATA, add(CFA_XSP16, literal(-16)))
          CFI (cfiCond47) V3 load(1, XDATA, add(CFA_XSP16, literal(-15)))
          CFI (cfiCond47) V4 load(1, XDATA, add(CFA_XSP16, literal(-14)))
          CFI (cfiCond47) V5 load(1, XDATA, add(CFA_XSP16, literal(-13)))
          CFI (cfiCond47) V6 load(1, XDATA, add(CFA_XSP16, literal(-12)))
          CFI (cfiCond47) V7 load(1, XDATA, add(CFA_XSP16, literal(-11)))
          CFI (cfiCond47) V8 load(1, XDATA, add(CFA_XSP16, literal(-10)))
          CFI (cfiCond47) V9 load(1, XDATA, add(CFA_XSP16, literal(-9)))
          CFI (cfiCond47) V10 load(1, XDATA, add(CFA_XSP16, literal(-8)))
          CFI (cfiCond47) V11 load(1, XDATA, add(CFA_XSP16, literal(-7)))
          CFI (cfiCond47) R7 load(1, XDATA, add(CFA_XSP16, literal(-6)))
          CFI (cfiCond47) ?RET_LOW load(1, XDATA, add(CFA_XSP16, literal(-5)))
          CFI (cfiCond47) ?RET_HIGH load(1, XDATA, add(CFA_XSP16, literal(-4)))
          CFI (cfiCond47) ?BRET_EXT load(1, XDATA, add(CFA_XSP16, literal(-3)))
          CFI (cfiCond47) DPL0 load(1, XDATA, add(CFA_XSP16, literal(-2)))
          CFI (cfiCond47) DPH0 load(1, XDATA, add(CFA_XSP16, literal(-1)))
          CFI (cfiCond47) CFA_SP SP+-2
          CFI (cfiCond47) CFA_XSP16 add(XSP16, 34)
          CFI Block cfiPicker48 Using cfiCommon1
          CFI (cfiPicker48) NoFunction
          CFI (cfiPicker48) Picker
        MOV       A,R2
        MOVX      @DPTR,A
        INC       DPTR
        MOV       A,R3
        MOVX      @DPTR,A
        MOV       A,R6
        ADD       A,#0x2
        MOV       R6,A
        RET
          CFI EndBlock cfiCond46
          CFI EndBlock cfiCond47
          CFI EndBlock cfiPicker48

        RSEG BANKED_CODE:HUGECODE:NOROOT(0)
?Subroutine25:
          CFI Block cfiCond49 Using cfiCommon0
          CFI Function MT_AfDataRequestSrcRtg
          CFI Conditional ??CrossCallReturnLabel_37
          CFI R6 load(1, XDATA, add(CFA_XSP16, literal(-20)))
          CFI VB load(1, XDATA, add(CFA_XSP16, literal(-19)))
          CFI V0 load(1, XDATA, add(CFA_XSP16, literal(-18)))
          CFI V1 load(1, XDATA, add(CFA_XSP16, literal(-17)))
          CFI V2 load(1, XDATA, add(CFA_XSP16, literal(-16)))
          CFI V3 load(1, XDATA, add(CFA_XSP16, literal(-15)))
          CFI V4 load(1, XDATA, add(CFA_XSP16, literal(-14)))
          CFI V5 load(1, XDATA, add(CFA_XSP16, literal(-13)))
          CFI V6 load(1, XDATA, add(CFA_XSP16, literal(-12)))
          CFI V7 load(1, XDATA, add(CFA_XSP16, literal(-11)))
          CFI V8 load(1, XDATA, add(CFA_XSP16, literal(-10)))
          CFI V9 load(1, XDATA, add(CFA_XSP16, literal(-9)))
          CFI V10 load(1, XDATA, add(CFA_XSP16, literal(-8)))
          CFI V11 load(1, XDATA, add(CFA_XSP16, literal(-7)))
          CFI R7 load(1, XDATA, add(CFA_XSP16, literal(-6)))
          CFI ?RET_LOW load(1, XDATA, add(CFA_XSP16, literal(-5)))
          CFI ?RET_HIGH load(1, XDATA, add(CFA_XSP16, literal(-4)))
          CFI ?BRET_EXT load(1, XDATA, add(CFA_XSP16, literal(-3)))
          CFI DPL0 load(1, XDATA, add(CFA_XSP16, literal(-2)))
          CFI DPH0 load(1, XDATA, add(CFA_XSP16, literal(-1)))
          CFI CFA_SP SP+-2
          CFI CFA_XSP16 add(XSP16, 34)
          CFI Block cfiCond50 Using cfiCommon0
          CFI (cfiCond50) Function MT_AfDataRequestSrcRtg
          CFI (cfiCond50) Conditional ??CrossCallReturnLabel_38
          CFI (cfiCond50) R6 load(1, XDATA, add(CFA_XSP16, literal(-20)))
          CFI (cfiCond50) VB load(1, XDATA, add(CFA_XSP16, literal(-19)))
          CFI (cfiCond50) V0 load(1, XDATA, add(CFA_XSP16, literal(-18)))
          CFI (cfiCond50) V1 load(1, XDATA, add(CFA_XSP16, literal(-17)))
          CFI (cfiCond50) V2 load(1, XDATA, add(CFA_XSP16, literal(-16)))
          CFI (cfiCond50) V3 load(1, XDATA, add(CFA_XSP16, literal(-15)))
          CFI (cfiCond50) V4 load(1, XDATA, add(CFA_XSP16, literal(-14)))
          CFI (cfiCond50) V5 load(1, XDATA, add(CFA_XSP16, literal(-13)))
          CFI (cfiCond50) V6 load(1, XDATA, add(CFA_XSP16, literal(-12)))
          CFI (cfiCond50) V7 load(1, XDATA, add(CFA_XSP16, literal(-11)))
          CFI (cfiCond50) V8 load(1, XDATA, add(CFA_XSP16, literal(-10)))
          CFI (cfiCond50) V9 load(1, XDATA, add(CFA_XSP16, literal(-9)))
          CFI (cfiCond50) V10 load(1, XDATA, add(CFA_XSP16, literal(-8)))
          CFI (cfiCond50) V11 load(1, XDATA, add(CFA_XSP16, literal(-7)))
          CFI (cfiCond50) R7 load(1, XDATA, add(CFA_XSP16, literal(-6)))
          CFI (cfiCond50) ?RET_LOW load(1, XDATA, add(CFA_XSP16, literal(-5)))
          CFI (cfiCond50) ?RET_HIGH load(1, XDATA, add(CFA_XSP16, literal(-4)))
          CFI (cfiCond50) ?BRET_EXT load(1, XDATA, add(CFA_XSP16, literal(-3)))
          CFI (cfiCond50) DPL0 load(1, XDATA, add(CFA_XSP16, literal(-2)))
          CFI (cfiCond50) DPH0 load(1, XDATA, add(CFA_XSP16, literal(-1)))
          CFI (cfiCond50) CFA_SP SP+-2
          CFI (cfiCond50) CFA_XSP16 add(XSP16, 34)
          CFI Block cfiPicker51 Using cfiCommon1
          CFI (cfiPicker51) NoFunction
          CFI (cfiPicker51) Picker
        LCALL     ?Subroutine33 & 0xFFFF
??CrossCallReturnLabel_77:
        INC       DPTR
        INC       DPTR
        MOVX      A,@DPTR
        RET
          CFI EndBlock cfiCond49
          CFI EndBlock cfiCond50
          CFI EndBlock cfiPicker51

        RSEG BANKED_CODE:HUGECODE:NOROOT(0)
?Subroutine11:
          CFI Block cfiCond52 Using cfiCommon0
          CFI Function MT_AfDataRequest
          CFI Conditional ??CrossCallReturnLabel_16
          CFI R6 load(1, XDATA, add(CFA_XSP16, literal(-21)))
          CFI VB load(1, XDATA, add(CFA_XSP16, literal(-20)))
          CFI V0 load(1, XDATA, add(CFA_XSP16, literal(-19)))
          CFI V1 load(1, XDATA, add(CFA_XSP16, literal(-18)))
          CFI V2 load(1, XDATA, add(CFA_XSP16, literal(-17)))
          CFI V3 load(1, XDATA, add(CFA_XSP16, literal(-16)))
          CFI V4 load(1, XDATA, add(CFA_XSP16, literal(-15)))
          CFI V5 load(1, XDATA, add(CFA_XSP16, literal(-14)))
          CFI V6 load(1, XDATA, add(CFA_XSP16, literal(-13)))
          CFI V7 load(1, XDATA, add(CFA_XSP16, literal(-12)))
          CFI V8 load(1, XDATA, add(CFA_XSP16, literal(-11)))
          CFI V9 load(1, XDATA, add(CFA_XSP16, literal(-10)))
          CFI V10 load(1, XDATA, add(CFA_XSP16, literal(-9)))
          CFI V11 load(1, XDATA, add(CFA_XSP16, literal(-8)))
          CFI V12 load(1, XDATA, add(CFA_XSP16, literal(-7)))
          CFI R7 load(1, XDATA, add(CFA_XSP16, literal(-6)))
          CFI ?RET_LOW load(1, XDATA, add(CFA_XSP16, literal(-5)))
          CFI ?RET_HIGH load(1, XDATA, add(CFA_XSP16, literal(-4)))
          CFI ?BRET_EXT load(1, XDATA, add(CFA_XSP16, literal(-3)))
          CFI DPL0 load(1, XDATA, add(CFA_XSP16, literal(-2)))
          CFI DPH0 load(1, XDATA, add(CFA_XSP16, literal(-1)))
          CFI CFA_SP SP+-2
          CFI CFA_XSP16 add(XSP16, 35)
          CFI Block cfiCond53 Using cfiCommon0
          CFI (cfiCond53) Function MT_AfDataRequestSrcRtg
          CFI (cfiCond53) Conditional ??CrossCallReturnLabel_17
          CFI (cfiCond53) R6 load(1, XDATA, add(CFA_XSP16, literal(-20)))
          CFI (cfiCond53) VB load(1, XDATA, add(CFA_XSP16, literal(-19)))
          CFI (cfiCond53) V0 load(1, XDATA, add(CFA_XSP16, literal(-18)))
          CFI (cfiCond53) V1 load(1, XDATA, add(CFA_XSP16, literal(-17)))
          CFI (cfiCond53) V2 load(1, XDATA, add(CFA_XSP16, literal(-16)))
          CFI (cfiCond53) V3 load(1, XDATA, add(CFA_XSP16, literal(-15)))
          CFI (cfiCond53) V4 load(1, XDATA, add(CFA_XSP16, literal(-14)))
          CFI (cfiCond53) V5 load(1, XDATA, add(CFA_XSP16, literal(-13)))
          CFI (cfiCond53) V6 load(1, XDATA, add(CFA_XSP16, literal(-12)))
          CFI (cfiCond53) V7 load(1, XDATA, add(CFA_XSP16, literal(-11)))
          CFI (cfiCond53) V8 load(1, XDATA, add(CFA_XSP16, literal(-10)))
          CFI (cfiCond53) V9 load(1, XDATA, add(CFA_XSP16, literal(-9)))
          CFI (cfiCond53) V10 load(1, XDATA, add(CFA_XSP16, literal(-8)))
          CFI (cfiCond53) V11 load(1, XDATA, add(CFA_XSP16, literal(-7)))
          CFI (cfiCond53) R7 load(1, XDATA, add(CFA_XSP16, literal(-6)))
          CFI (cfiCond53) ?RET_LOW load(1, XDATA, add(CFA_XSP16, literal(-5)))
          CFI (cfiCond53) ?RET_HIGH load(1, XDATA, add(CFA_XSP16, literal(-4)))
          CFI (cfiCond53) ?BRET_EXT load(1, XDATA, add(CFA_XSP16, literal(-3)))
          CFI (cfiCond53) DPL0 load(1, XDATA, add(CFA_XSP16, literal(-2)))
          CFI (cfiCond53) DPH0 load(1, XDATA, add(CFA_XSP16, literal(-1)))
          CFI (cfiCond53) CFA_SP SP+-2
          CFI (cfiCond53) CFA_XSP16 add(XSP16, 34)
          CFI Block cfiPicker54 Using cfiCommon1
          CFI (cfiPicker54) NoFunction
          CFI (cfiPicker54) Picker
        INC       DPTR
        INC       DPTR
        INC       DPTR
        MOVX      A,@DPTR
        MOV       ?V8,A
        MOV       DPL,R6
        MOV       DPH,R7
        INC       DPTR
        INC       DPTR
        INC       DPTR
        INC       DPTR
        RET
          CFI EndBlock cfiCond52
          CFI EndBlock cfiCond53
          CFI EndBlock cfiPicker54
//  548 #endif
//  549 
//  550 #if defined INTER_PAN
//  551 /***************************************************************************************************
//  552  * @fn      MT_AfInterPanCtl
//  553  *
//  554  * @brief   Process the AF Inter Pan control command.
//  555  *
//  556  * @param   pBuf - pointer to the received buffer
//  557  *
//  558  * @return  none
//  559  ***************************************************************************************************/
//  560 static void MT_AfInterPanCtl(uint8 *pBuf)
//  561 {
//  562   uint8 cmd, rtrn;
//  563   uint16 panId;
//  564   endPointDesc_t *pEP;
//  565 
//  566   cmd = pBuf[MT_RPC_POS_CMD1];
//  567   pBuf += MT_RPC_FRAME_HDR_SZ;
//  568 
//  569   switch (*pBuf++)  // Inter-pan request parameter.
//  570   {
//  571   case InterPanClr:
//  572     rtrn = StubAPS_SetIntraPanChannel();           // Switch channel back to the NIB channel.
//  573     break;
//  574 
//  575   case InterPanSet:
//  576     rtrn = StubAPS_SetInterPanChannel(*pBuf);      // Set channel for inter-pan communication.
//  577     break;
//  578 
//  579   case InterPanReg:
//  580     if ((pEP = afFindEndPointDesc(*pBuf)))
//  581     {
//  582       StubAPS_RegisterApp(pEP);
//  583       rtrn = SUCCESS;
//  584     }
//  585     else
//  586     {
//  587       rtrn = FAILURE;
//  588     }
//  589     break;
//  590 
//  591   case InterPanChk:
//  592     panId = osal_build_uint16( pBuf );
//  593     rtrn = (StubAPS_InterPan(panId, pBuf[2])) ? ZSuccess : ZFailure;
//  594     break;
//  595 
//  596   default:
//  597     rtrn = afStatus_INVALID_PARAMETER;
//  598     break;
//  599   }
//  600 
//  601   MT_BuildAndSendZToolResponse(((uint8)MT_RPC_CMD_SRSP | (uint8)MT_RPC_SYS_AF), cmd, 1, &rtrn);
//  602 }
//  603 #endif
//  604 
//  605 /***************************************************************************************************
//  606  * @fn      MT_AfDataConfirm
//  607  *
//  608  * @brief   Process
//  609  *
//  610  * @param   pBuf - pointer to the received buffer
//  611  *
//  612  * @return  none
//  613  ***************************************************************************************************/

        RSEG BANKED_CODE:HUGECODE:NOROOT(0)
//  614 void MT_AfDataConfirm(afDataConfirm_t *pMsg)
MT_AfDataConfirm:
          CFI Block cfiBlock55 Using cfiCommon0
          CFI Function MT_AfDataConfirm
        CODE
//  615 {
        FUNCALL MT_AfDataConfirm, MT_BuildAndSendZToolResponse
        LOCFRAME ISTACK, 2, STACK
        LOCFRAME PSTACK, 0, STACK
        LOCFRAME XSTACK, 3, STACK
        LOCFRAME IOVERLAY, 0, STATIC
        LOCFRAME DOVERLAY, 0, STATIC
        ARGFRAME ISTACK, 2, STACK
        ARGFRAME PSTACK, 0, STACK
        ARGFRAME XSTACK, 3, STACK
        ARGFRAME IOVERLAY, 0, STATIC
        ARGFRAME DOVERLAY, 0, STATIC
        PUSH      DPL
          CFI DPL0 Frame(CFA_SP, 4)
          CFI CFA_SP SP+-4
        PUSH      DPH
          CFI DPH0 Frame(CFA_SP, 5)
          CFI CFA_SP SP+-5
        ; Saved register size: 2
        ; Auto size: 3
        MOV       A,#-0x3
        LCALL     ?ALLOC_XSTACK8
          CFI CFA_XSP16 add(XSP16, 3)
//  616   uint8 retArray[3];
//  617 
//  618   retArray[0] = pMsg->hdr.status;
        LCALL     ?Subroutine2 & 0xFFFF
//  619   retArray[1] = pMsg->endpoint;
??CrossCallReturnLabel_0:
        PUSH      A
          CFI CFA_SP SP+-6
        MOV       A,#0x1
        LCALL     ?XSTACK_DISP0_8
        POP       A
          CFI CFA_SP SP+-5
        LCALL     ?Subroutine26 & 0xFFFF
//  620   retArray[2] = pMsg->transID;
??CrossCallReturnLabel_39:
        PUSH      A
          CFI CFA_SP SP+-6
        MOV       A,#0x2
        LCALL     ?XSTACK_DISP0_8
        POP       A
          CFI CFA_SP SP+-5
        MOVX      @DPTR,A
//  621 
//  622   /* Build and send back the response */
//  623   MT_BuildAndSendZToolResponse(((uint8)MT_RPC_CMD_AREQ | (uint8)MT_RPC_SYS_AF), MT_AF_DATA_CONFIRM, 3, retArray);
        ; Setup parameters for call to function MT_BuildAndSendZToolResponse
        MOV       R4,?XSP + 0
        MOV       R5,?XSP + 1
        MOV       R3,#0x3
        MOV       R2,#-0x80
        MOV       R1,#0x44
        LCALL     `??MT_BuildAndSendZToolResponse::?relay`; Banked call to: MT_BuildAndSendZToolResponse
//  624 }
        MOV       A,#0x3
          CFI EndBlock cfiBlock55
        REQUIRE ?Subroutine0
        ; // Fall through to label ?Subroutine0

        RSEG BANKED_CODE:HUGECODE:NOROOT(0)
?Subroutine0:
          CFI Block cfiBlock56 Using cfiCommon0
          CFI NoFunction
          CFI CFA_SP SP+-5
          CFI CFA_XSP16 add(XSP16, 3)
          CFI DPL0 Frame(CFA_SP, 4)
          CFI DPH0 Frame(CFA_SP, 5)
          CFI Invalid
        LCALL     ?DEALLOC_XSTACK8
          CFI CFA_XSP16 XSP16+0
          CFI Valid
        POP       DPH
          CFI CFA_SP SP+-4
          CFI DPH0 SameValue
        POP       DPL
          CFI CFA_SP SP+-3
          CFI DPL0 SameValue
        LJMP      ?BRET
          CFI EndBlock cfiBlock56
//  625 
//  626 /***************************************************************************************************
//  627  * @fn      MT_AfReflectError
//  628  *
//  629  * @brief   Process
//  630  *
//  631  * @param   pBuf - pointer to the received buffer
//  632  *
//  633  * @return  none
//  634  ***************************************************************************************************/

        RSEG BANKED_CODE:HUGECODE:NOROOT(0)
//  635 void MT_AfReflectError(afReflectError_t *pMsg)
MT_AfReflectError:
          CFI Block cfiBlock57 Using cfiCommon0
          CFI Function MT_AfReflectError
        CODE
//  636 {
        FUNCALL MT_AfReflectError, MT_BuildAndSendZToolResponse
        LOCFRAME ISTACK, 2, STACK
        LOCFRAME PSTACK, 0, STACK
        LOCFRAME XSTACK, 6, STACK
        LOCFRAME IOVERLAY, 0, STATIC
        LOCFRAME DOVERLAY, 0, STATIC
        ARGFRAME ISTACK, 2, STACK
        ARGFRAME PSTACK, 0, STACK
        ARGFRAME XSTACK, 6, STACK
        ARGFRAME IOVERLAY, 0, STATIC
        ARGFRAME DOVERLAY, 0, STATIC
        PUSH      DPL
          CFI DPL0 Frame(CFA_SP, 4)
          CFI CFA_SP SP+-4
        PUSH      DPH
          CFI DPH0 Frame(CFA_SP, 5)
          CFI CFA_SP SP+-5
        ; Saved register size: 2
        ; Auto size: 6
        MOV       A,#-0x6
        LCALL     ?ALLOC_XSTACK8
          CFI CFA_XSP16 add(XSP16, 6)
//  637   uint8 retArray[6];
//  638 
//  639   retArray[0] = pMsg->hdr.status;
        LCALL     ?Subroutine2 & 0xFFFF
//  640   retArray[1] = pMsg->endpoint;
??CrossCallReturnLabel_1:
        PUSH      A
          CFI CFA_SP SP+-6
        MOV       A,#0x1
        LCALL     ?XSTACK_DISP0_8
        POP       A
          CFI CFA_SP SP+-5
        LCALL     ?Subroutine26 & 0xFFFF
//  641   retArray[2] = pMsg->transID;
??CrossCallReturnLabel_40:
        PUSH      A
          CFI CFA_SP SP+-6
        MOV       A,#0x2
        LCALL     ?XSTACK_DISP0_8
        POP       A
          CFI CFA_SP SP+-5
        LCALL     ?Subroutine24 & 0xFFFF
//  642   retArray[3] = pMsg->dstAddrMode;
??CrossCallReturnLabel_36:
        MOVX      A,@DPTR
        PUSH      A
          CFI CFA_SP SP+-6
        MOV       A,#0x3
        LCALL     ?XSTACK_DISP0_8
        POP       A
          CFI CFA_SP SP+-5
        MOVX      @DPTR,A
//  643   retArray[4] = LO_UINT16( pMsg->dstAddr );
        MOV       A,R2
        ADD       A,#0x5
        MOV       R0,A
        CLR       A
        ADDC      A,R3
        MOV       R1,A
        MOV       DPL,R0
        MOV       DPH,R1
        MOVX      A,@DPTR
        PUSH      A
          CFI CFA_SP SP+-6
        MOV       A,#0x4
        LCALL     ?XSTACK_DISP0_8
        POP       A
          CFI CFA_SP SP+-5
        LCALL     ??Subroutine42_0 & 0xFFFF
//  644   retArray[5] = HI_UINT16( pMsg->dstAddr );
??CrossCallReturnLabel_87:
        INC       DPTR
        MOVX      A,@DPTR
        PUSH      A
          CFI CFA_SP SP+-6
        MOV       A,#0x5
        LCALL     ?XSTACK_DISP0_8
        POP       A
          CFI CFA_SP SP+-5
        MOVX      @DPTR,A
//  645 
//  646   /* Build and send back the response */
//  647   MT_BuildAndSendZToolResponse(((uint8)MT_RPC_CMD_AREQ | (uint8)MT_RPC_SYS_AF), MT_AF_REFLECT_ERROR, 6, retArray);
        ; Setup parameters for call to function MT_BuildAndSendZToolResponse
        MOV       R4,?XSP + 0
        MOV       R5,?XSP + 1
        MOV       R3,#0x6
        MOV       R2,#-0x7d
        MOV       R1,#0x44
        LCALL     `??MT_BuildAndSendZToolResponse::?relay`; Banked call to: MT_BuildAndSendZToolResponse
//  648 }
        MOV       A,#0x6
        SJMP      ?Subroutine0
          CFI EndBlock cfiBlock57

        RSEG BANKED_CODE:HUGECODE:NOROOT(0)
?Subroutine26:
          CFI Block cfiCond58 Using cfiCommon0
          CFI Function MT_AfDataConfirm
          CFI Conditional ??CrossCallReturnLabel_39
          CFI DPL0 Frame(CFA_SP, 4)
          CFI DPH0 Frame(CFA_SP, 5)
          CFI CFA_SP SP+-7
          CFI CFA_XSP16 add(XSP16, 3)
          CFI Block cfiCond59 Using cfiCommon0
          CFI (cfiCond59) Function MT_AfReflectError
          CFI (cfiCond59) Conditional ??CrossCallReturnLabel_40
          CFI (cfiCond59) DPL0 Frame(CFA_SP, 4)
          CFI (cfiCond59) DPH0 Frame(CFA_SP, 5)
          CFI (cfiCond59) CFA_SP SP+-7
          CFI (cfiCond59) CFA_XSP16 add(XSP16, 6)
          CFI Block cfiPicker60 Using cfiCommon1
          CFI (cfiPicker60) NoFunction
          CFI (cfiPicker60) Picker
        LCALL     ?Subroutine35 & 0xFFFF
??CrossCallReturnLabel_57:
        MOVX      A,@DPTR
        RET
          CFI EndBlock cfiCond58
          CFI EndBlock cfiCond59
          CFI EndBlock cfiPicker60

        RSEG BANKED_CODE:HUGECODE:NOROOT(0)
?Subroutine24:
          CFI Block cfiCond61 Using cfiCommon0
          CFI Function MT_AfCommandProcessing
          CFI Conditional ??CrossCallReturnLabel_35
          CFI R6 load(1, XDATA, add(CFA_XSP16, literal(-14)))
          CFI VB load(1, XDATA, add(CFA_XSP16, literal(-13)))
          CFI V0 load(1, XDATA, add(CFA_XSP16, literal(-12)))
          CFI V1 load(1, XDATA, add(CFA_XSP16, literal(-11)))
          CFI V2 load(1, XDATA, add(CFA_XSP16, literal(-10)))
          CFI V3 load(1, XDATA, add(CFA_XSP16, literal(-9)))
          CFI V4 load(1, XDATA, add(CFA_XSP16, literal(-8)))
          CFI V5 load(1, XDATA, add(CFA_XSP16, literal(-7)))
          CFI R7 load(1, XDATA, add(CFA_XSP16, literal(-6)))
          CFI ?RET_LOW load(1, XDATA, add(CFA_XSP16, literal(-5)))
          CFI ?RET_HIGH load(1, XDATA, add(CFA_XSP16, literal(-4)))
          CFI ?BRET_EXT load(1, XDATA, add(CFA_XSP16, literal(-3)))
          CFI DPL0 load(1, XDATA, add(CFA_XSP16, literal(-2)))
          CFI DPH0 load(1, XDATA, add(CFA_XSP16, literal(-1)))
          CFI CFA_SP SP+-2
          CFI CFA_XSP16 add(XSP16, 19)
          CFI Block cfiCond62 Using cfiCommon0
          CFI (cfiCond62) Function MT_AfReflectError
          CFI (cfiCond62) Conditional ??CrossCallReturnLabel_36
          CFI (cfiCond62) DPL0 Frame(CFA_SP, 4)
          CFI (cfiCond62) DPH0 Frame(CFA_SP, 5)
          CFI (cfiCond62) CFA_SP SP+-7
          CFI (cfiCond62) CFA_XSP16 add(XSP16, 6)
          CFI Block cfiPicker63 Using cfiCommon1
          CFI (cfiPicker63) NoFunction
          CFI (cfiPicker63) Picker
        LCALL     ?Subroutine35 & 0xFFFF
??CrossCallReturnLabel_58:
        INC       DPTR
        RET
          CFI EndBlock cfiCond61
          CFI EndBlock cfiCond62
          CFI EndBlock cfiPicker63

        RSEG BANKED_CODE:HUGECODE:NOROOT(0)
?Subroutine35:
          CFI Block cfiCond64 Using cfiCommon0
          CFI Function MT_AfDataConfirm
          CFI Conditional ??CrossCallReturnLabel_57, ??CrossCallReturnLabel_39
          CFI DPL0 Frame(CFA_SP, 4)
          CFI DPH0 Frame(CFA_SP, 5)
          CFI CFA_SP SP+-9
          CFI CFA_XSP16 add(XSP16, 3)
          CFI Block cfiCond65 Using cfiCommon0
          CFI (cfiCond65) Function MT_AfReflectError
          CFI (cfiCond65) Conditional ??CrossCallReturnLabel_57, ??CrossCallReturnLabel_40
          CFI (cfiCond65) DPL0 Frame(CFA_SP, 4)
          CFI (cfiCond65) DPH0 Frame(CFA_SP, 5)
          CFI (cfiCond65) CFA_SP SP+-9
          CFI (cfiCond65) CFA_XSP16 add(XSP16, 6)
          CFI Block cfiCond66 Using cfiCommon0
          CFI (cfiCond66) Function MT_AfCommandProcessing
          CFI (cfiCond66) Conditional ??CrossCallReturnLabel_58, ??CrossCallReturnLabel_35
          CFI (cfiCond66) R6 load(1, XDATA, add(CFA_XSP16, literal(-14)))
          CFI (cfiCond66) VB load(1, XDATA, add(CFA_XSP16, literal(-13)))
          CFI (cfiCond66) V0 load(1, XDATA, add(CFA_XSP16, literal(-12)))
          CFI (cfiCond66) V1 load(1, XDATA, add(CFA_XSP16, literal(-11)))
          CFI (cfiCond66) V2 load(1, XDATA, add(CFA_XSP16, literal(-10)))
          CFI (cfiCond66) V3 load(1, XDATA, add(CFA_XSP16, literal(-9)))
          CFI (cfiCond66) V4 load(1, XDATA, add(CFA_XSP16, literal(-8)))
          CFI (cfiCond66) V5 load(1, XDATA, add(CFA_XSP16, literal(-7)))
          CFI (cfiCond66) R7 load(1, XDATA, add(CFA_XSP16, literal(-6)))
          CFI (cfiCond66) ?RET_LOW load(1, XDATA, add(CFA_XSP16, literal(-5)))
          CFI (cfiCond66) ?RET_HIGH load(1, XDATA, add(CFA_XSP16, literal(-4)))
          CFI (cfiCond66) ?BRET_EXT load(1, XDATA, add(CFA_XSP16, literal(-3)))
          CFI (cfiCond66) DPL0 load(1, XDATA, add(CFA_XSP16, literal(-2)))
          CFI (cfiCond66) DPH0 load(1, XDATA, add(CFA_XSP16, literal(-1)))
          CFI (cfiCond66) CFA_SP SP+-4
          CFI (cfiCond66) CFA_XSP16 add(XSP16, 19)
          CFI Block cfiCond67 Using cfiCommon0
          CFI (cfiCond67) Function MT_AfReflectError
          CFI (cfiCond67) Conditional ??CrossCallReturnLabel_58, ??CrossCallReturnLabel_36
          CFI (cfiCond67) DPL0 Frame(CFA_SP, 4)
          CFI (cfiCond67) DPH0 Frame(CFA_SP, 5)
          CFI (cfiCond67) CFA_SP SP+-9
          CFI (cfiCond67) CFA_XSP16 add(XSP16, 6)
          CFI Block cfiPicker68 Using cfiCommon1
          CFI (cfiPicker68) NoFunction
          CFI (cfiPicker68) Picker
        MOVX      @DPTR,A
        MOV       DPL,R2
        MOV       DPH,R3
        INC       DPTR
        INC       DPTR
        INC       DPTR
        RET
          CFI EndBlock cfiCond64
          CFI EndBlock cfiCond65
          CFI EndBlock cfiCond66
          CFI EndBlock cfiCond67
          CFI EndBlock cfiPicker68

        RSEG BANKED_CODE:HUGECODE:NOROOT(0)
?Subroutine2:
          CFI Block cfiCond69 Using cfiCommon0
          CFI Function MT_AfDataConfirm
          CFI Conditional ??CrossCallReturnLabel_0
          CFI DPL0 Frame(CFA_SP, 4)
          CFI DPH0 Frame(CFA_SP, 5)
          CFI CFA_SP SP+-7
          CFI CFA_XSP16 add(XSP16, 3)
          CFI Block cfiCond70 Using cfiCommon0
          CFI (cfiCond70) Function MT_AfReflectError
          CFI (cfiCond70) Conditional ??CrossCallReturnLabel_1
          CFI (cfiCond70) DPL0 Frame(CFA_SP, 4)
          CFI (cfiCond70) DPH0 Frame(CFA_SP, 5)
          CFI (cfiCond70) CFA_SP SP+-7
          CFI (cfiCond70) CFA_XSP16 add(XSP16, 6)
          CFI Block cfiPicker71 Using cfiCommon1
          CFI (cfiPicker71) NoFunction
          CFI (cfiPicker71) Picker
        MOV       DPL,R2
        MOV       DPH,R3
        INC       DPTR
        MOVX      A,@DPTR
        MOV       DPL,?XSP + 0
        MOV       DPH,?XSP + 1
        MOVX      @DPTR,A
        MOV       DPL,R2
        MOV       DPH,R3
        INC       DPTR
        INC       DPTR
        MOVX      A,@DPTR
        RET
          CFI EndBlock cfiCond69
          CFI EndBlock cfiCond70
          CFI EndBlock cfiPicker71
//  649 
//  650 /***************************************************************************************************
//  651  * @fn          MT_AfIncomingMsg
//  652  *
//  653  * @brief       Process the callback subscription for AF Incoming data.
//  654  *
//  655  * @param       pkt - Incoming AF data.
//  656  *
//  657  * @return      none
//  658  ***************************************************************************************************/

        RSEG BANKED_CODE:HUGECODE:NOROOT(0)
//  659 void MT_AfIncomingMsg(afIncomingMSGPacket_t *pMsg)
MT_AfIncomingMsg:
          CFI Block cfiBlock72 Using cfiCommon0
          CFI Function MT_AfIncomingMsg
        CODE
//  660 {
        FUNCALL MT_AfIncomingMsg, osal_mem_alloc
        LOCFRAME ISTACK, 0, STACK
        LOCFRAME PSTACK, 0, STACK
        LOCFRAME XSTACK, 24, STACK
        LOCFRAME IOVERLAY, 0, STATIC
        LOCFRAME DOVERLAY, 0, STATIC
        ARGFRAME ISTACK, 0, STACK
        ARGFRAME PSTACK, 0, STACK
        ARGFRAME XSTACK, 24, STACK
        ARGFRAME IOVERLAY, 0, STATIC
        ARGFRAME DOVERLAY, 0, STATIC
        FUNCALL MT_AfIncomingMsg, osal_mem_alloc
        LOCFRAME ISTACK, 0, STACK
        LOCFRAME PSTACK, 0, STACK
        LOCFRAME XSTACK, 24, STACK
        LOCFRAME IOVERLAY, 0, STATIC
        LOCFRAME DOVERLAY, 0, STATIC
        ARGFRAME ISTACK, 0, STACK
        ARGFRAME PSTACK, 0, STACK
        ARGFRAME XSTACK, 24, STACK
        ARGFRAME IOVERLAY, 0, STATIC
        ARGFRAME DOVERLAY, 0, STATIC
        FUNCALL MT_AfIncomingMsg, osal_mem_free
        LOCFRAME ISTACK, 0, STACK
        LOCFRAME PSTACK, 0, STACK
        LOCFRAME XSTACK, 24, STACK
        LOCFRAME IOVERLAY, 0, STATIC
        LOCFRAME DOVERLAY, 0, STATIC
        ARGFRAME ISTACK, 0, STACK
        ARGFRAME PSTACK, 0, STACK
        ARGFRAME XSTACK, 24, STACK
        ARGFRAME IOVERLAY, 0, STATIC
        ARGFRAME DOVERLAY, 0, STATIC
        FUNCALL MT_AfIncomingMsg, osal_memcpy
        LOCFRAME ISTACK, 0, STACK
        LOCFRAME PSTACK, 0, STACK
        LOCFRAME XSTACK, 27, STACK
        LOCFRAME IOVERLAY, 0, STATIC
        LOCFRAME DOVERLAY, 0, STATIC
        ARGFRAME ISTACK, 0, STACK
        ARGFRAME PSTACK, 0, STACK
        ARGFRAME XSTACK, 27, STACK
        ARGFRAME IOVERLAY, 0, STATIC
        ARGFRAME DOVERLAY, 0, STATIC
        FUNCALL MT_AfIncomingMsg, osal_buffer_uint32
        LOCFRAME ISTACK, 0, STACK
        LOCFRAME PSTACK, 0, STACK
        LOCFRAME XSTACK, 28, STACK
        LOCFRAME IOVERLAY, 0, STATIC
        LOCFRAME DOVERLAY, 0, STATIC
        ARGFRAME ISTACK, 0, STACK
        ARGFRAME PSTACK, 0, STACK
        ARGFRAME XSTACK, 28, STACK
        ARGFRAME IOVERLAY, 0, STATIC
        ARGFRAME DOVERLAY, 0, STATIC
        FUNCALL MT_AfIncomingMsg, osal_start_timerEx
        LOCFRAME ISTACK, 0, STACK
        LOCFRAME PSTACK, 0, STACK
        LOCFRAME XSTACK, 28, STACK
        LOCFRAME IOVERLAY, 0, STATIC
        LOCFRAME DOVERLAY, 0, STATIC
        ARGFRAME ISTACK, 0, STACK
        ARGFRAME PSTACK, 0, STACK
        ARGFRAME XSTACK, 28, STACK
        ARGFRAME IOVERLAY, 0, STATIC
        ARGFRAME DOVERLAY, 0, STATIC
        FUNCALL MT_AfIncomingMsg, osal_set_event
        LOCFRAME ISTACK, 0, STACK
        LOCFRAME PSTACK, 0, STACK
        LOCFRAME XSTACK, 24, STACK
        LOCFRAME IOVERLAY, 0, STATIC
        LOCFRAME DOVERLAY, 0, STATIC
        ARGFRAME ISTACK, 0, STACK
        ARGFRAME PSTACK, 0, STACK
        ARGFRAME XSTACK, 24, STACK
        ARGFRAME IOVERLAY, 0, STATIC
        ARGFRAME DOVERLAY, 0, STATIC
        FUNCALL MT_AfIncomingMsg, osal_memcpy
        LOCFRAME ISTACK, 0, STACK
        LOCFRAME PSTACK, 0, STACK
        LOCFRAME XSTACK, 27, STACK
        LOCFRAME IOVERLAY, 0, STATIC
        LOCFRAME DOVERLAY, 0, STATIC
        ARGFRAME ISTACK, 0, STACK
        ARGFRAME PSTACK, 0, STACK
        ARGFRAME XSTACK, 27, STACK
        ARGFRAME IOVERLAY, 0, STATIC
        ARGFRAME DOVERLAY, 0, STATIC
        FUNCALL MT_AfIncomingMsg, osal_memcpy
        LOCFRAME ISTACK, 0, STACK
        LOCFRAME PSTACK, 0, STACK
        LOCFRAME XSTACK, 27, STACK
        LOCFRAME IOVERLAY, 0, STATIC
        LOCFRAME DOVERLAY, 0, STATIC
        ARGFRAME ISTACK, 0, STACK
        ARGFRAME PSTACK, 0, STACK
        ARGFRAME XSTACK, 27, STACK
        ARGFRAME IOVERLAY, 0, STATIC
        ARGFRAME DOVERLAY, 0, STATIC
        FUNCALL MT_AfIncomingMsg, MT_BuildAndSendZToolResponse
        LOCFRAME ISTACK, 0, STACK
        LOCFRAME PSTACK, 0, STACK
        LOCFRAME XSTACK, 24, STACK
        LOCFRAME IOVERLAY, 0, STATIC
        LOCFRAME DOVERLAY, 0, STATIC
        ARGFRAME ISTACK, 0, STACK
        ARGFRAME PSTACK, 0, STACK
        ARGFRAME XSTACK, 24, STACK
        ARGFRAME IOVERLAY, 0, STATIC
        ARGFRAME DOVERLAY, 0, STATIC
        FUNCALL MT_AfIncomingMsg, osal_mem_free
        LOCFRAME ISTACK, 0, STACK
        LOCFRAME PSTACK, 0, STACK
        LOCFRAME XSTACK, 24, STACK
        LOCFRAME IOVERLAY, 0, STATIC
        LOCFRAME DOVERLAY, 0, STATIC
        ARGFRAME ISTACK, 0, STACK
        ARGFRAME PSTACK, 0, STACK
        ARGFRAME XSTACK, 24, STACK
        ARGFRAME IOVERLAY, 0, STATIC
        ARGFRAME DOVERLAY, 0, STATIC
        REQUIRE ?V0
        REQUIRE ?V1
        REQUIRE ?V2
        REQUIRE ?V3
        REQUIRE ?V4
        REQUIRE ?V5
        REQUIRE ?V6
        REQUIRE ?V7
        REQUIRE ?V8
        REQUIRE ?V9
        REQUIRE ?V10
        REQUIRE ?V11
        REQUIRE ?V12
        REQUIRE ?V13
        REQUIRE ?V14
        REQUIRE ?V15
        MOV       A,#-0x18
        LCALL     ?BANKED_ENTER_XDATA
          CFI DPH0 load(1, XDATA, add(CFA_XSP16, literal(-1)))
          CFI DPL0 load(1, XDATA, add(CFA_XSP16, literal(-2)))
          CFI ?BRET_EXT load(1, XDATA, add(CFA_XSP16, literal(-3)))
          CFI ?RET_HIGH load(1, XDATA, add(CFA_XSP16, literal(-4)))
          CFI ?RET_LOW load(1, XDATA, add(CFA_XSP16, literal(-5)))
          CFI R7 load(1, XDATA, add(CFA_XSP16, literal(-6)))
          CFI V15 load(1, XDATA, add(CFA_XSP16, literal(-7)))
          CFI V14 load(1, XDATA, add(CFA_XSP16, literal(-8)))
          CFI V13 load(1, XDATA, add(CFA_XSP16, literal(-9)))
          CFI V12 load(1, XDATA, add(CFA_XSP16, literal(-10)))
          CFI V11 load(1, XDATA, add(CFA_XSP16, literal(-11)))
          CFI V10 load(1, XDATA, add(CFA_XSP16, literal(-12)))
          CFI V9 load(1, XDATA, add(CFA_XSP16, literal(-13)))
          CFI V8 load(1, XDATA, add(CFA_XSP16, literal(-14)))
          CFI V7 load(1, XDATA, add(CFA_XSP16, literal(-15)))
          CFI V6 load(1, XDATA, add(CFA_XSP16, literal(-16)))
          CFI V5 load(1, XDATA, add(CFA_XSP16, literal(-17)))
          CFI V4 load(1, XDATA, add(CFA_XSP16, literal(-18)))
          CFI V3 load(1, XDATA, add(CFA_XSP16, literal(-19)))
          CFI V2 load(1, XDATA, add(CFA_XSP16, literal(-20)))
          CFI V1 load(1, XDATA, add(CFA_XSP16, literal(-21)))
          CFI V0 load(1, XDATA, add(CFA_XSP16, literal(-22)))
          CFI VB load(1, XDATA, add(CFA_XSP16, literal(-23)))
          CFI R6 load(1, XDATA, add(CFA_XSP16, literal(-24)))
          CFI CFA_SP SP+0
          CFI CFA_XSP16 add(XSP16, 24)
        ; Saved register size: 24
        ; Auto size: 0
        MOV       ?V8,R2
        MOV       ?V9,R3
//  661   #define MT_AF_INC_MSG_LEN  20
//  662   #define MT_AF_INC_MSG_EXT  10
//  663 
//  664   uint16 dataLen = pMsg->cmd.DataLength;  // Length of the data section in the response packet.
        MOV       A,R2
        ADD       A,#0x20
        LCALL     ?Subroutine37 & 0xFFFF
??CrossCallReturnLabel_61:
        MOVX      A,@DPTR
        MOV       ?V0,A
        INC       DPTR
        MOVX      A,@DPTR
        MOV       ?V1,A
//  665   uint16 respLen = MT_AF_INC_MSG_LEN + dataLen;
        MOV       A,?V0
        ADD       A,#0x14
        MOV       R6,A
        CLR       A
        ADDC      A,?V1
        MOV       R7,A
//  666   uint8 cmd = MT_AF_INCOMING_MSG;
        MOV       ?V7,#-0x7f
//  667   uint8 *pRsp, *pTmp;
//  668   mtAfInMsgList_t *pItem = NULL;
        MOV       ?V10,#0x0
        MOV       ?V11,#0x0
//  669 
//  670 #if defined INTER_PAN
//  671   if (StubAPS_InterPan(pMsg->srcAddr.panId, pMsg->srcAddr.endPoint))
//  672   {
//  673     cmd = MT_AF_INCOMING_MSG_EXT;
//  674   }
//  675   else
//  676 #endif
//  677   if ((pMsg->srcAddr.addrMode == afAddr64Bit) ||
//  678       (respLen > (uint16)(MT_RPC_DATA_MAX - MT_AF_INC_MSG_EXT)))
        MOV       A,R2
        ADD       A,#0xe
        LCALL     ?Subroutine28 & 0xFFFF
??CrossCallReturnLabel_43:
        MOVX      A,@DPTR
        XRL       A,#0x3
        JZ        ??MT_AfIncomingMsg_0
        CLR       C
        MOV       A,R6
        SUBB      A,#-0xf
        MOV       A,R7
        SUBB      A,#0x0
        JC        ??MT_AfIncomingMsg_1
//  679   {
//  680     cmd = MT_AF_INCOMING_MSG_EXT;
??MT_AfIncomingMsg_0:
        MOV       ?V7,#-0x7e
//  681   }
//  682 
//  683   if (cmd == MT_AF_INCOMING_MSG_EXT)
//  684   {
//  685     respLen += MT_AF_INC_MSG_EXT;
        MOV       A,R6
        ADD       A,#0xa
        MOV       R6,A
        CLR       A
        ADDC      A,R7
        MOV       R7,A
//  686   }
//  687 
//  688   if (respLen > (uint16)MT_RPC_DATA_MAX)
??MT_AfIncomingMsg_1:
        CLR       C
        MOV       A,R6
        SUBB      A,#-0x5
        MOV       A,R7
        SUBB      A,#0x0
        JC        ??MT_AfIncomingMsg_2
//  689   {
//  690     if ((pItem = (mtAfInMsgList_t *)osal_mem_alloc(sizeof(mtAfInMsgList_t) + dataLen)) == NULL)
        ; Setup parameters for call to function osal_mem_alloc
        MOV       A,?V0
        ADD       A,#0x9
        MOV       R2,A
        CLR       A
        ADDC      A,?V1
        MOV       R3,A
        LCALL     `??osal_mem_alloc::?relay`; Banked call to: osal_mem_alloc
        MOV       ?V10,R2
        MOV       ?V11,R3
        MOV       A,R2
        ORL       A,?V11
        JNZ       $+5
        LJMP      ??MT_AfIncomingMsg_3 & 0xFFFF
//  691     {
//  692       return;  // If cannot hold a huge message, cannot give indication at all.
//  693     }
//  694 
//  695     pItem->data = (uint8 *)(pItem+1);
        MOV       A,R2
        ADD       A,#0x9
        MOV       R0,A
        CLR       A
        ADDC      A,?V11
        MOV       R1,A
        MOV       DPL,R2
        MOV       DPH,R3
        INC       DPTR
        INC       DPTR
        MOV       A,R0
        MOVX      @DPTR,A
        INC       DPTR
        MOV       A,R1
        MOVX      @DPTR,A
//  696     respLen -= dataLen;  // Zero data bytes are sent with an over-sized incoming indication.
        CLR       C
        MOV       A,R6
        SUBB      A,?V0
        MOV       R6,A
        MOV       A,R7
        SUBB      A,?V1
        MOV       R7,A
//  697   }
//  698 
//  699   // Attempt to allocate memory for the response packet.
//  700   if ((pRsp = osal_mem_alloc(respLen)) == NULL)
??MT_AfIncomingMsg_2:
        ; Setup parameters for call to function osal_mem_alloc
        MOV       A,R6
        MOV       R2,A
        MOV       A,R7
        MOV       R3,A
        LCALL     `??osal_mem_alloc::?relay`; Banked call to: osal_mem_alloc
        MOV       ?V12,R2
        MOV       ?V13,R3
        MOV       A,R2
        ORL       A,?V13
        JNZ       ??MT_AfIncomingMsg_4
//  701   {
//  702     if (pItem != NULL)
        MOV       A,?V10
        ORL       A,?V11
        JZ        ??MT_AfIncomingMsg_5
//  703     {
//  704       (void)osal_mem_free(pItem);
        ; Setup parameters for call to function osal_mem_free
        MOV       R2,?V10
        MOV       R3,?V11
        LCALL     `??osal_mem_free::?relay`; Banked call to: osal_mem_free
//  705     }
//  706     return;
??MT_AfIncomingMsg_5:
        LJMP      ??MT_AfIncomingMsg_3 & 0xFFFF
//  707   }
//  708   pTmp = pRsp;
//  709 
//  710   /* Group ID */
//  711   *pTmp++ = LO_UINT16(pMsg->groupId);
??MT_AfIncomingMsg_4:
        MOV       A,?V8
        ADD       A,#0x2
        MOV       R0,A
        CLR       A
        ADDC      A,?V9
        MOV       R1,A
        MOV       DPL,R0
        MOV       DPH,R1
        MOVX      A,@DPTR
        MOV       DPL,R2
        MOV       DPH,R3
        LCALL     ?Subroutine16 & 0xFFFF
//  712   *pTmp++ = HI_UINT16(pMsg->groupId);
??CrossCallReturnLabel_89:
        MOVX      @DPTR,A
//  713 
//  714   /* Cluster ID */
//  715   *pTmp++ = LO_UINT16(pMsg->clusterId);
        MOV       A,?V8
        ADD       A,#0x4
        MOV       R0,A
        CLR       A
        ADDC      A,?V9
        MOV       R1,A
        MOV       DPL,R0
        MOV       DPH,R1
        LCALL     ??Subroutine43_0 & 0xFFFF
??CrossCallReturnLabel_91:
        INC       DPTR
        LCALL     ?Subroutine16 & 0xFFFF
//  716   *pTmp++ = HI_UINT16(pMsg->clusterId);
??CrossCallReturnLabel_90:
        INC       DPTR
        INC       DPTR
        MOVX      @DPTR,A
//  717 
//  718   if (cmd == MT_AF_INCOMING_MSG_EXT)
        MOV       A,R2
        ADD       A,#0x6
        MOV       R2,A
        CLR       A
        ADDC      A,?V13
        MOV       R3,A
        MOV       A,?V12
        ADD       A,#0x5
        MOV       ?V2,A
        CLR       A
        ADDC      A,?V13
        MOV       ?V3,A
        MOV       A,?V12
        ADD       A,#0x4
        MOV       R4,A
        CLR       A
        ADDC      A,?V13
        MOV       R5,A
        MOV       A,?V8
        ADD       A,#0xf
        MOV       ?V14,A
        CLR       A
        ADDC      A,?V9
        MOV       ?V15,A
        MOV       A,?V8
        ADD       A,#0x6
        MOV       R0,A
        CLR       A
        ADDC      A,?V9
        MOV       R1,A
        MOV       A,#-0x7e
        XRL       A,?V7
        JNZ       ??MT_AfIncomingMsg_6
//  719   {
//  720     *pTmp++ = pMsg->srcAddr.addrMode;
        MOV       DPL,?V4
        MOV       DPH,?V5
        LCALL     ?Subroutine17 & 0xFFFF
//  721 
//  722     if (pMsg->srcAddr.addrMode == afAddr64Bit)
??CrossCallReturnLabel_26:
        MOV       DPL,?V4
        MOV       DPH,?V5
        MOVX      A,@DPTR
        XRL       A,#0x3
        JNZ       ??MT_AfIncomingMsg_7
//  723     {
//  724       (void)osal_memcpy(pTmp, pMsg->srcAddr.addr.extAddr, Z_EXTADDR_LEN);
        ; Setup parameters for call to function osal_memcpy
        MOV       ?V4,R0
        MOV       ?V5,R1
        MOV       ?V6,#0x0
        MOV       R0,#?V4
        LCALL     ?PUSH_XSTACK_I_THREE
          CFI CFA_XSP16 add(XSP16, 27)
        MOV       R4,#0x8
        MOV       R5,#0x0
        DEC       R2
        MOV       R3,?V3
        LCALL     `??osal_memcpy::?relay`; Banked call to: osal_memcpy
        MOV       A,#0x3
        LCALL     ?DEALLOC_XSTACK8
          CFI CFA_XSP16 add(XSP16, 24)
        SJMP      ??MT_AfIncomingMsg_8
//  725     }
//  726     else
//  727     {
//  728       pTmp[0] = LO_UINT16(pMsg->srcAddr.addr.shortAddr);
??MT_AfIncomingMsg_7:
        LCALL     ?Subroutine3 & 0xFFFF
//  729       pTmp[1] = HI_UINT16(pMsg->srcAddr.addr.shortAddr);
//  730     }
??CrossCallReturnLabel_2:
        MOV       DPL,R2
        MOV       DPH,R3
        MOVX      @DPTR,A
//  731     pTmp += Z_EXTADDR_LEN;
//  732 
//  733     *pTmp++ = pMsg->srcAddr.endPoint;
??MT_AfIncomingMsg_8:
        MOV       DPL,?V14
        MOV       DPH,?V15
        LCALL     ?Subroutine13 & 0xFFFF
//  734 #if defined INTER_PAN
//  735     *pTmp++ = LO_UINT16(pMsg->srcAddr.panId);
//  736     *pTmp++ = HI_UINT16(pMsg->srcAddr.panId);
//  737 #else
//  738     *pTmp++ = 0;
//  739     *pTmp++ = 0;
//  740 #endif
//  741   }
??CrossCallReturnLabel_20:
        INC       DPTR
        INC       DPTR
        INC       DPTR
        INC       DPTR
        INC       DPTR
        LCALL     ?Subroutine20 & 0xFFFF
??CrossCallReturnLabel_33:
        CLR       A
        LCALL     ?Subroutine20 & 0xFFFF
??CrossCallReturnLabel_34:
        INC       DPTR
        MOVX      @DPTR,A
        MOV       A,?V2
        ADD       A,#0xb
        MOV       ?V2,A
        JNC       ??MT_AfIncomingMsg_9
        INC       ?V3
        SJMP      ??MT_AfIncomingMsg_9
//  742   else
//  743   {
//  744     /* Source Address */
//  745     *pTmp++ = LO_UINT16(pMsg->srcAddr.addr.shortAddr);
??MT_AfIncomingMsg_6:
        MOV       DPL,R0
        MOV       DPH,R1
        LCALL     ?Subroutine17 & 0xFFFF
//  746     *pTmp++ = HI_UINT16(pMsg->srcAddr.addr.shortAddr);
??CrossCallReturnLabel_27:
        MOV       DPL,R0
        MOV       DPH,R1
        INC       DPTR
        LCALL     ?Subroutine19 & 0xFFFF
//  747 
//  748     /* Source EP */
//  749     *pTmp++ = pMsg->srcAddr.endPoint;
??CrossCallReturnLabel_31:
        MOV       DPL,?V14
        MOV       DPH,?V15
        MOVX      A,@DPTR
        MOV       DPL,R2
        MOV       DPH,R3
        MOVX      @DPTR,A
        MOV       A,?V12
        ADD       A,#0x7
        MOV       ?V2,A
        CLR       A
        ADDC      A,?V13
        MOV       ?V3,A
//  750   }
//  751 
//  752   /* Destination EP */
//  753   *pTmp++ = pMsg->endPoint;
??MT_AfIncomingMsg_9:
        MOV       A,?V8
        ADD       A,#0x14
        LCALL     ?Subroutine37 & 0xFFFF
??CrossCallReturnLabel_62:
        LCALL     ?Subroutine19 & 0xFFFF
//  754 
//  755   /* WasBroadCast */
//  756   *pTmp++ = pMsg->wasBroadcast;
??CrossCallReturnLabel_32:
        MOV       A,?V8
        ADD       A,#0x15
        LCALL     ?Subroutine37 & 0xFFFF
??CrossCallReturnLabel_63:
        LCALL     ?Subroutine38 & 0xFFFF
??CrossCallReturnLabel_67:
        MOVX      @DPTR,A
//  757 
//  758   /* LinkQuality */
//  759   *pTmp++ = pMsg->LinkQuality;
        MOV       A,?V8
        ADD       A,#0x16
        LCALL     ?Subroutine14 & 0xFFFF
//  760 
//  761   /* SecurityUse */
//  762   *pTmp++ = pMsg->SecurityUse;
??CrossCallReturnLabel_22:
        MOV       A,?V8
        ADD       A,#0x19
        LCALL     ?Subroutine37 & 0xFFFF
??CrossCallReturnLabel_64:
        LCALL     ?Subroutine13 & 0xFFFF
??CrossCallReturnLabel_21:
        MOVX      @DPTR,A
        MOV       A,?V2
        ADD       A,#0x4
        MOV       ?V2,A
        JNC       ??MT_AfIncomingMsg_10
        INC       ?V3
//  763 
//  764   /* Timestamp */
//  765   osal_buffer_uint32( pTmp, pMsg->timestamp );
??MT_AfIncomingMsg_10:
        MOV       A,?V8
        ADD       A,#0x1a
        LCALL     ?Subroutine28 & 0xFFFF
??CrossCallReturnLabel_44:
        LCALL     ?PUSH_XSTACK8_X_FOUR
          CFI CFA_XSP16 add(XSP16, 28)
        MOV       R2,?V2
        MOV       R3,?V3
        LCALL     `??osal_buffer_uint32::?relay`; Banked call to: osal_buffer_uint32
        MOV       A,#0x4
        LCALL     ?DEALLOC_XSTACK8
          CFI CFA_XSP16 add(XSP16, 24)
//  766   pTmp += 4;
//  767 
//  768   /* Data Length */
//  769   if (cmd == MT_AF_INCOMING_MSG_EXT)
        MOV       A,?V2
        ADD       A,#0x6
        MOV       R0,A
        CLR       A
        ADDC      A,?V3
        MOV       R1,A
        MOV       A,?V2
        ADD       A,#0x5
        MOV       R2,A
        CLR       A
        ADDC      A,?V3
        MOV       R3,A
        MOV       A,?V2
        ADD       A,#0x4
        MOV       R4,A
        CLR       A
        ADDC      A,?V3
        MOV       R5,A
        MOV       A,#-0x7e
        XRL       A,?V7
        JNZ       ??MT_AfIncomingMsg_11
//  770   {
//  771     /* Z-Tool apparently takes the last Byte before the data buffer as the dynamic length and
//  772      * ignores the bigger UInt16 length of an EXT incoming message. But no data bytes will be sent
//  773      * with a huge message, so it's necessary to work-around and fake-out Z-Tool with a zero here.
//  774      */
//  775     *pTmp++ = 0;  // TODO - workaround Z-Tool shortcoming; should be: = pMsg->cmd.TransSeqNumber;
        MOV       DPL,R4
        MOV       DPH,R5
        CLR       A
        MOVX      @DPTR,A
//  776     *pTmp++ = LO_UINT16(dataLen);
        MOV       DPL,R2
        MOV       DPH,R3
        MOV       A,?V0
        LCALL     ??Subroutine42_0 & 0xFFFF
//  777     *pTmp++ = HI_UINT16(dataLen);
//  778   }
??CrossCallReturnLabel_88:
        MOV       A,?V1
        MOVX      @DPTR,A
        MOV       A,?V2
        ADD       A,#0x7
        MOV       ?V2,A
        JNC       ??MT_AfIncomingMsg_12
        INC       ?V3
        SJMP      ??MT_AfIncomingMsg_12
//  779   else
//  780   {
//  781     *pTmp++ = pMsg->cmd.TransSeqNumber;
??MT_AfIncomingMsg_11:
        MOV       A,?V8
        ADD       A,#0x1f
        LCALL     ?Subroutine37 & 0xFFFF
??CrossCallReturnLabel_65:
        LCALL     ?Subroutine17 & 0xFFFF
//  782     *pTmp++ = dataLen;
??CrossCallReturnLabel_28:
        MOV       DPL,R2
        MOV       DPH,R3
        MOV       A,?V0
        MOVX      @DPTR,A
        MOV       ?V2,R0
        MOV       ?V3,R1
//  783   }
//  784 
//  785   /* Data */
//  786   if (pItem != NULL)
??MT_AfIncomingMsg_12:
        MOV       A,?V8
        ADD       A,#0x22
        MOV       ?V14,A
        CLR       A
        ADDC      A,?V9
        MOV       ?V15,A
        MOV       A,?V10
        ORL       A,?V11
        JNZ       $+5
        LJMP      ??MT_AfIncomingMsg_13 & 0xFFFF
//  787   {
//  788     // Enqueue the new huge incoming item.
//  789     pItem->next = pMtAfInMsgList;
        LCALL     ?Subroutine30 & 0xFFFF
??CrossCallReturnLabel_95:
        MOV       DPL,?V10
        MOV       DPH,?V11
        MOV       A,R0
        MOVX      @DPTR,A
        INC       DPTR
        MOV       A,R1
        MOVX      @DPTR,A
//  790     pMtAfInMsgList = pItem;
        MOV       DPTR,#pMtAfInMsgList
        MOV       A,?V10
        MOVX      @DPTR,A
        INC       DPTR
        MOV       A,?V11
        MOVX      @DPTR,A
//  791 
//  792     // Setup to time-out the huge incoming item if host does not MT_AF_DATA_RETRIEVE it.
//  793     pItem->tick = MT_AF_EXEC_CNT;
        MOV       DPL,?V10
        MOV       DPH,A
        INC       DPTR
        INC       DPTR
        INC       DPTR
        INC       DPTR
        INC       DPTR
        INC       DPTR
        INC       DPTR
        INC       DPTR
        MOV       A,#0xf
        MOVX      @DPTR,A
//  794     if (ZSuccess != osal_start_timerEx(MT_TaskID, MT_AF_EXEC_EVT, MT_AF_EXEC_DLY))
        ; Setup parameters for call to function osal_start_timerEx
        MOV       DPTR,#__Constant_3e8
        LCALL     ?PUSH_XSTACK8_X_FOUR
          CFI CFA_XSP16 add(XSP16, 28)
        MOV       R2,#0x8
        MOV       R3,#0x0
        MOV       DPTR,#MT_TaskID
        MOVX      A,@DPTR
        MOV       R1,A
        LCALL     `??osal_start_timerEx::?relay`; Banked call to: osal_start_timerEx
        MOV       A,#0x4
        LCALL     ?DEALLOC_XSTACK8
          CFI CFA_XSP16 add(XSP16, 24)
        MOV       A,R1
        JZ        ??MT_AfIncomingMsg_14
//  795     {
//  796       (void)osal_set_event(MT_TaskID, MT_AF_EXEC_EVT);
        ; Setup parameters for call to function osal_set_event
        MOV       R2,#0x8
        MOV       R3,#0x0
        MOV       DPTR,#MT_TaskID
        MOVX      A,@DPTR
        MOV       R1,A
        LCALL     `??osal_set_event::?relay`; Banked call to: osal_set_event
//  797     }
//  798 
//  799     pItem->timestamp = pMsg->timestamp;
??MT_AfIncomingMsg_14:
        MOV       DPL,?V4
        MOV       DPH,?V5
        LCALL     ?XLOAD_R0123
        MOV       DPL,?V10
        MOV       DPH,?V11
        INC       DPTR
        INC       DPTR
        INC       DPTR
        INC       DPTR
        LCALL     ?XSTORE_R0123
//  800     (void)osal_memcpy(pItem->data, pMsg->cmd.Data, dataLen);
        ; Setup parameters for call to function osal_memcpy
        LCALL     ?Subroutine9 & 0xFFFF
//  801   }
??CrossCallReturnLabel_14:
        LCALL     ?PUSH_XSTACK_I_THREE
          CFI CFA_XSP16 add(XSP16, 27)
        MOV       R4,?V0
        MOV       R5,?V1
        MOV       DPL,?V10
        MOV       DPH,?V11
        INC       DPTR
        INC       DPTR
        LCALL     ??Subroutine45_0 & 0xFFFF
??CrossCallReturnLabel_98:
        LCALL     `??osal_memcpy::?relay`; Banked call to: osal_memcpy
        MOV       A,#0x3
        LCALL     ?DEALLOC_XSTACK8
          CFI CFA_XSP16 add(XSP16, 24)
        SJMP      ??MT_AfIncomingMsg_15
//  802   else
//  803   {
//  804     (void)osal_memcpy(pTmp, pMsg->cmd.Data, dataLen);
??MT_AfIncomingMsg_13:
        ; Setup parameters for call to function osal_memcpy
        LCALL     ?Subroutine9 & 0xFFFF
??CrossCallReturnLabel_15:
        LCALL     ?PUSH_XSTACK_I_THREE
          CFI CFA_XSP16 add(XSP16, 27)
        MOV       R4,?V0
        MOV       R5,?V1
        MOV       R2,?V2
        MOV       R3,?V3
        LCALL     `??osal_memcpy::?relay`; Banked call to: osal_memcpy
        MOV       A,#0x3
        LCALL     ?DEALLOC_XSTACK8
          CFI CFA_XSP16 add(XSP16, 24)
//  805     pTmp += dataLen;
        MOV       A,?V2
        ADD       A,?V0
        MOV       ?V2,A
        MOV       A,?V3
        ADDC      A,?V1
        MOV       ?V3,A
//  806   }
//  807 
//  808   // MAC Source address
//  809   *pTmp++ = LO_UINT16(pMsg->macSrcAddr);
??MT_AfIncomingMsg_15:
        MOV       A,?V8
        ADD       A,#0x24
        MOV       R0,A
        CLR       A
        ADDC      A,?V9
        MOV       R1,A
        LCALL     ?Subroutine3 & 0xFFFF
//  810   *pTmp++ = HI_UINT16(pMsg->macSrcAddr);
??CrossCallReturnLabel_3:
        MOV       DPL,?V2
        MOV       DPH,?V3
        INC       DPTR
        MOVX      @DPTR,A
//  811 
//  812   // messages result radius
//  813   *pTmp = pMsg->radius;
        MOV       A,?V8
        ADD       A,#0x26
        LCALL     ?Subroutine14 & 0xFFFF
//  814 
//  815   /* Build and send back the response */
//  816   MT_BuildAndSendZToolResponse(((uint8)MT_RPC_CMD_AREQ|(uint8)MT_RPC_SYS_AF), cmd, respLen, pRsp);
??CrossCallReturnLabel_23:
        ; Setup parameters for call to function MT_BuildAndSendZToolResponse
        MOV       R4,?V12
        MOV       R5,?V13
        MOV       A,R6
        MOV       R3,A
        MOV       R2,?V7
        MOV       R1,#0x44
        LCALL     `??MT_BuildAndSendZToolResponse::?relay`; Banked call to: MT_BuildAndSendZToolResponse
//  817 
//  818   (void)osal_mem_free(pRsp);
        ; Setup parameters for call to function osal_mem_free
        MOV       R2,?V12
        MOV       R3,?V13
        LCALL     `??osal_mem_free::?relay`; Banked call to: osal_mem_free
//  819 }
??MT_AfIncomingMsg_3:
        MOV       R7,#0x10
        LJMP      ?BANKED_LEAVE_XDATA
          CFI EndBlock cfiBlock72

        RSEG BANKED_CODE:HUGECODE:NOROOT(0)
?Subroutine28:
          CFI Block cfiCond73 Using cfiCommon0
          CFI Function MT_AfIncomingMsg
          CFI Conditional ??CrossCallReturnLabel_43
          CFI R6 load(1, XDATA, add(CFA_XSP16, literal(-24)))
          CFI VB load(1, XDATA, add(CFA_XSP16, literal(-23)))
          CFI V0 load(1, XDATA, add(CFA_XSP16, literal(-22)))
          CFI V1 load(1, XDATA, add(CFA_XSP16, literal(-21)))
          CFI V2 load(1, XDATA, add(CFA_XSP16, literal(-20)))
          CFI V3 load(1, XDATA, add(CFA_XSP16, literal(-19)))
          CFI V4 load(1, XDATA, add(CFA_XSP16, literal(-18)))
          CFI V5 load(1, XDATA, add(CFA_XSP16, literal(-17)))
          CFI V6 load(1, XDATA, add(CFA_XSP16, literal(-16)))
          CFI V7 load(1, XDATA, add(CFA_XSP16, literal(-15)))
          CFI V8 load(1, XDATA, add(CFA_XSP16, literal(-14)))
          CFI V9 load(1, XDATA, add(CFA_XSP16, literal(-13)))
          CFI V10 load(1, XDATA, add(CFA_XSP16, literal(-12)))
          CFI V11 load(1, XDATA, add(CFA_XSP16, literal(-11)))
          CFI V12 load(1, XDATA, add(CFA_XSP16, literal(-10)))
          CFI V13 load(1, XDATA, add(CFA_XSP16, literal(-9)))
          CFI V14 load(1, XDATA, add(CFA_XSP16, literal(-8)))
          CFI V15 load(1, XDATA, add(CFA_XSP16, literal(-7)))
          CFI R7 load(1, XDATA, add(CFA_XSP16, literal(-6)))
          CFI ?RET_LOW load(1, XDATA, add(CFA_XSP16, literal(-5)))
          CFI ?RET_HIGH load(1, XDATA, add(CFA_XSP16, literal(-4)))
          CFI ?BRET_EXT load(1, XDATA, add(CFA_XSP16, literal(-3)))
          CFI DPL0 load(1, XDATA, add(CFA_XSP16, literal(-2)))
          CFI DPH0 load(1, XDATA, add(CFA_XSP16, literal(-1)))
          CFI CFA_SP SP+-2
          CFI CFA_XSP16 add(XSP16, 24)
          CFI Block cfiCond74 Using cfiCommon0
          CFI (cfiCond74) Function MT_AfIncomingMsg
          CFI (cfiCond74) Conditional ??CrossCallReturnLabel_44
          CFI (cfiCond74) R6 load(1, XDATA, add(CFA_XSP16, literal(-24)))
          CFI (cfiCond74) VB load(1, XDATA, add(CFA_XSP16, literal(-23)))
          CFI (cfiCond74) V0 load(1, XDATA, add(CFA_XSP16, literal(-22)))
          CFI (cfiCond74) V1 load(1, XDATA, add(CFA_XSP16, literal(-21)))
          CFI (cfiCond74) V2 load(1, XDATA, add(CFA_XSP16, literal(-20)))
          CFI (cfiCond74) V3 load(1, XDATA, add(CFA_XSP16, literal(-19)))
          CFI (cfiCond74) V4 load(1, XDATA, add(CFA_XSP16, literal(-18)))
          CFI (cfiCond74) V5 load(1, XDATA, add(CFA_XSP16, literal(-17)))
          CFI (cfiCond74) V6 load(1, XDATA, add(CFA_XSP16, literal(-16)))
          CFI (cfiCond74) V7 load(1, XDATA, add(CFA_XSP16, literal(-15)))
          CFI (cfiCond74) V8 load(1, XDATA, add(CFA_XSP16, literal(-14)))
          CFI (cfiCond74) V9 load(1, XDATA, add(CFA_XSP16, literal(-13)))
          CFI (cfiCond74) V10 load(1, XDATA, add(CFA_XSP16, literal(-12)))
          CFI (cfiCond74) V11 load(1, XDATA, add(CFA_XSP16, literal(-11)))
          CFI (cfiCond74) V12 load(1, XDATA, add(CFA_XSP16, literal(-10)))
          CFI (cfiCond74) V13 load(1, XDATA, add(CFA_XSP16, literal(-9)))
          CFI (cfiCond74) V14 load(1, XDATA, add(CFA_XSP16, literal(-8)))
          CFI (cfiCond74) V15 load(1, XDATA, add(CFA_XSP16, literal(-7)))
          CFI (cfiCond74) R7 load(1, XDATA, add(CFA_XSP16, literal(-6)))
          CFI (cfiCond74) ?RET_LOW load(1, XDATA, add(CFA_XSP16, literal(-5)))
          CFI (cfiCond74) ?RET_HIGH load(1, XDATA, add(CFA_XSP16, literal(-4)))
          CFI (cfiCond74) ?BRET_EXT load(1, XDATA, add(CFA_XSP16, literal(-3)))
          CFI (cfiCond74) DPL0 load(1, XDATA, add(CFA_XSP16, literal(-2)))
          CFI (cfiCond74) DPH0 load(1, XDATA, add(CFA_XSP16, literal(-1)))
          CFI (cfiCond74) CFA_SP SP+-2
          CFI (cfiCond74) CFA_XSP16 add(XSP16, 24)
          CFI Block cfiPicker75 Using cfiCommon1
          CFI (cfiPicker75) NoFunction
          CFI (cfiPicker75) Picker
        MOV       ?V4,A
        CLR       A
        ADDC      A,?V9
        MOV       ?V5,A
        ; Setup parameters for call to function osal_buffer_uint32
        MOV       DPL,?V4
        MOV       DPH,A
        RET
          CFI EndBlock cfiCond73
          CFI EndBlock cfiCond74
          CFI EndBlock cfiPicker75

        RSEG BANKED_CODE:HUGECODE:NOROOT(0)
?Subroutine23:
          CFI Block cfiCond76 Using cfiCommon0
          CFI Function MT_AfCommandProcessing
          CFI Conditional ??CrossCallReturnLabel_85
          CFI R6 load(1, XDATA, add(CFA_XSP16, literal(-14)))
          CFI VB load(1, XDATA, add(CFA_XSP16, literal(-13)))
          CFI V0 load(1, XDATA, add(CFA_XSP16, literal(-12)))
          CFI V1 load(1, XDATA, add(CFA_XSP16, literal(-11)))
          CFI V2 load(1, XDATA, add(CFA_XSP16, literal(-10)))
          CFI V3 load(1, XDATA, add(CFA_XSP16, literal(-9)))
          CFI V4 load(1, XDATA, add(CFA_XSP16, literal(-8)))
          CFI V5 load(1, XDATA, add(CFA_XSP16, literal(-7)))
          CFI R7 load(1, XDATA, add(CFA_XSP16, literal(-6)))
          CFI ?RET_LOW load(1, XDATA, add(CFA_XSP16, literal(-5)))
          CFI ?RET_HIGH load(1, XDATA, add(CFA_XSP16, literal(-4)))
          CFI ?BRET_EXT load(1, XDATA, add(CFA_XSP16, literal(-3)))
          CFI DPL0 load(1, XDATA, add(CFA_XSP16, literal(-2)))
          CFI DPH0 load(1, XDATA, add(CFA_XSP16, literal(-1)))
          CFI CFA_SP SP+-2
          CFI CFA_XSP16 add(XSP16, 19)
          CFI Block cfiCond77 Using cfiCommon0
          CFI (cfiCond77) Function MT_AfCommandProcessing
          CFI (cfiCond77) Conditional ??CrossCallReturnLabel_86
          CFI (cfiCond77) R6 load(1, XDATA, add(CFA_XSP16, literal(-14)))
          CFI (cfiCond77) VB load(1, XDATA, add(CFA_XSP16, literal(-13)))
          CFI (cfiCond77) V0 load(1, XDATA, add(CFA_XSP16, literal(-12)))
          CFI (cfiCond77) V1 load(1, XDATA, add(CFA_XSP16, literal(-11)))
          CFI (cfiCond77) V2 load(1, XDATA, add(CFA_XSP16, literal(-10)))
          CFI (cfiCond77) V3 load(1, XDATA, add(CFA_XSP16, literal(-9)))
          CFI (cfiCond77) V4 load(1, XDATA, add(CFA_XSP16, literal(-8)))
          CFI (cfiCond77) V5 load(1, XDATA, add(CFA_XSP16, literal(-7)))
          CFI (cfiCond77) R7 load(1, XDATA, add(CFA_XSP16, literal(-6)))
          CFI (cfiCond77) ?RET_LOW load(1, XDATA, add(CFA_XSP16, literal(-5)))
          CFI (cfiCond77) ?RET_HIGH load(1, XDATA, add(CFA_XSP16, literal(-4)))
          CFI (cfiCond77) ?BRET_EXT load(1, XDATA, add(CFA_XSP16, literal(-3)))
          CFI (cfiCond77) DPL0 load(1, XDATA, add(CFA_XSP16, literal(-2)))
          CFI (cfiCond77) DPH0 load(1, XDATA, add(CFA_XSP16, literal(-1)))
          CFI (cfiCond77) CFA_SP SP+-2
          CFI (cfiCond77) CFA_XSP16 add(XSP16, 19)
          CFI Block cfiPicker78 Using cfiCommon1
          CFI (cfiPicker78) NoFunction
          CFI (cfiPicker78) Picker
        MOV       DPL,?XSP + 0
        MOV       DPH,?XSP + 1
        MOV       A,#0x10
          CFI EndBlock cfiCond76
          CFI EndBlock cfiCond77
          CFI EndBlock cfiPicker78
        REQUIRE ??Subroutine42_0
        ; // Fall through to label ??Subroutine42_0

        RSEG BANKED_CODE:HUGECODE:NOROOT(0)
??Subroutine42_0:
          CFI Block cfiCond79 Using cfiCommon0
          CFI Function MT_AfReflectError
          CFI Conditional ??CrossCallReturnLabel_87
          CFI DPL0 Frame(CFA_SP, 4)
          CFI DPH0 Frame(CFA_SP, 5)
          CFI CFA_SP SP+-7
          CFI CFA_XSP16 add(XSP16, 6)
          CFI Block cfiCond80 Using cfiCommon0
          CFI (cfiCond80) Function MT_AfIncomingMsg
          CFI (cfiCond80) Conditional ??CrossCallReturnLabel_88
          CFI (cfiCond80) R6 load(1, XDATA, add(CFA_XSP16, literal(-24)))
          CFI (cfiCond80) VB load(1, XDATA, add(CFA_XSP16, literal(-23)))
          CFI (cfiCond80) V0 load(1, XDATA, add(CFA_XSP16, literal(-22)))
          CFI (cfiCond80) V1 load(1, XDATA, add(CFA_XSP16, literal(-21)))
          CFI (cfiCond80) V2 load(1, XDATA, add(CFA_XSP16, literal(-20)))
          CFI (cfiCond80) V3 load(1, XDATA, add(CFA_XSP16, literal(-19)))
          CFI (cfiCond80) V4 load(1, XDATA, add(CFA_XSP16, literal(-18)))
          CFI (cfiCond80) V5 load(1, XDATA, add(CFA_XSP16, literal(-17)))
          CFI (cfiCond80) V6 load(1, XDATA, add(CFA_XSP16, literal(-16)))
          CFI (cfiCond80) V7 load(1, XDATA, add(CFA_XSP16, literal(-15)))
          CFI (cfiCond80) V8 load(1, XDATA, add(CFA_XSP16, literal(-14)))
          CFI (cfiCond80) V9 load(1, XDATA, add(CFA_XSP16, literal(-13)))
          CFI (cfiCond80) V10 load(1, XDATA, add(CFA_XSP16, literal(-12)))
          CFI (cfiCond80) V11 load(1, XDATA, add(CFA_XSP16, literal(-11)))
          CFI (cfiCond80) V12 load(1, XDATA, add(CFA_XSP16, literal(-10)))
          CFI (cfiCond80) V13 load(1, XDATA, add(CFA_XSP16, literal(-9)))
          CFI (cfiCond80) V14 load(1, XDATA, add(CFA_XSP16, literal(-8)))
          CFI (cfiCond80) V15 load(1, XDATA, add(CFA_XSP16, literal(-7)))
          CFI (cfiCond80) R7 load(1, XDATA, add(CFA_XSP16, literal(-6)))
          CFI (cfiCond80) ?RET_LOW load(1, XDATA, add(CFA_XSP16, literal(-5)))
          CFI (cfiCond80) ?RET_HIGH load(1, XDATA, add(CFA_XSP16, literal(-4)))
          CFI (cfiCond80) ?BRET_EXT load(1, XDATA, add(CFA_XSP16, literal(-3)))
          CFI (cfiCond80) DPL0 load(1, XDATA, add(CFA_XSP16, literal(-2)))
          CFI (cfiCond80) DPH0 load(1, XDATA, add(CFA_XSP16, literal(-1)))
          CFI (cfiCond80) CFA_SP SP+-2
          CFI (cfiCond80) CFA_XSP16 add(XSP16, 24)
          CFI Block cfiCond81 Using cfiCommon0
          CFI (cfiCond81) Function MT_AfCommandProcessing
          CFI (cfiCond81) Conditional ??CrossCallReturnLabel_85
          CFI (cfiCond81) R6 load(1, XDATA, add(CFA_XSP16, literal(-14)))
          CFI (cfiCond81) VB load(1, XDATA, add(CFA_XSP16, literal(-13)))
          CFI (cfiCond81) V0 load(1, XDATA, add(CFA_XSP16, literal(-12)))
          CFI (cfiCond81) V1 load(1, XDATA, add(CFA_XSP16, literal(-11)))
          CFI (cfiCond81) V2 load(1, XDATA, add(CFA_XSP16, literal(-10)))
          CFI (cfiCond81) V3 load(1, XDATA, add(CFA_XSP16, literal(-9)))
          CFI (cfiCond81) V4 load(1, XDATA, add(CFA_XSP16, literal(-8)))
          CFI (cfiCond81) V5 load(1, XDATA, add(CFA_XSP16, literal(-7)))
          CFI (cfiCond81) R7 load(1, XDATA, add(CFA_XSP16, literal(-6)))
          CFI (cfiCond81) ?RET_LOW load(1, XDATA, add(CFA_XSP16, literal(-5)))
          CFI (cfiCond81) ?RET_HIGH load(1, XDATA, add(CFA_XSP16, literal(-4)))
          CFI (cfiCond81) ?BRET_EXT load(1, XDATA, add(CFA_XSP16, literal(-3)))
          CFI (cfiCond81) DPL0 load(1, XDATA, add(CFA_XSP16, literal(-2)))
          CFI (cfiCond81) DPH0 load(1, XDATA, add(CFA_XSP16, literal(-1)))
          CFI (cfiCond81) CFA_SP SP+-2
          CFI (cfiCond81) CFA_XSP16 add(XSP16, 19)
          CFI Block cfiCond82 Using cfiCommon0
          CFI (cfiCond82) Function MT_AfCommandProcessing
          CFI (cfiCond82) Conditional ??CrossCallReturnLabel_86
          CFI (cfiCond82) R6 load(1, XDATA, add(CFA_XSP16, literal(-14)))
          CFI (cfiCond82) VB load(1, XDATA, add(CFA_XSP16, literal(-13)))
          CFI (cfiCond82) V0 load(1, XDATA, add(CFA_XSP16, literal(-12)))
          CFI (cfiCond82) V1 load(1, XDATA, add(CFA_XSP16, literal(-11)))
          CFI (cfiCond82) V2 load(1, XDATA, add(CFA_XSP16, literal(-10)))
          CFI (cfiCond82) V3 load(1, XDATA, add(CFA_XSP16, literal(-9)))
          CFI (cfiCond82) V4 load(1, XDATA, add(CFA_XSP16, literal(-8)))
          CFI (cfiCond82) V5 load(1, XDATA, add(CFA_XSP16, literal(-7)))
          CFI (cfiCond82) R7 load(1, XDATA, add(CFA_XSP16, literal(-6)))
          CFI (cfiCond82) ?RET_LOW load(1, XDATA, add(CFA_XSP16, literal(-5)))
          CFI (cfiCond82) ?RET_HIGH load(1, XDATA, add(CFA_XSP16, literal(-4)))
          CFI (cfiCond82) ?BRET_EXT load(1, XDATA, add(CFA_XSP16, literal(-3)))
          CFI (cfiCond82) DPL0 load(1, XDATA, add(CFA_XSP16, literal(-2)))
          CFI (cfiCond82) DPH0 load(1, XDATA, add(CFA_XSP16, literal(-1)))
          CFI (cfiCond82) CFA_SP SP+-2
          CFI (cfiCond82) CFA_XSP16 add(XSP16, 19)
          CFI Block cfiPicker83 Using cfiCommon1
          CFI (cfiPicker83) NoFunction
          CFI (cfiPicker83) Picker
        MOVX      @DPTR,A
        MOV       DPL,R0
        MOV       DPH,R1
        RET
          CFI EndBlock cfiCond79
          CFI EndBlock cfiCond80
          CFI EndBlock cfiCond81
          CFI EndBlock cfiCond82
          CFI EndBlock cfiPicker83

        RSEG BANKED_CODE:HUGECODE:NOROOT(0)
?Subroutine20:
          CFI Block cfiCond84 Using cfiCommon0
          CFI Function MT_AfIncomingMsg
          CFI Conditional ??CrossCallReturnLabel_33
          CFI R6 load(1, XDATA, add(CFA_XSP16, literal(-24)))
          CFI VB load(1, XDATA, add(CFA_XSP16, literal(-23)))
          CFI V0 load(1, XDATA, add(CFA_XSP16, literal(-22)))
          CFI V1 load(1, XDATA, add(CFA_XSP16, literal(-21)))
          CFI V2 load(1, XDATA, add(CFA_XSP16, literal(-20)))
          CFI V3 load(1, XDATA, add(CFA_XSP16, literal(-19)))
          CFI V4 load(1, XDATA, add(CFA_XSP16, literal(-18)))
          CFI V5 load(1, XDATA, add(CFA_XSP16, literal(-17)))
          CFI V6 load(1, XDATA, add(CFA_XSP16, literal(-16)))
          CFI V7 load(1, XDATA, add(CFA_XSP16, literal(-15)))
          CFI V8 load(1, XDATA, add(CFA_XSP16, literal(-14)))
          CFI V9 load(1, XDATA, add(CFA_XSP16, literal(-13)))
          CFI V10 load(1, XDATA, add(CFA_XSP16, literal(-12)))
          CFI V11 load(1, XDATA, add(CFA_XSP16, literal(-11)))
          CFI V12 load(1, XDATA, add(CFA_XSP16, literal(-10)))
          CFI V13 load(1, XDATA, add(CFA_XSP16, literal(-9)))
          CFI V14 load(1, XDATA, add(CFA_XSP16, literal(-8)))
          CFI V15 load(1, XDATA, add(CFA_XSP16, literal(-7)))
          CFI R7 load(1, XDATA, add(CFA_XSP16, literal(-6)))
          CFI ?RET_LOW load(1, XDATA, add(CFA_XSP16, literal(-5)))
          CFI ?RET_HIGH load(1, XDATA, add(CFA_XSP16, literal(-4)))
          CFI ?BRET_EXT load(1, XDATA, add(CFA_XSP16, literal(-3)))
          CFI DPL0 load(1, XDATA, add(CFA_XSP16, literal(-2)))
          CFI DPH0 load(1, XDATA, add(CFA_XSP16, literal(-1)))
          CFI CFA_SP SP+-2
          CFI CFA_XSP16 add(XSP16, 24)
          CFI Block cfiCond85 Using cfiCommon0
          CFI (cfiCond85) Function MT_AfIncomingMsg
          CFI (cfiCond85) Conditional ??CrossCallReturnLabel_34
          CFI (cfiCond85) R6 load(1, XDATA, add(CFA_XSP16, literal(-24)))
          CFI (cfiCond85) VB load(1, XDATA, add(CFA_XSP16, literal(-23)))
          CFI (cfiCond85) V0 load(1, XDATA, add(CFA_XSP16, literal(-22)))
          CFI (cfiCond85) V1 load(1, XDATA, add(CFA_XSP16, literal(-21)))
          CFI (cfiCond85) V2 load(1, XDATA, add(CFA_XSP16, literal(-20)))
          CFI (cfiCond85) V3 load(1, XDATA, add(CFA_XSP16, literal(-19)))
          CFI (cfiCond85) V4 load(1, XDATA, add(CFA_XSP16, literal(-18)))
          CFI (cfiCond85) V5 load(1, XDATA, add(CFA_XSP16, literal(-17)))
          CFI (cfiCond85) V6 load(1, XDATA, add(CFA_XSP16, literal(-16)))
          CFI (cfiCond85) V7 load(1, XDATA, add(CFA_XSP16, literal(-15)))
          CFI (cfiCond85) V8 load(1, XDATA, add(CFA_XSP16, literal(-14)))
          CFI (cfiCond85) V9 load(1, XDATA, add(CFA_XSP16, literal(-13)))
          CFI (cfiCond85) V10 load(1, XDATA, add(CFA_XSP16, literal(-12)))
          CFI (cfiCond85) V11 load(1, XDATA, add(CFA_XSP16, literal(-11)))
          CFI (cfiCond85) V12 load(1, XDATA, add(CFA_XSP16, literal(-10)))
          CFI (cfiCond85) V13 load(1, XDATA, add(CFA_XSP16, literal(-9)))
          CFI (cfiCond85) V14 load(1, XDATA, add(CFA_XSP16, literal(-8)))
          CFI (cfiCond85) V15 load(1, XDATA, add(CFA_XSP16, literal(-7)))
          CFI (cfiCond85) R7 load(1, XDATA, add(CFA_XSP16, literal(-6)))
          CFI (cfiCond85) ?RET_LOW load(1, XDATA, add(CFA_XSP16, literal(-5)))
          CFI (cfiCond85) ?RET_HIGH load(1, XDATA, add(CFA_XSP16, literal(-4)))
          CFI (cfiCond85) ?BRET_EXT load(1, XDATA, add(CFA_XSP16, literal(-3)))
          CFI (cfiCond85) DPL0 load(1, XDATA, add(CFA_XSP16, literal(-2)))
          CFI (cfiCond85) DPH0 load(1, XDATA, add(CFA_XSP16, literal(-1)))
          CFI (cfiCond85) CFA_SP SP+-2
          CFI (cfiCond85) CFA_XSP16 add(XSP16, 24)
          CFI Block cfiPicker86 Using cfiCommon1
          CFI (cfiPicker86) NoFunction
          CFI (cfiPicker86) Picker
        LCALL     ?Subroutine34 & 0xFFFF
??CrossCallReturnLabel_55:
        INC       DPTR
        INC       DPTR
        INC       DPTR
        INC       DPTR
        INC       DPTR
        INC       DPTR
        INC       DPTR
        RET
          CFI EndBlock cfiCond84
          CFI EndBlock cfiCond85
          CFI EndBlock cfiPicker86

        RSEG BANKED_CODE:HUGECODE:NOROOT(0)
?Subroutine19:
          CFI Block cfiCond87 Using cfiCommon0
          CFI Function MT_AfIncomingMsg
          CFI Conditional ??CrossCallReturnLabel_31
          CFI R6 load(1, XDATA, add(CFA_XSP16, literal(-24)))
          CFI VB load(1, XDATA, add(CFA_XSP16, literal(-23)))
          CFI V0 load(1, XDATA, add(CFA_XSP16, literal(-22)))
          CFI V1 load(1, XDATA, add(CFA_XSP16, literal(-21)))
          CFI V2 load(1, XDATA, add(CFA_XSP16, literal(-20)))
          CFI V3 load(1, XDATA, add(CFA_XSP16, literal(-19)))
          CFI V4 load(1, XDATA, add(CFA_XSP16, literal(-18)))
          CFI V5 load(1, XDATA, add(CFA_XSP16, literal(-17)))
          CFI V6 load(1, XDATA, add(CFA_XSP16, literal(-16)))
          CFI V7 load(1, XDATA, add(CFA_XSP16, literal(-15)))
          CFI V8 load(1, XDATA, add(CFA_XSP16, literal(-14)))
          CFI V9 load(1, XDATA, add(CFA_XSP16, literal(-13)))
          CFI V10 load(1, XDATA, add(CFA_XSP16, literal(-12)))
          CFI V11 load(1, XDATA, add(CFA_XSP16, literal(-11)))
          CFI V12 load(1, XDATA, add(CFA_XSP16, literal(-10)))
          CFI V13 load(1, XDATA, add(CFA_XSP16, literal(-9)))
          CFI V14 load(1, XDATA, add(CFA_XSP16, literal(-8)))
          CFI V15 load(1, XDATA, add(CFA_XSP16, literal(-7)))
          CFI R7 load(1, XDATA, add(CFA_XSP16, literal(-6)))
          CFI ?RET_LOW load(1, XDATA, add(CFA_XSP16, literal(-5)))
          CFI ?RET_HIGH load(1, XDATA, add(CFA_XSP16, literal(-4)))
          CFI ?BRET_EXT load(1, XDATA, add(CFA_XSP16, literal(-3)))
          CFI DPL0 load(1, XDATA, add(CFA_XSP16, literal(-2)))
          CFI DPH0 load(1, XDATA, add(CFA_XSP16, literal(-1)))
          CFI CFA_SP SP+-2
          CFI CFA_XSP16 add(XSP16, 24)
          CFI Block cfiCond88 Using cfiCommon0
          CFI (cfiCond88) Function MT_AfIncomingMsg
          CFI (cfiCond88) Conditional ??CrossCallReturnLabel_32
          CFI (cfiCond88) R6 load(1, XDATA, add(CFA_XSP16, literal(-24)))
          CFI (cfiCond88) VB load(1, XDATA, add(CFA_XSP16, literal(-23)))
          CFI (cfiCond88) V0 load(1, XDATA, add(CFA_XSP16, literal(-22)))
          CFI (cfiCond88) V1 load(1, XDATA, add(CFA_XSP16, literal(-21)))
          CFI (cfiCond88) V2 load(1, XDATA, add(CFA_XSP16, literal(-20)))
          CFI (cfiCond88) V3 load(1, XDATA, add(CFA_XSP16, literal(-19)))
          CFI (cfiCond88) V4 load(1, XDATA, add(CFA_XSP16, literal(-18)))
          CFI (cfiCond88) V5 load(1, XDATA, add(CFA_XSP16, literal(-17)))
          CFI (cfiCond88) V6 load(1, XDATA, add(CFA_XSP16, literal(-16)))
          CFI (cfiCond88) V7 load(1, XDATA, add(CFA_XSP16, literal(-15)))
          CFI (cfiCond88) V8 load(1, XDATA, add(CFA_XSP16, literal(-14)))
          CFI (cfiCond88) V9 load(1, XDATA, add(CFA_XSP16, literal(-13)))
          CFI (cfiCond88) V10 load(1, XDATA, add(CFA_XSP16, literal(-12)))
          CFI (cfiCond88) V11 load(1, XDATA, add(CFA_XSP16, literal(-11)))
          CFI (cfiCond88) V12 load(1, XDATA, add(CFA_XSP16, literal(-10)))
          CFI (cfiCond88) V13 load(1, XDATA, add(CFA_XSP16, literal(-9)))
          CFI (cfiCond88) V14 load(1, XDATA, add(CFA_XSP16, literal(-8)))
          CFI (cfiCond88) V15 load(1, XDATA, add(CFA_XSP16, literal(-7)))
          CFI (cfiCond88) R7 load(1, XDATA, add(CFA_XSP16, literal(-6)))
          CFI (cfiCond88) ?RET_LOW load(1, XDATA, add(CFA_XSP16, literal(-5)))
          CFI (cfiCond88) ?RET_HIGH load(1, XDATA, add(CFA_XSP16, literal(-4)))
          CFI (cfiCond88) ?BRET_EXT load(1, XDATA, add(CFA_XSP16, literal(-3)))
          CFI (cfiCond88) DPL0 load(1, XDATA, add(CFA_XSP16, literal(-2)))
          CFI (cfiCond88) DPH0 load(1, XDATA, add(CFA_XSP16, literal(-1)))
          CFI (cfiCond88) CFA_SP SP+-2
          CFI (cfiCond88) CFA_XSP16 add(XSP16, 24)
          CFI Block cfiPicker89 Using cfiCommon1
          CFI (cfiPicker89) NoFunction
          CFI (cfiPicker89) Picker
        LCALL     ?Subroutine32 & 0xFFFF
??CrossCallReturnLabel_54:
        RET
          CFI EndBlock cfiCond87
          CFI EndBlock cfiCond88
          CFI EndBlock cfiPicker89

        RSEG BANKED_CODE:HUGECODE:NOROOT(0)
?Subroutine32:
          CFI Block cfiCond90 Using cfiCommon0
          CFI Function MT_AfIncomingMsg
          CFI Conditional ??CrossCallReturnLabel_54, ??CrossCallReturnLabel_31
          CFI R6 load(1, XDATA, add(CFA_XSP16, literal(-24)))
          CFI VB load(1, XDATA, add(CFA_XSP16, literal(-23)))
          CFI V0 load(1, XDATA, add(CFA_XSP16, literal(-22)))
          CFI V1 load(1, XDATA, add(CFA_XSP16, literal(-21)))
          CFI V2 load(1, XDATA, add(CFA_XSP16, literal(-20)))
          CFI V3 load(1, XDATA, add(CFA_XSP16, literal(-19)))
          CFI V4 load(1, XDATA, add(CFA_XSP16, literal(-18)))
          CFI V5 load(1, XDATA, add(CFA_XSP16, literal(-17)))
          CFI V6 load(1, XDATA, add(CFA_XSP16, literal(-16)))
          CFI V7 load(1, XDATA, add(CFA_XSP16, literal(-15)))
          CFI V8 load(1, XDATA, add(CFA_XSP16, literal(-14)))
          CFI V9 load(1, XDATA, add(CFA_XSP16, literal(-13)))
          CFI V10 load(1, XDATA, add(CFA_XSP16, literal(-12)))
          CFI V11 load(1, XDATA, add(CFA_XSP16, literal(-11)))
          CFI V12 load(1, XDATA, add(CFA_XSP16, literal(-10)))
          CFI V13 load(1, XDATA, add(CFA_XSP16, literal(-9)))
          CFI V14 load(1, XDATA, add(CFA_XSP16, literal(-8)))
          CFI V15 load(1, XDATA, add(CFA_XSP16, literal(-7)))
          CFI R7 load(1, XDATA, add(CFA_XSP16, literal(-6)))
          CFI ?RET_LOW load(1, XDATA, add(CFA_XSP16, literal(-5)))
          CFI ?RET_HIGH load(1, XDATA, add(CFA_XSP16, literal(-4)))
          CFI ?BRET_EXT load(1, XDATA, add(CFA_XSP16, literal(-3)))
          CFI DPL0 load(1, XDATA, add(CFA_XSP16, literal(-2)))
          CFI DPH0 load(1, XDATA, add(CFA_XSP16, literal(-1)))
          CFI CFA_SP SP+-4
          CFI CFA_XSP16 add(XSP16, 24)
          CFI Block cfiCond91 Using cfiCommon0
          CFI (cfiCond91) Function MT_AfIncomingMsg
          CFI (cfiCond91) Conditional ??CrossCallReturnLabel_54, ??CrossCallReturnLabel_32
          CFI (cfiCond91) R6 load(1, XDATA, add(CFA_XSP16, literal(-24)))
          CFI (cfiCond91) VB load(1, XDATA, add(CFA_XSP16, literal(-23)))
          CFI (cfiCond91) V0 load(1, XDATA, add(CFA_XSP16, literal(-22)))
          CFI (cfiCond91) V1 load(1, XDATA, add(CFA_XSP16, literal(-21)))
          CFI (cfiCond91) V2 load(1, XDATA, add(CFA_XSP16, literal(-20)))
          CFI (cfiCond91) V3 load(1, XDATA, add(CFA_XSP16, literal(-19)))
          CFI (cfiCond91) V4 load(1, XDATA, add(CFA_XSP16, literal(-18)))
          CFI (cfiCond91) V5 load(1, XDATA, add(CFA_XSP16, literal(-17)))
          CFI (cfiCond91) V6 load(1, XDATA, add(CFA_XSP16, literal(-16)))
          CFI (cfiCond91) V7 load(1, XDATA, add(CFA_XSP16, literal(-15)))
          CFI (cfiCond91) V8 load(1, XDATA, add(CFA_XSP16, literal(-14)))
          CFI (cfiCond91) V9 load(1, XDATA, add(CFA_XSP16, literal(-13)))
          CFI (cfiCond91) V10 load(1, XDATA, add(CFA_XSP16, literal(-12)))
          CFI (cfiCond91) V11 load(1, XDATA, add(CFA_XSP16, literal(-11)))
          CFI (cfiCond91) V12 load(1, XDATA, add(CFA_XSP16, literal(-10)))
          CFI (cfiCond91) V13 load(1, XDATA, add(CFA_XSP16, literal(-9)))
          CFI (cfiCond91) V14 load(1, XDATA, add(CFA_XSP16, literal(-8)))
          CFI (cfiCond91) V15 load(1, XDATA, add(CFA_XSP16, literal(-7)))
          CFI (cfiCond91) R7 load(1, XDATA, add(CFA_XSP16, literal(-6)))
          CFI (cfiCond91) ?RET_LOW load(1, XDATA, add(CFA_XSP16, literal(-5)))
          CFI (cfiCond91) ?RET_HIGH load(1, XDATA, add(CFA_XSP16, literal(-4)))
          CFI (cfiCond91) ?BRET_EXT load(1, XDATA, add(CFA_XSP16, literal(-3)))
          CFI (cfiCond91) DPL0 load(1, XDATA, add(CFA_XSP16, literal(-2)))
          CFI (cfiCond91) DPH0 load(1, XDATA, add(CFA_XSP16, literal(-1)))
          CFI (cfiCond91) CFA_SP SP+-4
          CFI (cfiCond91) CFA_XSP16 add(XSP16, 24)
          CFI Block cfiCond92 Using cfiCommon0
          CFI (cfiCond92) Function MT_AfIncomingMsg
          CFI (cfiCond92) Conditional ??CrossCallReturnLabel_53, ??CrossCallReturnLabel_2
          CFI (cfiCond92) R6 load(1, XDATA, add(CFA_XSP16, literal(-24)))
          CFI (cfiCond92) VB load(1, XDATA, add(CFA_XSP16, literal(-23)))
          CFI (cfiCond92) V0 load(1, XDATA, add(CFA_XSP16, literal(-22)))
          CFI (cfiCond92) V1 load(1, XDATA, add(CFA_XSP16, literal(-21)))
          CFI (cfiCond92) V2 load(1, XDATA, add(CFA_XSP16, literal(-20)))
          CFI (cfiCond92) V3 load(1, XDATA, add(CFA_XSP16, literal(-19)))
          CFI (cfiCond92) V4 load(1, XDATA, add(CFA_XSP16, literal(-18)))
          CFI (cfiCond92) V5 load(1, XDATA, add(CFA_XSP16, literal(-17)))
          CFI (cfiCond92) V6 load(1, XDATA, add(CFA_XSP16, literal(-16)))
          CFI (cfiCond92) V7 load(1, XDATA, add(CFA_XSP16, literal(-15)))
          CFI (cfiCond92) V8 load(1, XDATA, add(CFA_XSP16, literal(-14)))
          CFI (cfiCond92) V9 load(1, XDATA, add(CFA_XSP16, literal(-13)))
          CFI (cfiCond92) V10 load(1, XDATA, add(CFA_XSP16, literal(-12)))
          CFI (cfiCond92) V11 load(1, XDATA, add(CFA_XSP16, literal(-11)))
          CFI (cfiCond92) V12 load(1, XDATA, add(CFA_XSP16, literal(-10)))
          CFI (cfiCond92) V13 load(1, XDATA, add(CFA_XSP16, literal(-9)))
          CFI (cfiCond92) V14 load(1, XDATA, add(CFA_XSP16, literal(-8)))
          CFI (cfiCond92) V15 load(1, XDATA, add(CFA_XSP16, literal(-7)))
          CFI (cfiCond92) R7 load(1, XDATA, add(CFA_XSP16, literal(-6)))
          CFI (cfiCond92) ?RET_LOW load(1, XDATA, add(CFA_XSP16, literal(-5)))
          CFI (cfiCond92) ?RET_HIGH load(1, XDATA, add(CFA_XSP16, literal(-4)))
          CFI (cfiCond92) ?BRET_EXT load(1, XDATA, add(CFA_XSP16, literal(-3)))
          CFI (cfiCond92) DPL0 load(1, XDATA, add(CFA_XSP16, literal(-2)))
          CFI (cfiCond92) DPH0 load(1, XDATA, add(CFA_XSP16, literal(-1)))
          CFI (cfiCond92) CFA_SP SP+-4
          CFI (cfiCond92) CFA_XSP16 add(XSP16, 24)
          CFI Block cfiCond93 Using cfiCommon0
          CFI (cfiCond93) Function MT_AfIncomingMsg
          CFI (cfiCond93) Conditional ??CrossCallReturnLabel_53, ??CrossCallReturnLabel_3
          CFI (cfiCond93) R6 load(1, XDATA, add(CFA_XSP16, literal(-24)))
          CFI (cfiCond93) VB load(1, XDATA, add(CFA_XSP16, literal(-23)))
          CFI (cfiCond93) V0 load(1, XDATA, add(CFA_XSP16, literal(-22)))
          CFI (cfiCond93) V1 load(1, XDATA, add(CFA_XSP16, literal(-21)))
          CFI (cfiCond93) V2 load(1, XDATA, add(CFA_XSP16, literal(-20)))
          CFI (cfiCond93) V3 load(1, XDATA, add(CFA_XSP16, literal(-19)))
          CFI (cfiCond93) V4 load(1, XDATA, add(CFA_XSP16, literal(-18)))
          CFI (cfiCond93) V5 load(1, XDATA, add(CFA_XSP16, literal(-17)))
          CFI (cfiCond93) V6 load(1, XDATA, add(CFA_XSP16, literal(-16)))
          CFI (cfiCond93) V7 load(1, XDATA, add(CFA_XSP16, literal(-15)))
          CFI (cfiCond93) V8 load(1, XDATA, add(CFA_XSP16, literal(-14)))
          CFI (cfiCond93) V9 load(1, XDATA, add(CFA_XSP16, literal(-13)))
          CFI (cfiCond93) V10 load(1, XDATA, add(CFA_XSP16, literal(-12)))
          CFI (cfiCond93) V11 load(1, XDATA, add(CFA_XSP16, literal(-11)))
          CFI (cfiCond93) V12 load(1, XDATA, add(CFA_XSP16, literal(-10)))
          CFI (cfiCond93) V13 load(1, XDATA, add(CFA_XSP16, literal(-9)))
          CFI (cfiCond93) V14 load(1, XDATA, add(CFA_XSP16, literal(-8)))
          CFI (cfiCond93) V15 load(1, XDATA, add(CFA_XSP16, literal(-7)))
          CFI (cfiCond93) R7 load(1, XDATA, add(CFA_XSP16, literal(-6)))
          CFI (cfiCond93) ?RET_LOW load(1, XDATA, add(CFA_XSP16, literal(-5)))
          CFI (cfiCond93) ?RET_HIGH load(1, XDATA, add(CFA_XSP16, literal(-4)))
          CFI (cfiCond93) ?BRET_EXT load(1, XDATA, add(CFA_XSP16, literal(-3)))
          CFI (cfiCond93) DPL0 load(1, XDATA, add(CFA_XSP16, literal(-2)))
          CFI (cfiCond93) DPH0 load(1, XDATA, add(CFA_XSP16, literal(-1)))
          CFI (cfiCond93) CFA_SP SP+-4
          CFI (cfiCond93) CFA_XSP16 add(XSP16, 24)
          CFI Block cfiPicker94 Using cfiCommon1
          CFI (cfiPicker94) NoFunction
          CFI (cfiPicker94) Picker
        MOVX      A,@DPTR
        MOV       DPL,?V2
        MOV       DPH,?V3
        MOVX      @DPTR,A
        RET
          CFI EndBlock cfiCond90
          CFI EndBlock cfiCond91
          CFI EndBlock cfiCond92
          CFI EndBlock cfiCond93
          CFI EndBlock cfiPicker94

        RSEG BANKED_CODE:HUGECODE:NOROOT(0)
?Subroutine17:
          CFI Block cfiCond95 Using cfiCommon0
          CFI Function MT_AfIncomingMsg
          CFI Conditional ??CrossCallReturnLabel_26
          CFI R6 load(1, XDATA, add(CFA_XSP16, literal(-24)))
          CFI VB load(1, XDATA, add(CFA_XSP16, literal(-23)))
          CFI V0 load(1, XDATA, add(CFA_XSP16, literal(-22)))
          CFI V1 load(1, XDATA, add(CFA_XSP16, literal(-21)))
          CFI V2 load(1, XDATA, add(CFA_XSP16, literal(-20)))
          CFI V3 load(1, XDATA, add(CFA_XSP16, literal(-19)))
          CFI V4 load(1, XDATA, add(CFA_XSP16, literal(-18)))
          CFI V5 load(1, XDATA, add(CFA_XSP16, literal(-17)))
          CFI V6 load(1, XDATA, add(CFA_XSP16, literal(-16)))
          CFI V7 load(1, XDATA, add(CFA_XSP16, literal(-15)))
          CFI V8 load(1, XDATA, add(CFA_XSP16, literal(-14)))
          CFI V9 load(1, XDATA, add(CFA_XSP16, literal(-13)))
          CFI V10 load(1, XDATA, add(CFA_XSP16, literal(-12)))
          CFI V11 load(1, XDATA, add(CFA_XSP16, literal(-11)))
          CFI V12 load(1, XDATA, add(CFA_XSP16, literal(-10)))
          CFI V13 load(1, XDATA, add(CFA_XSP16, literal(-9)))
          CFI V14 load(1, XDATA, add(CFA_XSP16, literal(-8)))
          CFI V15 load(1, XDATA, add(CFA_XSP16, literal(-7)))
          CFI R7 load(1, XDATA, add(CFA_XSP16, literal(-6)))
          CFI ?RET_LOW load(1, XDATA, add(CFA_XSP16, literal(-5)))
          CFI ?RET_HIGH load(1, XDATA, add(CFA_XSP16, literal(-4)))
          CFI ?BRET_EXT load(1, XDATA, add(CFA_XSP16, literal(-3)))
          CFI DPL0 load(1, XDATA, add(CFA_XSP16, literal(-2)))
          CFI DPH0 load(1, XDATA, add(CFA_XSP16, literal(-1)))
          CFI CFA_SP SP+-2
          CFI CFA_XSP16 add(XSP16, 24)
          CFI Block cfiCond96 Using cfiCommon0
          CFI (cfiCond96) Function MT_AfIncomingMsg
          CFI (cfiCond96) Conditional ??CrossCallReturnLabel_27
          CFI (cfiCond96) R6 load(1, XDATA, add(CFA_XSP16, literal(-24)))
          CFI (cfiCond96) VB load(1, XDATA, add(CFA_XSP16, literal(-23)))
          CFI (cfiCond96) V0 load(1, XDATA, add(CFA_XSP16, literal(-22)))
          CFI (cfiCond96) V1 load(1, XDATA, add(CFA_XSP16, literal(-21)))
          CFI (cfiCond96) V2 load(1, XDATA, add(CFA_XSP16, literal(-20)))
          CFI (cfiCond96) V3 load(1, XDATA, add(CFA_XSP16, literal(-19)))
          CFI (cfiCond96) V4 load(1, XDATA, add(CFA_XSP16, literal(-18)))
          CFI (cfiCond96) V5 load(1, XDATA, add(CFA_XSP16, literal(-17)))
          CFI (cfiCond96) V6 load(1, XDATA, add(CFA_XSP16, literal(-16)))
          CFI (cfiCond96) V7 load(1, XDATA, add(CFA_XSP16, literal(-15)))
          CFI (cfiCond96) V8 load(1, XDATA, add(CFA_XSP16, literal(-14)))
          CFI (cfiCond96) V9 load(1, XDATA, add(CFA_XSP16, literal(-13)))
          CFI (cfiCond96) V10 load(1, XDATA, add(CFA_XSP16, literal(-12)))
          CFI (cfiCond96) V11 load(1, XDATA, add(CFA_XSP16, literal(-11)))
          CFI (cfiCond96) V12 load(1, XDATA, add(CFA_XSP16, literal(-10)))
          CFI (cfiCond96) V13 load(1, XDATA, add(CFA_XSP16, literal(-9)))
          CFI (cfiCond96) V14 load(1, XDATA, add(CFA_XSP16, literal(-8)))
          CFI (cfiCond96) V15 load(1, XDATA, add(CFA_XSP16, literal(-7)))
          CFI (cfiCond96) R7 load(1, XDATA, add(CFA_XSP16, literal(-6)))
          CFI (cfiCond96) ?RET_LOW load(1, XDATA, add(CFA_XSP16, literal(-5)))
          CFI (cfiCond96) ?RET_HIGH load(1, XDATA, add(CFA_XSP16, literal(-4)))
          CFI (cfiCond96) ?BRET_EXT load(1, XDATA, add(CFA_XSP16, literal(-3)))
          CFI (cfiCond96) DPL0 load(1, XDATA, add(CFA_XSP16, literal(-2)))
          CFI (cfiCond96) DPH0 load(1, XDATA, add(CFA_XSP16, literal(-1)))
          CFI (cfiCond96) CFA_SP SP+-2
          CFI (cfiCond96) CFA_XSP16 add(XSP16, 24)
          CFI Block cfiCond97 Using cfiCommon0
          CFI (cfiCond97) Function MT_AfIncomingMsg
          CFI (cfiCond97) Conditional ??CrossCallReturnLabel_28
          CFI (cfiCond97) R6 load(1, XDATA, add(CFA_XSP16, literal(-24)))
          CFI (cfiCond97) VB load(1, XDATA, add(CFA_XSP16, literal(-23)))
          CFI (cfiCond97) V0 load(1, XDATA, add(CFA_XSP16, literal(-22)))
          CFI (cfiCond97) V1 load(1, XDATA, add(CFA_XSP16, literal(-21)))
          CFI (cfiCond97) V2 load(1, XDATA, add(CFA_XSP16, literal(-20)))
          CFI (cfiCond97) V3 load(1, XDATA, add(CFA_XSP16, literal(-19)))
          CFI (cfiCond97) V4 load(1, XDATA, add(CFA_XSP16, literal(-18)))
          CFI (cfiCond97) V5 load(1, XDATA, add(CFA_XSP16, literal(-17)))
          CFI (cfiCond97) V6 load(1, XDATA, add(CFA_XSP16, literal(-16)))
          CFI (cfiCond97) V7 load(1, XDATA, add(CFA_XSP16, literal(-15)))
          CFI (cfiCond97) V8 load(1, XDATA, add(CFA_XSP16, literal(-14)))
          CFI (cfiCond97) V9 load(1, XDATA, add(CFA_XSP16, literal(-13)))
          CFI (cfiCond97) V10 load(1, XDATA, add(CFA_XSP16, literal(-12)))
          CFI (cfiCond97) V11 load(1, XDATA, add(CFA_XSP16, literal(-11)))
          CFI (cfiCond97) V12 load(1, XDATA, add(CFA_XSP16, literal(-10)))
          CFI (cfiCond97) V13 load(1, XDATA, add(CFA_XSP16, literal(-9)))
          CFI (cfiCond97) V14 load(1, XDATA, add(CFA_XSP16, literal(-8)))
          CFI (cfiCond97) V15 load(1, XDATA, add(CFA_XSP16, literal(-7)))
          CFI (cfiCond97) R7 load(1, XDATA, add(CFA_XSP16, literal(-6)))
          CFI (cfiCond97) ?RET_LOW load(1, XDATA, add(CFA_XSP16, literal(-5)))
          CFI (cfiCond97) ?RET_HIGH load(1, XDATA, add(CFA_XSP16, literal(-4)))
          CFI (cfiCond97) ?BRET_EXT load(1, XDATA, add(CFA_XSP16, literal(-3)))
          CFI (cfiCond97) DPL0 load(1, XDATA, add(CFA_XSP16, literal(-2)))
          CFI (cfiCond97) DPH0 load(1, XDATA, add(CFA_XSP16, literal(-1)))
          CFI (cfiCond97) CFA_SP SP+-2
          CFI (cfiCond97) CFA_XSP16 add(XSP16, 24)
          CFI Block cfiPicker98 Using cfiCommon1
          CFI (cfiPicker98) NoFunction
          CFI (cfiPicker98) Picker
        MOVX      A,@DPTR
        MOV       DPL,R4
        MOV       DPH,R5
        MOVX      @DPTR,A
        RET
          CFI EndBlock cfiCond95
          CFI EndBlock cfiCond96
          CFI EndBlock cfiCond97
          CFI EndBlock cfiPicker98

        RSEG BANKED_CODE:HUGECODE:NOROOT(0)
?Subroutine16:
          CFI Block cfiCond99 Using cfiCommon0
          CFI Function MT_AfIncomingMsg
          CFI Conditional ??CrossCallReturnLabel_89
          CFI R6 load(1, XDATA, add(CFA_XSP16, literal(-24)))
          CFI VB load(1, XDATA, add(CFA_XSP16, literal(-23)))
          CFI V0 load(1, XDATA, add(CFA_XSP16, literal(-22)))
          CFI V1 load(1, XDATA, add(CFA_XSP16, literal(-21)))
          CFI V2 load(1, XDATA, add(CFA_XSP16, literal(-20)))
          CFI V3 load(1, XDATA, add(CFA_XSP16, literal(-19)))
          CFI V4 load(1, XDATA, add(CFA_XSP16, literal(-18)))
          CFI V5 load(1, XDATA, add(CFA_XSP16, literal(-17)))
          CFI V6 load(1, XDATA, add(CFA_XSP16, literal(-16)))
          CFI V7 load(1, XDATA, add(CFA_XSP16, literal(-15)))
          CFI V8 load(1, XDATA, add(CFA_XSP16, literal(-14)))
          CFI V9 load(1, XDATA, add(CFA_XSP16, literal(-13)))
          CFI V10 load(1, XDATA, add(CFA_XSP16, literal(-12)))
          CFI V11 load(1, XDATA, add(CFA_XSP16, literal(-11)))
          CFI V12 load(1, XDATA, add(CFA_XSP16, literal(-10)))
          CFI V13 load(1, XDATA, add(CFA_XSP16, literal(-9)))
          CFI V14 load(1, XDATA, add(CFA_XSP16, literal(-8)))
          CFI V15 load(1, XDATA, add(CFA_XSP16, literal(-7)))
          CFI R7 load(1, XDATA, add(CFA_XSP16, literal(-6)))
          CFI ?RET_LOW load(1, XDATA, add(CFA_XSP16, literal(-5)))
          CFI ?RET_HIGH load(1, XDATA, add(CFA_XSP16, literal(-4)))
          CFI ?BRET_EXT load(1, XDATA, add(CFA_XSP16, literal(-3)))
          CFI DPL0 load(1, XDATA, add(CFA_XSP16, literal(-2)))
          CFI DPH0 load(1, XDATA, add(CFA_XSP16, literal(-1)))
          CFI CFA_SP SP+-2
          CFI CFA_XSP16 add(XSP16, 24)
          CFI Block cfiCond100 Using cfiCommon0
          CFI (cfiCond100) Function MT_AfIncomingMsg
          CFI (cfiCond100) Conditional ??CrossCallReturnLabel_90
          CFI (cfiCond100) R6 load(1, XDATA, add(CFA_XSP16, literal(-24)))
          CFI (cfiCond100) VB load(1, XDATA, add(CFA_XSP16, literal(-23)))
          CFI (cfiCond100) V0 load(1, XDATA, add(CFA_XSP16, literal(-22)))
          CFI (cfiCond100) V1 load(1, XDATA, add(CFA_XSP16, literal(-21)))
          CFI (cfiCond100) V2 load(1, XDATA, add(CFA_XSP16, literal(-20)))
          CFI (cfiCond100) V3 load(1, XDATA, add(CFA_XSP16, literal(-19)))
          CFI (cfiCond100) V4 load(1, XDATA, add(CFA_XSP16, literal(-18)))
          CFI (cfiCond100) V5 load(1, XDATA, add(CFA_XSP16, literal(-17)))
          CFI (cfiCond100) V6 load(1, XDATA, add(CFA_XSP16, literal(-16)))
          CFI (cfiCond100) V7 load(1, XDATA, add(CFA_XSP16, literal(-15)))
          CFI (cfiCond100) V8 load(1, XDATA, add(CFA_XSP16, literal(-14)))
          CFI (cfiCond100) V9 load(1, XDATA, add(CFA_XSP16, literal(-13)))
          CFI (cfiCond100) V10 load(1, XDATA, add(CFA_XSP16, literal(-12)))
          CFI (cfiCond100) V11 load(1, XDATA, add(CFA_XSP16, literal(-11)))
          CFI (cfiCond100) V12 load(1, XDATA, add(CFA_XSP16, literal(-10)))
          CFI (cfiCond100) V13 load(1, XDATA, add(CFA_XSP16, literal(-9)))
          CFI (cfiCond100) V14 load(1, XDATA, add(CFA_XSP16, literal(-8)))
          CFI (cfiCond100) V15 load(1, XDATA, add(CFA_XSP16, literal(-7)))
          CFI (cfiCond100) R7 load(1, XDATA, add(CFA_XSP16, literal(-6)))
          CFI (cfiCond100) ?RET_LOW load(1, XDATA, add(CFA_XSP16, literal(-5)))
          CFI (cfiCond100) ?RET_HIGH load(1, XDATA, add(CFA_XSP16, literal(-4)))
          CFI (cfiCond100) ?BRET_EXT load(1, XDATA, add(CFA_XSP16, literal(-3)))
          CFI (cfiCond100) DPL0 load(1, XDATA, add(CFA_XSP16, literal(-2)))
          CFI (cfiCond100) DPH0 load(1, XDATA, add(CFA_XSP16, literal(-1)))
          CFI (cfiCond100) CFA_SP SP+-2
          CFI (cfiCond100) CFA_XSP16 add(XSP16, 24)
          CFI Block cfiPicker101 Using cfiCommon1
          CFI (cfiPicker101) NoFunction
          CFI (cfiPicker101) Picker
        MOVX      @DPTR,A
        MOV       DPL,R0
        MOV       DPH,R1
        INC       DPTR
          CFI EndBlock cfiCond99
          CFI EndBlock cfiCond100
          CFI EndBlock cfiPicker101
        REQUIRE ??Subroutine43_0
        ; // Fall through to label ??Subroutine43_0

        RSEG BANKED_CODE:HUGECODE:NOROOT(0)
??Subroutine43_0:
          CFI Block cfiCond102 Using cfiCommon0
          CFI Function MT_AfIncomingMsg
          CFI Conditional ??CrossCallReturnLabel_91
          CFI R6 load(1, XDATA, add(CFA_XSP16, literal(-24)))
          CFI VB load(1, XDATA, add(CFA_XSP16, literal(-23)))
          CFI V0 load(1, XDATA, add(CFA_XSP16, literal(-22)))
          CFI V1 load(1, XDATA, add(CFA_XSP16, literal(-21)))
          CFI V2 load(1, XDATA, add(CFA_XSP16, literal(-20)))
          CFI V3 load(1, XDATA, add(CFA_XSP16, literal(-19)))
          CFI V4 load(1, XDATA, add(CFA_XSP16, literal(-18)))
          CFI V5 load(1, XDATA, add(CFA_XSP16, literal(-17)))
          CFI V6 load(1, XDATA, add(CFA_XSP16, literal(-16)))
          CFI V7 load(1, XDATA, add(CFA_XSP16, literal(-15)))
          CFI V8 load(1, XDATA, add(CFA_XSP16, literal(-14)))
          CFI V9 load(1, XDATA, add(CFA_XSP16, literal(-13)))
          CFI V10 load(1, XDATA, add(CFA_XSP16, literal(-12)))
          CFI V11 load(1, XDATA, add(CFA_XSP16, literal(-11)))
          CFI V12 load(1, XDATA, add(CFA_XSP16, literal(-10)))
          CFI V13 load(1, XDATA, add(CFA_XSP16, literal(-9)))
          CFI V14 load(1, XDATA, add(CFA_XSP16, literal(-8)))
          CFI V15 load(1, XDATA, add(CFA_XSP16, literal(-7)))
          CFI R7 load(1, XDATA, add(CFA_XSP16, literal(-6)))
          CFI ?RET_LOW load(1, XDATA, add(CFA_XSP16, literal(-5)))
          CFI ?RET_HIGH load(1, XDATA, add(CFA_XSP16, literal(-4)))
          CFI ?BRET_EXT load(1, XDATA, add(CFA_XSP16, literal(-3)))
          CFI DPL0 load(1, XDATA, add(CFA_XSP16, literal(-2)))
          CFI DPH0 load(1, XDATA, add(CFA_XSP16, literal(-1)))
          CFI CFA_SP SP+-2
          CFI CFA_XSP16 add(XSP16, 24)
          CFI Block cfiCond103 Using cfiCommon0
          CFI (cfiCond103) Function MT_AfIncomingMsg
          CFI (cfiCond103) Conditional ??CrossCallReturnLabel_89
          CFI (cfiCond103) R6 load(1, XDATA, add(CFA_XSP16, literal(-24)))
          CFI (cfiCond103) VB load(1, XDATA, add(CFA_XSP16, literal(-23)))
          CFI (cfiCond103) V0 load(1, XDATA, add(CFA_XSP16, literal(-22)))
          CFI (cfiCond103) V1 load(1, XDATA, add(CFA_XSP16, literal(-21)))
          CFI (cfiCond103) V2 load(1, XDATA, add(CFA_XSP16, literal(-20)))
          CFI (cfiCond103) V3 load(1, XDATA, add(CFA_XSP16, literal(-19)))
          CFI (cfiCond103) V4 load(1, XDATA, add(CFA_XSP16, literal(-18)))
          CFI (cfiCond103) V5 load(1, XDATA, add(CFA_XSP16, literal(-17)))
          CFI (cfiCond103) V6 load(1, XDATA, add(CFA_XSP16, literal(-16)))
          CFI (cfiCond103) V7 load(1, XDATA, add(CFA_XSP16, literal(-15)))
          CFI (cfiCond103) V8 load(1, XDATA, add(CFA_XSP16, literal(-14)))
          CFI (cfiCond103) V9 load(1, XDATA, add(CFA_XSP16, literal(-13)))
          CFI (cfiCond103) V10 load(1, XDATA, add(CFA_XSP16, literal(-12)))
          CFI (cfiCond103) V11 load(1, XDATA, add(CFA_XSP16, literal(-11)))
          CFI (cfiCond103) V12 load(1, XDATA, add(CFA_XSP16, literal(-10)))
          CFI (cfiCond103) V13 load(1, XDATA, add(CFA_XSP16, literal(-9)))
          CFI (cfiCond103) V14 load(1, XDATA, add(CFA_XSP16, literal(-8)))
          CFI (cfiCond103) V15 load(1, XDATA, add(CFA_XSP16, literal(-7)))
          CFI (cfiCond103) R7 load(1, XDATA, add(CFA_XSP16, literal(-6)))
          CFI (cfiCond103) ?RET_LOW load(1, XDATA, add(CFA_XSP16, literal(-5)))
          CFI (cfiCond103) ?RET_HIGH load(1, XDATA, add(CFA_XSP16, literal(-4)))
