///////////////////////////////////////////////////////////////////////////////
//
// IAR C/C++ Compiler V10.10.1.4655 for 8051              21/Jul/2021  15:47:09
// Copyright 2004-2017 IAR Systems AB.
// Standalone license - IAR Embedded Workbench for 8051
//
//    Core               =  plain
//    Code model         =  banked
//    Data model         =  large
//    Calling convention =  xdata reentrant
//    Constant location  =  data_rom
//    Dptr setup         =  1,16
//                          
//    Source file        =  
//        D:\work\zigbee\ti_cc2530_zstack\Z-Stack
//        3.0.2\Components\stack\zcl\zcl.c
//    Command line       =  
//        -f C:\Users\WenHao\AppData\Local\Temp\EWD15E.tmp
//        ("D:\work\zigbee\ti_cc2530_zstack\Z-Stack
//        3.0.2\Components\stack\zcl\zcl.c" -D CSTX_BOARD -D SECURE=1 -D
//        TC_LINKKEY_JOIN -D NV_INIT -D NV_RESTORE -D xPOWER_SAVING -D
//        NWK_AUTO_POLL -D xZTOOL_P1 -D xMT_TASK -D xMT_APP_FUNC -D
//        xMT_SYS_FUNC -D xMT_ZDO_FUNC -D xMT_ZDO_MGMT -D xMT_APP_CNF_FUNC -D
//        LCD_SUPPORTED=DEBUG -D MULTICAST_ENABLED=FALSE -D ZCL_IDENTIFY -D
//        ZCL_READ -D ZCL_DISCOVER -D ZCL_WRITE -D ZCL_BASIC -D
//        ZCL_REPORTING_DEVICE -D HAL_LED=TRUE -D HAL_UART=TRUE -D HAL_KEY=TRUE
//        -D ISR_KEYINTERRUPT -lC "D:\work\zigbee\ti_cc2530_zstack\Z-Stack
//        3.0.2\Projects\zstack\HomeAutomation\AcoinfoZigBeeSampleLight\CC2530DB\EndDeviceEB\List"
//        -lA "D:\work\zigbee\ti_cc2530_zstack\Z-Stack
//        3.0.2\Projects\zstack\HomeAutomation\AcoinfoZigBeeSampleLight\CC2530DB\EndDeviceEB\List"
//        --diag_suppress Pe001,Pa010 -o
//        "D:\work\zigbee\ti_cc2530_zstack\Z-Stack
//        3.0.2\Projects\zstack\HomeAutomation\AcoinfoZigBeeSampleLight\CC2530DB\EndDeviceEB\Obj"
//        -e --debug --core=plain --dptr=16,1 --data_model=large
//        --code_model=banked --calling_convention=xdata_reentrant
//        --place_constants=data_rom --nr_virtual_regs 16 -f
//        "D:\work\zigbee\ti_cc2530_zstack\Z-Stack
//        3.0.2\Projects\zstack\HomeAutomation\AcoinfoZigBeeSampleLight\CC2530DB\..\..\..\Tools\CC2530DB\f8wEndev.cfg"
//        (-DCPU32MHZ -DROOT=__near_func -DMAC_CFG_TX_DATA_MAX=3
//        -DMAC_CFG_TX_MAX=6 -DMAC_CFG_RX_MAX=3) -f
//        "D:\work\zigbee\ti_cc2530_zstack\Z-Stack
//        3.0.2\Projects\zstack\HomeAutomation\AcoinfoZigBeeSampleLight\CC2530DB\..\..\..\Tools\CC2530DB\f8wConfig.cfg"
//        (-DZIGBEEPRO -DSECURE=1 -DZG_SECURE_DYNAMIC=0 -DREFLECTOR
//        -DDEFAULT_CHANLIST=0x00100000 -DZDAPP_CONFIG_PAN_ID=0xFFFF
//        -DNWK_START_DELAY=100 -DEXTENDED_JOINING_RANDOM_MASK=0x007F
//        -DBEACON_REQUEST_DELAY=100 -DBEACON_REQ_DELAY_MASK=0x00FF
//        -DLINK_STATUS_JITTER_MASK=0x007F -DROUTE_EXPIRY_TIME=30
//        -DAPSC_ACK_WAIT_DURATION_POLLED=3000 -DNWK_INDIRECT_MSG_TIMEOUT=7
//        -DMAX_RREQ_ENTRIES=8 -DAPSC_MAX_FRAME_RETRIES=3
//        -DNWK_MAX_DATA_RETRIES=2 -DMAX_POLL_FAILURE_RETRIES=2 -DMAX_BCAST=9
//        -DAPS_MAX_GROUPS=16 -DMAX_RTG_ENTRIES=40 -DNWK_MAX_BINDING_ENTRIES=4
//        -DMAX_BINDING_CLUSTER_IDS=4 -DDEFAULT_KEY={0}
//        -DMAC_MAX_FRAME_SIZE=116 -DZDNWKMGR_MIN_TRANSMISSIONS=20
//        "-DCONST=const __code" -DGENERIC=__generic -DRFD_RCVC_ALWAYS_ON=FALSE
//        -DPOLL_RATE=1000 -DQUEUED_POLL_RATE=100 -DRESPONSE_POLL_RATE=100
//        -DREJOIN_POLL_RATE=440 -DREJOIN_BACKOFF=900000 -DREJOIN_SCAN=900000
//        -DENABLE_LED4_DISABLE_S1) -f "D:\work\zigbee\ti_cc2530_zstack\Z-Stack
//        3.0.2\Projects\zstack\HomeAutomation\AcoinfoZigBeeSampleLight\CC2530DB\..\..\..\Tools\CC2530DB\f8wZCL.cfg"
//        -I "D:\work\zigbee\ti_cc2530_zstack\Z-Stack
//        3.0.2\Projects\zstack\HomeAutomation\AcoinfoZigBeeSampleLight\CC2530DB\"
//        -I "D:\work\zigbee\ti_cc2530_zstack\Z-Stack
//        3.0.2\Projects\zstack\HomeAutomation\AcoinfoZigBeeSampleLight\CC2530DB\..\Source\"
//        -I "D:\work\zigbee\ti_cc2530_zstack\Z-Stack
//        3.0.2\Projects\zstack\HomeAutomation\AcoinfoZigBeeSampleLight\CC2530DB\..\..\Source\"
//        -I "D:\work\zigbee\ti_cc2530_zstack\Z-Stack
//        3.0.2\Projects\zstack\HomeAutomation\AcoinfoZigBeeSampleLight\CC2530DB\..\..\..\ZMain\TI2530DB\"
//        -I "D:\work\zigbee\ti_cc2530_zstack\Z-Stack
//        3.0.2\Projects\zstack\HomeAutomation\AcoinfoZigBeeSampleLight\CC2530DB\..\..\..\..\..\Components\hal\include\"
//        -I "D:\work\zigbee\ti_cc2530_zstack\Z-Stack
//        3.0.2\Projects\zstack\HomeAutomation\AcoinfoZigBeeSampleLight\CC2530DB\..\..\..\..\..\Components\hal\target\CC2530EB\"
//        -I "D:\work\zigbee\ti_cc2530_zstack\Z-Stack
//        3.0.2\Projects\zstack\HomeAutomation\AcoinfoZigBeeSampleLight\CC2530DB\..\..\..\..\..\Components\mac\include\"
//        -I "D:\work\zigbee\ti_cc2530_zstack\Z-Stack
//        3.0.2\Projects\zstack\HomeAutomation\AcoinfoZigBeeSampleLight\CC2530DB\..\..\..\..\..\Components\mac\high_level\"
//        -I "D:\work\zigbee\ti_cc2530_zstack\Z-Stack
//        3.0.2\Projects\zstack\HomeAutomation\AcoinfoZigBeeSampleLight\CC2530DB\..\..\..\..\..\Components\mac\low_level\srf04\"
//        -I "D:\work\zigbee\ti_cc2530_zstack\Z-Stack
//        3.0.2\Projects\zstack\HomeAutomation\AcoinfoZigBeeSampleLight\CC2530DB\..\..\..\..\..\Components\mac\low_level\srf04\single_chip\"
//        -I "D:\work\zigbee\ti_cc2530_zstack\Z-Stack
//        3.0.2\Projects\zstack\HomeAutomation\AcoinfoZigBeeSampleLight\CC2530DB\..\..\..\..\..\Components\mt\"
//        -I "D:\work\zigbee\ti_cc2530_zstack\Z-Stack
//        3.0.2\Projects\zstack\HomeAutomation\AcoinfoZigBeeSampleLight\CC2530DB\..\..\..\..\..\Components\osal\include\"
//        -I "D:\work\zigbee\ti_cc2530_zstack\Z-Stack
//        3.0.2\Projects\zstack\HomeAutomation\AcoinfoZigBeeSampleLight\CC2530DB\..\..\..\..\..\Components\services\saddr\"
//        -I "D:\work\zigbee\ti_cc2530_zstack\Z-Stack
//        3.0.2\Projects\zstack\HomeAutomation\AcoinfoZigBeeSampleLight\CC2530DB\..\..\..\..\..\Components\services\sdata\"
//        -I "D:\work\zigbee\ti_cc2530_zstack\Z-Stack
//        3.0.2\Projects\zstack\HomeAutomation\AcoinfoZigBeeSampleLight\CC2530DB\..\..\..\..\..\Components\stack\af\"
//        -I "D:\work\zigbee\ti_cc2530_zstack\Z-Stack
//        3.0.2\Projects\zstack\HomeAutomation\AcoinfoZigBeeSampleLight\CC2530DB\..\..\..\..\..\Components\stack\bdb\"
//        -I "D:\work\zigbee\ti_cc2530_zstack\Z-Stack
//        3.0.2\Projects\zstack\HomeAutomation\AcoinfoZigBeeSampleLight\CC2530DB\..\..\..\..\..\Components\stack\gp\"
//        -I "D:\work\zigbee\ti_cc2530_zstack\Z-Stack
//        3.0.2\Projects\zstack\HomeAutomation\AcoinfoZigBeeSampleLight\CC2530DB\..\..\..\..\..\Components\stack\nwk\"
//        -I "D:\work\zigbee\ti_cc2530_zstack\Z-Stack
//        3.0.2\Projects\zstack\HomeAutomation\AcoinfoZigBeeSampleLight\CC2530DB\..\..\..\..\..\Components\stack\sapi\"
//        -I "D:\work\zigbee\ti_cc2530_zstack\Z-Stack
//        3.0.2\Projects\zstack\HomeAutomation\AcoinfoZigBeeSampleLight\CC2530DB\..\..\..\..\..\Components\stack\sec\"
//        -I "D:\work\zigbee\ti_cc2530_zstack\Z-Stack
//        3.0.2\Projects\zstack\HomeAutomation\AcoinfoZigBeeSampleLight\CC2530DB\..\..\..\..\..\Components\stack\sys\"
//        -I "D:\work\zigbee\ti_cc2530_zstack\Z-Stack
//        3.0.2\Projects\zstack\HomeAutomation\AcoinfoZigBeeSampleLight\CC2530DB\..\..\..\..\..\Components\stack\zcl\"
//        -I "D:\work\zigbee\ti_cc2530_zstack\Z-Stack
//        3.0.2\Projects\zstack\HomeAutomation\AcoinfoZigBeeSampleLight\CC2530DB\..\..\..\..\..\Components\stack\zdo\"
//        -I "D:\work\zigbee\ti_cc2530_zstack\Z-Stack
//        3.0.2\Projects\zstack\HomeAutomation\AcoinfoZigBeeSampleLight\CC2530DB\..\..\..\..\..\Components\zmac\"
//        -I "D:\work\zigbee\ti_cc2530_zstack\Z-Stack
//        3.0.2\Projects\zstack\HomeAutomation\AcoinfoZigBeeSampleLight\CC2530DB\..\..\..\..\..\Components\zmac\f8w\"
//        -Ohz --require_prototypes)
//    Locale             =  Chinese (Simplified)_China.936
//    List file          =  
//        D:\work\zigbee\ti_cc2530_zstack\Z-Stack
//        3.0.2\Projects\zstack\HomeAutomation\AcoinfoZigBeeSampleLight\CC2530DB\EndDeviceEB\List\zcl.s51
//
///////////////////////////////////////////////////////////////////////////////

        NAME zcl

        RTMODEL "__SystemLibrary", "CLib"
        RTMODEL "__calling_convention", "xdata_reentrant"
        RTMODEL "__code_model", "banked"
        RTMODEL "__core", "plain"
        RTMODEL "__data_model", "large"
        RTMODEL "__dptr_size", "16"
        RTMODEL "__extended_stack", "disabled"
        RTMODEL "__location_for_constants", "data"
        RTMODEL "__number_of_dptrs", "1"
        RTMODEL "__register_banks", "*"
        RTMODEL "__rt_version", "1"

        RSEG DOVERLAY:DATA:NOROOT(0)
        RSEG IOVERLAY:IDATA:NOROOT(0)
        RSEG ISTACK:IDATA:NOROOT(0)
        RSEG PSTACK:XDATA:NOROOT(0)
        RSEG XSTACK:XDATA:NOROOT(0)

        EXTERN ?V0
        EXTERN ?V1
        EXTERN ?V2
        EXTERN ?V3
        EXTERN ?V4
        EXTERN ?V5
        EXTERN ?V6
        EXTERN ?V7
        EXTERN ?V8
        EXTERN ?V9
        EXTERN ?V10
        EXTERN ?V12
        EXTERN ?V13
        EXTERN ?V14
        EXTERN ?V15
        EXTERN ?V11
        EXTERN ?ALLOC_XSTACK8
        EXTERN ?BANKED_ENTER_XDATA
        EXTERN ?BANKED_LEAVE_XDATA
        EXTERN ?BDISPATCH
        EXTERN ?BRET
        EXTERN ?CALL_IND
        EXTERN ?DEALLOC_XSTACK8
        EXTERN ?L_MOV_X
        EXTERN ?MOVE_LONG8_XDATA_CODE
        EXTERN ?MOVE_LONG8_XDATA_XDATA
        EXTERN ?PUSH_XSTACK8_X_FOUR
        EXTERN ?PUSH_XSTACK8_X_TWO
        EXTERN ?PUSH_XSTACK_I_ONE
        EXTERN ?PUSH_XSTACK_I_THREE
        EXTERN ?PUSH_XSTACK_I_TWO
        EXTERN ?S_SHL
        EXTERN ?UC_SWITCH_SPARSE
        EXTERN ?UL_SHR
        EXTERN ?US_DIV_MOD
        EXTERN ?US_SHR
        EXTERN ?VB
        EXTERN ?XSP
        EXTERN ?XSTACK_DISP0_8
        EXTERN ?XSTACK_DISP100_8
        EXTERN ?XSTACK_DISP101_8
        EXTERN ?XSTACK_DISP102_8
        EXTERN __INIT_XDATA_I
        EXTERN __INIT_XDATA_Z

        PUBLIC `??zclAnalogDataType::?relay`
        FUNCTION `??zclAnalogDataType::?relay`,0203H
        FUNCTION `??zclAuthorizeWrite::?relay`,0203H
        FUNCTION `??zclBuildHdr::?relay`,0203H
        PUBLIC `??zclFindAttrRec::?relay`
        FUNCTION `??zclFindAttrRec::?relay`,0203H
        PUBLIC `??zclFindAttrRecsList::?relay`
        FUNCTION `??zclFindAttrRecsList::?relay`,0203H
        FUNCTION `??zclFindClusterOption::?relay`,0203H
        PUBLIC `??zclFindCmdRec::?relay`
        FUNCTION `??zclFindCmdRec::?relay`,0203H
        FUNCTION `??zclFindCmdRecsList::?relay`,0203H
        FUNCTION `??zclFindNextAttrRec::?relay`,0203H
        FUNCTION `??zclFindNextCmdRec::?relay`,0203H
        PUBLIC `??zclGetAttrDataLength::?relay`
        FUNCTION `??zclGetAttrDataLength::?relay`,0203H
        FUNCTION `??zclGetAttrDataLengthUsingCB::?relay`,0203H
        FUNCTION `??zclGetAuthorizeCB::?relay`,0203H
        FUNCTION `??zclGetClusterOption::?relay`,0203H
        PUBLIC `??zclGetDataTypeLength::?relay`
        FUNCTION `??zclGetDataTypeLength::?relay`,0203H
        FUNCTION `??zclGetReadWriteCB::?relay`,0203H
        PUBLIC `??zclParseHdr::?relay`
        FUNCTION `??zclParseHdr::?relay`,0203H
        PUBLIC `??zclParseInConfigReportCmd::?relay`
        FUNCTION `??zclParseInConfigReportCmd::?relay`,0203H
        FUNCTION `??zclParseInDefaultRspCmd::?relay`,0203H
        PUBLIC `??zclParseInDiscAttrsCmd::?relay`
        FUNCTION `??zclParseInDiscAttrsCmd::?relay`,0203H
        FUNCTION `??zclParseInDiscAttrsExtRspCmd::?relay`,0203H
        FUNCTION `??zclParseInDiscAttrsRspCmd::?relay`,0203H
        PUBLIC `??zclParseInDiscCmdsCmd::?relay`
        FUNCTION `??zclParseInDiscCmdsCmd::?relay`,0203H
        FUNCTION `??zclParseInDiscCmdsRspCmd::?relay`,0203H
        PUBLIC `??zclParseInReadCmd::?relay`
        FUNCTION `??zclParseInReadCmd::?relay`,0203H
        PUBLIC `??zclParseInReadReportCfgCmd::?relay`
        FUNCTION `??zclParseInReadReportCfgCmd::?relay`,0203H
        FUNCTION `??zclParseInReadRspCmd::?relay`,0203H
        PUBLIC `??zclParseInWriteCmd::?relay`
        FUNCTION `??zclParseInWriteCmd::?relay`,0203H
        FUNCTION `??zclParseInWriteRspCmd::?relay`,0203H
        FUNCTION `??zclProcessInDiscAttrs::?relay`,0203H
        FUNCTION `??zclProcessInDiscAttrsCmd::?relay`,0203H
        FUNCTION `??zclProcessInDiscAttrsExtCmd::?relay`,0203H
        FUNCTION `??zclProcessInDiscCmd::?relay`,0203H
        FUNCTION `??zclProcessInReadCmd::?relay`,0203H
        FUNCTION `??zclProcessInWriteCmd::?relay`,0203H
        FUNCTION `??zclProcessInWriteUndividedCmd::?relay`,0203H
        PUBLIC `??zclReadAttrData::?relay`
        FUNCTION `??zclReadAttrData::?relay`,0203H
        FUNCTION `??zclReadAttrDataUsingCB::?relay`,0203H
        FUNCTION `??zclRevertWriteUndividedCmd::?relay`,0203H
        PUBLIC `??zclSerializeData::?relay`
        FUNCTION `??zclSerializeData::?relay`,0203H
        FUNCTION `??zclSetSecurityOption::?relay`,0203H
        FUNCTION `??zclWriteAttrData::?relay`,0203H
        FUNCTION `??zclWriteAttrDataUsingCB::?relay`,0203H
        FUNCTION `??zcl_DeviceOperational::?relay`,0203H
        PUBLIC `??zcl_HandleExternal::?relay`
        FUNCTION `??zcl_HandleExternal::?relay`,0203H
        PUBLIC `??zcl_Init::?relay`
        FUNCTION `??zcl_Init::?relay`,0203H
        PUBLIC `??zcl_ProcessMessageMSG::?relay`
        FUNCTION `??zcl_ProcessMessageMSG::?relay`,0203H
        PUBLIC `??zcl_ReadAttrData::?relay`
        FUNCTION `??zcl_ReadAttrData::?relay`,0203H
        PUBLIC `??zcl_SendCommand::?relay`
        FUNCTION `??zcl_SendCommand::?relay`,0203H
        PUBLIC `??zcl_SendConfigReportRspCmd::?relay`
        FUNCTION `??zcl_SendConfigReportRspCmd::?relay`,0203H
        PUBLIC `??zcl_SendDefaultRspCmd::?relay`
        FUNCTION `??zcl_SendDefaultRspCmd::?relay`,0203H
        PUBLIC `??zcl_SendDiscoverAttrsCmd::?relay`
        FUNCTION `??zcl_SendDiscoverAttrsCmd::?relay`,0203H
        PUBLIC `??zcl_SendDiscoverAttrsExt::?relay`
        FUNCTION `??zcl_SendDiscoverAttrsExt::?relay`,0203H
        PUBLIC `??zcl_SendDiscoverAttrsExtRsp::?relay`
        FUNCTION `??zcl_SendDiscoverAttrsExtRsp::?relay`,0203H
        PUBLIC `??zcl_SendDiscoverAttrsRspCmd::?relay`
        FUNCTION `??zcl_SendDiscoverAttrsRspCmd::?relay`,0203H
        PUBLIC `??zcl_SendDiscoverCmdsCmd::?relay`
        FUNCTION `??zcl_SendDiscoverCmdsCmd::?relay`,0203H
        PUBLIC `??zcl_SendDiscoverCmdsRspCmd::?relay`
        FUNCTION `??zcl_SendDiscoverCmdsRspCmd::?relay`,0203H
        PUBLIC `??zcl_SendRead::?relay`
        FUNCTION `??zcl_SendRead::?relay`,0203H
        PUBLIC `??zcl_SendReadReportCfgRspCmd::?relay`
        FUNCTION `??zcl_SendReadReportCfgRspCmd::?relay`,0203H
        PUBLIC `??zcl_SendReadRsp::?relay`
        FUNCTION `??zcl_SendReadRsp::?relay`,0203H
        PUBLIC `??zcl_SendReportCmd::?relay`
        FUNCTION `??zcl_SendReportCmd::?relay`,0203H
        PUBLIC `??zcl_SendWriteRequest::?relay`
        FUNCTION `??zcl_SendWriteRequest::?relay`,0203H
        PUBLIC `??zcl_SendWriteRsp::?relay`
        FUNCTION `??zcl_SendWriteRsp::?relay`,0203H
        FUNCTION `??zcl_addExternalFoundationHandler::?relay`,0203H
        PUBLIC `??zcl_event_loop::?relay`
        FUNCTION `??zcl_event_loop::?relay`,0203H
        FUNCTION `??zcl_getExternalFoundationHandler::?relay`,0203H
        PUBLIC `??zcl_getParsedTransSeqNum::?relay`
        FUNCTION `??zcl_getParsedTransSeqNum::?relay`,0203H
        PUBLIC `??zcl_getRawAFMsg::?relay`
        FUNCTION `??zcl_getRawAFMsg::?relay`,0203H
        PUBLIC `??zcl_registerAttrList::?relay`
        FUNCTION `??zcl_registerAttrList::?relay`,0203H
        PUBLIC `??zcl_registerClusterOptionList::?relay`
        FUNCTION `??zcl_registerClusterOptionList::?relay`,0203H
        PUBLIC `??zcl_registerCmdList::?relay`
        FUNCTION `??zcl_registerCmdList::?relay`,0203H
        PUBLIC `??zcl_registerForMsg::?relay`
        FUNCTION `??zcl_registerForMsg::?relay`,0203H
        PUBLIC `??zcl_registerForMsgExt::?relay`
        FUNCTION `??zcl_registerForMsgExt::?relay`,0203H
        PUBLIC `??zcl_registerPlugin::?relay`
        FUNCTION `??zcl_registerPlugin::?relay`,0203H
        PUBLIC `??zcl_registerReadWriteCB::?relay`
        FUNCTION `??zcl_registerReadWriteCB::?relay`,0203H
        PUBLIC `??zcl_registerValidateAttrData::?relay`
        FUNCTION `??zcl_registerValidateAttrData::?relay`,0203H
        PUBLIC zclAnalogDataType
        FUNCTION zclAnalogDataType,080203H
        ARGFRAME XSTACK, 26, STACK
        ARGFRAME IOVERLAY, 0, STATIC
        ARGFRAME DOVERLAY, 0, STATIC
        LOCFRAME ISTACK, 2, STACK
        FUNCTION zclAuthorizeWrite,0a1203H
        ARGFRAME XSTACK, 15, STACK
        ARGFRAME IOVERLAY, 0, STATIC
        ARGFRAME DOVERLAY, 0, STATIC
        LOCFRAME XSTACK, 14, STACK
        FUNCTION zclBuildHdr,0203H
        ARGFRAME XSTACK, 30, STACK
        ARGFRAME IOVERLAY, 0, STATIC
        ARGFRAME DOVERLAY, 0, STATIC
        LOCFRAME ISTACK, 1, STACK
        LOCFRAME XSTACK, 9, STACK
        PUBLIC zclFindAttrRec
        FUNCTION zclFindAttrRec,0a1203H
        ARGFRAME XSTACK, 38, STACK
        ARGFRAME IOVERLAY, 0, STATIC
        ARGFRAME DOVERLAY, 0, STATIC
        LOCFRAME ISTACK, 2, STACK
        LOCFRAME XSTACK, 16, STACK
        PUBLIC zclFindAttrRecsList
        FUNCTION zclFindAttrRecsList,0203H
        ARGFRAME XSTACK, 16, STACK
        ARGFRAME IOVERLAY, 0, STATIC
        ARGFRAME DOVERLAY, 0, STATIC
        LOCFRAME ISTACK, 2, STACK
        FUNCTION zclFindClusterOption,080203H
        ARGFRAME XSTACK, 10, STACK
        ARGFRAME IOVERLAY, 0, STATIC
        ARGFRAME DOVERLAY, 0, STATIC
        LOCFRAME XSTACK, 9, STACK
        PUBLIC zclFindCmdRec
        FUNCTION zclFindCmdRec,0a1203H
        ARGFRAME XSTACK, 2, STACK
        LOCFRAME ISTACK, 2, STACK
        LOCFRAME XSTACK, 14, STACK
        FUNCTION zclFindCmdRecsList,0203H
        ARGFRAME XSTACK, 16, STACK
        ARGFRAME IOVERLAY, 0, STATIC
        ARGFRAME DOVERLAY, 0, STATIC
        LOCFRAME ISTACK, 2, STACK
        FUNCTION zclFindNextAttrRec,0a1203H
        ARGFRAME XSTACK, 34, STACK
        ARGFRAME IOVERLAY, 0, STATIC
        ARGFRAME DOVERLAY, 0, STATIC
        LOCFRAME XSTACK, 16, STACK
        FUNCTION zclFindNextCmdRec,0a1203H
        ARGFRAME XSTACK, 34, STACK
        ARGFRAME IOVERLAY, 0, STATIC
        ARGFRAME DOVERLAY, 0, STATIC
        LOCFRAME ISTACK, 1, STACK
        LOCFRAME XSTACK, 16, STACK
        PUBLIC zclGetAttrDataLength
        FUNCTION zclGetAttrDataLength,021203H
        ARGFRAME XSTACK, 36, STACK
        ARGFRAME IOVERLAY, 0, STATIC
        ARGFRAME DOVERLAY, 0, STATIC
        LOCFRAME XSTACK, 9, STACK
        FUNCTION zclGetAttrDataLengthUsingCB,0a1203H
        ARGFRAME XSTACK, 36, STACK
        ARGFRAME IOVERLAY, 0, STATIC
        ARGFRAME DOVERLAY, 0, STATIC
        LOCFRAME XSTACK, 22, STACK
        FUNCTION zclGetAuthorizeCB,0a1203H
        ARGFRAME XSTACK, 32, STACK
        ARGFRAME IOVERLAY, 0, STATIC
        ARGFRAME DOVERLAY, 0, STATIC
        LOCFRAME XSTACK, 10, STACK
        FUNCTION zclGetClusterOption,0a1203H
        ARGFRAME XSTACK, 36, STACK
        ARGFRAME IOVERLAY, 0, STATIC
        ARGFRAME DOVERLAY, 0, STATIC
        LOCFRAME XSTACK, 10, STACK
        PUBLIC zclGetDataTypeLength
        FUNCTION zclGetDataTypeLength,0203H
        ARGFRAME XSTACK, 26, STACK
        ARGFRAME IOVERLAY, 0, STATIC
        ARGFRAME DOVERLAY, 0, STATIC
        FUNCTION zclGetReadWriteCB,0a1203H
        ARGFRAME XSTACK, 18, STACK
        ARGFRAME IOVERLAY, 0, STATIC
        ARGFRAME DOVERLAY, 0, STATIC
        LOCFRAME XSTACK, 10, STACK
        PUBLIC zclParseHdr
        FUNCTION zclParseHdr,0a1203H
        ARGFRAME XSTACK, 36, STACK
        ARGFRAME IOVERLAY, 0, STATIC
        ARGFRAME DOVERLAY, 0, STATIC
        LOCFRAME ISTACK, 1, STACK
        LOCFRAME XSTACK, 12, STACK
        PUBLIC zclParseInConfigReportCmd
        FUNCTION zclParseInConfigReportCmd,0a1603H
        ARGFRAME XSTACK, 0, STACK
        LOCFRAME ISTACK, 1, STACK
        LOCFRAME XSTACK, 24, STACK
        FUNCTION zclParseInDefaultRspCmd,0a1603H
        ARGFRAME XSTACK, 0, STACK
        LOCFRAME ISTACK, 1, STACK
        LOCFRAME XSTACK, 10, STACK
        PUBLIC zclParseInDiscAttrsCmd
        FUNCTION zclParseInDiscAttrsCmd,0a1603H
        ARGFRAME XSTACK, 0, STACK
        LOCFRAME ISTACK, 1, STACK
        LOCFRAME XSTACK, 10, STACK
        FUNCTION zclParseInDiscAttrsExtRspCmd,0a1603H
        ARGFRAME XSTACK, 0, STACK
        LOCFRAME ISTACK, 1, STACK
        LOCFRAME XSTACK, 14, STACK
        FUNCTION zclParseInDiscAttrsRspCmd,0a1603H
        ARGFRAME XSTACK, 0, STACK
        LOCFRAME ISTACK, 1, STACK
        LOCFRAME XSTACK, 12, STACK
        PUBLIC zclParseInDiscCmdsCmd
        FUNCTION zclParseInDiscCmdsCmd,0a1603H
        ARGFRAME XSTACK, 0, STACK
        LOCFRAME ISTACK, 1, STACK
        LOCFRAME XSTACK, 10, STACK
        FUNCTION zclParseInDiscCmdsRspCmd,0a1603H
        ARGFRAME XSTACK, 0, STACK
        LOCFRAME ISTACK, 1, STACK
        LOCFRAME XSTACK, 12, STACK
        PUBLIC zclParseInReadCmd
        FUNCTION zclParseInReadCmd,0a1603H
        ARGFRAME XSTACK, 0, STACK
        LOCFRAME ISTACK, 1, STACK
        LOCFRAME XSTACK, 12, STACK
        PUBLIC zclParseInReadReportCfgCmd
        FUNCTION zclParseInReadReportCfgCmd,0a1603H
        ARGFRAME XSTACK, 0, STACK
        LOCFRAME ISTACK, 1, STACK
        LOCFRAME XSTACK, 12, STACK
        FUNCTION zclParseInReadRspCmd,0a1603H
        ARGFRAME XSTACK, 0, STACK
        LOCFRAME ISTACK, 1, STACK
        LOCFRAME XSTACK, 25, STACK
        PUBLIC zclParseInWriteCmd
        FUNCTION zclParseInWriteCmd,0a1603H
        ARGFRAME XSTACK, 0, STACK
        LOCFRAME ISTACK, 1, STACK
        LOCFRAME XSTACK, 25, STACK
        FUNCTION zclParseInWriteRspCmd,0a1603H
        ARGFRAME XSTACK, 0, STACK
        LOCFRAME ISTACK, 1, STACK
        LOCFRAME XSTACK, 16, STACK
        FUNCTION zclProcessInDiscAttrs,0a1603H
        ARGFRAME XSTACK, 0, STACK
        LOCFRAME XSTACK, 30, STACK
        FUNCTION zclProcessInDiscAttrsCmd,0a1203H
        ARGFRAME XSTACK, 26, STACK
        ARGFRAME IOVERLAY, 0, STATIC
        ARGFRAME DOVERLAY, 0, STATIC
        LOCFRAME ISTACK, 1, STACK
        LOCFRAME XSTACK, 35, STACK
        FUNCTION zclProcessInDiscAttrsExtCmd,0a1203H
        ARGFRAME XSTACK, 26, STACK
        ARGFRAME IOVERLAY, 0, STATIC
        ARGFRAME DOVERLAY, 0, STATIC
        LOCFRAME ISTACK, 1, STACK
        LOCFRAME XSTACK, 35, STACK
        FUNCTION zclProcessInDiscCmd,0a1603H
        ARGFRAME XSTACK, 0, STACK
        LOCFRAME ISTACK, 1, STACK
        LOCFRAME XSTACK, 35, STACK
        FUNCTION zclProcessInReadCmd,0a1603H
        ARGFRAME XSTACK, 0, STACK
        LOCFRAME ISTACK, 1, STACK
        LOCFRAME XSTACK, 37, STACK
        FUNCTION zclProcessInWriteCmd,0a1603H
        ARGFRAME XSTACK, 0, STACK
        LOCFRAME ISTACK, 1, STACK
        LOCFRAME XSTACK, 39, STACK
        FUNCTION zclProcessInWriteUndividedCmd,0a1603H
        ARGFRAME XSTACK, 0, STACK
        LOCFRAME ISTACK, 1, STACK
        LOCFRAME XSTACK, 41, STACK
        PUBLIC zclReadAttrData
        FUNCTION zclReadAttrData,0a1203H
        ARGFRAME XSTACK, 38, STACK
        ARGFRAME IOVERLAY, 0, STATIC
        ARGFRAME DOVERLAY, 0, STATIC
        LOCFRAME XSTACK, 18, STACK
        FUNCTION zclReadAttrDataUsingCB,0a1203H
        ARGFRAME XSTACK, 40, STACK
        ARGFRAME IOVERLAY, 0, STATIC
        ARGFRAME DOVERLAY, 0, STATIC
        LOCFRAME XSTACK, 20, STACK
        FUNCTION zclRevertWriteUndividedCmd,0a1203H
        ARGFRAME XSTACK, 38, STACK
        ARGFRAME IOVERLAY, 0, STATIC
        ARGFRAME DOVERLAY, 0, STATIC
        LOCFRAME XSTACK, 31, STACK
        PUBLIC zclSerializeData
        FUNCTION zclSerializeData,0a1203H
        ARGFRAME XSTACK, 26, STACK
        ARGFRAME IOVERLAY, 0, STATIC
        ARGFRAME DOVERLAY, 0, STATIC
        LOCFRAME ISTACK, 1, STACK
        LOCFRAME XSTACK, 19, STACK
        FUNCTION zclSetSecurityOption,0a1203H
        ARGFRAME XSTACK, 36, STACK
        ARGFRAME IOVERLAY, 0, STATIC
        ARGFRAME DOVERLAY, 0, STATIC
        LOCFRAME XSTACK, 10, STACK
        FUNCTION zclWriteAttrData,0a1203H
        ARGFRAME XSTACK, 38, STACK
        ARGFRAME IOVERLAY, 0, STATIC
        ARGFRAME DOVERLAY, 0, STATIC
        LOCFRAME XSTACK, 18, STACK
        FUNCTION zclWriteAttrDataUsingCB,0a1203H
        ARGFRAME XSTACK, 38, STACK
        ARGFRAME IOVERLAY, 0, STATIC
        ARGFRAME DOVERLAY, 0, STATIC
        LOCFRAME XSTACK, 18, STACK
        FUNCTION zcl_DeviceOperational,0a1203H
        ARGFRAME XSTACK, 38, STACK
        ARGFRAME IOVERLAY, 0, STATIC
        ARGFRAME DOVERLAY, 0, STATIC
        LOCFRAME XSTACK, 23, STACK
        PUBLIC zcl_HandleExternal
        FUNCTION zcl_HandleExternal,0a1603H
        ARGFRAME XSTACK, 0, STACK
        LOCFRAME ISTACK, 1, STACK
        LOCFRAME XSTACK, 12, STACK
        PUBLIC zcl_InSeqNum
        PUBLIC zcl_Init
        FUNCTION zcl_Init,0203H
        ARGFRAME XSTACK, 0, STACK
        LOCFRAME ISTACK, 2, STACK
        PUBLIC zcl_ProcessMessageMSG
        FUNCTION zcl_ProcessMessageMSG,0a1203H
        ARGFRAME XSTACK, 12, STACK
        ARGFRAME IOVERLAY, 0, STATIC
        ARGFRAME DOVERLAY, 0, STATIC
        LOCFRAME ISTACK, 1, STACK
        LOCFRAME XSTACK, 43, STACK
        PUBLIC zcl_ReadAttrData
        FUNCTION zcl_ReadAttrData,0a1203H
        ARGFRAME XSTACK, 4, STACK
        LOCFRAME XSTACK, 28, STACK
        PUBLIC zcl_SendCommand
        FUNCTION zcl_SendCommand,0a1203H
        ARGFRAME XSTACK, 37, STACK
        ARGFRAME IOVERLAY, 0, STATIC
        ARGFRAME DOVERLAY, 0, STATIC
        LOCFRAME ISTACK, 1, STACK
        LOCFRAME XSTACK, 39, STACK
        PUBLIC zcl_SendConfigReportRspCmd
        FUNCTION zcl_SendConfigReportRspCmd,0a1203H
        ARGFRAME XSTACK, 5, STACK
        LOCFRAME ISTACK, 1, STACK
        LOCFRAME XSTACK, 31, STACK
        PUBLIC zcl_SendDefaultRspCmd
        FUNCTION zcl_SendDefaultRspCmd,0a1203H
        ARGFRAME XSTACK, 43, STACK
        ARGFRAME IOVERLAY, 0, STATIC
        ARGFRAME DOVERLAY, 0, STATIC
        LOCFRAME ISTACK, 1, STACK
        LOCFRAME XSTACK, 23, STACK
        PUBLIC zcl_SendDiscoverAttrsCmd
        FUNCTION zcl_SendDiscoverAttrsCmd,0a1203H
        ARGFRAME XSTACK, 5, STACK
        LOCFRAME ISTACK, 1, STACK
        LOCFRAME XSTACK, 27, STACK
        PUBLIC zcl_SendDiscoverAttrsExt
        FUNCTION zcl_SendDiscoverAttrsExt,0a1203H
        ARGFRAME XSTACK, 5, STACK
        LOCFRAME ISTACK, 1, STACK
        LOCFRAME XSTACK, 26, STACK
        PUBLIC zcl_SendDiscoverAttrsExtRsp
        FUNCTION zcl_SendDiscoverAttrsExtRsp,0a1203H
        ARGFRAME XSTACK, 35, STACK
        ARGFRAME IOVERLAY, 0, STATIC
        ARGFRAME DOVERLAY, 0, STATIC
        LOCFRAME ISTACK, 1, STACK
        LOCFRAME XSTACK, 35, STACK
        PUBLIC zcl_SendDiscoverAttrsRspCmd
        FUNCTION zcl_SendDiscoverAttrsRspCmd,0a1203H
        ARGFRAME XSTACK, 35, STACK
        ARGFRAME IOVERLAY, 0, STATIC
        ARGFRAME DOVERLAY, 0, STATIC
        LOCFRAME ISTACK, 1, STACK
        LOCFRAME XSTACK, 35, STACK
        PUBLIC zcl_SendDiscoverCmdsCmd
        FUNCTION zcl_SendDiscoverCmdsCmd,0a1203H
        ARGFRAME XSTACK, 6, STACK
        LOCFRAME ISTACK, 1, STACK
        LOCFRAME XSTACK, 25, STACK
        PUBLIC zcl_SendDiscoverCmdsRspCmd
        FUNCTION zcl_SendDiscoverCmdsRspCmd,0a1203H
        ARGFRAME XSTACK, 35, STACK
        ARGFRAME IOVERLAY, 0, STATIC
        ARGFRAME DOVERLAY, 0, STATIC
        LOCFRAME ISTACK, 1, STACK
        LOCFRAME XSTACK, 33, STACK
        PUBLIC zcl_SendRead
        FUNCTION zcl_SendRead,0a1203H
        ARGFRAME XSTACK, 5, STACK
        LOCFRAME ISTACK, 1, STACK
        LOCFRAME XSTACK, 31, STACK
        PUBLIC zcl_SendReadReportCfgRspCmd
        FUNCTION zcl_SendReadReportCfgRspCmd,0a1203H
        ARGFRAME XSTACK, 5, STACK
        LOCFRAME ISTACK, 1, STACK
        LOCFRAME XSTACK, 37, STACK
        PUBLIC zcl_SendReadRsp
        FUNCTION zcl_SendReadRsp,0a1203H
        ARGFRAME XSTACK, 37, STACK
        ARGFRAME IOVERLAY, 0, STATIC
        ARGFRAME DOVERLAY, 0, STATIC
        LOCFRAME ISTACK, 1, STACK
        LOCFRAME XSTACK, 35, STACK
        PUBLIC zcl_SendReportCmd
        FUNCTION zcl_SendReportCmd,0a1203H
        ARGFRAME XSTACK, 5, STACK
        LOCFRAME ISTACK, 1, STACK
        LOCFRAME XSTACK, 33, STACK
        PUBLIC zcl_SendWriteRequest
        FUNCTION zcl_SendWriteRequest,0a1203H
        ARGFRAME XSTACK, 6, STACK
        LOCFRAME ISTACK, 1, STACK
        LOCFRAME XSTACK, 33, STACK
        PUBLIC zcl_SendWriteRsp
        FUNCTION zcl_SendWriteRsp,0a1203H
        ARGFRAME XSTACK, 41, STACK
        ARGFRAME IOVERLAY, 0, STATIC
        ARGFRAME DOVERLAY, 0, STATIC
        LOCFRAME ISTACK, 1, STACK
        LOCFRAME XSTACK, 31, STACK
        PUBLIC zcl_TaskID
        PUBLIC zcl_ValidateAttrDataCB
        FUNCTION zcl_addExternalFoundationHandler,0a1203H
        ARGFRAME XSTACK, 9, STACK
        ARGFRAME IOVERLAY, 0, STATIC
        ARGFRAME DOVERLAY, 0, STATIC
        LOCFRAME ISTACK, 1, STACK
        LOCFRAME XSTACK, 10, STACK
        PUBLIC zcl_event_loop
        FUNCTION zcl_event_loop,0a1203H
        ARGFRAME XSTACK, 0, STACK
        LOCFRAME XSTACK, 12, STACK
        FUNCTION zcl_getExternalFoundationHandler,0203H
        ARGFRAME XSTACK, 12, STACK
        ARGFRAME IOVERLAY, 0, STATIC
        ARGFRAME DOVERLAY, 0, STATIC
        LOCFRAME ISTACK, 2, STACK
        PUBLIC zcl_getParsedTransSeqNum
        FUNCTION zcl_getParsedTransSeqNum,0203H
        ARGFRAME XSTACK, 0, STACK
        LOCFRAME ISTACK, 2, STACK
        PUBLIC zcl_getRawAFMsg
        FUNCTION zcl_getRawAFMsg,0203H
        ARGFRAME XSTACK, 0, STACK
        LOCFRAME ISTACK, 2, STACK
        PUBLIC zcl_radius
        PUBLIC zcl_registerAttrList
        FUNCTION zcl_registerAttrList,0a1203H
        ARGFRAME XSTACK, 0, STACK
        LOCFRAME ISTACK, 1, STACK
        LOCFRAME XSTACK, 12, STACK
        PUBLIC zcl_registerClusterOptionList
        FUNCTION zcl_registerClusterOptionList,0a1203H
        ARGFRAME XSTACK, 0, STACK
        LOCFRAME ISTACK, 1, STACK
        LOCFRAME XSTACK, 12, STACK
        PUBLIC zcl_registerCmdList
        FUNCTION zcl_registerCmdList,0a1203H
        ARGFRAME XSTACK, 0, STACK
        LOCFRAME ISTACK, 1, STACK
        LOCFRAME XSTACK, 12, STACK
        PUBLIC zcl_registerForMsg
        FUNCTION zcl_registerForMsg,021203H
        ARGFRAME XSTACK, 0, STACK
        LOCFRAME XSTACK, 9, STACK
        PUBLIC zcl_registerForMsgExt
        FUNCTION zcl_registerForMsgExt,021203H
        ARGFRAME XSTACK, 0, STACK
        LOCFRAME XSTACK, 9, STACK
        PUBLIC zcl_registerPlugin
        FUNCTION zcl_registerPlugin,0a1203H
        ARGFRAME XSTACK, 2, STACK
        LOCFRAME XSTACK, 12, STACK
        PUBLIC zcl_registerReadWriteCB
        FUNCTION zcl_registerReadWriteCB,0a1203H
        ARGFRAME XSTACK, 0, STACK
        LOCFRAME XSTACK, 14, STACK
        PUBLIC zcl_registerValidateAttrData
        FUNCTION zcl_registerValidateAttrData,0203H
        ARGFRAME XSTACK, 0, STACK
        LOCFRAME ISTACK, 2, STACK
        
          CFI Names cfiNames0
          CFI StackFrame CFA_SP SP IDATA
          CFI StackFrame CFA_PSP16 PSP16 XDATA
          CFI StackFrame CFA_XSP16 XSP16 XDATA
          CFI StaticOverlayFrame CFA_IOVERLAY IOVERLAY
          CFI StaticOverlayFrame CFA_DOVERLAY DOVERLAY
          CFI Resource `PSW.CY`:1, `B.BR0`:1, `B.BR1`:1, `B.BR2`:1, `B.BR3`:1
          CFI Resource `B.BR4`:1, `B.BR5`:1, `B.BR6`:1, `B.BR7`:1, `VB.BR8`:1
          CFI Resource `VB.BR9`:1, `VB.BR10`:1, `VB.BR11`:1, `VB.BR12`:1
          CFI Resource `VB.BR13`:1, `VB.BR14`:1, `VB.BR15`:1, VB:8, B:8, A:8
          CFI Resource PSW:8, DPL0:8, DPH0:8, R0:8, R1:8, R2:8, R3:8, R4:8, R5:8
          CFI Resource R6:8, R7:8, V0:8, V1:8, V2:8, V3:8, V4:8, V5:8, V6:8, V7:8
          CFI Resource V8:8, V9:8, V10:8, V11:8, V12:8, V13:8, V14:8, V15:8, SP:8
          CFI Resource PSPH:8, PSPL:8, PSP16:16, XSPH:8, XSPL:8, XSP16:16
          CFI VirtualResource ?RET:24
          CFI Resource ?BRET_EXT:8
          CFI VirtualResource ?RET_HIGH:8, ?RET_LOW:8
          CFI ResourceParts PSP16 PSPH, PSPL
          CFI ResourceParts XSP16 XSPH, XSPL
          CFI ResourceParts ?RET ?BRET_EXT, ?RET_HIGH, ?RET_LOW
          CFI EndNames cfiNames0
        
          CFI Common cfiCommon0 Using cfiNames0
          CFI CodeAlign 1
          CFI DataAlign -1
          CFI ReturnAddress ?RET CODE
          CFI CFA_DOVERLAY Used
          CFI CFA_IOVERLAY Used
          CFI CFA_SP SP+-3
          CFI CFA_PSP16 PSP16+0
          CFI CFA_XSP16 XSP16+0
          CFI `PSW.CY` SameValue
          CFI `B.BR0` SameValue
          CFI `B.BR1` SameValue
          CFI `B.BR2` SameValue
          CFI `B.BR3` SameValue
          CFI `B.BR4` SameValue
          CFI `B.BR5` SameValue
          CFI `B.BR6` SameValue
          CFI `B.BR7` SameValue
          CFI `VB.BR8` SameValue
          CFI `VB.BR9` SameValue
          CFI `VB.BR10` SameValue
          CFI `VB.BR11` SameValue
          CFI `VB.BR12` SameValue
          CFI `VB.BR13` SameValue
          CFI `VB.BR14` SameValue
          CFI `VB.BR15` SameValue
          CFI VB SameValue
          CFI B Undefined
          CFI A Undefined
          CFI PSW SameValue
          CFI DPL0 SameValue
          CFI DPH0 SameValue
          CFI R0 Undefined
          CFI R1 Undefined
          CFI R2 Undefined
          CFI R3 Undefined
          CFI R4 Undefined
          CFI R5 Undefined
          CFI R6 SameValue
          CFI R7 SameValue
          CFI V0 SameValue
          CFI V1 SameValue
          CFI V2 SameValue
          CFI V3 SameValue
          CFI V4 SameValue
          CFI V5 SameValue
          CFI V6 SameValue
          CFI V7 SameValue
          CFI V8 SameValue
          CFI V9 SameValue
          CFI V10 SameValue
          CFI V11 SameValue
          CFI V12 SameValue
          CFI V13 SameValue
          CFI V14 SameValue
          CFI V15 SameValue
          CFI PSPH Undefined
          CFI PSPL Undefined
          CFI XSPH Undefined
          CFI XSPL Undefined
          CFI ?RET Concat
          CFI ?BRET_EXT Frame(CFA_SP, 3)
          CFI ?RET_HIGH Frame(CFA_SP, 2)
          CFI ?RET_LOW Frame(CFA_SP, 1)
          CFI EndCommon cfiCommon0
        
        
          CFI Common cfiCommon1 Using cfiNames0
          CFI CodeAlign 1
          CFI DataAlign -1
          CFI ReturnAddress ?RET CODE
          CFI CFA_DOVERLAY Used
          CFI CFA_IOVERLAY Used
          CFI CFA_SP SP+-2
          CFI CFA_PSP16 PSP16+0
          CFI CFA_XSP16 XSP16+0
          CFI `PSW.CY` SameValue
          CFI `B.BR0` SameValue
          CFI `B.BR1` SameValue
          CFI `B.BR2` SameValue
          CFI `B.BR3` SameValue
          CFI `B.BR4` SameValue
          CFI `B.BR5` SameValue
          CFI `B.BR6` SameValue
          CFI `B.BR7` SameValue
          CFI `VB.BR8` SameValue
          CFI `VB.BR9` SameValue
          CFI `VB.BR10` SameValue
          CFI `VB.BR11` SameValue
          CFI `VB.BR12` SameValue
          CFI `VB.BR13` SameValue
          CFI `VB.BR14` SameValue
          CFI `VB.BR15` SameValue
          CFI VB SameValue
          CFI B SameValue
          CFI A SameValue
          CFI PSW SameValue
          CFI DPL0 SameValue
          CFI DPH0 SameValue
          CFI R0 SameValue
          CFI R1 SameValue
          CFI R2 SameValue
          CFI R3 SameValue
          CFI R4 SameValue
          CFI R5 SameValue
          CFI R6 SameValue
          CFI R7 SameValue
          CFI V0 SameValue
          CFI V1 SameValue
          CFI V2 SameValue
          CFI V3 SameValue
          CFI V4 SameValue
          CFI V5 SameValue
          CFI V6 SameValue
          CFI V7 SameValue
          CFI V8 SameValue
          CFI V9 SameValue
          CFI V10 SameValue
          CFI V11 SameValue
          CFI V12 SameValue
          CFI V13 SameValue
          CFI V14 SameValue
          CFI V15 SameValue
          CFI PSPH Undefined
          CFI PSPL Undefined
          CFI XSPH Undefined
          CFI XSPL Undefined
          CFI ?RET Concat
          CFI ?BRET_EXT SameValue
          CFI ?RET_HIGH Frame(CFA_SP, 2)
          CFI ?RET_LOW Frame(CFA_SP, 1)
          CFI EndCommon cfiCommon1
        
AF_DataRequest      SYMBOL "AF_DataRequest"
`??AF_DataRequest::?relay` SYMBOL "?relay", AF_DataRequest
afFindEndPointDesc  SYMBOL "afFindEndPointDesc"
`??afFindEndPointDesc::?relay` SYMBOL "?relay", afFindEndPointDesc
bdb_ZclIdentifyCmdInd SYMBOL "bdb_ZclIdentifyCmdInd"
`??bdb_ZclIdentifyCmdInd::?relay` SYMBOL "?relay", bdb_ZclIdentifyCmdInd
osal_buffer_uint32  SYMBOL "osal_buffer_uint32"
`??osal_buffer_uint32::?relay` SYMBOL "?relay", osal_buffer_uint32
osal_mem_alloc      SYMBOL "osal_mem_alloc"
`??osal_mem_alloc::?relay` SYMBOL "?relay", osal_mem_alloc
osal_mem_free       SYMBOL "osal_mem_free"
`??osal_mem_free::?relay` SYMBOL "?relay", osal_mem_free
osal_memcpy         SYMBOL "osal_memcpy"
`??osal_memcpy::?relay` SYMBOL "?relay", osal_memcpy
osal_memset         SYMBOL "osal_memset"
`??osal_memset::?relay` SYMBOL "?relay", osal_memset
osal_msg_allocate   SYMBOL "osal_msg_allocate"
`??osal_msg_allocate::?relay` SYMBOL "?relay", osal_msg_allocate
osal_msg_deallocate SYMBOL "osal_msg_deallocate"
`??osal_msg_deallocate::?relay` SYMBOL "?relay", osal_msg_deallocate
osal_msg_receive    SYMBOL "osal_msg_receive"
`??osal_msg_receive::?relay` SYMBOL "?relay", osal_msg_receive
osal_msg_send       SYMBOL "osal_msg_send"
`??osal_msg_send::?relay` SYMBOL "?relay", osal_msg_send
zclAnalogDataType   SYMBOL "zclAnalogDataType"
`??zclAnalogDataType::?relay` SYMBOL "?relay", zclAnalogDataType
zclFindAttrRec      SYMBOL "zclFindAttrRec"
`??zclFindAttrRec::?relay` SYMBOL "?relay", zclFindAttrRec
zclFindAttrRecsList SYMBOL "zclFindAttrRecsList"
`??zclFindAttrRecsList::?relay` SYMBOL "?relay", zclFindAttrRecsList
zclFindCmdRec       SYMBOL "zclFindCmdRec"
`??zclFindCmdRec::?relay` SYMBOL "?relay", zclFindCmdRec
zclGetAttrDataLength SYMBOL "zclGetAttrDataLength"
`??zclGetAttrDataLength::?relay` SYMBOL "?relay", zclGetAttrDataLength
zclGetDataTypeLength SYMBOL "zclGetDataTypeLength"
`??zclGetDataTypeLength::?relay` SYMBOL "?relay", zclGetDataTypeLength
zclParseHdr         SYMBOL "zclParseHdr"
`??zclParseHdr::?relay` SYMBOL "?relay", zclParseHdr
zclParseInConfigReportCmd SYMBOL "zclParseInConfigReportCmd"
`??zclParseInConfigReportCmd::?relay` SYMBOL "?relay", zclParseInConfigReportCmd
zclParseInDiscAttrsCmd SYMBOL "zclParseInDiscAttrsCmd"
`??zclParseInDiscAttrsCmd::?relay` SYMBOL "?relay", zclParseInDiscAttrsCmd
zclParseInDiscCmdsCmd SYMBOL "zclParseInDiscCmdsCmd"
`??zclParseInDiscCmdsCmd::?relay` SYMBOL "?relay", zclParseInDiscCmdsCmd
zclParseInReadCmd   SYMBOL "zclParseInReadCmd"
`??zclParseInReadCmd::?relay` SYMBOL "?relay", zclParseInReadCmd
zclParseInReadReportCfgCmd SYMBOL "zclParseInReadReportCfgCmd"
`??zclParseInReadReportCfgCmd::?relay` SYMBOL "?relay", zclParseInReadReportCfgCmd
zclParseInWriteCmd  SYMBOL "zclParseInWriteCmd"
`??zclParseInWriteCmd::?relay` SYMBOL "?relay", zclParseInWriteCmd
zclReadAttrData     SYMBOL "zclReadAttrData"
`??zclReadAttrData::?relay` SYMBOL "?relay", zclReadAttrData
zclSerializeData    SYMBOL "zclSerializeData"
`??zclSerializeData::?relay` SYMBOL "?relay", zclSerializeData
zcl_HandleExternal  SYMBOL "zcl_HandleExternal"
`??zcl_HandleExternal::?relay` SYMBOL "?relay", zcl_HandleExternal
zcl_Init            SYMBOL "zcl_Init"
`??zcl_Init::?relay` SYMBOL "?relay", zcl_Init
zcl_ProcessMessageMSG SYMBOL "zcl_ProcessMessageMSG"
`??zcl_ProcessMessageMSG::?relay` SYMBOL "?relay", zcl_ProcessMessageMSG
zcl_ReadAttrData    SYMBOL "zcl_ReadAttrData"
`??zcl_ReadAttrData::?relay` SYMBOL "?relay", zcl_ReadAttrData
zcl_SendCommand     SYMBOL "zcl_SendCommand"
`??zcl_SendCommand::?relay` SYMBOL "?relay", zcl_SendCommand
zcl_SendConfigReportRspCmd SYMBOL "zcl_SendConfigReportRspCmd"
`??zcl_SendConfigReportRspCmd::?relay` SYMBOL "?relay", zcl_SendConfigReportRspCmd
zcl_SendDefaultRspCmd SYMBOL "zcl_SendDefaultRspCmd"
`??zcl_SendDefaultRspCmd::?relay` SYMBOL "?relay", zcl_SendDefaultRspCmd
zcl_SendDiscoverAttrsCmd SYMBOL "zcl_SendDiscoverAttrsCmd"
`??zcl_SendDiscoverAttrsCmd::?relay` SYMBOL "?relay", zcl_SendDiscoverAttrsCmd
zcl_SendDiscoverAttrsExt SYMBOL "zcl_SendDiscoverAttrsExt"
`??zcl_SendDiscoverAttrsExt::?relay` SYMBOL "?relay", zcl_SendDiscoverAttrsExt
zcl_SendDiscoverAttrsExtRsp SYMBOL "zcl_SendDiscoverAttrsExtRsp"
`??zcl_SendDiscoverAttrsExtRsp::?relay` SYMBOL "?relay", zcl_SendDiscoverAttrsExtRsp
zcl_SendDiscoverAttrsRspCmd SYMBOL "zcl_SendDiscoverAttrsRspCmd"
`??zcl_SendDiscoverAttrsRspCmd::?relay` SYMBOL "?relay", zcl_SendDiscoverAttrsRspCmd
zcl_SendDiscoverCmdsCmd SYMBOL "zcl_SendDiscoverCmdsCmd"
`??zcl_SendDiscoverCmdsCmd::?relay` SYMBOL "?relay", zcl_SendDiscoverCmdsCmd
zcl_SendDiscoverCmdsRspCmd SYMBOL "zcl_SendDiscoverCmdsRspCmd"
`??zcl_SendDiscoverCmdsRspCmd::?relay` SYMBOL "?relay", zcl_SendDiscoverCmdsRspCmd
zcl_SendRead        SYMBOL "zcl_SendRead"
`??zcl_SendRead::?relay` SYMBOL "?relay", zcl_SendRead
zcl_SendReadReportCfgRspCmd SYMBOL "zcl_SendReadReportCfgRspCmd"
`??zcl_SendReadReportCfgRspCmd::?relay` SYMBOL "?relay", zcl_SendReadReportCfgRspCmd
zcl_SendReadRsp     SYMBOL "zcl_SendReadRsp"
`??zcl_SendReadRsp::?relay` SYMBOL "?relay", zcl_SendReadRsp
zcl_SendReportCmd   SYMBOL "zcl_SendReportCmd"
`??zcl_SendReportCmd::?relay` SYMBOL "?relay", zcl_SendReportCmd
zcl_SendWriteRequest SYMBOL "zcl_SendWriteRequest"
`??zcl_SendWriteRequest::?relay` SYMBOL "?relay", zcl_SendWriteRequest
zcl_SendWriteRsp    SYMBOL "zcl_SendWriteRsp"
`??zcl_SendWriteRsp::?relay` SYMBOL "?relay", zcl_SendWriteRsp
zcl_event_loop      SYMBOL "zcl_event_loop"
`??zcl_event_loop::?relay` SYMBOL "?relay", zcl_event_loop
zcl_getParsedTransSeqNum SYMBOL "zcl_getParsedTransSeqNum"
`??zcl_getParsedTransSeqNum::?relay` SYMBOL "?relay", zcl_getParsedTransSeqNum
zcl_getRawAFMsg     SYMBOL "zcl_getRawAFMsg"
`??zcl_getRawAFMsg::?relay` SYMBOL "?relay", zcl_getRawAFMsg
zcl_registerAttrList SYMBOL "zcl_registerAttrList"
`??zcl_registerAttrList::?relay` SYMBOL "?relay", zcl_registerAttrList
zcl_registerClusterOptionList SYMBOL "zcl_registerClusterOptionList"
`??zcl_registerClusterOptionList::?relay` SYMBOL "?relay", zcl_registerClusterOptionList
zcl_registerCmdList SYMBOL "zcl_registerCmdList"
`??zcl_registerCmdList::?relay` SYMBOL "?relay", zcl_registerCmdList
zcl_registerForMsg  SYMBOL "zcl_registerForMsg"
`??zcl_registerForMsg::?relay` SYMBOL "?relay", zcl_registerForMsg
zcl_registerForMsgExt SYMBOL "zcl_registerForMsgExt"
`??zcl_registerForMsgExt::?relay` SYMBOL "?relay", zcl_registerForMsgExt
zcl_registerPlugin  SYMBOL "zcl_registerPlugin"
`??zcl_registerPlugin::?relay` SYMBOL "?relay", zcl_registerPlugin
zcl_registerReadWriteCB SYMBOL "zcl_registerReadWriteCB"
`??zcl_registerReadWriteCB::?relay` SYMBOL "?relay", zcl_registerReadWriteCB
zcl_registerValidateAttrData SYMBOL "zcl_registerValidateAttrData"
`??zcl_registerValidateAttrData::?relay` SYMBOL "?relay", zcl_registerValidateAttrData

        EXTERN `??AF_DataRequest::?relay`
        FUNCTION `??AF_DataRequest::?relay`,00H
        EXTERN `??afFindEndPointDesc::?relay`
        FUNCTION `??afFindEndPointDesc::?relay`,00H
        EXTERN `??bdb_ZclIdentifyCmdInd::?relay`
        FUNCTION `??bdb_ZclIdentifyCmdInd::?relay`,00H
        EXTERN `??osal_buffer_uint32::?relay`
        FUNCTION `??osal_buffer_uint32::?relay`,00H
        EXTERN `??osal_mem_alloc::?relay`
        FUNCTION `??osal_mem_alloc::?relay`,00H
        EXTERN `??osal_mem_free::?relay`
        FUNCTION `??osal_mem_free::?relay`,00H
        EXTERN `??osal_memcpy::?relay`
        FUNCTION `??osal_memcpy::?relay`,00H
        EXTERN `??osal_memset::?relay`
        FUNCTION `??osal_memset::?relay`,00H
        EXTERN `??osal_msg_allocate::?relay`
        FUNCTION `??osal_msg_allocate::?relay`,00H
        EXTERN `??osal_msg_deallocate::?relay`
        FUNCTION `??osal_msg_deallocate::?relay`,00H
        EXTERN `??osal_msg_receive::?relay`
        FUNCTION `??osal_msg_receive::?relay`,00H
        EXTERN `??osal_msg_send::?relay`
        FUNCTION `??osal_msg_send::?relay`,00H
        EXTERN AF_DataRequest
        FUNCTION AF_DataRequest,0202H
        ARGFRAME ISTACK, 0, STACK
        ARGFRAME PSTACK, 0, STACK
        ARGFRAME XSTACK, 39, STACK
        ARGFRAME IOVERLAY, 0, STATIC
        ARGFRAME DOVERLAY, 0, STATIC
        EXTERN APS_Counter
        EXTERN afFindEndPointDesc
        FUNCTION afFindEndPointDesc,0202H
        ARGFRAME ISTACK, 0, STACK
        ARGFRAME PSTACK, 0, STACK
        ARGFRAME XSTACK, 36, STACK
        ARGFRAME IOVERLAY, 0, STATIC
        ARGFRAME DOVERLAY, 0, STATIC
        EXTERN bdb_ZclIdentifyCmdInd
        FUNCTION bdb_ZclIdentifyCmdInd,0202H
        ARGFRAME ISTACK, 0, STACK
        ARGFRAME PSTACK, 0, STACK
        ARGFRAME XSTACK, 34, STACK
        ARGFRAME IOVERLAY, 0, STATIC
        ARGFRAME DOVERLAY, 0, STATIC
        EXTERN osal_buffer_uint32
        FUNCTION osal_buffer_uint32,0202H
        ARGFRAME ISTACK, 0, STACK
        ARGFRAME PSTACK, 0, STACK
        ARGFRAME XSTACK, 19, STACK
        ARGFRAME IOVERLAY, 0, STATIC
        ARGFRAME DOVERLAY, 0, STATIC
        EXTERN osal_mem_alloc
        FUNCTION osal_mem_alloc,0202H
        ARGFRAME ISTACK, 0, STACK
        ARGFRAME PSTACK, 0, STACK
        ARGFRAME XSTACK, 36, STACK
        ARGFRAME IOVERLAY, 0, STATIC
        ARGFRAME DOVERLAY, 0, STATIC
        EXTERN osal_mem_free
        FUNCTION osal_mem_free,0202H
        ARGFRAME ISTACK, 0, STACK
        ARGFRAME PSTACK, 0, STACK
        ARGFRAME XSTACK, 36, STACK
        ARGFRAME IOVERLAY, 0, STATIC
        ARGFRAME DOVERLAY, 0, STATIC
        EXTERN osal_memcpy
        FUNCTION osal_memcpy,0202H
        ARGFRAME ISTACK, 0, STACK
        ARGFRAME PSTACK, 0, STACK
        ARGFRAME XSTACK, 37, STACK
        ARGFRAME IOVERLAY, 0, STATIC
        ARGFRAME DOVERLAY, 0, STATIC
        EXTERN osal_memset
        FUNCTION osal_memset,0202H
        ARGFRAME ISTACK, 0, STACK
        ARGFRAME PSTACK, 0, STACK
        ARGFRAME XSTACK, 30, STACK
        ARGFRAME IOVERLAY, 0, STATIC
        ARGFRAME DOVERLAY, 0, STATIC
        EXTERN osal_msg_allocate
        FUNCTION osal_msg_allocate,0202H
        ARGFRAME ISTACK, 0, STACK
        ARGFRAME PSTACK, 0, STACK
        ARGFRAME XSTACK, 12, STACK
        ARGFRAME IOVERLAY, 0, STATIC
        ARGFRAME DOVERLAY, 0, STATIC
        EXTERN osal_msg_deallocate
        FUNCTION osal_msg_deallocate,0202H
        ARGFRAME ISTACK, 0, STACK
        ARGFRAME PSTACK, 0, STACK
        ARGFRAME XSTACK, 12, STACK
        ARGFRAME IOVERLAY, 0, STATIC
        ARGFRAME DOVERLAY, 0, STATIC
        EXTERN osal_msg_receive
        FUNCTION osal_msg_receive,0202H
        ARGFRAME ISTACK, 0, STACK
        ARGFRAME PSTACK, 0, STACK
        ARGFRAME XSTACK, 12, STACK
        ARGFRAME IOVERLAY, 0, STATIC
        ARGFRAME DOVERLAY, 0, STATIC
        EXTERN osal_msg_send
        FUNCTION osal_msg_send,0202H
        ARGFRAME ISTACK, 0, STACK
        ARGFRAME PSTACK, 0, STACK
        ARGFRAME XSTACK, 12, STACK
        ARGFRAME IOVERLAY, 0, STATIC
        ARGFRAME DOVERLAY, 0, STATIC

// D:\work\zigbee\ti_cc2530_zstack\Z-Stack 3.0.2\Components\stack\zcl\zcl.c
//    1 /**************************************************************************************************
//    2   Filename:       zcl.c
//    3   Revised:        $Date: 2015-09-09 11:51:49 -0700 (Wed, 09 Sep 2015) $
//    4   Revision:       $Revision: 44489 $
//    5 
//    6   Description:    This file contains the Zigbee Cluster Library Foundation functions.
//    7 
//    8 
//    9   Copyright 2006-2015 Texas Instruments Incorporated. All rights reserved.
//   10 
//   11   IMPORTANT: Your use of this Software is limited to those specific rights
//   12   granted under the terms of a software license agreement between the user
//   13   who downloaded the software, his/her employer (which must be your employer)
//   14   and Texas Instruments Incorporated (the "License").  You may not use this
//   15   Software unless you agree to abide by the terms of the License. The License
//   16   limits your use, and you acknowledge, that the Software may not be modified,
//   17   copied or distributed unless embedded on a Texas Instruments microcontroller
//   18   or used solely and exclusively in conjunction with a Texas Instruments radio
//   19   frequency transceiver, which is integrated into your product.  Other than for
//   20   the foregoing purpose, you may not use, reproduce, copy, prepare derivative
//   21   works of, modify, distribute, perform, display or sell this Software and/or
//   22   its documentation for any purpose.
//   23 
//   24   YOU FURTHER ACKNOWLEDGE AND AGREE THAT THE SOFTWARE AND DOCUMENTATION ARE
//   25   PROVIDED "AS IS" WITHOUT WARRANTY OF ANY KIND, EITHER EXPRESS OR IMPLIED,
//   26   INCLUDING WITHOUT LIMITATION, ANY WARRANTY OF MERCHANTABILITY, TITLE,
//   27   NON-INFRINGEMENT AND FITNESS FOR A PARTICULAR PURPOSE. IN NO EVENT SHALL
//   28   TEXAS INSTRUMENTS OR ITS LICENSORS BE LIABLE OR OBLIGATED UNDER CONTRACT,
//   29   NEGLIGENCE, STRICT LIABILITY, CONTRIBUTION, BREACH OF WARRANTY, OR OTHER
//   30   LEGAL EQUITABLE THEORY ANY DIRECT OR INDIRECT DAMAGES OR EXPENSES
//   31   INCLUDING BUT NOT LIMITED TO ANY INCIDENTAL, SPECIAL, INDIRECT, PUNITIVE
//   32   OR CONSEQUENTIAL DAMAGES, LOST PROFITS OR LOST DATA, COST OF PROCUREMENT
//   33   OF SUBSTITUTE GOODS, TECHNOLOGY, SERVICES, OR ANY CLAIMS BY THIRD PARTIES
//   34   (INCLUDING BUT NOT LIMITED TO ANY DEFENSE THEREOF), OR OTHER SIMILAR COSTS.
//   35 
//   36   Should you have any questions regarding your right to use this Software,
//   37   contact Texas Instruments Incorporated at www.TI.com.
//   38 **************************************************************************************************/
//   39 
//   40 /*********************************************************************
//   41  * INCLUDES
//   42  */
//   43 #include "ZComDef.h"
//   44 #include "AF.h"
//   45 #include "APS.h"
//   46 #include "zcl.h"
//   47 #include "zcl_general.h"
//   48 
//   49 #if defined ( INTER_PAN )
//   50   #include "stub_aps.h"
//   51 #endif
//   52    
//   53 #ifdef BDB_REPORTING
//   54   #include "bdb_Reporting.h"
//   55 #endif
//   56 #include "bdb_interface.h"
//   57 
//   58 #include "zcl_green_power.h"
//   59 
//   60 /*********************************************************************
//   61  * MACROS
//   62  */
//   63 /*** Frame Control ***/
//   64 #define zcl_FCType( a )               ( (a) & ZCL_FRAME_CONTROL_TYPE )
//   65 #define zcl_FCManuSpecific( a )       ( (a) & ZCL_FRAME_CONTROL_MANU_SPECIFIC )
//   66 #define zcl_FCDirection( a )          ( (a) & ZCL_FRAME_CONTROL_DIRECTION )
//   67 #define zcl_FCDisableDefaultRsp( a )  ( (a) & ZCL_FRAME_CONTROL_DISABLE_DEFAULT_RSP )
//   68 
//   69 /*** Attribute Access Control ***/
//   70 #define zcl_AccessCtrlRead( a )       ( (a) & ACCESS_CONTROL_READ )
//   71 #define zcl_AccessCtrlWrite( a )      ( (a) & ACCESS_CONTROL_WRITE )
//   72 #define zcl_AccessCtrlCmd( a )        ( (a) & ACCESS_CONTROL_CMD )
//   73 #define zcl_AccessCtrlAuthRead( a )   ( (a) & ACCESS_CONTROL_AUTH_READ )
//   74 #define zcl_AccessCtrlAuthWrite( a )  ( (a) & ACCESS_CONTROL_AUTH_WRITE )
//   75 #define zcl_AccessClient( a )         ( (a) & ACCESS_CLIENT )
//   76 
//   77 #define zclParseCmd( a, b )           zclCmdTable[(a)].pfnParseInProfile( (b) )
//   78 #define zclProcessCmd( a, b )         zclCmdTable[(a)].pfnProcessInProfile( (b) )
//   79 
//   80 #define zcl_DefaultRspCmd( zclHdr )   ( zcl_ProfileCmd( (zclHdr).fc.type )     && \ 
//   81                                         (zclHdr).fc.manuSpecific == 0          && \ 
//   82                                         (zclHdr).commandID == ZCL_CMD_DEFAULT_RSP )
//   83 
//   84 // Commands that have corresponding responses (ZCL_CMD_WRITE_NO_RSP, does not have response, but must not send default response)
//   85 #define CMD_HAS_RSP( cmd )            ( (cmd) == ZCL_CMD_READ                   || \ 
//   86                                         (cmd) == ZCL_CMD_WRITE                  || \ 
//   87                                         (cmd) == ZCL_CMD_WRITE_UNDIVIDED        || \ 
//   88                                         (cmd) == ZCL_CMD_WRITE_NO_RSP           || \ 
//   89                                         (cmd) == ZCL_CMD_CONFIG_REPORT          || \ 
//   90                                         (cmd) == ZCL_CMD_READ_REPORT_CFG        || \ 
//   91                                         (cmd) == ZCL_CMD_DISCOVER_ATTRS         || \ 
//   92                                         (cmd) == ZCL_CMD_DISCOVER_CMDS_RECEIVED || \ 
//   93                                         (cmd) == ZCL_CMD_DISCOVER_CMDS_GEN      || \ 
//   94                                         (cmd) == ZCL_CMD_DISCOVER_ATTRS_EXT     || \ 
//   95                                         (cmd) == ZCL_CMD_DEFAULT_RSP ) // exception
//   96 #define  ZCL_VALID_MIN_HEADER_LEN  3
//   97 
//   98 /*********************************************************************
//   99  * CONSTANTS
//  100  */
//  101 
//  102 /*********************************************************************
//  103  * TYPEDEFS
//  104  */
//  105 typedef struct zclLibPlugin
//  106 {
//  107   struct zclLibPlugin *next;
//  108   uint16              startClusterID;    // starting cluster ID
//  109   uint16              endClusterID;      // ending cluster ID
//  110   zclInHdlr_t         pfnIncomingHdlr;    // function to handle incoming message
//  111 } zclLibPlugin_t;
//  112 
//  113 // Command record list
//  114 typedef struct zclCmdRecsList
//  115 {
//  116   struct zclCmdRecsList *pNext;
//  117   uint8                 endpoint;
//  118   uint8                 numCommands;
//  119   CONST zclCommandRec_t *pCmdRecs;
//  120 } zclCmdRecsList_t;
//  121 
//  122 
//  123 // Cluster option list item
//  124 typedef struct zclClusterOptionList
//  125 {
//  126   struct zclClusterOptionList *next;
//  127   uint8                       endpoint;   // Used to link it into the endpoint descriptor
//  128   uint8                       numOptions; // Number of the following records
//  129   zclOptionRec_t              *options;   // option records
//  130 } zclClusterOptionList;
//  131 
//  132 typedef void *(*zclParseInProfileCmd_t)( zclParseCmd_t *pCmd );
//  133 typedef uint8 (*zclProcessInProfileCmd_t)( zclIncoming_t *pInMsg );
//  134 
//  135 typedef struct
//  136 {
//  137   zclParseInProfileCmd_t   pfnParseInProfile;
//  138   zclProcessInProfileCmd_t pfnProcessInProfile;
//  139 } zclCmdItems_t;
//  140 
//  141 
//  142 // List record for external handler for unhandled ZCL Foundation commands/rsps
//  143 typedef struct zclExternalFoundationHandlerList
//  144 {
//  145     struct zclExternalFoundationHandlerList *next;
//  146     uint8 zcl_ExternalTaskID;
//  147     uint8 zcl_ExternalEndPoint;
//  148 } zclExternalFoundationHandlerList;
//  149 
//  150 
//  151 /*********************************************************************
//  152  * GLOBAL VARIABLES
//  153  */
//  154 
//  155 #if !defined ( ZCL_STANDALONE )

        RSEG XDATA_Z:XDATA:NOROOT(0)
        DATA8
//  156   uint8 zcl_TaskID;
zcl_TaskID:
        DS 1
        REQUIRE __INIT_XDATA_Z
//  157 #endif
//  158 
//  159 // The Application should register its attribute data validation function

        RSEG XDATA_Z:XDATA:NOROOT(0)
        DATA16
//  160 zclValidateAttrData_t zcl_ValidateAttrDataCB = (zclValidateAttrData_t)NULL;
zcl_ValidateAttrDataCB:
        DS 2
        REQUIRE __INIT_XDATA_Z
//  161 
//  162 // ZCL Sequence number
//  163 //uint8 zcl_SeqNum = 0x00;  //Not longer used, refer to bdb_getZCLFrameCounter() in bdb_interface.h

        RSEG XDATA_Z:XDATA:NOROOT(0)
        DATA8
//  164 uint8 zcl_InSeqNum = 0x00;
zcl_InSeqNum:
        DS 1
        REQUIRE __INIT_XDATA_Z
//  165 

        RSEG XDATA_I:XDATA:NOROOT(0)
//  166 uint8 zcl_radius = AF_DEFAULT_RADIUS;
zcl_radius:
        DATA8
        DS 1
        REQUIRE `?<Initializer for zcl_radius>`
        REQUIRE __INIT_XDATA_I
//  167 

        RSEG XDATA_Z:XDATA:NOROOT(0)
        DATA8
//  168 static uint8 savedZCLTransSeqNum = 0;
savedZCLTransSeqNum:
        DS 1
        REQUIRE __INIT_XDATA_Z
//  169 
//  170 /*********************************************************************
//  171  * EXTERNAL VARIABLES
//  172  */
//  173 
//  174 /*********************************************************************
//  175  * EXTERNAL FUNCTIONS
//  176  */
//  177 
//  178 /*********************************************************************
//  179  * LOCAL VARIABLES
//  180  */

        RSEG XDATA_Z:XDATA:NOROOT(0)
        DATA16
//  181 static zclLibPlugin_t *plugins = (zclLibPlugin_t *)NULL;
plugins:
        DS 2
        REQUIRE __INIT_XDATA_Z
//  182 
//  183 #if defined ( ZCL_DISCOVER )

        RSEG XDATA_Z:XDATA:NOROOT(0)
        DATA16
//  184   static zclCmdRecsList_t *gpCmdList = (zclCmdRecsList_t *)NULL;
gpCmdList:
        DS 2
        REQUIRE __INIT_XDATA_Z
//  185 #endif
//  186 

        RSEG XDATA_Z:XDATA:NOROOT(0)
        DATA16
//  187 static zclAttrRecsList *attrList = (zclAttrRecsList *)NULL;
attrList:
        DS 2
        REQUIRE __INIT_XDATA_Z

        RSEG XDATA_Z:XDATA:NOROOT(0)
        DATA16
//  188 static zclClusterOptionList *clusterOptionList = (zclClusterOptionList *)NULL;
clusterOptionList:
        DS 2
        REQUIRE __INIT_XDATA_Z
//  189 

        RSEG XDATA_Z:XDATA:NOROOT(0)
        DATA16
//  190 static afIncomingMSGPacket_t *rawAFMsg = (afIncomingMSGPacket_t *)NULL;
rawAFMsg:
        DS 2
        REQUIRE __INIT_XDATA_Z
//  191 
//  192 #if !defined ( ZCL_STANDALONE )

        RSEG XDATA_Z:XDATA:NOROOT(0)
        DATA16
//  193 static zclExternalFoundationHandlerList *externalEndPointHandlerList = (zclExternalFoundationHandlerList *)NULL;
externalEndPointHandlerList:
        DS 2
        REQUIRE __INIT_XDATA_Z
//  194 #endif
//  195 
//  196 /*********************************************************************
//  197  * LOCAL FUNCTIONS
//  198  */
//  199 static uint8 *zclBuildHdr( zclFrameHdr_t *hdr, uint8 *pData );
//  200 static uint8 zclCalcHdrSize( zclFrameHdr_t *hdr );
//  201 static zclLibPlugin_t *zclFindPlugin( uint16 clusterID, uint16 profileID );
//  202 
//  203 #if !defined ( ZCL_STANDALONE )
//  204 static uint8 zcl_addExternalFoundationHandler( uint8 taskId, uint8 endPointId );
//  205 static uint8 zcl_getExternalFoundationHandler( afIncomingMSGPacket_t *pInMsg );
//  206 #endif // !defined ( ZCL_STANDALONE )
//  207 
//  208 #if defined ( ZCL_DISCOVER )
//  209   static zclCmdRecsList_t *zclFindCmdRecsList( uint8 endpoint );
//  210 #endif
//  211 
//  212 zclAttrRecsList *zclFindAttrRecsList( uint8 endpoint );
//  213 static zclOptionRec_t *zclFindClusterOption( uint8 endpoint, uint16 clusterID );
//  214 static uint8 zclGetClusterOption( uint8 endpoint, uint16 clusterID );
//  215 static void zclSetSecurityOption( uint8 endpoint, uint16 clusterID, uint8 enable );
//  216 
//  217 static uint8 zcl_DeviceOperational( uint8 srcEP, uint16 clusterID, uint8 frameType, uint8 cmd, uint16 profileID );
//  218 
//  219 #if defined ( ZCL_READ ) || defined ( ZCL_WRITE )
//  220 static zclReadWriteCB_t zclGetReadWriteCB( uint8 endpoint );
//  221 static zclAuthorizeCB_t zclGetAuthorizeCB( uint8 endpoint );
//  222 #endif // ZCL_READ || ZCL_WRITE
//  223 
//  224 #ifdef ZCL_READ
//  225 ZStatus_t zclReadAttrData( uint8 *pAttrData, zclAttrRec_t *pAttr, uint16 *pDataLen );
//  226 static uint16 zclGetAttrDataLengthUsingCB( uint8 endpoint, uint16 clusterID, uint16 attrId );
//  227 static ZStatus_t zclReadAttrDataUsingCB( uint8 endpoint, uint16 clusterId, uint16 attrId,
//  228                                          uint8 *pAttrData, uint16 *pDataLen );
//  229 static ZStatus_t zclAuthorizeRead( uint8 endpoint, afAddrType_t *srcAddr, zclAttrRec_t *pAttr );
//  230 static void *zclParseInReadRspCmd( zclParseCmd_t *pCmd );
//  231 static uint8 zclProcessInReadCmd( zclIncoming_t *pInMsg );
//  232 #endif // ZCL_READ
//  233 
//  234 #ifdef ZCL_WRITE
//  235 static ZStatus_t zclWriteAttrData( uint8 endpoint, afAddrType_t *srcAddr,
//  236                                    zclAttrRec_t *pAttr, zclWriteRec_t *pWriteRec );
//  237 static ZStatus_t zclWriteAttrDataUsingCB( uint8 endpoint, afAddrType_t *srcAddr,
//  238                                           zclAttrRec_t *pAttr, uint8 *pAttrData );
//  239 static ZStatus_t zclAuthorizeWrite( uint8 endpoint, afAddrType_t *srcAddr, zclAttrRec_t *pAttr );
//  240 static void *zclParseInWriteRspCmd( zclParseCmd_t *pCmd );
//  241 static uint8 zclProcessInWriteCmd( zclIncoming_t *pInMsg );
//  242 static uint8 zclProcessInWriteUndividedCmd( zclIncoming_t *pInMsg );
//  243 #endif // ZCL_WRITE
//  244 
//  245 #ifdef ZCL_REPORT_CONFIGURING_DEVICE
//  246 static void *zclParseInConfigReportRspCmd( zclParseCmd_t *pCmd );
//  247 static void *zclParseInReadReportCfgRspCmd( zclParseCmd_t *pCmd );
//  248 #endif
//  249 
//  250 static void *zclParseInDefaultRspCmd( zclParseCmd_t *pCmd );
//  251 
//  252 #ifdef ZCL_DISCOVER
//  253 static uint8 zclFindNextCmdRec( uint8 endpoint, uint16 clusterID, uint8 commandID, uint8 direction, uint8 *pCmdID, zclCommandRec_t *pCmd );
//  254 static uint8 zclFindNextAttrRec( uint8 endpoint, uint16 clusterID, uint8 direction, uint16 *attrId, zclAttrRec_t *pAttr );
//  255 static void *zclParseInDiscCmdsRspCmd( zclParseCmd_t *pCmd );
//  256 static void *zclParseInDiscAttrsRspCmd( zclParseCmd_t *pCmd );
//  257 static void *zclParseInDiscAttrsExtRspCmd( zclParseCmd_t *pCmd );
//  258 static uint8 zclProcessInDiscCmd( zclIncoming_t *pInMsg );
//  259 static uint8 zclProcessInDiscAttrs( zclIncoming_t *pInMsg );
//  260 static void zclProcessInDiscAttrsCmd( zclIncoming_t *pInMsg, zclDiscoverAttrsCmd_t *pDiscoverCmd, uint8 attrLenBuf );
//  261 static void zclProcessInDiscAttrsExtCmd( zclIncoming_t *pInMsg, zclDiscoverAttrsCmd_t *pDiscoverCmd, uint8 attrLenBuf );
//  262 #endif // ZCL_DISCOVER
//  263 
//  264 /*********************************************************************
//  265  * Parse Profile Command Function Table
//  266  */
//  267 

        RSEG CODE_C:CODE:REORDER:NOROOT(0)
        DATA8
//  268 static CONST zclCmdItems_t zclCmdTable[] =
zclCmdTable:
        DATA16
        DW `??zclParseInReadCmd::?relay`
        DW `??zclProcessInReadCmd::?relay`
        DW `??zclParseInReadRspCmd::?relay`
        DW `??zcl_HandleExternal::?relay`
        DW `??zclParseInWriteCmd::?relay`
        DW `??zclProcessInWriteCmd::?relay`
        DW `??zclParseInWriteCmd::?relay`
        DW `??zclProcessInWriteUndividedCmd::?relay`
        DW `??zclParseInWriteRspCmd::?relay`
        DW `??zcl_HandleExternal::?relay`
        DW `??zclParseInWriteCmd::?relay`
        DW `??zclProcessInWriteCmd::?relay`
        DW `??zclParseInConfigReportCmd::?relay`
        DW `??zcl_HandleExternal::?relay`
        DW 0H
        DW 0H
        DW `??zclParseInReadReportCfgCmd::?relay`
        DW `??zcl_HandleExternal::?relay`
        DW 0H
        DW 0H
        DW 0H
        DW 0H
        DW `??zclParseInDefaultRspCmd::?relay`
        DW `??zcl_HandleExternal::?relay`
        DW `??zclParseInDiscAttrsCmd::?relay`
        DW `??zclProcessInDiscAttrs::?relay`
        DW `??zclParseInDiscAttrsRspCmd::?relay`
        DW `??zcl_HandleExternal::?relay`
        DW 0H
        DW 0H
        DW 0H
        DW 0H
        DW 0H
        DW 0H
        DW `??zclParseInDiscCmdsCmd::?relay`
        DW `??zclProcessInDiscCmd::?relay`
        DW `??zclParseInDiscCmdsRspCmd::?relay`
        DW `??zcl_HandleExternal::?relay`
        DW `??zclParseInDiscCmdsCmd::?relay`
        DW `??zclProcessInDiscCmd::?relay`
        DW `??zclParseInDiscCmdsRspCmd::?relay`
        DW `??zcl_HandleExternal::?relay`
        DW `??zclParseInDiscAttrsCmd::?relay`
        DW `??zclProcessInDiscAttrs::?relay`
        DW `??zclParseInDiscAttrsExtRspCmd::?relay`
        DW `??zcl_HandleExternal::?relay`
//  269 {
//  270 #ifdef ZCL_READ
//  271   /* ZCL_CMD_READ */                { zclParseInReadCmd,             zclProcessInReadCmd             },
//  272   /* ZCL_CMD_READ_RSP */            { zclParseInReadRspCmd,          zcl_HandleExternal              },
//  273 #else
//  274   /* ZCL_CMD_READ */                { (zclParseInProfileCmd_t)NULL,  (zclProcessInProfileCmd_t)NULL  },
//  275   /* ZCL_CMD_READ_RSP */            { (zclParseInProfileCmd_t)NULL,  (zclProcessInProfileCmd_t)NULL  },
//  276 #endif // ZCL_READ
//  277 
//  278 #ifdef ZCL_WRITE
//  279   /* ZCL_CMD_WRITE */               { zclParseInWriteCmd,            zclProcessInWriteCmd            },
//  280   /* ZCL_CMD_WRITE_UNDIVIDED */     { zclParseInWriteCmd,            zclProcessInWriteUndividedCmd   },
//  281   /* ZCL_CMD_WRITE_RSP */           { zclParseInWriteRspCmd,         zcl_HandleExternal              },
//  282   /* ZCL_CMD_WRITE_NO_RSP */        { zclParseInWriteCmd,            zclProcessInWriteCmd            },
//  283 #else
//  284   /* ZCL_CMD_WRITE */               { (zclParseInProfileCmd_t)NULL,  (zclProcessInProfileCmd_t)NULL  },
//  285   /* ZCL_CMD_WRITE_UNDIVIDED */     { (zclParseInProfileCmd_t)NULL,  (zclProcessInProfileCmd_t)NULL  },
//  286   /* ZCL_CMD_WRITE_RSP */           { (zclParseInProfileCmd_t)NULL,  (zclProcessInProfileCmd_t)NULL  },
//  287   /* ZCL_CMD_WRITE_NO_RSP */        { (zclParseInProfileCmd_t)NULL,  (zclProcessInProfileCmd_t)NULL  },
//  288 #endif // ZCL_WRITE
//  289 
//  290 #ifdef ZCL_REPORTING_DEVICE
//  291     /* ZCL_CMD_CONFIG_REPORT */       { zclParseInConfigReportCmd,     zcl_HandleExternal              },
//  292 #else
//  293     /* ZCL_CMD_CONFIG_REPORT */       { (zclParseInProfileCmd_t)NULL,  (zclProcessInProfileCmd_t)NULL  },
//  294 #endif
//  295 
//  296 #ifdef ZCL_REPORT_CONFIGURING_DEVICE
//  297     /* ZCL_CMD_CONFIG_REPORT_RSP */   { zclParseInConfigReportRspCmd,  zcl_HandleExternal              },
//  298 #else
//  299     /* ZCL_CMD_CONFIG_REPORT_RSP */   { (zclParseInProfileCmd_t)NULL,  (zclProcessInProfileCmd_t)NULL  },
//  300 #endif
//  301 
//  302 #ifdef ZCL_REPORTING_DEVICE
//  303     /* ZCL_CMD_READ_REPORT_CFG */     { zclParseInReadReportCfgCmd,    zcl_HandleExternal              },
//  304 #else
//  305     /* ZCL_CMD_READ_REPORT_CFG */     { (zclParseInProfileCmd_t)NULL,  (zclProcessInProfileCmd_t)NULL  },
//  306 #endif
//  307 
//  308 #ifdef ZCL_REPORT_CONFIGURING_DEVICE
//  309     /* ZCL_CMD_READ_REPORT_CFG_RSP */ { zclParseInReadReportCfgRspCmd, zcl_HandleExternal              },
//  310 #else
//  311     /* ZCL_CMD_READ_REPORT_CFG_RSP */ { (zclParseInProfileCmd_t)NULL,  (zclProcessInProfileCmd_t)NULL  },
//  312 #endif
//  313 
//  314 #ifdef ZCL_REPORT_DESTINATION_DEVICE
//  315     /* ZCL_CMD_REPORT */              { zclParseInReportCmd,           zcl_HandleExternal              },
//  316 #else
//  317     /* ZCL_CMD_REPORT */              { (zclParseInProfileCmd_t)NULL,  (zclProcessInProfileCmd_t)NULL  },
//  318 #endif
//  319 
//  320   /* ZCL_CMD_DEFAULT_RSP */         { zclParseInDefaultRspCmd,       zcl_HandleExternal              },
//  321 
//  322 #ifdef ZCL_DISCOVER
//  323   /* ZCL_CMD_DISCOVER_ATTRS */                { zclParseInDiscAttrsCmd,         zclProcessInDiscAttrs           },
//  324   /* ZCL_CMD_DISCOVER_ATTRS_RSP */            { zclParseInDiscAttrsRspCmd,      zcl_HandleExternal              },
//  325   /* *not supported* READ_ATTRS_STRCT */      { NULL,                           (zclProcessInProfileCmd_t)NULL  },
//  326   /* *not supported* WRITE_ATTRS_STRCT */     { NULL,                           (zclProcessInProfileCmd_t)NULL  },
//  327   /* *not supported* WRITE_ATTRS_STRCT_RSP */ { NULL,                           (zclProcessInProfileCmd_t)NULL  },
//  328   /* ZCL_CMD_DISCOVER_CMDS_RECEIVED */        { zclParseInDiscCmdsCmd,          zclProcessInDiscCmd             },
//  329   /* ZCL_CMD_DISCOVER_CMDS_RECEIVED_RSP */    { zclParseInDiscCmdsRspCmd,       zcl_HandleExternal              },
//  330   /* ZCL_CMD_DISCOVER_CMDS_GEN */             { zclParseInDiscCmdsCmd,          zclProcessInDiscCmd             },
//  331   /* ZCL_CMD_DISCOVER_CMDS_GEN_RSP */         { zclParseInDiscCmdsRspCmd,       zcl_HandleExternal              },
//  332   /* ZCL_CMD_DISCOVER_ATTRS_EXT */            { zclParseInDiscAttrsCmd,         zclProcessInDiscAttrs           },
//  333   /* ZCL_CMD_DISCOVER_ATTRS_EXT_RSP */        { zclParseInDiscAttrsExtRspCmd,   zcl_HandleExternal              },
//  334 #else
//  335   /* ZCL_CMD_DISCOVER_ATTRS */                { (zclParseInProfileCmd_t)NULL,    (zclProcessInProfileCmd_t)NULL  },
//  336   /* ZCL_CMD_DISCOVER_ATTRS_RSP */            { (zclParseInProfileCmd_t)NULL,   (zclProcessInProfileCmd_t)NULL  },
//  337   /* *not supported* READ_ATTRS_STRCT */      { (zclParseInProfileCmd_t)NULL,   (zclProcessInProfileCmd_t)NULL  },
//  338   /* *not supported* WRITE_ATTRS_STRCT */     { (zclParseInProfileCmd_t)NULL,   (zclProcessInProfileCmd_t)NULL  },
//  339   /* *not supported* WRITE_ATTRS_STRCT_RSP */ { (zclParseInProfileCmd_t)NULL,   (zclProcessInProfileCmd_t)NULL  },
//  340   /* ZCL_CMD_DISCOVER_CMDS_RECEIVED */        { (zclParseInProfileCmd_t)NULL,   (zclProcessInProfileCmd_t)NULL  },
//  341   /* ZCL_CMD_DISCOVER_CMDS_RECEIVED_RSP */    { (zclParseInProfileCmd_t)NULL,   (zclProcessInProfileCmd_t)NULL  },
//  342   /* ZCL_CMD_DISCOVER_CMDS_GEN */             { (zclParseInProfileCmd_t)NULL,   (zclProcessInProfileCmd_t)NULL  },
//  343   /* ZCL_CMD_DISCOVER_CMDS_GEN_RSP */         { (zclParseInProfileCmd_t)NULL,   (zclProcessInProfileCmd_t)NULL  },
//  344   /* ZCL_CMD_DISCOVER_ATTRS_EXT */            { (zclParseInProfileCmd_t)NULL,   (zclProcessInProfileCmd_t)NULL  },
//  345   /* ZCL_CMD_DISCOVER_ATTRS_EXT_RSP */        { (zclParseInProfileCmd_t)NULL,   (zclProcessInProfileCmd_t)NULL  },
//  346 #endif // ZCL_DISCOVER
//  347 };
//  348 
//  349 /*********************************************************************
//  350  * PUBLIC FUNCTIONS
//  351  *********************************************************************/
//  352 
//  353 #if !defined ( ZCL_STANDALONE )
//  354 /*********************************************************************
//  355  * @fn          zcl_Init
//  356  *
//  357  * @brief       Initialization function for the zcl layer.
//  358  *
//  359  * @param       task_id - ZCL task id
//  360  *
//  361  * @return      none
//  362  */

        RSEG BANKED_CODE:HUGECODE:NOROOT(0)
//  363 void zcl_Init( uint8 task_id )
zcl_Init:
          CFI Block cfiBlock0 Using cfiCommon0
          CFI Function zcl_Init
        CODE
//  364 {
        PUSH      DPL
          CFI DPL0 Frame(CFA_SP, 4)
          CFI CFA_SP SP+-4
        PUSH      DPH
          CFI DPH0 Frame(CFA_SP, 5)
          CFI CFA_SP SP+-5
        ; Saved register size: 2
        ; Auto size: 0
//  365   zcl_TaskID = task_id;
        MOV       A,R1
        MOV       DPTR,#zcl_TaskID
        MOVX      @DPTR,A
//  366 }
        LJMP      ?Subroutine0 & 0xFFFF
          CFI EndBlock cfiBlock0
//  367 #endif
//  368 
//  369 #if !defined ( ZCL_STANDALONE )
//  370 /*********************************************************************
//  371  * @fn          zcl_event_loop
//  372  *
//  373  * @brief       Event Loop Processor for zcl.
//  374  *
//  375  * @param       task_id - task id
//  376  * @param       events - event bitmap
//  377  *
//  378  * @return      unprocessed events
//  379  */

        RSEG BANKED_CODE:HUGECODE:NOROOT(0)
//  380 uint16 zcl_event_loop( uint8 task_id, uint16 events )
zcl_event_loop:
          CFI Block cfiBlock1 Using cfiCommon0
          CFI Function zcl_event_loop
        CODE
//  381 {
        FUNCALL zcl_event_loop, osal_msg_receive
        LOCFRAME ISTACK, 0, STACK
        LOCFRAME PSTACK, 0, STACK
        LOCFRAME XSTACK, 12, STACK
        LOCFRAME IOVERLAY, 0, STATIC
        LOCFRAME DOVERLAY, 0, STATIC
        ARGFRAME ISTACK, 0, STACK
        ARGFRAME PSTACK, 0, STACK
        ARGFRAME XSTACK, 12, STACK
        ARGFRAME IOVERLAY, 0, STATIC
        ARGFRAME DOVERLAY, 0, STATIC
        FUNCALL zcl_event_loop, zcl_ProcessMessageMSG
        LOCFRAME ISTACK, 0, STACK
        LOCFRAME PSTACK, 0, STACK
        LOCFRAME XSTACK, 12, STACK
        LOCFRAME IOVERLAY, 0, STATIC
        LOCFRAME DOVERLAY, 0, STATIC
        ARGFRAME ISTACK, 0, STACK
        ARGFRAME PSTACK, 0, STACK
        ARGFRAME XSTACK, 12, STACK
        ARGFRAME IOVERLAY, 0, STATIC
        ARGFRAME DOVERLAY, 0, STATIC
        FUNCALL zcl_event_loop, osal_msg_deallocate
        LOCFRAME ISTACK, 0, STACK
        LOCFRAME PSTACK, 0, STACK
        LOCFRAME XSTACK, 12, STACK
        LOCFRAME IOVERLAY, 0, STATIC
        LOCFRAME DOVERLAY, 0, STATIC
        ARGFRAME ISTACK, 0, STACK
        ARGFRAME PSTACK, 0, STACK
        ARGFRAME XSTACK, 12, STACK
        ARGFRAME IOVERLAY, 0, STATIC
        ARGFRAME DOVERLAY, 0, STATIC
        FUNCALL zcl_event_loop, osal_msg_receive
        LOCFRAME ISTACK, 0, STACK
        LOCFRAME PSTACK, 0, STACK
        LOCFRAME XSTACK, 12, STACK
        LOCFRAME IOVERLAY, 0, STATIC
        LOCFRAME DOVERLAY, 0, STATIC
        ARGFRAME ISTACK, 0, STACK
        ARGFRAME PSTACK, 0, STACK
        ARGFRAME XSTACK, 12, STACK
        ARGFRAME IOVERLAY, 0, STATIC
        ARGFRAME DOVERLAY, 0, STATIC
        FUNCALL zcl_event_loop, zcl_getExternalFoundationHandler
        LOCFRAME ISTACK, 0, STACK
        LOCFRAME PSTACK, 0, STACK
        LOCFRAME XSTACK, 12, STACK
        LOCFRAME IOVERLAY, 0, STATIC
        LOCFRAME DOVERLAY, 0, STATIC
        ARGFRAME ISTACK, 0, STACK
        ARGFRAME PSTACK, 0, STACK
        ARGFRAME XSTACK, 12, STACK
        ARGFRAME IOVERLAY, 0, STATIC
        ARGFRAME DOVERLAY, 0, STATIC
        FUNCALL zcl_event_loop, osal_msg_send
        LOCFRAME ISTACK, 0, STACK
        LOCFRAME PSTACK, 0, STACK
        LOCFRAME XSTACK, 12, STACK
        LOCFRAME IOVERLAY, 0, STATIC
        LOCFRAME DOVERLAY, 0, STATIC
        ARGFRAME ISTACK, 0, STACK
        ARGFRAME PSTACK, 0, STACK
        ARGFRAME XSTACK, 12, STACK
        ARGFRAME IOVERLAY, 0, STATIC
        ARGFRAME DOVERLAY, 0, STATIC
        REQUIRE ?V0
        REQUIRE ?V1
        REQUIRE ?V2
        REQUIRE ?V3
        MOV       A,#-0xc
        LCALL     ?BANKED_ENTER_XDATA
          CFI DPH0 load(1, XDATA, add(CFA_XSP16, literal(-1)))
          CFI DPL0 load(1, XDATA, add(CFA_XSP16, literal(-2)))
          CFI ?BRET_EXT load(1, XDATA, add(CFA_XSP16, literal(-3)))
          CFI ?RET_HIGH load(1, XDATA, add(CFA_XSP16, literal(-4)))
          CFI ?RET_LOW load(1, XDATA, add(CFA_XSP16, literal(-5)))
          CFI R7 load(1, XDATA, add(CFA_XSP16, literal(-6)))
          CFI V3 load(1, XDATA, add(CFA_XSP16, literal(-7)))
          CFI V2 load(1, XDATA, add(CFA_XSP16, literal(-8)))
          CFI V1 load(1, XDATA, add(CFA_XSP16, literal(-9)))
          CFI V0 load(1, XDATA, add(CFA_XSP16, literal(-10)))
          CFI VB load(1, XDATA, add(CFA_XSP16, literal(-11)))
          CFI R6 load(1, XDATA, add(CFA_XSP16, literal(-12)))
          CFI CFA_SP SP+0
          CFI CFA_XSP16 add(XSP16, 12)
        ; Saved register size: 12
        ; Auto size: 0
        MOV       ?V0,R2
        MOV       ?V1,R3
//  382   uint8 *msgPtr;
//  383 
//  384   (void)task_id;  // Intentionally unreferenced parameter
//  385 
//  386   if ( events & SYS_EVENT_MSG )
        MOV       A,R3
        ANL       A,#0x80
        JZ        ??zcl_event_loop_0
//  387   {
//  388     msgPtr = osal_msg_receive( zcl_TaskID );
        ; Setup parameters for call to function osal_msg_receive
        SJMP      ??zcl_event_loop_1
//  389     while ( msgPtr != NULL )
//  390     {
//  391       uint8 dealloc = TRUE;
//  392 
//  393       if ( *msgPtr == AF_INCOMING_MSG_CMD )
//  394       {
//  395         zcl_ProcessMessageMSG( (afIncomingMSGPacket_t *)msgPtr );
??zcl_event_loop_2:
        ; Setup parameters for call to function zcl_ProcessMessageMSG
        MOV       A,R6
        MOV       R2,A
        MOV       A,R7
        MOV       R3,A
        LCALL     `??zcl_ProcessMessageMSG::?relay`; Banked call to: zcl_ProcessMessageMSG
//  396       }
//  397       else
//  398       {
//  399         uint8 taskID;
//  400         taskID = zcl_getExternalFoundationHandler( (afIncomingMSGPacket_t *)msgPtr );
//  401 
//  402         if ( taskID != TASK_NO_TASK )
//  403         {
//  404           // send it to another task to process.
//  405           osal_msg_send( taskID, msgPtr );
//  406           dealloc = FALSE;
//  407         }
//  408       }
//  409 
//  410       // Release the memory
//  411       if ( dealloc )
//  412       {
//  413         osal_msg_deallocate( msgPtr );
??zcl_event_loop_3:
        ; Setup parameters for call to function osal_msg_deallocate
        MOV       A,R6
        MOV       R2,A
        MOV       A,R7
        MOV       R3,A
        LCALL     `??osal_msg_deallocate::?relay`; Banked call to: osal_msg_deallocate
//  414       }
//  415 
//  416       // Next
//  417       msgPtr = osal_msg_receive( zcl_TaskID );
??zcl_event_loop_1:
        ; Setup parameters for call to function osal_msg_receive
        MOV       DPTR,#zcl_TaskID
        MOVX      A,@DPTR
        MOV       R1,A
        LCALL     `??osal_msg_receive::?relay`; Banked call to: osal_msg_receive
        MOV       ?V2,R2
        MOV       ?V3,R3
        MOV       R6,?V2
        MOV       R7,?V3
        MOV       A,R6
        ORL       A,R7
        JZ        ??zcl_event_loop_4
        MOV       DPL,R6
        MOV       DPH,R7
        MOVX      A,@DPTR
        XRL       A,#0x1a
        JZ        ??zcl_event_loop_2
        ; Setup parameters for call to function zcl_getExternalFoundationHandler
        MOV       A,R6
        MOV       R2,A
        MOV       A,R7
        MOV       R3,A
        LCALL     `??zcl_getExternalFoundationHandler::?relay`; Banked call to: zcl_getExternalFoundationHandler
        MOV       A,R1
        MOV       R1,A
        MOV       A,#-0x1
        XRL       A,R1
        JZ        ??zcl_event_loop_3
        ; Setup parameters for call to function osal_msg_send
        MOV       A,R6
        MOV       R2,A
        MOV       A,R7
        MOV       R3,A
        LCALL     `??osal_msg_send::?relay`; Banked call to: osal_msg_send
        SJMP      ??zcl_event_loop_1
//  418     }
//  419 
//  420     // return unprocessed events
//  421     return (events ^ SYS_EVENT_MSG);
??zcl_event_loop_4:
        MOV       R2,?V0
        MOV       A,?V1
        XRL       A,#0x80
        MOV       R3,A
        SJMP      ??zcl_event_loop_5
//  422   }
//  423 
//  424 #if !defined (DISABLE_GREENPOWER_BASIC_PROXY) && (ZG_BUILD_RTR_TYPE)
//  425   if ( events & ZCL_DATABUF_SEND )
//  426   {
//  427     gpNotificationMsg_t *gpNotification = NULL;
//  428     gpCmdPayloadMsg_t *pCmdPayloadMsgCurr = NULL;
//  429     gpd_ID_t gpd_ID;
//  430     uint8 *pgpdid;
//  431     uint8 entry[PROXY_TBL_ENTRY_LEN];
//  432     uint8 appId;
//  433     uint8 nwkSeqNum;
//  434     uint8 apsSecNum;
//  435     uint16 nwkAddr;
//  436     
//  437     gpNotification = gp_GetHeadNotificationMsg( );
//  438     
//  439     if ( gpNotification == NULL )
//  440     {
//  441       return 0;
//  442     }
//  443     
//  444     pCmdPayloadMsgCurr = ( gpCmdPayloadMsg_t* ) gpNotification->pMsg ;
//  445     appId = PROXY_TBL_GET_APPLICTION_ID((uint16)*pCmdPayloadMsgCurr->pMsg);
//  446     
//  447     // To save the NIB nwk sequense number and use the GP alias nwk sequence number
//  448     // for the GP notification
//  449     nwkSeqNum = _NIB.SequenceNum;
//  450     _NIB.SequenceNum = pCmdPayloadMsgCurr->secNum;
//  451     
//  452     // To save the NIB nwk address and use the GP alias nwk address for the GP notification
//  453     nwkAddr = _NIB.nwkDevAddress;
//  454     
//  455     if( appId == GP_OPT_APP_ID_GPD )
//  456     {
//  457       pgpdid = pCmdPayloadMsgCurr->pMsg + sizeof( uint16 );
//  458       
//  459       osal_memcpy( &_NIB.nwkDevAddress, pgpdid, sizeof(uint16) );
//  460       gpd_ID.AppID = GP_OPT_APP_ID_GPD;
//  461       osal_memcpy( &gpd_ID.GPDId.SrcID, pgpdid, sizeof( uint32 ) );
//  462     }
//  463     else if( appId == GP_OPT_APP_ID_IEEE )
//  464     {
//  465       pgpdid = pCmdPayloadMsgCurr->pMsg + Z_EXTADDR_LEN;
//  466       
//  467       osal_revmemcpy( &_NIB.nwkDevAddress,(pCmdPayloadMsgCurr->pMsg + Z_EXTADDR_LEN), sizeof(uint16) );
//  468       
//  469       gpd_ID.AppID = GP_OPT_APP_ID_IEEE;
//  470 
//  471       pgpdid = pCmdPayloadMsgCurr->pMsg + sizeof( uint16 );
//  472       osal_memcpy( gpd_ID.GPDId.GPDExtAddr, pgpdid, Z_EXTADDR_LEN );
//  473     }
//  474     
//  475     gp_getProxyTableByGpId(&gpd_ID, entry, NULL);
//  476 
//  477     if ( PROXY_TBL_GET_ASSIGNED_ALIAS( entry[PROXY_TBL_ENTRY_OPT + 1] ) )
//  478     {
//  479       _NIB.nwkDevAddress = 0;
//  480       osal_memcpy( (uint8*)&_NIB.nwkDevAddress, &entry[PROXY_TBL_ENTRY_ALIAS], sizeof(uint16));
//  481     }
//  482     
//  483     // save aps sequence number
//  484     apsSecNum = APS_Counter;
//  485     APS_Counter = pCmdPayloadMsgCurr->secNum;
//  486     
//  487     // Set nwk radius for zcl frame
//  488     if ( entry[PROXY_TBL_ENTRY_GRP_RAD] != 0xFF)
//  489     {
//  490       zcl_radius =  entry[PROXY_TBL_ENTRY_GRP_RAD];
//  491     }
//  492     
//  493     zcl_SendCommand( GREEN_POWER_INTERNAL_ENDPOINT, &gpNotification->addr, ZCL_CLUSTER_ID_GREEN_POWER,
//  494                           COMMAND_GP_NOTIFICATION, TRUE, ZCL_FRAME_CLIENT_SERVER_DIR,
//  495                           TRUE, 0,  bdb_getZCLFrameCounter(), pCmdPayloadMsgCurr->lenght, pCmdPayloadMsgCurr->pMsg );
//  496     
//  497     // restore nwk radius
//  498     zcl_radius = AF_DEFAULT_RADIUS;
//  499     
//  500     // restore aps sequence number
//  501     APS_Counter = apsSecNum;
//  502      
//  503     // Restore the NIB nwk sequence number
//  504     _NIB.SequenceNum = nwkSeqNum;
//  505     
//  506     // Restore the NIB nwk address
//  507     _NIB.nwkDevAddress = nwkAddr;
//  508     
//  509     gp_NotificationMsgClean( gp_GetPHeadNotification ( ) );
//  510     
//  511     if ( gp_GetHeadNotificationMsg ( ) != NULL )
//  512     {
//  513       osal_start_timerEx( zcl_TaskID, ZCL_DATABUF_SEND, 50 );
//  514     }
//  515   }
//  516 #endif
//  517 
//  518   // Discard unknown events
//  519   return 0;
??zcl_event_loop_0:
        MOV       R2,#0x0
        MOV       R3,#0x0
??zcl_event_loop_5:
        LJMP      ??Subroutine198_0 & 0xFFFF
//  520 }
          CFI EndBlock cfiBlock1
//  521 #endif
//  522 
//  523 #if !defined ( ZCL_STANDALONE )
//  524 /*********************************************************************
//  525  * @fn      zcl_registerForMsg
//  526  *
//  527  * @brief   The ZCL is setup to send all incoming Foundation Command/Response
//  528  *          messages that aren't processed to one task (if a task is
//  529  *          registered).
//  530  *
//  531  * @param   taskId - task Id of the Application where commands will be sent to
//  532  *
//  533  * @return  TRUE if task registeration successful, FALSE otherwise
//  534  *********************************************************************/

        RSEG BANKED_CODE:HUGECODE:NOROOT(0)
//  535 uint8 zcl_registerForMsg( uint8 taskId )
zcl_registerForMsg:
          CFI Block cfiBlock2 Using cfiCommon0
          CFI Function zcl_registerForMsg
        CODE
//  536 {
        FUNCALL zcl_registerForMsg, zcl_addExternalFoundationHandler
        LOCFRAME ISTACK, 0, STACK
        LOCFRAME PSTACK, 0, STACK
        LOCFRAME XSTACK, 9, STACK
        LOCFRAME IOVERLAY, 0, STATIC
        LOCFRAME DOVERLAY, 0, STATIC
        ARGFRAME ISTACK, 0, STACK
        ARGFRAME PSTACK, 0, STACK
        ARGFRAME XSTACK, 9, STACK
        ARGFRAME IOVERLAY, 0, STATIC
        ARGFRAME DOVERLAY, 0, STATIC
        MOV       A,#-0x9
        LCALL     ?BANKED_ENTER_XDATA
          CFI DPH0 load(1, XDATA, add(CFA_XSP16, literal(-1)))
          CFI DPL0 load(1, XDATA, add(CFA_XSP16, literal(-2)))
          CFI ?BRET_EXT load(1, XDATA, add(CFA_XSP16, literal(-3)))
          CFI ?RET_HIGH load(1, XDATA, add(CFA_XSP16, literal(-4)))
          CFI ?RET_LOW load(1, XDATA, add(CFA_XSP16, literal(-5)))
          CFI R7 load(1, XDATA, add(CFA_XSP16, literal(-6)))
          CFI V0 load(1, XDATA, add(CFA_XSP16, literal(-7)))
          CFI VB load(1, XDATA, add(CFA_XSP16, literal(-8)))
          CFI R6 load(1, XDATA, add(CFA_XSP16, literal(-9)))
          CFI CFA_SP SP+0
          CFI CFA_XSP16 add(XSP16, 9)
        ; Saved register size: 9
        ; Auto size: 0
//  537   return zcl_addExternalFoundationHandler( taskId, AF_BROADCAST_ENDPOINT );
        ; Setup parameters for call to function zcl_addExternalFoundationHandler
        MOV       R2,#-0x1
        LJMP      ?Subroutine2 & 0xFFFF
//  538 }
          CFI EndBlock cfiBlock2
//  539 
//  540 /*********************************************************************
//  541  * @fn      zcl_registerForMsgExt
//  542  *
//  543  * @brief   This function enables a Task to register to recieve all
//  544  *          incoming Foundation Command/Response messages, for a particular
//  545  *          End Point, that aren't processed by ZCL.
//  546  *
//  547  *          NOTE: Any Task registered for a unique end point will take
//  548  *          priority over any Task registered with the AF_BROADCAST_ENDPOINT
//  549  *          value.  ie. If task A registers for End Point 1, task B registers
//  550  *          for AF_BROADCAST_ENDPOINT,  commands addressed to End Point 1 will be
//  551  *          sent to Task A and NOT Task B.
//  552  *
//  553  * @param   taskId - task Id of the Application where commands will be sent to
//  554  * @param   endPointId - end point Id of interest
//  555  *
//  556  * @return  TRUE if task registeration successful, FALSE otherwise
//  557  *********************************************************************/

        RSEG BANKED_CODE:HUGECODE:NOROOT(0)
//  558 uint8 zcl_registerForMsgExt( uint8 taskId, uint8 endPointId  )
zcl_registerForMsgExt:
          CFI Block cfiBlock3 Using cfiCommon0
          CFI Function zcl_registerForMsgExt
        CODE
//  559 {
        FUNCALL zcl_registerForMsgExt, zcl_addExternalFoundationHandler
        LOCFRAME ISTACK, 0, STACK
        LOCFRAME PSTACK, 0, STACK
        LOCFRAME XSTACK, 9, STACK
        LOCFRAME IOVERLAY, 0, STATIC
        LOCFRAME DOVERLAY, 0, STATIC
        ARGFRAME ISTACK, 0, STACK
        ARGFRAME PSTACK, 0, STACK
        ARGFRAME XSTACK, 9, STACK
        ARGFRAME IOVERLAY, 0, STATIC
        ARGFRAME DOVERLAY, 0, STATIC
        MOV       A,#-0x9
        LCALL     ?BANKED_ENTER_XDATA
          CFI DPH0 load(1, XDATA, add(CFA_XSP16, literal(-1)))
          CFI DPL0 load(1, XDATA, add(CFA_XSP16, literal(-2)))
          CFI ?BRET_EXT load(1, XDATA, add(CFA_XSP16, literal(-3)))
          CFI ?RET_HIGH load(1, XDATA, add(CFA_XSP16, literal(-4)))
          CFI ?RET_LOW load(1, XDATA, add(CFA_XSP16, literal(-5)))
          CFI R7 load(1, XDATA, add(CFA_XSP16, literal(-6)))
          CFI V0 load(1, XDATA, add(CFA_XSP16, literal(-7)))
          CFI VB load(1, XDATA, add(CFA_XSP16, literal(-8)))
          CFI R6 load(1, XDATA, add(CFA_XSP16, literal(-9)))
          CFI CFA_SP SP+0
          CFI CFA_XSP16 add(XSP16, 9)
        ; Saved register size: 9
        ; Auto size: 0
//  560   return ( zcl_addExternalFoundationHandler( taskId, endPointId  ) );
        ; Setup parameters for call to function zcl_addExternalFoundationHandler
        LJMP      ?Subroutine2 & 0xFFFF
//  561 }
          CFI EndBlock cfiBlock3
//  562 
//  563 /*********************************************************************
//  564  * @fn      zcl_addExternalFoundationHandler
//  565  *
//  566  * @brief   This function adds a record to the internal list of external
//  567  *          handlers of unhandled incoming Foundation Command/Response messages.
//  568  *
//  569  * @param   taskId - task Id of the Application where commands will be sent to
//  570  * @param   endPointId - end point Id of interest
//  571  *
//  572  * @return  TRUE if task registeration successful, FALSE otherwise
//  573  *********************************************************************/

        RSEG BANKED_CODE:HUGECODE:NOROOT(0)
//  574 uint8 zcl_addExternalFoundationHandler( uint8 taskId, uint8 endPointId  )
zcl_addExternalFoundationHandler:
          CFI Block cfiBlock4 Using cfiCommon0
          CFI Function zcl_addExternalFoundationHandler
        CODE
//  575 {
        FUNCALL zcl_addExternalFoundationHandler, osal_mem_alloc
        LOCFRAME ISTACK, 0, STACK
        LOCFRAME PSTACK, 0, STACK
        LOCFRAME XSTACK, 10, STACK
        LOCFRAME IOVERLAY, 0, STATIC
        LOCFRAME DOVERLAY, 0, STATIC
        ARGFRAME ISTACK, 0, STACK
        ARGFRAME PSTACK, 0, STACK
        ARGFRAME XSTACK, 10, STACK
        ARGFRAME IOVERLAY, 0, STATIC
        ARGFRAME DOVERLAY, 0, STATIC
        FUNCALL zcl_addExternalFoundationHandler, osal_mem_free
        LOCFRAME ISTACK, 0, STACK
        LOCFRAME PSTACK, 0, STACK
        LOCFRAME XSTACK, 10, STACK
        LOCFRAME IOVERLAY, 0, STATIC
        LOCFRAME DOVERLAY, 0, STATIC
        ARGFRAME ISTACK, 0, STACK
        ARGFRAME PSTACK, 0, STACK
        ARGFRAME XSTACK, 10, STACK
        ARGFRAME IOVERLAY, 0, STATIC
        ARGFRAME DOVERLAY, 0, STATIC
        REQUIRE ?V0
        REQUIRE ?V1
        MOV       A,#-0xa
        LCALL     ?BANKED_ENTER_XDATA
          CFI DPH0 load(1, XDATA, add(CFA_XSP16, literal(-1)))
          CFI DPL0 load(1, XDATA, add(CFA_XSP16, literal(-2)))
          CFI ?BRET_EXT load(1, XDATA, add(CFA_XSP16, literal(-3)))
          CFI ?RET_HIGH load(1, XDATA, add(CFA_XSP16, literal(-4)))
          CFI ?RET_LOW load(1, XDATA, add(CFA_XSP16, literal(-5)))
          CFI R7 load(1, XDATA, add(CFA_XSP16, literal(-6)))
          CFI V1 load(1, XDATA, add(CFA_XSP16, literal(-7)))
          CFI V0 load(1, XDATA, add(CFA_XSP16, literal(-8)))
          CFI VB load(1, XDATA, add(CFA_XSP16, literal(-9)))
          CFI R6 load(1, XDATA, add(CFA_XSP16, literal(-10)))
          CFI CFA_SP SP+0
          CFI CFA_XSP16 add(XSP16, 10)
        ; Saved register size: 10
        ; Auto size: 0
        MOV       A,R1
        MOV       R6,A
        MOV       A,R2
        MOV       R7,A
//  576   zclExternalFoundationHandlerList *pNewItem;
//  577   zclExternalFoundationHandlerList *pLoop;
//  578   zclExternalFoundationHandlerList *pLoopPrev;
//  579 
//  580   // Fill in the new endpoint registrant list
//  581   pNewItem = zcl_mem_alloc( sizeof( zclExternalFoundationHandlerList ) );
        ; Setup parameters for call to function osal_mem_alloc
        MOV       R2,#0x4
        MOV       R3,#0x0
        LCALL     `??osal_mem_alloc::?relay`; Banked call to: osal_mem_alloc
//  582   if ( pNewItem == NULL )
        MOV       A,R2
        ORL       A,R3
        JZ        ??zcl_addExternalFoundationHandler_0
//  583   {
//  584     return ( false );
//  585   }
//  586 
//  587   pNewItem->zcl_ExternalEndPoint = endPointId;
        MOV       A,R7
        MOV       DPL,R2
        MOV       DPH,R3
        INC       DPTR
        INC       DPTR
        INC       DPTR
        MOVX      @DPTR,A
//  588   pNewItem->zcl_ExternalTaskID = taskId;
        MOV       A,R6
        MOV       DPL,R2
        MOV       DPH,R3
        INC       DPTR
        INC       DPTR
        LCALL     ?Subroutine42 & 0xFFFF
//  589   pNewItem->next = NULL;
??CrossCallReturnLabel_52:
        MOVX      @DPTR,A
//  590 
//  591   // Add to the list
//  592   if ( externalEndPointHandlerList == NULL )
        MOV       DPTR,#externalEndPointHandlerList
        LCALL     ??Subroutine218_0 & 0xFFFF
??CrossCallReturnLabel_427:
        JNZ       ??zcl_addExternalFoundationHandler_1
//  593   {
//  594     externalEndPointHandlerList = pNewItem;
        MOV       DPTR,#externalEndPointHandlerList
        MOV       A,R2
        MOVX      @DPTR,A
        INC       DPTR
        MOV       A,R3
        SJMP      ??zcl_addExternalFoundationHandler_2
//  595   }
//  596   else
//  597   {
//  598     // make sure no one else tried to register for this endpoint
//  599     pLoop = externalEndPointHandlerList;
??zcl_addExternalFoundationHandler_1:
        MOVX      A,@DPTR
        MOV       R1,A
//  600     pLoopPrev = externalEndPointHandlerList;
//  601 
//  602     while ( pLoop != NULL )
//  603     {
//  604       if ( ( pLoop->zcl_ExternalEndPoint ) == endPointId )
??zcl_addExternalFoundationHandler_3:
        MOV       DPL,R0
        MOV       DPH,R1
        INC       DPTR
        INC       DPTR
        INC       DPTR
        MOVX      A,@DPTR
        XRL       A,R7
        JNZ       ??zcl_addExternalFoundationHandler_4
//  605       {
//  606         zcl_mem_free(pNewItem);
        ; Setup parameters for call to function osal_mem_free
        LCALL     `??osal_mem_free::?relay`; Banked call to: osal_mem_free
//  607         return ( false );
??zcl_addExternalFoundationHandler_0:
        MOV       R1,#0x0
        SJMP      ??zcl_addExternalFoundationHandler_5
//  608       }
//  609       pLoopPrev = pLoop;
??zcl_addExternalFoundationHandler_4:
        MOV       A,R0
        MOV       R4,A
        MOV       A,R1
        MOV       R5,A
//  610       pLoop = pLoop->next;
        MOV       DPL,R0
        MOV       DPH,R1
        LCALL     ??Subroutine218_0 & 0xFFFF
//  611     }
??CrossCallReturnLabel_422:
        JNZ       ??zcl_addExternalFoundationHandler_3
//  612 
//  613     if ( endPointId == AF_BROADCAST_ENDPOINT )
        MOV       A,#-0x1
        XRL       A,R7
        JNZ       ??zcl_addExternalFoundationHandler_6
//  614     {
//  615       // put new registration at the end of the list
//  616       pLoopPrev->next = pNewItem;
        MOV       DPL,R4
        MOV       DPH,R5
        MOV       A,R2
        MOVX      @DPTR,A
        INC       DPTR
        MOV       A,R3
        LCALL     ?Subroutine42 & 0xFFFF
//  617       pNewItem->next = NULL;
//  618     }
??CrossCallReturnLabel_53:
        SJMP      ??zcl_addExternalFoundationHandler_2
//  619     else
//  620     {
//  621       // put new registration at the front of the list
//  622       zclExternalFoundationHandlerList *temp = externalEndPointHandlerList;
??zcl_addExternalFoundationHandler_6:
        MOV       DPTR,#externalEndPointHandlerList
        LCALL     ??Subroutine228_0 & 0xFFFF
//  623       externalEndPointHandlerList = pNewItem;
??CrossCallReturnLabel_484:
        MOV       DPTR,#externalEndPointHandlerList
        LCALL     ??Subroutine244_0 & 0xFFFF
//  624       pNewItem->next = temp;
??CrossCallReturnLabel_573:
        MOV       DPL,R2
        MOV       DPH,R3
        MOV       A,R0
        MOVX      @DPTR,A
        INC       DPTR
        MOV       A,R1
??zcl_addExternalFoundationHandler_2:
        MOVX      @DPTR,A
//  625     }
//  626   }
//  627 
//  628   return ( true );
        MOV       R1,#0x1
??zcl_addExternalFoundationHandler_5:
        LJMP      ?Subroutine3 & 0xFFFF
//  629 
//  630 }
          CFI EndBlock cfiBlock4

        RSEG BANKED_CODE:HUGECODE:NOROOT(0)
?Subroutine42:
          CFI Block cfiCond5 Using cfiCommon0
          CFI Function zcl_addExternalFoundationHandler
          CFI Conditional ??CrossCallReturnLabel_52
          CFI R6 load(1, XDATA, add(CFA_XSP16, literal(-10)))
          CFI VB load(1, XDATA, add(CFA_XSP16, literal(-9)))
          CFI V0 load(1, XDATA, add(CFA_XSP16, literal(-8)))
          CFI V1 load(1, XDATA, add(CFA_XSP16, literal(-7)))
          CFI R7 load(1, XDATA, add(CFA_XSP16, literal(-6)))
          CFI ?RET_LOW load(1, XDATA, add(CFA_XSP16, literal(-5)))
          CFI ?RET_HIGH load(1, XDATA, add(CFA_XSP16, literal(-4)))
          CFI ?BRET_EXT load(1, XDATA, add(CFA_XSP16, literal(-3)))
          CFI DPL0 load(1, XDATA, add(CFA_XSP16, literal(-2)))
          CFI DPH0 load(1, XDATA, add(CFA_XSP16, literal(-1)))
          CFI CFA_SP SP+-2
          CFI CFA_XSP16 add(XSP16, 10)
          CFI Block cfiCond6 Using cfiCommon0
          CFI (cfiCond6) Function zcl_addExternalFoundationHandler
          CFI (cfiCond6) Conditional ??CrossCallReturnLabel_53
          CFI (cfiCond6) R6 load(1, XDATA, add(CFA_XSP16, literal(-10)))
          CFI (cfiCond6) VB load(1, XDATA, add(CFA_XSP16, literal(-9)))
          CFI (cfiCond6) V0 load(1, XDATA, add(CFA_XSP16, literal(-8)))
          CFI (cfiCond6) V1 load(1, XDATA, add(CFA_XSP16, literal(-7)))
          CFI (cfiCond6) R7 load(1, XDATA, add(CFA_XSP16, literal(-6)))
          CFI (cfiCond6) ?RET_LOW load(1, XDATA, add(CFA_XSP16, literal(-5)))
          CFI (cfiCond6) ?RET_HIGH load(1, XDATA, add(CFA_XSP16, literal(-4)))
          CFI (cfiCond6) ?BRET_EXT load(1, XDATA, add(CFA_XSP16, literal(-3)))
          CFI (cfiCond6) DPL0 load(1, XDATA, add(CFA_XSP16, literal(-2)))
          CFI (cfiCond6) DPH0 load(1, XDATA, add(CFA_XSP16, literal(-1)))
          CFI (cfiCond6) CFA_SP SP+-2
          CFI (cfiCond6) CFA_XSP16 add(XSP16, 10)
          CFI Block cfiPicker7 Using cfiCommon1
          CFI (cfiPicker7) NoFunction
          CFI (cfiPicker7) Picker
        LCALL     ?Subroutine151 & 0xFFFF
??CrossCallReturnLabel_418:
        CLR       A
        MOVX      @DPTR,A
        INC       DPTR
        RET
          CFI EndBlock cfiCond5
          CFI EndBlock cfiCond6
          CFI EndBlock cfiPicker7
//  631 
//  632 /*********************************************************************
//  633  * @fn      zcl_getExternalFoundationHandler
//  634  *
//  635  * @brief   This function retrieves the Task ID of the task registered
//  636  *          to received unhandled incoming Foundation Command/Response messages
//  637  *          for a particular End Point ID.
//  638  *
//  639  * @param   pInMsg - recevied ZCL command
//  640  *
//  641  * @return  TASK ID of registered task.  If no task is reigistered, it returns
//  642  *          TASK_NO_TASK.
//  643  *********************************************************************/

        RSEG BANKED_CODE:HUGECODE:NOROOT(0)
//  644 static uint8 zcl_getExternalFoundationHandler( afIncomingMSGPacket_t *pInMsg )
zcl_getExternalFoundationHandler:
          CFI Block cfiBlock8 Using cfiCommon0
          CFI Function zcl_getExternalFoundationHandler
        CODE
//  645 {
        PUSH      DPL
          CFI DPL0 Frame(CFA_SP, 4)
          CFI CFA_SP SP+-4
        PUSH      DPH
          CFI DPH0 Frame(CFA_SP, 5)
          CFI CFA_SP SP+-5
        ; Saved register size: 2
        ; Auto size: 0
//  646   zclExternalFoundationHandlerList *pLoop;
//  647   uint8 addressedEndPointId = pInMsg->endPoint;
        MOV       A,R2
        LCALL     ?Subroutine129 & 0xFFFF
??CrossCallReturnLabel_226:
        ADDC      A,R3
        MOV       DPH,A
        MOVX      A,@DPTR
        MOV       R2,A
//  648 
//  649   // make sure no one else tried to register for this endpoint
//  650   pLoop = externalEndPointHandlerList;
        MOV       DPTR,#externalEndPointHandlerList
        SJMP      ??zcl_getExternalFoundationHandler_0
//  651 
//  652   while ( pLoop != NULL )
//  653   {
//  654     if ( ( ( pLoop->zcl_ExternalEndPoint ) == addressedEndPointId ) ||
//  655          ( ( pLoop->zcl_ExternalEndPoint ) == AF_BROADCAST_ENDPOINT ) )
//  656     {
//  657       return ( pLoop->zcl_ExternalTaskID );
//  658     }
//  659     pLoop = pLoop->next;
??zcl_getExternalFoundationHandler_1:
        MOV       DPL,R0
        MOV       DPH,R1
??zcl_getExternalFoundationHandler_0:
        LCALL     ??Subroutine218_0 & 0xFFFF
??CrossCallReturnLabel_423:
        JZ        ??zcl_getExternalFoundationHandler_2
        MOV       DPL,R0
        MOV       DPH,R1
        INC       DPTR
        INC       DPTR
        INC       DPTR
        MOVX      A,@DPTR
        MOV       R3,A
        MOV       A,R2
        XRL       A,R3
        JZ        ??zcl_getExternalFoundationHandler_3
        MOV       A,#-0x1
        XRL       A,R3
        JNZ       ??zcl_getExternalFoundationHandler_1
??zcl_getExternalFoundationHandler_3:
        MOV       DPL,R0
        MOV       DPH,R1
        INC       DPTR
        INC       DPTR
        MOVX      A,@DPTR
        MOV       R1,A
        SJMP      ??zcl_getExternalFoundationHandler_4
//  660   }
//  661 
//  662   return ( TASK_NO_TASK );
??zcl_getExternalFoundationHandler_2:
        MOV       R1,#-0x1
??zcl_getExternalFoundationHandler_4:
        LJMP      ?Subroutine0 & 0xFFFF
//  663 }
          CFI EndBlock cfiBlock8
//  664 #endif
//  665 
//  666 #if !defined ( ZCL_STANDALONE )
//  667 /*********************************************************************
//  668  * @fn      zcl_HandleExternal
//  669  *
//  670  * @brief
//  671  *
//  672  * @param   pInMsg - incoming message to process
//  673  *
//  674  * @return  TRUE
//  675  */

        RSEG BANKED_CODE:HUGECODE:NOROOT(0)
//  676 uint8 zcl_HandleExternal( zclIncoming_t *pInMsg )
zcl_HandleExternal:
          CFI Block cfiBlock9 Using cfiCommon0
          CFI Function zcl_HandleExternal
        CODE
//  677 {
        FUNCALL zcl_HandleExternal, zcl_getExternalFoundationHandler
        LOCFRAME ISTACK, 0, STACK
        LOCFRAME PSTACK, 0, STACK
        LOCFRAME XSTACK, 12, STACK
        LOCFRAME IOVERLAY, 0, STATIC
        LOCFRAME DOVERLAY, 0, STATIC
        ARGFRAME ISTACK, 0, STACK
        ARGFRAME PSTACK, 0, STACK
        ARGFRAME XSTACK, 12, STACK
        ARGFRAME IOVERLAY, 0, STATIC
        ARGFRAME DOVERLAY, 0, STATIC
        FUNCALL zcl_HandleExternal, osal_msg_allocate
        LOCFRAME ISTACK, 0, STACK
        LOCFRAME PSTACK, 0, STACK
        LOCFRAME XSTACK, 12, STACK
        LOCFRAME IOVERLAY, 0, STATIC
        LOCFRAME DOVERLAY, 0, STATIC
        ARGFRAME ISTACK, 0, STACK
        ARGFRAME PSTACK, 0, STACK
        ARGFRAME XSTACK, 12, STACK
        ARGFRAME IOVERLAY, 0, STATIC
        ARGFRAME DOVERLAY, 0, STATIC
        FUNCALL zcl_HandleExternal, osal_msg_send
        LOCFRAME ISTACK, 0, STACK
        LOCFRAME PSTACK, 0, STACK
        LOCFRAME XSTACK, 12, STACK
        LOCFRAME IOVERLAY, 0, STATIC
        LOCFRAME DOVERLAY, 0, STATIC
        ARGFRAME ISTACK, 0, STACK
        ARGFRAME PSTACK, 0, STACK
        ARGFRAME XSTACK, 12, STACK
        ARGFRAME IOVERLAY, 0, STATIC
        ARGFRAME DOVERLAY, 0, STATIC
        REQUIRE ?V0
        REQUIRE ?V1
        REQUIRE ?V2
        REQUIRE ?V3
        MOV       A,#-0xc
        LCALL     ?BANKED_ENTER_XDATA
          CFI DPH0 load(1, XDATA, add(CFA_XSP16, literal(-1)))
          CFI DPL0 load(1, XDATA, add(CFA_XSP16, literal(-2)))
          CFI ?BRET_EXT load(1, XDATA, add(CFA_XSP16, literal(-3)))
          CFI ?RET_HIGH load(1, XDATA, add(CFA_XSP16, literal(-4)))
          CFI ?RET_LOW load(1, XDATA, add(CFA_XSP16, literal(-5)))
          CFI R7 load(1, XDATA, add(CFA_XSP16, literal(-6)))
          CFI V3 load(1, XDATA, add(CFA_XSP16, literal(-7)))
          CFI V2 load(1, XDATA, add(CFA_XSP16, literal(-8)))
          CFI V1 load(1, XDATA, add(CFA_XSP16, literal(-9)))
          CFI V0 load(1, XDATA, add(CFA_XSP16, literal(-10)))
          CFI VB load(1, XDATA, add(CFA_XSP16, literal(-11)))
          CFI R6 load(1, XDATA, add(CFA_XSP16, literal(-12)))
          CFI CFA_SP SP+0
          CFI CFA_XSP16 add(XSP16, 12)
        ; Saved register size: 12
        ; Auto size: 0
        MOV       A,R2
        MOV       R6,A
        MOV       A,R3
        MOV       R7,A
//  678   zclIncomingMsg_t *pCmd;
//  679   uint8 taskID;
//  680 
//  681   taskID = zcl_getExternalFoundationHandler( pInMsg->msg );
        ; Setup parameters for call to function zcl_getExternalFoundationHandler
        MOV       DPL,R6
        MOV       DPH,R7
        LCALL     ??Subroutine224_0 & 0xFFFF
??CrossCallReturnLabel_449:
        LCALL     `??zcl_getExternalFoundationHandler::?relay`; Banked call to: zcl_getExternalFoundationHandler
        MOV       A,R1
        MOV       ?V0,A
//  682 
//  683   if ( taskID == TASK_NO_TASK )
        MOV       A,#-0x1
        XRL       A,?V0
        JNZ       $+5
        LJMP      ??zcl_HandleExternal_0 & 0xFFFF
//  684   {
//  685     return ( TRUE );
//  686   }
//  687 
//  688   pCmd = (zclIncomingMsg_t *)osal_msg_allocate( sizeof ( zclIncomingMsg_t ) );
        ; Setup parameters for call to function osal_msg_allocate
        MOV       R2,#0x19
        MOV       R3,#0x0
        LCALL     `??osal_msg_allocate::?relay`; Banked call to: osal_msg_allocate
//  689   if ( pCmd != NULL )
        MOV       A,R2
        ORL       A,R3
        JNZ       $+5
        LJMP      ??zcl_HandleExternal_0 & 0xFFFF
//  690   {
//  691     // fill in the message
//  692     pCmd->hdr.event = ZCL_INCOMING_MSG;
        MOV       DPL,R2
        MOV       DPH,R3
        MOV       A,#0x34
        LCALL     ?Subroutine39 & 0xFFFF
//  693     pCmd->zclHdr    = pInMsg->hdr;
??CrossCallReturnLabel_47:
        INC       DPTR
        MOV       A,R2
        ADD       A,#0x2
        MOV       R4,A
        CLR       A
        ADDC      A,R3
        MOV       R5,A
        MOV       A,#0x6
        LCALL     ?MOVE_LONG8_XDATA_XDATA
//  694     pCmd->clusterId = pInMsg->msg->clusterId;
        MOV       DPL,R6
        MOV       DPH,R7
        LCALL     ?Subroutine102 & 0xFFFF
??CrossCallReturnLabel_173:
        LCALL     ?Subroutine107 & 0xFFFF
??CrossCallReturnLabel_547:
        MOV       DPL,R2
        MOV       DPH,R3
        INC       DPTR
        INC       DPTR
        INC       DPTR
        INC       DPTR
        INC       DPTR
        INC       DPTR
        INC       DPTR
        INC       DPTR
        MOV       A,R4
        MOVX      @DPTR,A
        INC       DPTR
        MOV       A,R5
        LCALL     ?Subroutine35 & 0xFFFF
//  695     pCmd->srcAddr   = pInMsg->msg->srcAddr;
??CrossCallReturnLabel_40:
        INC       DPTR
        MOV       A,R2
        ADD       A,#0xa
        MOV       R4,A
        CLR       A
        ADDC      A,R3
        MOV       R5,A
        MOV       A,#0xc
        LCALL     ?MOVE_LONG8_XDATA_XDATA
//  696     pCmd->endPoint  = pInMsg->msg->endPoint;
        MOV       DPL,R6
        MOV       DPH,R7
        LCALL     ?Subroutine194 & 0xFFFF
??CrossCallReturnLabel_502:
        XCH       A,R0
        LCALL     ?Subroutine129 & 0xFFFF
??CrossCallReturnLabel_227:
        ADDC      A,R0
        MOV       DPH,A
        MOVX      A,@DPTR
        PUSH      A
          CFI CFA_SP SP+-1
        MOV       A,R2
        ADD       A,#0x16
        MOV       DPL,A
        CLR       A
        ADDC      A,R3
        MOV       DPH,A
        POP       A
          CFI CFA_SP SP+0
        MOVX      @DPTR,A
//  697     pCmd->attrCmd   = pInMsg->attrCmd;
        MOV       A,R6
        ADD       A,#0xc
        MOV       R0,A
        CLR       A
        ADDC      A,R7
        MOV       R1,A
        MOV       DPL,R0
        MOV       DPH,R1
        LCALL     ??Subroutine235_0 & 0xFFFF
??CrossCallReturnLabel_542:
        MOV       A,R2
        ADD       A,#0x17
        MOV       DPL,A
        CLR       A
        ADDC      A,R3
        MOV       DPH,A
        MOV       A,R4
        MOVX      @DPTR,A
        INC       DPTR
        MOV       A,R5
        MOVX      @DPTR,A
//  698     
//  699 #ifdef BDB_REPORTING
//  700     if(pCmd->zclHdr.commandID == ZCL_CMD_CONFIG_REPORT)
//  701     {
//  702       bdb_ProcessInConfigReportCmd(pCmd);
//  703       osal_msg_deallocate((uint8*)pCmd);
//  704       return TRUE;          
//  705     }
//  706     if(pCmd->zclHdr.commandID == ZCL_CMD_READ_REPORT_CFG)
//  707     {
//  708       bdb_ProcessInReadReportCfgCmd(pCmd);
//  709       osal_msg_deallocate((uint8*)pCmd);
//  710       return TRUE;
//  711     }
//  712 #endif
//  713     // Application will free the attrCmd buffer
//  714     pInMsg->attrCmd = NULL;
        MOV       DPL,R0
        MOV       DPH,R1
        CLR       A
        MOVX      @DPTR,A
        INC       DPTR
        MOVX      @DPTR,A
//  715 
//  716     /* send message through task message */
//  717     osal_msg_send( taskID, (uint8 *)pCmd );
        ; Setup parameters for call to function osal_msg_send
        MOV       R1,?V0
        LCALL     `??osal_msg_send::?relay`; Banked call to: osal_msg_send
//  718   }
//  719 
//  720   return ( TRUE );
??zcl_HandleExternal_0:
        MOV       R1,#0x1
        LJMP      ??Subroutine198_0 & 0xFFFF
//  721 }
          CFI EndBlock cfiBlock9
//  722 #endif
//  723 
//  724 
//  725 /*********************************************************************
//  726  * @fn          zcl_getRawAFMsg
//  727  *
//  728  * @brief       Call to get original unprocessed AF message
//  729  *              (not parsed by ZCL).
//  730  *
//  731  *   NOTE:  This function can only be called during a ZCL callback function
//  732  *          and the calling function must NOT change any data in the message.
//  733  *
//  734  * @param       none
//  735  *
//  736  * @return      pointer to original AF message, NULL if not processing
//  737  *              AF message.
//  738  */

        RSEG BANKED_CODE:HUGECODE:NOROOT(0)
//  739 afIncomingMSGPacket_t *zcl_getRawAFMsg( void )
zcl_getRawAFMsg:
          CFI Block cfiBlock10 Using cfiCommon0
          CFI Function zcl_getRawAFMsg
        CODE
//  740 {
        PUSH      DPL
          CFI DPL0 Frame(CFA_SP, 4)
          CFI CFA_SP SP+-4
        PUSH      DPH
          CFI DPH0 Frame(CFA_SP, 5)
          CFI CFA_SP SP+-5
        ; Saved register size: 2
        ; Auto size: 0
//  741   return ( rawAFMsg );
        MOV       DPTR,#rawAFMsg
        LCALL     ??Subroutine224_0 & 0xFFFF
??CrossCallReturnLabel_450:
        LJMP      ?Subroutine0 & 0xFFFF
//  742 }
          CFI EndBlock cfiBlock10
//  743 
//  744 /*********************************************************************
//  745  * @fn          zcl_getParsedTransSeqNum
//  746  *
//  747  * @brief       Call to the get the transaction sequence number from
//  748  *              the incoming message.
//  749  *
//  750  *   NOTE:  This function can only be called during a ZCL callback function
//  751  *          and the calling function must NOT change any data in the message.
//  752  *
//  753  * @param       none
//  754  *
//  755  * @return      transaction sequence number.
//  756  */

        RSEG BANKED_CODE:HUGECODE:NOROOT(0)
//  757 uint8 zcl_getParsedTransSeqNum( void )
zcl_getParsedTransSeqNum:
          CFI Block cfiBlock11 Using cfiCommon0
          CFI Function zcl_getParsedTransSeqNum
        CODE
//  758 {
        PUSH      DPL
          CFI DPL0 Frame(CFA_SP, 4)
          CFI CFA_SP SP+-4
        PUSH      DPH
          CFI DPH0 Frame(CFA_SP, 5)
          CFI CFA_SP SP+-5
        ; Saved register size: 2
        ; Auto size: 0
//  759   return ( savedZCLTransSeqNum );
        MOV       DPTR,#savedZCLTransSeqNum
        MOVX      A,@DPTR
        MOV       R1,A
        LJMP      ?Subroutine0 & 0xFFFF
//  760 }
          CFI EndBlock cfiBlock11
//  761 
//  762 /*********************************************************************
//  763  * @fn          zcl_registerPlugin
//  764  *
//  765  * @brief       Add a Cluster Library handler
//  766  *
//  767  * @param       startClusterID - starting cluster ID
//  768  * @param       endClusterID - ending cluster ID
//  769  * @param       pfnHdlr - function pointer to incoming message handler
//  770  *
//  771  * @return      ZSuccess if OK
//  772  */

        RSEG BANKED_CODE:HUGECODE:NOROOT(0)
//  773 ZStatus_t zcl_registerPlugin( uint16 startClusterID,
zcl_registerPlugin:
          CFI Block cfiBlock12 Using cfiCommon0
          CFI Function zcl_registerPlugin
        CODE
//  774           uint16 endClusterID, zclInHdlr_t pfnIncomingHdlr )
//  775 {
        FUNCALL zcl_registerPlugin, osal_mem_alloc
        LOCFRAME ISTACK, 0, STACK
        LOCFRAME PSTACK, 0, STACK
        LOCFRAME XSTACK, 12, STACK
        LOCFRAME IOVERLAY, 0, STATIC
        LOCFRAME DOVERLAY, 0, STATIC
        ARGFRAME ISTACK, 0, STACK
        ARGFRAME PSTACK, 0, STACK
        ARGFRAME XSTACK, 12, STACK
        ARGFRAME IOVERLAY, 0, STATIC
        ARGFRAME DOVERLAY, 0, STATIC
        REQUIRE ?V0
        REQUIRE ?V1
        REQUIRE ?V2
        REQUIRE ?V3
        MOV       A,#-0xc
        LCALL     ?BANKED_ENTER_XDATA
          CFI DPH0 load(1, XDATA, add(CFA_XSP16, literal(-1)))
          CFI DPL0 load(1, XDATA, add(CFA_XSP16, literal(-2)))
          CFI ?BRET_EXT load(1, XDATA, add(CFA_XSP16, literal(-3)))
          CFI ?RET_HIGH load(1, XDATA, add(CFA_XSP16, literal(-4)))
          CFI ?RET_LOW load(1, XDATA, add(CFA_XSP16, literal(-5)))
          CFI R7 load(1, XDATA, add(CFA_XSP16, literal(-6)))
          CFI V3 load(1, XDATA, add(CFA_XSP16, literal(-7)))
          CFI V2 load(1, XDATA, add(CFA_XSP16, literal(-8)))
          CFI V1 load(1, XDATA, add(CFA_XSP16, literal(-9)))
          CFI V0 load(1, XDATA, add(CFA_XSP16, literal(-10)))
          CFI VB load(1, XDATA, add(CFA_XSP16, literal(-11)))
          CFI R6 load(1, XDATA, add(CFA_XSP16, literal(-12)))
          CFI CFA_SP SP+0
          CFI CFA_XSP16 add(XSP16, 12)
        ; Saved register size: 12
        ; Auto size: 0
        MOV       ?V0,R2
        MOV       ?V1,R3
        MOV       A,R4
        MOV       R6,A
        MOV       A,R5
        MOV       R7,A
//  776   zclLibPlugin_t *pNewItem;
//  777   zclLibPlugin_t *pLoop;
//  778 
//  779   // Fill in the new profile list
//  780   pNewItem = zcl_mem_alloc( sizeof( zclLibPlugin_t ) );
        ; Setup parameters for call to function osal_mem_alloc
        MOV       R2,#0x8
        MOV       R3,#0x0
        LCALL     `??osal_mem_alloc::?relay`; Banked call to: osal_mem_alloc
        MOV       ?V2,R2
        MOV       ?V3,R3
        MOV       R0,?V2
        MOV       R1,?V3
//  781   if ( pNewItem == NULL )
        MOV       A,R0
        ORL       A,R1
        JNZ       ??zcl_registerPlugin_0
//  782   {
//  783     return (ZMemError);
        MOV       R1,#0x10
        SJMP      ??CrossCallReturnLabel_26
//  784   }
//  785 
//  786   // Fill in the plugin record.
//  787   pNewItem->next = (zclLibPlugin_t *)NULL;
??zcl_registerPlugin_0:
        LCALL     ?Subroutine28 & 0xFFFF
//  788   pNewItem->startClusterID = startClusterID;
??CrossCallReturnLabel_24:
        LCALL     ?Subroutine148 & 0xFFFF
//  789   pNewItem->endClusterID = endClusterID;
//  790   pNewItem->pfnIncomingHdlr = pfnIncomingHdlr;
??CrossCallReturnLabel_265:
        MOV       A,#0xc
        LCALL     ?XSTACK_DISP0_8
        LCALL     ??Subroutine224_0 & 0xFFFF
??CrossCallReturnLabel_451:
        MOV       DPL,R0
        MOV       DPH,R1
        INC       DPTR
        INC       DPTR
        INC       DPTR
        INC       DPTR
        LCALL     ??Subroutine243_0 & 0xFFFF
//  791 
//  792   // Find spot in list
//  793   if (  plugins == NULL )
??CrossCallReturnLabel_579:
        MOV       DPTR,#plugins
        LCALL     ??Subroutine199_0 & 0xFFFF
??CrossCallReturnLabel_348:
        MOV       DPTR,#plugins
        JZ        ??zcl_registerPlugin_1
//  794   {
//  795     plugins = pNewItem;
//  796   }
//  797   else
//  798   {
//  799     // Look for end of list
//  800     pLoop = plugins;
        LCALL     ?Subroutine174 & 0xFFFF
??CrossCallReturnLabel_301:
        SJMP      ??zcl_registerPlugin_2
//  801     while ( pLoop->next != NULL )
//  802     {
//  803       pLoop = pLoop->next;
??zcl_registerPlugin_3:
        MOV       A,R2
        MOV       R4,A
        MOV       A,R3
//  804     }
??zcl_registerPlugin_2:
        LCALL     ?Subroutine51 & 0xFFFF
??CrossCallReturnLabel_342:
        JNZ       ??zcl_registerPlugin_3
//  805 
//  806     // Put new item at end of list
//  807     pLoop->next = pNewItem;
        MOV       DPL,R4
        MOV       DPH,R5
//  808   }
??zcl_registerPlugin_1:
        LCALL     ?Subroutine29 & 0xFFFF
//  809 
//  810   return ( ZSuccess );
??CrossCallReturnLabel_26:
        LJMP      ??Subroutine198_0 & 0xFFFF
//  811 }
          CFI EndBlock cfiBlock12
//  812 
//  813 #ifdef ZCL_DISCOVER
//  814 /*********************************************************************
//  815  * @fn          zcl_registerCmdList
//  816  *
//  817  * @brief       Register a Command List with ZCL Foundation
//  818  *
//  819  * @param       endpoint - endpoint the attribute list belongs to
//  820  * @param       newCmdList - array of command records
//  821  *
//  822  * @return      ZSuccess if OK
//  823  */

        RSEG BANKED_CODE:HUGECODE:NOROOT(0)
//  824 ZStatus_t zcl_registerCmdList( uint8 endpoint, CONST uint8 cmdListSize, CONST zclCommandRec_t newCmdList[] )
zcl_registerCmdList:
          CFI Block cfiBlock13 Using cfiCommon0
          CFI Function zcl_registerCmdList
        CODE
//  825 {
        FUNCALL zcl_registerCmdList, osal_mem_alloc
        LOCFRAME ISTACK, 0, STACK
        LOCFRAME PSTACK, 0, STACK
        LOCFRAME XSTACK, 12, STACK
        LOCFRAME IOVERLAY, 0, STATIC
        LOCFRAME DOVERLAY, 0, STATIC
        ARGFRAME ISTACK, 0, STACK
        ARGFRAME PSTACK, 0, STACK
        ARGFRAME XSTACK, 12, STACK
        ARGFRAME IOVERLAY, 0, STATIC
        ARGFRAME DOVERLAY, 0, STATIC
        REQUIRE ?V0
        REQUIRE ?V1
        REQUIRE ?V2
        REQUIRE ?V3
        MOV       A,#-0xc
        LCALL     ?BANKED_ENTER_XDATA
          CFI DPH0 load(1, XDATA, add(CFA_XSP16, literal(-1)))
          CFI DPL0 load(1, XDATA, add(CFA_XSP16, literal(-2)))
          CFI ?BRET_EXT load(1, XDATA, add(CFA_XSP16, literal(-3)))
          CFI ?RET_HIGH load(1, XDATA, add(CFA_XSP16, literal(-4)))
          CFI ?RET_LOW load(1, XDATA, add(CFA_XSP16, literal(-5)))
          CFI R7 load(1, XDATA, add(CFA_XSP16, literal(-6)))
          CFI V3 load(1, XDATA, add(CFA_XSP16, literal(-7)))
          CFI V2 load(1, XDATA, add(CFA_XSP16, literal(-8)))
          CFI V1 load(1, XDATA, add(CFA_XSP16, literal(-9)))
          CFI V0 load(1, XDATA, add(CFA_XSP16, literal(-10)))
          CFI VB load(1, XDATA, add(CFA_XSP16, literal(-11)))
          CFI R6 load(1, XDATA, add(CFA_XSP16, literal(-12)))
          CFI CFA_SP SP+0
          CFI CFA_XSP16 add(XSP16, 12)
        ; Saved register size: 12
        ; Auto size: 0
        MOV       ?V0,R1
        MOV       ?V1,R2
        MOV       A,R4
        MOV       R6,A
        MOV       A,R5
        MOV       R7,A
//  826   zclCmdRecsList_t *pNewItem;
//  827   zclCmdRecsList_t *pLoop;
//  828 
//  829   // Fill in the new profile list
//  830   pNewItem = zcl_mem_alloc( sizeof( zclCmdRecsList_t ) );
        ; Setup parameters for call to function osal_mem_alloc
        MOV       R2,#0x6
        MOV       R3,#0x0
        LCALL     `??osal_mem_alloc::?relay`; Banked call to: osal_mem_alloc
        MOV       ?V2,R2
        MOV       ?V3,R3
        MOV       R0,?V2
        MOV       R1,?V3
//  831   if ( pNewItem == NULL )
        MOV       A,R0
        ORL       A,R1
        JNZ       ??zcl_registerCmdList_0
//  832   {
//  833     return (ZMemError);
        MOV       R1,#0x10
        SJMP      ??CrossCallReturnLabel_27
//  834   }
//  835 
//  836   pNewItem->pNext = (zclCmdRecsList_t *)NULL;
??zcl_registerCmdList_0:
        LCALL     ?Subroutine15 & 0xFFFF
//  837   pNewItem->endpoint = endpoint;
//  838   pNewItem->numCommands = cmdListSize;
//  839   pNewItem->pCmdRecs = newCmdList;
//  840 
//  841   // Find spot in list
//  842   if ( gpCmdList == NULL )
??CrossCallReturnLabel_2:
        MOV       DPTR,#gpCmdList
        LCALL     ??Subroutine199_0 & 0xFFFF
??CrossCallReturnLabel_349:
        MOV       DPTR,#gpCmdList
        JZ        ??zcl_registerCmdList_1
//  843   {
//  844     gpCmdList = pNewItem;
//  845   }
//  846   else
//  847   {
//  848     // Look for end of list
//  849     pLoop = gpCmdList;
        LCALL     ?Subroutine174 & 0xFFFF
??CrossCallReturnLabel_302:
        SJMP      ??zcl_registerCmdList_2
//  850     while ( pLoop->pNext != NULL )
//  851     {
//  852       pLoop = pLoop->pNext;
??zcl_registerCmdList_3:
        MOV       A,R2
        MOV       R4,A
        MOV       A,R3
//  853     }
??zcl_registerCmdList_2:
        LCALL     ?Subroutine51 & 0xFFFF
??CrossCallReturnLabel_343:
        JNZ       ??zcl_registerCmdList_3
//  854 
//  855     // Put new item at end of list
//  856     pLoop->pNext = pNewItem;
        MOV       DPL,R4
        MOV       DPH,R5
//  857   }
??zcl_registerCmdList_1:
        LCALL     ?Subroutine29 & 0xFFFF
//  858 
//  859   return ( ZSuccess );
??CrossCallReturnLabel_27:
        LJMP      ??Subroutine198_0 & 0xFFFF
//  860 }
          CFI EndBlock cfiBlock13
//  861 #endif  // ZCL_DISCOVER
//  862 
//  863 /*********************************************************************
//  864  * @fn          zcl_registerAttrList
//  865  *
//  866  * @brief       Register an Attribute List with ZCL Foundation
//  867  *
//  868  * @param       endpoint - endpoint the attribute list belongs to
//  869  * @param       numAttr - number of attributes in list
//  870  * @param       newAttrList - array of Attribute records.
//  871  *                            NOTE: THE ATTRIBUTE IDs (FOR A CLUSTER) MUST BE IN
//  872  *                            ASCENDING ORDER. OTHERWISE, THE DISCOVERY RESPONSE
//  873  *                            COMMAND WILL NOT HAVE THE RIGHT ATTRIBUTE INFO
//  874  *
//  875  * @return      ZSuccess if OK
//  876  */

        RSEG BANKED_CODE:HUGECODE:NOROOT(0)
//  877 ZStatus_t zcl_registerAttrList( uint8 endpoint, uint8 numAttr, CONST zclAttrRec_t newAttrList[] )
zcl_registerAttrList:
          CFI Block cfiBlock14 Using cfiCommon0
          CFI Function zcl_registerAttrList
        CODE
//  878 {
        FUNCALL zcl_registerAttrList, osal_mem_alloc
        LOCFRAME ISTACK, 0, STACK
        LOCFRAME PSTACK, 0, STACK
        LOCFRAME XSTACK, 12, STACK
        LOCFRAME IOVERLAY, 0, STATIC
        LOCFRAME DOVERLAY, 0, STATIC
        ARGFRAME ISTACK, 0, STACK
        ARGFRAME PSTACK, 0, STACK
        ARGFRAME XSTACK, 12, STACK
        ARGFRAME IOVERLAY, 0, STATIC
        ARGFRAME DOVERLAY, 0, STATIC
        REQUIRE ?V0
        REQUIRE ?V1
        REQUIRE ?V2
        REQUIRE ?V3
        MOV       A,#-0xc
        LCALL     ?BANKED_ENTER_XDATA
          CFI DPH0 load(1, XDATA, add(CFA_XSP16, literal(-1)))
          CFI DPL0 load(1, XDATA, add(CFA_XSP16, literal(-2)))
          CFI ?BRET_EXT load(1, XDATA, add(CFA_XSP16, literal(-3)))
          CFI ?RET_HIGH load(1, XDATA, add(CFA_XSP16, literal(-4)))
          CFI ?RET_LOW load(1, XDATA, add(CFA_XSP16, literal(-5)))
          CFI R7 load(1, XDATA, add(CFA_XSP16, literal(-6)))
          CFI V3 load(1, XDATA, add(CFA_XSP16, literal(-7)))
          CFI V2 load(1, XDATA, add(CFA_XSP16, literal(-8)))
          CFI V1 load(1, XDATA, add(CFA_XSP16, literal(-9)))
          CFI V0 load(1, XDATA, add(CFA_XSP16, literal(-10)))
          CFI VB load(1, XDATA, add(CFA_XSP16, literal(-11)))
          CFI R6 load(1, XDATA, add(CFA_XSP16, literal(-12)))
          CFI CFA_SP SP+0
          CFI CFA_XSP16 add(XSP16, 12)
        ; Saved register size: 12
        ; Auto size: 0
        MOV       ?V0,R1
        MOV       ?V1,R2
        MOV       A,R4
        MOV       R6,A
        MOV       A,R5
        MOV       R7,A
//  879   zclAttrRecsList *pNewItem;
//  880   zclAttrRecsList *pLoop;
//  881 
//  882   // Fill in the new profile list
//  883   pNewItem = zcl_mem_alloc( sizeof( zclAttrRecsList ) );
        ; Setup parameters for call to function osal_mem_alloc
        MOV       R2,#0xa
        MOV       R3,#0x0
        LCALL     `??osal_mem_alloc::?relay`; Banked call to: osal_mem_alloc
        MOV       ?V2,R2
        MOV       ?V3,R3
        MOV       R0,?V2
        MOV       R1,?V3
//  884   if ( pNewItem == NULL )
        MOV       A,R0
        ORL       A,R1
        JNZ       ??zcl_registerAttrList_0
//  885   {
//  886     return (ZMemError);
        MOV       R1,#0x10
        SJMP      ??CrossCallReturnLabel_28
//  887   }
//  888 
//  889   pNewItem->next = (zclAttrRecsList *)NULL;
??zcl_registerAttrList_0:
        LCALL     ?Subroutine28 & 0xFFFF
//  890   pNewItem->endpoint = endpoint;
//  891   pNewItem->pfnReadWriteCB = NULL;
??CrossCallReturnLabel_25:
        MOV       DPL,R0
        MOV       DPH,R1
        INC       DPTR
        INC       DPTR
        INC       DPTR
        CLR       A
        MOVX      @DPTR,A
        INC       DPTR
        LCALL     ?Subroutine31 & 0xFFFF
//  892   pNewItem->numAttributes = numAttr;
??CrossCallReturnLabel_34:
        MOV       A,?V1
        LCALL     ?Subroutine31 & 0xFFFF
//  893   pNewItem->attrs = newAttrList;
??CrossCallReturnLabel_35:
        INC       DPTR
        MOV       A,R6
        MOVX      @DPTR,A
        INC       DPTR
        MOV       A,R7
        MOVX      @DPTR,A
//  894 
//  895   // Find spot in list
//  896   if ( attrList == NULL )
        MOV       DPTR,#attrList
        LCALL     ??Subroutine199_0 & 0xFFFF
??CrossCallReturnLabel_350:
        MOV       DPTR,#attrList
        JZ        ??zcl_registerAttrList_1
//  897   {
//  898     attrList = pNewItem;
//  899   }
//  900   else
//  901   {
//  902     // Look for end of list
//  903     pLoop = attrList;
        LCALL     ?Subroutine174 & 0xFFFF
??CrossCallReturnLabel_303:
        SJMP      ??zcl_registerAttrList_2
//  904     while ( pLoop->next != NULL )
//  905     {
//  906       pLoop = pLoop->next;
??zcl_registerAttrList_3:
        MOV       A,R2
        MOV       R4,A
        MOV       A,R3
//  907     }
??zcl_registerAttrList_2:
        LCALL     ?Subroutine51 & 0xFFFF
??CrossCallReturnLabel_344:
        JNZ       ??zcl_registerAttrList_3
//  908 
//  909     // Put new item at end of list
//  910     pLoop->next = pNewItem;
        MOV       DPL,R4
        MOV       DPH,R5
//  911   }
??zcl_registerAttrList_1:
        LCALL     ?Subroutine29 & 0xFFFF
//  912 
//  913   return ( ZSuccess );
??CrossCallReturnLabel_28:
        SJMP      ??Subroutine198_0
//  914 }
          CFI EndBlock cfiBlock14

        RSEG BANKED_CODE:HUGECODE:NOROOT(0)
?Subroutine31:
          CFI Block cfiCond15 Using cfiCommon0
          CFI Function zcl_registerAttrList
          CFI Conditional ??CrossCallReturnLabel_34
          CFI R6 load(1, XDATA, add(CFA_XSP16, literal(-12)))
          CFI VB load(1, XDATA, add(CFA_XSP16, literal(-11)))
          CFI V0 load(1, XDATA, add(CFA_XSP16, literal(-10)))
          CFI V1 load(1, XDATA, add(CFA_XSP16, literal(-9)))
          CFI V2 load(1, XDATA, add(CFA_XSP16, literal(-8)))
          CFI V3 load(1, XDATA, add(CFA_XSP16, literal(-7)))
          CFI R7 load(1, XDATA, add(CFA_XSP16, literal(-6)))
          CFI ?RET_LOW load(1, XDATA, add(CFA_XSP16, literal(-5)))
          CFI ?RET_HIGH load(1, XDATA, add(CFA_XSP16, literal(-4)))
          CFI ?BRET_EXT load(1, XDATA, add(CFA_XSP16, literal(-3)))
          CFI DPL0 load(1, XDATA, add(CFA_XSP16, literal(-2)))
          CFI DPH0 load(1, XDATA, add(CFA_XSP16, literal(-1)))
          CFI CFA_SP SP+-2
          CFI CFA_XSP16 add(XSP16, 12)
          CFI Block cfiCond16 Using cfiCommon0
          CFI (cfiCond16) Function zcl_registerAttrList
          CFI (cfiCond16) Conditional ??CrossCallReturnLabel_35
          CFI (cfiCond16) R6 load(1, XDATA, add(CFA_XSP16, literal(-12)))
          CFI (cfiCond16) VB load(1, XDATA, add(CFA_XSP16, literal(-11)))
          CFI (cfiCond16) V0 load(1, XDATA, add(CFA_XSP16, literal(-10)))
          CFI (cfiCond16) V1 load(1, XDATA, add(CFA_XSP16, literal(-9)))
          CFI (cfiCond16) V2 load(1, XDATA, add(CFA_XSP16, literal(-8)))
          CFI (cfiCond16) V3 load(1, XDATA, add(CFA_XSP16, literal(-7)))
          CFI (cfiCond16) R7 load(1, XDATA, add(CFA_XSP16, literal(-6)))
          CFI (cfiCond16) ?RET_LOW load(1, XDATA, add(CFA_XSP16, literal(-5)))
          CFI (cfiCond16) ?RET_HIGH load(1, XDATA, add(CFA_XSP16, literal(-4)))
          CFI (cfiCond16) ?BRET_EXT load(1, XDATA, add(CFA_XSP16, literal(-3)))
          CFI (cfiCond16) DPL0 load(1, XDATA, add(CFA_XSP16, literal(-2)))
          CFI (cfiCond16) DPH0 load(1, XDATA, add(CFA_XSP16, literal(-1)))
          CFI (cfiCond16) CFA_SP SP+-2
          CFI (cfiCond16) CFA_XSP16 add(XSP16, 12)
          CFI Block cfiPicker17 Using cfiCommon1
          CFI (cfiPicker17) NoFunction
          CFI (cfiPicker17) Picker
        LCALL     ?Subroutine150 & 0xFFFF
??CrossCallReturnLabel_269:
        INC       DPTR
        INC       DPTR
        RET
          CFI EndBlock cfiCond15
          CFI EndBlock cfiCond16
          CFI EndBlock cfiPicker17

        RSEG BANKED_CODE:HUGECODE:NOROOT(0)
?Subroutine29:
          CFI Block cfiCond18 Using cfiCommon0
          CFI Function zcl_registerPlugin
          CFI Conditional ??CrossCallReturnLabel_26
          CFI R6 load(1, XDATA, add(CFA_XSP16, literal(-12)))
          CFI VB load(1, XDATA, add(CFA_XSP16, literal(-11)))
          CFI V0 load(1, XDATA, add(CFA_XSP16, literal(-10)))
          CFI V1 load(1, XDATA, add(CFA_XSP16, literal(-9)))
          CFI V2 load(1, XDATA, add(CFA_XSP16, literal(-8)))
          CFI V3 load(1, XDATA, add(CFA_XSP16, literal(-7)))
          CFI R7 load(1, XDATA, add(CFA_XSP16, literal(-6)))
          CFI ?RET_LOW load(1, XDATA, add(CFA_XSP16, literal(-5)))
          CFI ?RET_HIGH load(1, XDATA, add(CFA_XSP16, literal(-4)))
          CFI ?BRET_EXT load(1, XDATA, add(CFA_XSP16, literal(-3)))
          CFI DPL0 load(1, XDATA, add(CFA_XSP16, literal(-2)))
          CFI DPH0 load(1, XDATA, add(CFA_XSP16, literal(-1)))
          CFI CFA_SP SP+-2
          CFI CFA_XSP16 add(XSP16, 12)
          CFI Block cfiCond19 Using cfiCommon0
          CFI (cfiCond19) Function zcl_registerCmdList
          CFI (cfiCond19) Conditional ??CrossCallReturnLabel_27
          CFI (cfiCond19) R6 load(1, XDATA, add(CFA_XSP16, literal(-12)))
          CFI (cfiCond19) VB load(1, XDATA, add(CFA_XSP16, literal(-11)))
          CFI (cfiCond19) V0 load(1, XDATA, add(CFA_XSP16, literal(-10)))
          CFI (cfiCond19) V1 load(1, XDATA, add(CFA_XSP16, literal(-9)))
          CFI (cfiCond19) V2 load(1, XDATA, add(CFA_XSP16, literal(-8)))
          CFI (cfiCond19) V3 load(1, XDATA, add(CFA_XSP16, literal(-7)))
          CFI (cfiCond19) R7 load(1, XDATA, add(CFA_XSP16, literal(-6)))
          CFI (cfiCond19) ?RET_LOW load(1, XDATA, add(CFA_XSP16, literal(-5)))
          CFI (cfiCond19) ?RET_HIGH load(1, XDATA, add(CFA_XSP16, literal(-4)))
          CFI (cfiCond19) ?BRET_EXT load(1, XDATA, add(CFA_XSP16, literal(-3)))
          CFI (cfiCond19) DPL0 load(1, XDATA, add(CFA_XSP16, literal(-2)))
          CFI (cfiCond19) DPH0 load(1, XDATA, add(CFA_XSP16, literal(-1)))
          CFI (cfiCond19) CFA_SP SP+-2
          CFI (cfiCond19) CFA_XSP16 add(XSP16, 12)
          CFI Block cfiCond20 Using cfiCommon0
          CFI (cfiCond20) Function zcl_registerAttrList
          CFI (cfiCond20) Conditional ??CrossCallReturnLabel_28
          CFI (cfiCond20) R6 load(1, XDATA, add(CFA_XSP16, literal(-12)))
          CFI (cfiCond20) VB load(1, XDATA, add(CFA_XSP16, literal(-11)))
          CFI (cfiCond20) V0 load(1, XDATA, add(CFA_XSP16, literal(-10)))
          CFI (cfiCond20) V1 load(1, XDATA, add(CFA_XSP16, literal(-9)))
          CFI (cfiCond20) V2 load(1, XDATA, add(CFA_XSP16, literal(-8)))
          CFI (cfiCond20) V3 load(1, XDATA, add(CFA_XSP16, literal(-7)))
          CFI (cfiCond20) R7 load(1, XDATA, add(CFA_XSP16, literal(-6)))
          CFI (cfiCond20) ?RET_LOW load(1, XDATA, add(CFA_XSP16, literal(-5)))
          CFI (cfiCond20) ?RET_HIGH load(1, XDATA, add(CFA_XSP16, literal(-4)))
          CFI (cfiCond20) ?BRET_EXT load(1, XDATA, add(CFA_XSP16, literal(-3)))
          CFI (cfiCond20) DPL0 load(1, XDATA, add(CFA_XSP16, literal(-2)))
          CFI (cfiCond20) DPH0 load(1, XDATA, add(CFA_XSP16, literal(-1)))
          CFI (cfiCond20) CFA_SP SP+-2
          CFI (cfiCond20) CFA_XSP16 add(XSP16, 12)
          CFI Block cfiCond21 Using cfiCommon0
          CFI (cfiCond21) Function zcl_registerClusterOptionList
          CFI (cfiCond21) Conditional ??CrossCallReturnLabel_29
          CFI (cfiCond21) R6 load(1, XDATA, add(CFA_XSP16, literal(-12)))
          CFI (cfiCond21) VB load(1, XDATA, add(CFA_XSP16, literal(-11)))
          CFI (cfiCond21) V0 load(1, XDATA, add(CFA_XSP16, literal(-10)))
          CFI (cfiCond21) V1 load(1, XDATA, add(CFA_XSP16, literal(-9)))
          CFI (cfiCond21) V2 load(1, XDATA, add(CFA_XSP16, literal(-8)))
          CFI (cfiCond21) V3 load(1, XDATA, add(CFA_XSP16, literal(-7)))
          CFI (cfiCond21) R7 load(1, XDATA, add(CFA_XSP16, literal(-6)))
          CFI (cfiCond21) ?RET_LOW load(1, XDATA, add(CFA_XSP16, literal(-5)))
          CFI (cfiCond21) ?RET_HIGH load(1, XDATA, add(CFA_XSP16, literal(-4)))
          CFI (cfiCond21) ?BRET_EXT load(1, XDATA, add(CFA_XSP16, literal(-3)))
          CFI (cfiCond21) DPL0 load(1, XDATA, add(CFA_XSP16, literal(-2)))
          CFI (cfiCond21) DPH0 load(1, XDATA, add(CFA_XSP16, literal(-1)))
          CFI (cfiCond21) CFA_SP SP+-2
          CFI (cfiCond21) CFA_XSP16 add(XSP16, 12)
          CFI Block cfiPicker22 Using cfiCommon1
          CFI (cfiPicker22) NoFunction
          CFI (cfiPicker22) Picker
        MOV       A,R0
        MOVX      @DPTR,A
        INC       DPTR
        MOV       A,R1
        MOVX      @DPTR,A
        MOV       R1,#0x0
        RET
          CFI EndBlock cfiCond18
          CFI EndBlock cfiCond19
          CFI EndBlock cfiCond20
          CFI EndBlock cfiCond21
          CFI EndBlock cfiPicker22

        RSEG BANKED_CODE:HUGECODE:NOROOT(0)
?Subroutine28:
          CFI Block cfiCond23 Using cfiCommon0
          CFI Function zcl_registerPlugin
          CFI Conditional ??CrossCallReturnLabel_24
          CFI R6 load(1, XDATA, add(CFA_XSP16, literal(-12)))
          CFI VB load(1, XDATA, add(CFA_XSP16, literal(-11)))
          CFI V0 load(1, XDATA, add(CFA_XSP16, literal(-10)))
          CFI V1 load(1, XDATA, add(CFA_XSP16, literal(-9)))
          CFI V2 load(1, XDATA, add(CFA_XSP16, literal(-8)))
          CFI V3 load(1, XDATA, add(CFA_XSP16, literal(-7)))
          CFI R7 load(1, XDATA, add(CFA_XSP16, literal(-6)))
          CFI ?RET_LOW load(1, XDATA, add(CFA_XSP16, literal(-5)))
          CFI ?RET_HIGH load(1, XDATA, add(CFA_XSP16, literal(-4)))
          CFI ?BRET_EXT load(1, XDATA, add(CFA_XSP16, literal(-3)))
          CFI DPL0 load(1, XDATA, add(CFA_XSP16, literal(-2)))
          CFI DPH0 load(1, XDATA, add(CFA_XSP16, literal(-1)))
          CFI CFA_SP SP+-2
          CFI CFA_XSP16 add(XSP16, 12)
          CFI Block cfiCond24 Using cfiCommon0
          CFI (cfiCond24) Function zcl_registerAttrList
          CFI (cfiCond24) Conditional ??CrossCallReturnLabel_25
          CFI (cfiCond24) R6 load(1, XDATA, add(CFA_XSP16, literal(-12)))
          CFI (cfiCond24) VB load(1, XDATA, add(CFA_XSP16, literal(-11)))
          CFI (cfiCond24) V0 load(1, XDATA, add(CFA_XSP16, literal(-10)))
          CFI (cfiCond24) V1 load(1, XDATA, add(CFA_XSP16, literal(-9)))
          CFI (cfiCond24) V2 load(1, XDATA, add(CFA_XSP16, literal(-8)))
          CFI (cfiCond24) V3 load(1, XDATA, add(CFA_XSP16, literal(-7)))
          CFI (cfiCond24) R7 load(1, XDATA, add(CFA_XSP16, literal(-6)))
          CFI (cfiCond24) ?RET_LOW load(1, XDATA, add(CFA_XSP16, literal(-5)))
          CFI (cfiCond24) ?RET_HIGH load(1, XDATA, add(CFA_XSP16, literal(-4)))
          CFI (cfiCond24) ?BRET_EXT load(1, XDATA, add(CFA_XSP16, literal(-3)))
          CFI (cfiCond24) DPL0 load(1, XDATA, add(CFA_XSP16, literal(-2)))
          CFI (cfiCond24) DPH0 load(1, XDATA, add(CFA_XSP16, literal(-1)))
          CFI (cfiCond24) CFA_SP SP+-2
          CFI (cfiCond24) CFA_XSP16 add(XSP16, 12)
          CFI Block cfiPicker25 Using cfiCommon1
          CFI (cfiPicker25) NoFunction
          CFI (cfiPicker25) Picker
        LCALL     ?Subroutine149 & 0xFFFF
??CrossCallReturnLabel_267:
        RET
          CFI EndBlock cfiCond23
          CFI EndBlock cfiCond24
          CFI EndBlock cfiPicker25

        RSEG BANKED_CODE:HUGECODE:NOROOT(0)
?Subroutine149:
          CFI Block cfiCond26 Using cfiCommon0
          CFI Function zcl_registerPlugin
          CFI Conditional ??CrossCallReturnLabel_267, ??CrossCallReturnLabel_24
          CFI R6 load(1, XDATA, add(CFA_XSP16, literal(-12)))
          CFI VB load(1, XDATA, add(CFA_XSP16, literal(-11)))
          CFI V0 load(1, XDATA, add(CFA_XSP16, literal(-10)))
          CFI V1 load(1, XDATA, add(CFA_XSP16, literal(-9)))
          CFI V2 load(1, XDATA, add(CFA_XSP16, literal(-8)))
          CFI V3 load(1, XDATA, add(CFA_XSP16, literal(-7)))
          CFI R7 load(1, XDATA, add(CFA_XSP16, literal(-6)))
          CFI ?RET_LOW load(1, XDATA, add(CFA_XSP16, literal(-5)))
          CFI ?RET_HIGH load(1, XDATA, add(CFA_XSP16, literal(-4)))
          CFI ?BRET_EXT load(1, XDATA, add(CFA_XSP16, literal(-3)))
          CFI DPL0 load(1, XDATA, add(CFA_XSP16, literal(-2)))
          CFI DPH0 load(1, XDATA, add(CFA_XSP16, literal(-1)))
          CFI CFA_SP SP+-4
          CFI CFA_XSP16 add(XSP16, 12)
          CFI Block cfiCond27 Using cfiCommon0
          CFI (cfiCond27) Function zcl_registerAttrList
          CFI (cfiCond27) Conditional ??CrossCallReturnLabel_267, ??CrossCallReturnLabel_25
          CFI (cfiCond27) R6 load(1, XDATA, add(CFA_XSP16, literal(-12)))
          CFI (cfiCond27) VB load(1, XDATA, add(CFA_XSP16, literal(-11)))
          CFI (cfiCond27) V0 load(1, XDATA, add(CFA_XSP16, literal(-10)))
          CFI (cfiCond27) V1 load(1, XDATA, add(CFA_XSP16, literal(-9)))
          CFI (cfiCond27) V2 load(1, XDATA, add(CFA_XSP16, literal(-8)))
          CFI (cfiCond27) V3 load(1, XDATA, add(CFA_XSP16, literal(-7)))
          CFI (cfiCond27) R7 load(1, XDATA, add(CFA_XSP16, literal(-6)))
          CFI (cfiCond27) ?RET_LOW load(1, XDATA, add(CFA_XSP16, literal(-5)))
          CFI (cfiCond27) ?RET_HIGH load(1, XDATA, add(CFA_XSP16, literal(-4)))
          CFI (cfiCond27) ?BRET_EXT load(1, XDATA, add(CFA_XSP16, literal(-3)))
          CFI (cfiCond27) DPL0 load(1, XDATA, add(CFA_XSP16, literal(-2)))
          CFI (cfiCond27) DPH0 load(1, XDATA, add(CFA_XSP16, literal(-1)))
          CFI (cfiCond27) CFA_SP SP+-4
          CFI (cfiCond27) CFA_XSP16 add(XSP16, 12)
          CFI Block cfiCond28 Using cfiCommon0
          CFI (cfiCond28) Function zcl_registerCmdList
          CFI (cfiCond28) Conditional ??CrossCallReturnLabel_268, ??CrossCallReturnLabel_2
          CFI (cfiCond28) R6 load(1, XDATA, add(CFA_XSP16, literal(-12)))
          CFI (cfiCond28) VB load(1, XDATA, add(CFA_XSP16, literal(-11)))
          CFI (cfiCond28) V0 load(1, XDATA, add(CFA_XSP16, literal(-10)))
          CFI (cfiCond28) V1 load(1, XDATA, add(CFA_XSP16, literal(-9)))
          CFI (cfiCond28) V2 load(1, XDATA, add(CFA_XSP16, literal(-8)))
          CFI (cfiCond28) V3 load(1, XDATA, add(CFA_XSP16, literal(-7)))
          CFI (cfiCond28) R7 load(1, XDATA, add(CFA_XSP16, literal(-6)))
          CFI (cfiCond28) ?RET_LOW load(1, XDATA, add(CFA_XSP16, literal(-5)))
          CFI (cfiCond28) ?RET_HIGH load(1, XDATA, add(CFA_XSP16, literal(-4)))
          CFI (cfiCond28) ?BRET_EXT load(1, XDATA, add(CFA_XSP16, literal(-3)))
          CFI (cfiCond28) DPL0 load(1, XDATA, add(CFA_XSP16, literal(-2)))
          CFI (cfiCond28) DPH0 load(1, XDATA, add(CFA_XSP16, literal(-1)))
          CFI (cfiCond28) CFA_SP SP+-4
          CFI (cfiCond28) CFA_XSP16 add(XSP16, 12)
          CFI Block cfiCond29 Using cfiCommon0
          CFI (cfiCond29) Function zcl_registerClusterOptionList
          CFI (cfiCond29) Conditional ??CrossCallReturnLabel_268, ??CrossCallReturnLabel_3
          CFI (cfiCond29) R6 load(1, XDATA, add(CFA_XSP16, literal(-12)))
          CFI (cfiCond29) VB load(1, XDATA, add(CFA_XSP16, literal(-11)))
          CFI (cfiCond29) V0 load(1, XDATA, add(CFA_XSP16, literal(-10)))
          CFI (cfiCond29) V1 load(1, XDATA, add(CFA_XSP16, literal(-9)))
          CFI (cfiCond29) V2 load(1, XDATA, add(CFA_XSP16, literal(-8)))
          CFI (cfiCond29) V3 load(1, XDATA, add(CFA_XSP16, literal(-7)))
          CFI (cfiCond29) R7 load(1, XDATA, add(CFA_XSP16, literal(-6)))
          CFI (cfiCond29) ?RET_LOW load(1, XDATA, add(CFA_XSP16, literal(-5)))
          CFI (cfiCond29) ?RET_HIGH load(1, XDATA, add(CFA_XSP16, literal(-4)))
          CFI (cfiCond29) ?BRET_EXT load(1, XDATA, add(CFA_XSP16, literal(-3)))
          CFI (cfiCond29) DPL0 load(1, XDATA, add(CFA_XSP16, literal(-2)))
          CFI (cfiCond29) DPH0 load(1, XDATA, add(CFA_XSP16, literal(-1)))
          CFI (cfiCond29) CFA_SP SP+-4
          CFI (cfiCond29) CFA_XSP16 add(XSP16, 12)
          CFI Block cfiPicker30 Using cfiCommon1
          CFI (cfiPicker30) NoFunction
          CFI (cfiPicker30) Picker
        MOV       DPL,R0
        MOV       DPH,R1
        CLR       A
        MOVX      @DPTR,A
        INC       DPTR
        LCALL     ?Subroutine197 & 0xFFFF
??CrossCallReturnLabel_371:
        INC       DPTR
        MOV       A,?V0
        MOVX      @DPTR,A
        RET
          CFI EndBlock cfiCond26
          CFI EndBlock cfiCond27
          CFI EndBlock cfiCond28
          CFI EndBlock cfiCond29
          CFI EndBlock cfiPicker30

        RSEG BANKED_CODE:HUGECODE:NOROOT(0)
?Subroutine1:
          CFI Block cfiBlock31 Using cfiCommon0
          CFI NoFunction
          CFI CFA_SP SP+0
          CFI CFA_XSP16 add(XSP16, 21)
          CFI VB load(1, XDATA, add(CFA_XSP16, literal(-11)))
          CFI DPL0 load(1, XDATA, add(CFA_XSP16, literal(-2)))
          CFI DPH0 load(1, XDATA, add(CFA_XSP16, literal(-1)))
          CFI R6 load(1, XDATA, add(CFA_XSP16, literal(-12)))
          CFI R7 load(1, XDATA, add(CFA_XSP16, literal(-6)))
          CFI V0 load(1, XDATA, add(CFA_XSP16, literal(-10)))
          CFI V1 load(1, XDATA, add(CFA_XSP16, literal(-9)))
          CFI V2 load(1, XDATA, add(CFA_XSP16, literal(-8)))
          CFI V3 load(1, XDATA, add(CFA_XSP16, literal(-7)))
          CFI ?BRET_EXT load(1, XDATA, add(CFA_XSP16, literal(-3)))
          CFI ?RET_HIGH load(1, XDATA, add(CFA_XSP16, literal(-4)))
          CFI ?RET_LOW load(1, XDATA, add(CFA_XSP16, literal(-5)))
          CFI Invalid
        LCALL     ?DEALLOC_XSTACK8
          CFI EndBlock cfiBlock31
        REQUIRE ??Subroutine198_0
        ; // Fall through to label ??Subroutine198_0

        RSEG BANKED_CODE:HUGECODE:NOROOT(0)
??Subroutine198_0:
          CFI Block cfiBlock32 Using cfiCommon0
          CFI NoFunction
          CFI CFA_SP SP+0
          CFI CFA_XSP16 add(XSP16, 12)
          CFI VB load(1, XDATA, add(CFA_XSP16, literal(-11)))
          CFI DPL0 load(1, XDATA, add(CFA_XSP16, literal(-2)))
          CFI DPH0 load(1, XDATA, add(CFA_XSP16, literal(-1)))
          CFI R6 load(1, XDATA, add(CFA_XSP16, literal(-12)))
          CFI R7 load(1, XDATA, add(CFA_XSP16, literal(-6)))
          CFI V0 load(1, XDATA, add(CFA_XSP16, literal(-10)))
          CFI V1 load(1, XDATA, add(CFA_XSP16, literal(-9)))
          CFI V2 load(1, XDATA, add(CFA_XSP16, literal(-8)))
          CFI V3 load(1, XDATA, add(CFA_XSP16, literal(-7)))
          CFI ?BRET_EXT load(1, XDATA, add(CFA_XSP16, literal(-3)))
          CFI ?RET_HIGH load(1, XDATA, add(CFA_XSP16, literal(-4)))
          CFI ?RET_LOW load(1, XDATA, add(CFA_XSP16, literal(-5)))
        MOV       R7,#0x4
        LJMP      ?BANKED_LEAVE_XDATA
          CFI EndBlock cfiBlock32
//  915 
//  916 /*********************************************************************
//  917  * @fn          zcl_registerClusterOptionList
//  918  *
//  919  * @brief       Register a Cluster Option List with ZCL Foundation
//  920  *
//  921  * @param       endpoint - endpoint the option list belongs to
//  922  * @param       numOption - number of options in list
//  923  * @param       optionList - array of cluster option records.
//  924  *
//  925  *              NOTE: This API should be called to enable 'Application
//  926  *                    Link Key' security and/or 'APS ACK' for a specific
//  927  *                    Cluster. The 'Application Link Key' is discarded
//  928  *                    if security isn't enabled on the device.
//  929  *                    The default behavior is 'Network Key' when security
//  930  *                    is enabled and no 'APS ACK' for the ZCL messages.
//  931  *
//  932  * @return      ZSuccess if OK
//  933  */

        RSEG BANKED_CODE:HUGECODE:NOROOT(0)
//  934 ZStatus_t zcl_registerClusterOptionList( uint8 endpoint, uint8 numOption, zclOptionRec_t optionList[] )
zcl_registerClusterOptionList:
          CFI Block cfiBlock33 Using cfiCommon0
          CFI Function zcl_registerClusterOptionList
        CODE
//  935 {
        FUNCALL zcl_registerClusterOptionList, osal_mem_alloc
        LOCFRAME ISTACK, 0, STACK
        LOCFRAME PSTACK, 0, STACK
        LOCFRAME XSTACK, 12, STACK
        LOCFRAME IOVERLAY, 0, STATIC
        LOCFRAME DOVERLAY, 0, STATIC
        ARGFRAME ISTACK, 0, STACK
        ARGFRAME PSTACK, 0, STACK
        ARGFRAME XSTACK, 12, STACK
        ARGFRAME IOVERLAY, 0, STATIC
        ARGFRAME DOVERLAY, 0, STATIC
        REQUIRE ?V0
        REQUIRE ?V1
        REQUIRE ?V2
        REQUIRE ?V3
        MOV       A,#-0xc
        LCALL     ?BANKED_ENTER_XDATA
          CFI DPH0 load(1, XDATA, add(CFA_XSP16, literal(-1)))
          CFI DPL0 load(1, XDATA, add(CFA_XSP16, literal(-2)))
          CFI ?BRET_EXT load(1, XDATA, add(CFA_XSP16, literal(-3)))
          CFI ?RET_HIGH load(1, XDATA, add(CFA_XSP16, literal(-4)))
          CFI ?RET_LOW load(1, XDATA, add(CFA_XSP16, literal(-5)))
          CFI R7 load(1, XDATA, add(CFA_XSP16, literal(-6)))
          CFI V3 load(1, XDATA, add(CFA_XSP16, literal(-7)))
          CFI V2 load(1, XDATA, add(CFA_XSP16, literal(-8)))
          CFI V1 load(1, XDATA, add(CFA_XSP16, literal(-9)))
          CFI V0 load(1, XDATA, add(CFA_XSP16, literal(-10)))
          CFI VB load(1, XDATA, add(CFA_XSP16, literal(-11)))
          CFI R6 load(1, XDATA, add(CFA_XSP16, literal(-12)))
          CFI CFA_SP SP+0
          CFI CFA_XSP16 add(XSP16, 12)
        ; Saved register size: 12
        ; Auto size: 0
        MOV       ?V0,R1
        MOV       ?V1,R2
        MOV       A,R4
        MOV       R6,A
        MOV       A,R5
        MOV       R7,A
//  936   zclClusterOptionList *pNewItem;
//  937   zclClusterOptionList *pLoop;
//  938 
//  939   // Fill in the new profile list
//  940   pNewItem = zcl_mem_alloc( sizeof( zclClusterOptionList ) );
        ; Setup parameters for call to function osal_mem_alloc
        MOV       R2,#0x6
        MOV       R3,#0x0
        LCALL     `??osal_mem_alloc::?relay`; Banked call to: osal_mem_alloc
        MOV       ?V2,R2
        MOV       ?V3,R3
        MOV       R0,?V2
        MOV       R1,?V3
//  941   if ( pNewItem == NULL )
        MOV       A,R0
        ORL       A,R1
        JNZ       ??zcl_registerClusterOptionList_0
//  942   {
//  943     return (ZMemError);
        MOV       R1,#0x10
        SJMP      ??CrossCallReturnLabel_29
//  944   }
//  945 
//  946   pNewItem->next = (zclClusterOptionList *)NULL;
??zcl_registerClusterOptionList_0:
        LCALL     ?Subroutine15 & 0xFFFF
//  947   pNewItem->endpoint = endpoint;
//  948   pNewItem->numOptions = numOption;
//  949   pNewItem->options = optionList;
//  950 
//  951   // Find spot in list
//  952   if ( clusterOptionList == NULL )
??CrossCallReturnLabel_3:
        MOV       DPTR,#clusterOptionList
        LCALL     ??Subroutine199_0 & 0xFFFF
??CrossCallReturnLabel_351:
        MOV       DPTR,#clusterOptionList
        JZ        ??zcl_registerClusterOptionList_1
//  953   {
//  954     clusterOptionList = pNewItem;
//  955   }
//  956   else
//  957   {
//  958     // Look for end of list
//  959     pLoop = clusterOptionList;
        LCALL     ?Subroutine174 & 0xFFFF
??CrossCallReturnLabel_304:
        SJMP      ??zcl_registerClusterOptionList_2
//  960     while ( pLoop->next != NULL )
//  961     {
//  962       pLoop = pLoop->next;
??zcl_registerClusterOptionList_3:
        MOV       A,R2
        MOV       R4,A
        MOV       A,R3
//  963     }
??zcl_registerClusterOptionList_2:
        LCALL     ?Subroutine51 & 0xFFFF
??CrossCallReturnLabel_345:
        JNZ       ??zcl_registerClusterOptionList_3
//  964 
//  965     // Put new item at end of list
//  966     pLoop->next = pNewItem;
        MOV       DPL,R4
        MOV       DPH,R5
//  967   }
??zcl_registerClusterOptionList_1:
        LCALL     ?Subroutine29 & 0xFFFF
//  968 
//  969   return ( ZSuccess );
??CrossCallReturnLabel_29:
        SJMP      ??Subroutine198_0
//  970 }
          CFI EndBlock cfiBlock33

        RSEG BANKED_CODE:HUGECODE:NOROOT(0)
?Subroutine174:
          CFI Block cfiCond34 Using cfiCommon0
          CFI Function zcl_registerPlugin
          CFI Conditional ??CrossCallReturnLabel_301
          CFI R6 load(1, XDATA, add(CFA_XSP16, literal(-12)))
          CFI VB load(1, XDATA, add(CFA_XSP16, literal(-11)))
          CFI V0 load(1, XDATA, add(CFA_XSP16, literal(-10)))
          CFI V1 load(1, XDATA, add(CFA_XSP16, literal(-9)))
          CFI V2 load(1, XDATA, add(CFA_XSP16, literal(-8)))
          CFI V3 load(1, XDATA, add(CFA_XSP16, literal(-7)))
          CFI R7 load(1, XDATA, add(CFA_XSP16, literal(-6)))
          CFI ?RET_LOW load(1, XDATA, add(CFA_XSP16, literal(-5)))
          CFI ?RET_HIGH load(1, XDATA, add(CFA_XSP16, literal(-4)))
          CFI ?BRET_EXT load(1, XDATA, add(CFA_XSP16, literal(-3)))
          CFI DPL0 load(1, XDATA, add(CFA_XSP16, literal(-2)))
          CFI DPH0 load(1, XDATA, add(CFA_XSP16, literal(-1)))
          CFI CFA_SP SP+-2
          CFI CFA_XSP16 add(XSP16, 12)
          CFI Block cfiCond35 Using cfiCommon0
          CFI (cfiCond35) Function zcl_registerCmdList
          CFI (cfiCond35) Conditional ??CrossCallReturnLabel_302
          CFI (cfiCond35) R6 load(1, XDATA, add(CFA_XSP16, literal(-12)))
          CFI (cfiCond35) VB load(1, XDATA, add(CFA_XSP16, literal(-11)))
          CFI (cfiCond35) V0 load(1, XDATA, add(CFA_XSP16, literal(-10)))
          CFI (cfiCond35) V1 load(1, XDATA, add(CFA_XSP16, literal(-9)))
          CFI (cfiCond35) V2 load(1, XDATA, add(CFA_XSP16, literal(-8)))
          CFI (cfiCond35) V3 load(1, XDATA, add(CFA_XSP16, literal(-7)))
          CFI (cfiCond35) R7 load(1, XDATA, add(CFA_XSP16, literal(-6)))
          CFI (cfiCond35) ?RET_LOW load(1, XDATA, add(CFA_XSP16, literal(-5)))
          CFI (cfiCond35) ?RET_HIGH load(1, XDATA, add(CFA_XSP16, literal(-4)))
          CFI (cfiCond35) ?BRET_EXT load(1, XDATA, add(CFA_XSP16, literal(-3)))
          CFI (cfiCond35) DPL0 load(1, XDATA, add(CFA_XSP16, literal(-2)))
          CFI (cfiCond35) DPH0 load(1, XDATA, add(CFA_XSP16, literal(-1)))
          CFI (cfiCond35) CFA_SP SP+-2
          CFI (cfiCond35) CFA_XSP16 add(XSP16, 12)
          CFI Block cfiCond36 Using cfiCommon0
          CFI (cfiCond36) Function zcl_registerAttrList
          CFI (cfiCond36) Conditional ??CrossCallReturnLabel_303
          CFI (cfiCond36) R6 load(1, XDATA, add(CFA_XSP16, literal(-12)))
          CFI (cfiCond36) VB load(1, XDATA, add(CFA_XSP16, literal(-11)))
          CFI (cfiCond36) V0 load(1, XDATA, add(CFA_XSP16, literal(-10)))
          CFI (cfiCond36) V1 load(1, XDATA, add(CFA_XSP16, literal(-9)))
          CFI (cfiCond36) V2 load(1, XDATA, add(CFA_XSP16, literal(-8)))
          CFI (cfiCond36) V3 load(1, XDATA, add(CFA_XSP16, literal(-7)))
          CFI (cfiCond36) R7 load(1, XDATA, add(CFA_XSP16, literal(-6)))
          CFI (cfiCond36) ?RET_LOW load(1, XDATA, add(CFA_XSP16, literal(-5)))
          CFI (cfiCond36) ?RET_HIGH load(1, XDATA, add(CFA_XSP16, literal(-4)))
          CFI (cfiCond36) ?BRET_EXT load(1, XDATA, add(CFA_XSP16, literal(-3)))
          CFI (cfiCond36) DPL0 load(1, XDATA, add(CFA_XSP16, literal(-2)))
          CFI (cfiCond36) DPH0 load(1, XDATA, add(CFA_XSP16, literal(-1)))
          CFI (cfiCond36) CFA_SP SP+-2
          CFI (cfiCond36) CFA_XSP16 add(XSP16, 12)
          CFI Block cfiCond37 Using cfiCommon0
          CFI (cfiCond37) Function zcl_registerClusterOptionList
          CFI (cfiCond37) Conditional ??CrossCallReturnLabel_304
          CFI (cfiCond37) R6 load(1, XDATA, add(CFA_XSP16, literal(-12)))
          CFI (cfiCond37) VB load(1, XDATA, add(CFA_XSP16, literal(-11)))
          CFI (cfiCond37) V0 load(1, XDATA, add(CFA_XSP16, literal(-10)))
          CFI (cfiCond37) V1 load(1, XDATA, add(CFA_XSP16, literal(-9)))
          CFI (cfiCond37) V2 load(1, XDATA, add(CFA_XSP16, literal(-8)))
          CFI (cfiCond37) V3 load(1, XDATA, add(CFA_XSP16, literal(-7)))
          CFI (cfiCond37) R7 load(1, XDATA, add(CFA_XSP16, literal(-6)))
          CFI (cfiCond37) ?RET_LOW load(1, XDATA, add(CFA_XSP16, literal(-5)))
          CFI (cfiCond37) ?RET_HIGH load(1, XDATA, add(CFA_XSP16, literal(-4)))
          CFI (cfiCond37) ?BRET_EXT load(1, XDATA, add(CFA_XSP16, literal(-3)))
          CFI (cfiCond37) DPL0 load(1, XDATA, add(CFA_XSP16, literal(-2)))
          CFI (cfiCond37) DPH0 load(1, XDATA, add(CFA_XSP16, literal(-1)))
          CFI (cfiCond37) CFA_SP SP+-2
          CFI (cfiCond37) CFA_XSP16 add(XSP16, 12)
          CFI Block cfiCond38 Using cfiCommon0
          CFI (cfiCond38) Function zclSerializeData
          CFI (cfiCond38) Conditional ??CrossCallReturnLabel_306, ??CrossCallReturnLabel_203
          CFI (cfiCond38) R6 load(1, XDATA, add(CFA_XSP16, literal(-15)))
          CFI (cfiCond38) VB load(1, XDATA, add(CFA_XSP16, literal(-14)))
          CFI (cfiCond38) V0 load(1, XDATA, add(CFA_XSP16, literal(-13)))
          CFI (cfiCond38) V1 load(1, XDATA, add(CFA_XSP16, literal(-12)))
          CFI (cfiCond38) V2 load(1, XDATA, add(CFA_XSP16, literal(-11)))
          CFI (cfiCond38) V3 load(1, XDATA, add(CFA_XSP16, literal(-10)))
          CFI (cfiCond38) V4 load(1, XDATA, add(CFA_XSP16, literal(-9)))
          CFI (cfiCond38) V5 load(1, XDATA, add(CFA_XSP16, literal(-8)))
          CFI (cfiCond38) V6 load(1, XDATA, add(CFA_XSP16, literal(-7)))
          CFI (cfiCond38) R7 load(1, XDATA, add(CFA_XSP16, literal(-6)))
          CFI (cfiCond38) ?RET_LOW load(1, XDATA, add(CFA_XSP16, literal(-5)))
          CFI (cfiCond38) ?RET_HIGH load(1, XDATA, add(CFA_XSP16, literal(-4)))
          CFI (cfiCond38) ?BRET_EXT load(1, XDATA, add(CFA_XSP16, literal(-3)))
          CFI (cfiCond38) DPL0 load(1, XDATA, add(CFA_XSP16, literal(-2)))
          CFI (cfiCond38) DPH0 load(1, XDATA, add(CFA_XSP16, literal(-1)))
          CFI (cfiCond38) CFA_SP SP+-4
          CFI (cfiCond38) CFA_XSP16 add(XSP16, 18)
          CFI Block cfiCond39 Using cfiCommon0
          CFI (cfiCond39) Function zclGetAttrDataLength
          CFI (cfiCond39) Conditional ??CrossCallReturnLabel_306, ??CrossCallReturnLabel_204
          CFI (cfiCond39) R6 load(1, XDATA, add(CFA_XSP16, literal(-9)))
          CFI (cfiCond39) VB load(1, XDATA, add(CFA_XSP16, literal(-8)))
          CFI (cfiCond39) V0 load(1, XDATA, add(CFA_XSP16, literal(-7)))
          CFI (cfiCond39) R7 load(1, XDATA, add(CFA_XSP16, literal(-6)))
          CFI (cfiCond39) ?RET_LOW load(1, XDATA, add(CFA_XSP16, literal(-5)))
          CFI (cfiCond39) ?RET_HIGH load(1, XDATA, add(CFA_XSP16, literal(-4)))
          CFI (cfiCond39) ?BRET_EXT load(1, XDATA, add(CFA_XSP16, literal(-3)))
          CFI (cfiCond39) DPL0 load(1, XDATA, add(CFA_XSP16, literal(-2)))
          CFI (cfiCond39) DPH0 load(1, XDATA, add(CFA_XSP16, literal(-1)))
          CFI (cfiCond39) CFA_SP SP+-4
          CFI (cfiCond39) CFA_XSP16 add(XSP16, 9)
          CFI Block cfiCond40 Using cfiCommon0
          CFI (cfiCond40) Function zclParseInDiscAttrsCmd
          CFI (cfiCond40) Conditional ??CrossCallReturnLabel_305
          CFI (cfiCond40) R6 load(1, XDATA, add(CFA_XSP16, literal(-10)))
          CFI (cfiCond40) VB load(1, XDATA, add(CFA_XSP16, literal(-9)))
          CFI (cfiCond40) V0 load(1, XDATA, add(CFA_XSP16, literal(-8)))
          CFI (cfiCond40) V1 load(1, XDATA, add(CFA_XSP16, literal(-7)))
          CFI (cfiCond40) R7 load(1, XDATA, add(CFA_XSP16, literal(-6)))
          CFI (cfiCond40) ?RET_LOW load(1, XDATA, add(CFA_XSP16, literal(-5)))
          CFI (cfiCond40) ?RET_HIGH load(1, XDATA, add(CFA_XSP16, literal(-4)))
          CFI (cfiCond40) ?BRET_EXT load(1, XDATA, add(CFA_XSP16, literal(-3)))
          CFI (cfiCond40) DPL0 load(1, XDATA, add(CFA_XSP16, literal(-2)))
          CFI (cfiCond40) DPH0 load(1, XDATA, add(CFA_XSP16, literal(-1)))
          CFI (cfiCond40) CFA_SP SP+-2
          CFI (cfiCond40) CFA_XSP16 add(XSP16, 10)
          CFI Block cfiPicker41 Using cfiCommon1
          CFI (cfiPicker41) NoFunction
          CFI (cfiPicker41) Picker
        MOVX      A,@DPTR
        MOV       R4,A
        INC       DPTR
        MOVX      A,@DPTR
        RET
          CFI EndBlock cfiCond34
          CFI EndBlock cfiCond35
          CFI EndBlock cfiCond36
          CFI EndBlock cfiCond37
          CFI EndBlock cfiCond38
          CFI EndBlock cfiCond39
          CFI EndBlock cfiCond40
          CFI EndBlock cfiPicker41

        RSEG BANKED_CODE:HUGECODE:NOROOT(0)
?Subroutine15:
          CFI Block cfiCond42 Using cfiCommon0
          CFI Function zcl_registerCmdList
          CFI Conditional ??CrossCallReturnLabel_2
          CFI R6 load(1, XDATA, add(CFA_XSP16, literal(-12)))
          CFI VB load(1, XDATA, add(CFA_XSP16, literal(-11)))
          CFI V0 load(1, XDATA, add(CFA_XSP16, literal(-10)))
          CFI V1 load(1, XDATA, add(CFA_XSP16, literal(-9)))
          CFI V2 load(1, XDATA, add(CFA_XSP16, literal(-8)))
          CFI V3 load(1, XDATA, add(CFA_XSP16, literal(-7)))
          CFI R7 load(1, XDATA, add(CFA_XSP16, literal(-6)))
          CFI ?RET_LOW load(1, XDATA, add(CFA_XSP16, literal(-5)))
          CFI ?RET_HIGH load(1, XDATA, add(CFA_XSP16, literal(-4)))
          CFI ?BRET_EXT load(1, XDATA, add(CFA_XSP16, literal(-3)))
          CFI DPL0 load(1, XDATA, add(CFA_XSP16, literal(-2)))
          CFI DPH0 load(1, XDATA, add(CFA_XSP16, literal(-1)))
          CFI CFA_SP SP+-2
          CFI CFA_XSP16 add(XSP16, 12)
          CFI Block cfiCond43 Using cfiCommon0
          CFI (cfiCond43) Function zcl_registerClusterOptionList
          CFI (cfiCond43) Conditional ??CrossCallReturnLabel_3
          CFI (cfiCond43) R6 load(1, XDATA, add(CFA_XSP16, literal(-12)))
          CFI (cfiCond43) VB load(1, XDATA, add(CFA_XSP16, literal(-11)))
          CFI (cfiCond43) V0 load(1, XDATA, add(CFA_XSP16, literal(-10)))
          CFI (cfiCond43) V1 load(1, XDATA, add(CFA_XSP16, literal(-9)))
          CFI (cfiCond43) V2 load(1, XDATA, add(CFA_XSP16, literal(-8)))
          CFI (cfiCond43) V3 load(1, XDATA, add(CFA_XSP16, literal(-7)))
          CFI (cfiCond43) R7 load(1, XDATA, add(CFA_XSP16, literal(-6)))
          CFI (cfiCond43) ?RET_LOW load(1, XDATA, add(CFA_XSP16, literal(-5)))
          CFI (cfiCond43) ?RET_HIGH load(1, XDATA, add(CFA_XSP16, literal(-4)))
          CFI (cfiCond43) ?BRET_EXT load(1, XDATA, add(CFA_XSP16, literal(-3)))
          CFI (cfiCond43) DPL0 load(1, XDATA, add(CFA_XSP16, literal(-2)))
          CFI (cfiCond43) DPH0 load(1, XDATA, add(CFA_XSP16, literal(-1)))
          CFI (cfiCond43) CFA_SP SP+-2
          CFI (cfiCond43) CFA_XSP16 add(XSP16, 12)
          CFI Block cfiPicker44 Using cfiCommon1
          CFI (cfiPicker44) NoFunction
          CFI (cfiPicker44) Picker
        LCALL     ?Subroutine149 & 0xFFFF
??CrossCallReturnLabel_268:
        MOV       DPL,R0
        MOV       DPH,R1
        INC       DPTR
        INC       DPTR
        LCALL     ?Subroutine148 & 0xFFFF
??CrossCallReturnLabel_266:
        RET
          CFI EndBlock cfiCond42
          CFI EndBlock cfiCond43
          CFI EndBlock cfiPicker44

        RSEG BANKED_CODE:HUGECODE:NOROOT(0)
?Subroutine148:
          CFI Block cfiCond45 Using cfiCommon0
          CFI Function zcl_registerPlugin
          CFI Conditional ??CrossCallReturnLabel_265
          CFI R6 load(1, XDATA, add(CFA_XSP16, literal(-12)))
          CFI VB load(1, XDATA, add(CFA_XSP16, literal(-11)))
          CFI V0 load(1, XDATA, add(CFA_XSP16, literal(-10)))
          CFI V1 load(1, XDATA, add(CFA_XSP16, literal(-9)))
          CFI V2 load(1, XDATA, add(CFA_XSP16, literal(-8)))
          CFI V3 load(1, XDATA, add(CFA_XSP16, literal(-7)))
          CFI R7 load(1, XDATA, add(CFA_XSP16, literal(-6)))
          CFI ?RET_LOW load(1, XDATA, add(CFA_XSP16, literal(-5)))
          CFI ?RET_HIGH load(1, XDATA, add(CFA_XSP16, literal(-4)))
          CFI ?BRET_EXT load(1, XDATA, add(CFA_XSP16, literal(-3)))
          CFI DPL0 load(1, XDATA, add(CFA_XSP16, literal(-2)))
          CFI DPH0 load(1, XDATA, add(CFA_XSP16, literal(-1)))
          CFI CFA_SP SP+-2
          CFI CFA_XSP16 add(XSP16, 12)
          CFI Block cfiCond46 Using cfiCommon0
          CFI (cfiCond46) Function zcl_registerCmdList
          CFI (cfiCond46) Conditional ??CrossCallReturnLabel_266, ??CrossCallReturnLabel_2
          CFI (cfiCond46) R6 load(1, XDATA, add(CFA_XSP16, literal(-12)))
          CFI (cfiCond46) VB load(1, XDATA, add(CFA_XSP16, literal(-11)))
          CFI (cfiCond46) V0 load(1, XDATA, add(CFA_XSP16, literal(-10)))
          CFI (cfiCond46) V1 load(1, XDATA, add(CFA_XSP16, literal(-9)))
          CFI (cfiCond46) V2 load(1, XDATA, add(CFA_XSP16, literal(-8)))
          CFI (cfiCond46) V3 load(1, XDATA, add(CFA_XSP16, literal(-7)))
          CFI (cfiCond46) R7 load(1, XDATA, add(CFA_XSP16, literal(-6)))
          CFI (cfiCond46) ?RET_LOW load(1, XDATA, add(CFA_XSP16, literal(-5)))
          CFI (cfiCond46) ?RET_HIGH load(1, XDATA, add(CFA_XSP16, literal(-4)))
          CFI (cfiCond46) ?BRET_EXT load(1, XDATA, add(CFA_XSP16, literal(-3)))
          CFI (cfiCond46) DPL0 load(1, XDATA, add(CFA_XSP16, literal(-2)))
          CFI (cfiCond46) DPH0 load(1, XDATA, add(CFA_XSP16, literal(-1)))
          CFI (cfiCond46) CFA_SP SP+-4
          CFI (cfiCond46) CFA_XSP16 add(XSP16, 12)
          CFI Block cfiCond47 Using cfiCommon0
          CFI (cfiCond47) Function zcl_registerClusterOptionList
          CFI (cfiCond47) Conditional ??CrossCallReturnLabel_266, ??CrossCallReturnLabel_3
          CFI (cfiCond47) R6 load(1, XDATA, add(CFA_XSP16, literal(-12)))
          CFI (cfiCond47) VB load(1, XDATA, add(CFA_XSP16, literal(-11)))
          CFI (cfiCond47) V0 load(1, XDATA, add(CFA_XSP16, literal(-10)))
          CFI (cfiCond47) V1 load(1, XDATA, add(CFA_XSP16, literal(-9)))
          CFI (cfiCond47) V2 load(1, XDATA, add(CFA_XSP16, literal(-8)))
          CFI (cfiCond47) V3 load(1, XDATA, add(CFA_XSP16, literal(-7)))
          CFI (cfiCond47) R7 load(1, XDATA, add(CFA_XSP16, literal(-6)))
          CFI (cfiCond47) ?RET_LOW load(1, XDATA, add(CFA_XSP16, literal(-5)))
          CFI (cfiCond47) ?RET_HIGH load(1, XDATA, add(CFA_XSP16, literal(-4)))
          CFI (cfiCond47) ?BRET_EXT load(1, XDATA, add(CFA_XSP16, literal(-3)))
          CFI (cfiCond47) DPL0 load(1, XDATA, add(CFA_XSP16, literal(-2)))
          CFI (cfiCond47) DPH0 load(1, XDATA, add(CFA_XSP16, literal(-1)))
          CFI (cfiCond47) CFA_SP SP+-4
          CFI (cfiCond47) CFA_XSP16 add(XSP16, 12)
          CFI Block cfiPicker48 Using cfiCommon1
          CFI (cfiPicker48) NoFunction
          CFI (cfiPicker48) Picker
        INC       DPTR
        MOV       A,?V1
        LCALL     ?Subroutine190 & 0xFFFF
??CrossCallReturnLabel_326:
        MOV       A,R6
        MOVX      @DPTR,A
        INC       DPTR
        MOV       A,R7
        MOVX      @DPTR,A
        RET
          CFI EndBlock cfiCond45
          CFI EndBlock cfiCond46
          CFI EndBlock cfiCond47
          CFI EndBlock cfiPicker48
//  971 
//  972 /*********************************************************************
//  973  * @fn          zcl_registerValidateAttrData
//  974  *
//  975  * @brief       Add a validation function for attribute data
//  976  *
//  977  * @param       pfnValidateAttrData - function pointer to validate routine
//  978  *
//  979  * @return      ZSuccess if OK
//  980  */

        RSEG BANKED_CODE:HUGECODE:NOROOT(0)
//  981 ZStatus_t zcl_registerValidateAttrData( zclValidateAttrData_t pfnValidateAttrData )
zcl_registerValidateAttrData:
          CFI Block cfiBlock49 Using cfiCommon0
          CFI Function zcl_registerValidateAttrData
        CODE
//  982 {
        PUSH      DPL
          CFI DPL0 Frame(CFA_SP, 4)
          CFI CFA_SP SP+-4
        PUSH      DPH
          CFI DPH0 Frame(CFA_SP, 5)
          CFI CFA_SP SP+-5
        ; Saved register size: 2
        ; Auto size: 0
//  983   zcl_ValidateAttrDataCB = pfnValidateAttrData;
        MOV       DPTR,#zcl_ValidateAttrDataCB
        LCALL     ??Subroutine244_0 & 0xFFFF
//  984 
//  985   return ( ZSuccess );
??CrossCallReturnLabel_574:
        MOV       R1,#0x0
          CFI EndBlock cfiBlock49
        REQUIRE ?Subroutine0
        ; // Fall through to label ?Subroutine0
//  986 }

        RSEG BANKED_CODE:HUGECODE:NOROOT(0)
?Subroutine0:
          CFI Block cfiBlock50 Using cfiCommon0
          CFI NoFunction
          CFI CFA_SP SP+-5
          CFI DPL0 Frame(CFA_SP, 4)
          CFI DPH0 Frame(CFA_SP, 5)
        POP       DPH
          CFI CFA_SP SP+-4
          CFI DPH0 SameValue
        POP       DPL
          CFI CFA_SP SP+-3
          CFI DPL0 SameValue
        LJMP      ?BRET
          CFI EndBlock cfiBlock50
//  987 
//  988 /*********************************************************************
//  989  * @fn          zcl_registerReadWriteCB
//  990  *
//  991  * @brief       Register the application's callback function to read/write
//  992  *              attribute data, and authorize read/write operation.
//  993  *
//  994  *              Note: The pfnReadWriteCB callback function is only required
//  995  *                    when the attribute data format is unknown to ZCL. The
//  996  *                    callback function gets called when the pointer 'dataPtr'
//  997  *                    to the attribute value is NULL in the attribute database
//  998  *                    registered with the ZCL.
//  999  *
// 1000  *              Note: The pfnAuthorizeCB callback function is only required
// 1001  *                    when the Read/Write operation on an attribute requires
// 1002  *                    authorization (i.e., attributes with ACCESS_CONTROL_AUTH_READ
// 1003  *                    or ACCESS_CONTROL_AUTH_WRITE access permissions).
// 1004  *
// 1005  * @param       endpoint - application's endpoint
// 1006  * @param       pfnReadWriteCB - function pointer to read/write routine
// 1007  * @param       pfnAuthorizeCB - function pointer to authorize read/write operation
// 1008  *
// 1009  * @return      ZSuccess if successful. ZFailure, otherwise.
// 1010  */

        RSEG BANKED_CODE:HUGECODE:NOROOT(0)
// 1011 ZStatus_t zcl_registerReadWriteCB( uint8 endpoint, zclReadWriteCB_t pfnReadWriteCB,
zcl_registerReadWriteCB:
          CFI Block cfiBlock51 Using cfiCommon0
          CFI Function zcl_registerReadWriteCB
        CODE
// 1012                                    zclAuthorizeCB_t pfnAuthorizeCB )
// 1013 {
        FUNCALL zcl_registerReadWriteCB, zclFindAttrRecsList
        LOCFRAME ISTACK, 0, STACK
        LOCFRAME PSTACK, 0, STACK
        LOCFRAME XSTACK, 14, STACK
        LOCFRAME IOVERLAY, 0, STATIC
        LOCFRAME DOVERLAY, 0, STATIC
        ARGFRAME ISTACK, 0, STACK
        ARGFRAME PSTACK, 0, STACK
        ARGFRAME XSTACK, 14, STACK
        ARGFRAME IOVERLAY, 0, STATIC
        ARGFRAME DOVERLAY, 0, STATIC
        REQUIRE ?V0
        REQUIRE ?V1
        REQUIRE ?V2
        REQUIRE ?V4
        REQUIRE ?V5
        MOV       A,#-0xe
        LCALL     ?BANKED_ENTER_XDATA
          CFI DPH0 load(1, XDATA, add(CFA_XSP16, literal(-1)))
          CFI DPL0 load(1, XDATA, add(CFA_XSP16, literal(-2)))
          CFI ?BRET_EXT load(1, XDATA, add(CFA_XSP16, literal(-3)))
          CFI ?RET_HIGH load(1, XDATA, add(CFA_XSP16, literal(-4)))
          CFI ?RET_LOW load(1, XDATA, add(CFA_XSP16, literal(-5)))
          CFI R7 load(1, XDATA, add(CFA_XSP16, literal(-6)))
          CFI V5 load(1, XDATA, add(CFA_XSP16, literal(-7)))
          CFI V4 load(1, XDATA, add(CFA_XSP16, literal(-8)))
          CFI V3 load(1, XDATA, add(CFA_XSP16, literal(-9)))
          CFI V2 load(1, XDATA, add(CFA_XSP16, literal(-10)))
          CFI V1 load(1, XDATA, add(CFA_XSP16, literal(-11)))
          CFI V0 load(1, XDATA, add(CFA_XSP16, literal(-12)))
          CFI VB load(1, XDATA, add(CFA_XSP16, literal(-13)))
          CFI R6 load(1, XDATA, add(CFA_XSP16, literal(-14)))
          CFI CFA_SP SP+0
          CFI CFA_XSP16 add(XSP16, 14)
        ; Saved register size: 14
        ; Auto size: 0
        MOV       A,R2
        MOV       R6,A
        MOV       A,R3
        MOV       R7,A
        MOV       ?V0,R4
        MOV       ?V1,R5
// 1014   zclAttrRecsList *pRec = zclFindAttrRecsList( endpoint );
        ; Setup parameters for call to function zclFindAttrRecsList
        LCALL     `??zclFindAttrRecsList::?relay`; Banked call to: zclFindAttrRecsList
        MOV       ?V4,R2
        MOV       ?V5,R3
        MOV       R0,?V4
        MOV       R1,?V5
// 1015 
// 1016   if ( pRec != NULL )
        MOV       A,R0
        ORL       A,R1
        JZ        ??zcl_registerReadWriteCB_0
// 1017   {
// 1018     pRec->pfnReadWriteCB = pfnReadWriteCB;
        MOV       DPL,R0
        MOV       DPH,R1
        INC       DPTR
        INC       DPTR
        INC       DPTR
        MOV       A,R6
        MOVX      @DPTR,A
        INC       DPTR
        MOV       A,R7
        LCALL     ?Subroutine35 & 0xFFFF
// 1019     pRec->pfnAuthorizeCB = pfnAuthorizeCB;
??CrossCallReturnLabel_41:
        MOV       A,?V0
        MOVX      @DPTR,A
        INC       DPTR
        MOV       A,?V1
        MOVX      @DPTR,A
// 1020 
// 1021     return ( ZSuccess );
        MOV       R1,#0x0
        SJMP      ??zcl_registerReadWriteCB_1
// 1022   }
// 1023 
// 1024   return ( ZFailure );
??zcl_registerReadWriteCB_0:
        MOV       R1,#0x1
??zcl_registerReadWriteCB_1:
        LJMP      ?Subroutine4 & 0xFFFF
// 1025 }
          CFI EndBlock cfiBlock51

        RSEG BANKED_CODE:HUGECODE:NOROOT(0)
?Subroutine35:
          CFI Block cfiCond52 Using cfiCommon0
          CFI Function zcl_HandleExternal
          CFI Conditional ??CrossCallReturnLabel_40
          CFI R6 load(1, XDATA, add(CFA_XSP16, literal(-12)))
          CFI VB load(1, XDATA, add(CFA_XSP16, literal(-11)))
          CFI V0 load(1, XDATA, add(CFA_XSP16, literal(-10)))
          CFI V1 load(1, XDATA, add(CFA_XSP16, literal(-9)))
          CFI V2 load(1, XDATA, add(CFA_XSP16, literal(-8)))
          CFI V3 load(1, XDATA, add(CFA_XSP16, literal(-7)))
          CFI R7 load(1, XDATA, add(CFA_XSP16, literal(-6)))
          CFI ?RET_LOW load(1, XDATA, add(CFA_XSP16, literal(-5)))
          CFI ?RET_HIGH load(1, XDATA, add(CFA_XSP16, literal(-4)))
          CFI ?BRET_EXT load(1, XDATA, add(CFA_XSP16, literal(-3)))
          CFI DPL0 load(1, XDATA, add(CFA_XSP16, literal(-2)))
          CFI DPH0 load(1, XDATA, add(CFA_XSP16, literal(-1)))
          CFI CFA_SP SP+-2
          CFI CFA_XSP16 add(XSP16, 12)
          CFI Block cfiCond53 Using cfiCommon0
          CFI (cfiCond53) Function zcl_registerReadWriteCB
          CFI (cfiCond53) Conditional ??CrossCallReturnLabel_41
          CFI (cfiCond53) R6 load(1, XDATA, add(CFA_XSP16, literal(-14)))
          CFI (cfiCond53) VB load(1, XDATA, add(CFA_XSP16, literal(-13)))
          CFI (cfiCond53) V0 load(1, XDATA, add(CFA_XSP16, literal(-12)))
          CFI (cfiCond53) V1 load(1, XDATA, add(CFA_XSP16, literal(-11)))
          CFI (cfiCond53) V2 load(1, XDATA, add(CFA_XSP16, literal(-10)))
          CFI (cfiCond53) V3 load(1, XDATA, add(CFA_XSP16, literal(-9)))
          CFI (cfiCond53) V4 load(1, XDATA, add(CFA_XSP16, literal(-8)))
          CFI (cfiCond53) V5 load(1, XDATA, add(CFA_XSP16, literal(-7)))
          CFI (cfiCond53) R7 load(1, XDATA, add(CFA_XSP16, literal(-6)))
          CFI (cfiCond53) ?RET_LOW load(1, XDATA, add(CFA_XSP16, literal(-5)))
          CFI (cfiCond53) ?RET_HIGH load(1, XDATA, add(CFA_XSP16, literal(-4)))
          CFI (cfiCond53) ?BRET_EXT load(1, XDATA, add(CFA_XSP16, literal(-3)))
          CFI (cfiCond53) DPL0 load(1, XDATA, add(CFA_XSP16, literal(-2)))
          CFI (cfiCond53) DPH0 load(1, XDATA, add(CFA_XSP16, literal(-1)))
          CFI (cfiCond53) CFA_SP SP+-2
          CFI (cfiCond53) CFA_XSP16 add(XSP16, 14)
          CFI Block cfiPicker54 Using cfiCommon1
          CFI (cfiPicker54) NoFunction
          CFI (cfiPicker54) Picker
        LCALL     ?Subroutine150 & 0xFFFF
??CrossCallReturnLabel_270:
        RET
          CFI EndBlock cfiCond52
          CFI EndBlock cfiCond53
          CFI EndBlock cfiPicker54

        RSEG BANKED_CODE:HUGECODE:NOROOT(0)
?Subroutine150:
          CFI Block cfiCond55 Using cfiCommon0
          CFI Function zcl_registerAttrList
          CFI Conditional ??CrossCallReturnLabel_269, ??CrossCallReturnLabel_34
          CFI R6 load(1, XDATA, add(CFA_XSP16, literal(-12)))
          CFI VB load(1, XDATA, add(CFA_XSP16, literal(-11)))
          CFI V0 load(1, XDATA, add(CFA_XSP16, literal(-10)))
          CFI V1 load(1, XDATA, add(CFA_XSP16, literal(-9)))
          CFI V2 load(1, XDATA, add(CFA_XSP16, literal(-8)))
          CFI V3 load(1, XDATA, add(CFA_XSP16, literal(-7)))
          CFI R7 load(1, XDATA, add(CFA_XSP16, literal(-6)))
          CFI ?RET_LOW load(1, XDATA, add(CFA_XSP16, literal(-5)))
          CFI ?RET_HIGH load(1, XDATA, add(CFA_XSP16, literal(-4)))
          CFI ?BRET_EXT load(1, XDATA, add(CFA_XSP16, literal(-3)))
          CFI DPL0 load(1, XDATA, add(CFA_XSP16, literal(-2)))
          CFI DPH0 load(1, XDATA, add(CFA_XSP16, literal(-1)))
          CFI CFA_SP SP+-4
          CFI CFA_XSP16 add(XSP16, 12)
          CFI Block cfiCond56 Using cfiCommon0
          CFI (cfiCond56) Function zcl_registerAttrList
          CFI (cfiCond56) Conditional ??CrossCallReturnLabel_269, ??CrossCallReturnLabel_35
          CFI (cfiCond56) R6 load(1, XDATA, add(CFA_XSP16, literal(-12)))
          CFI (cfiCond56) VB load(1, XDATA, add(CFA_XSP16, literal(-11)))
          CFI (cfiCond56) V0 load(1, XDATA, add(CFA_XSP16, literal(-10)))
          CFI (cfiCond56) V1 load(1, XDATA, add(CFA_XSP16, literal(-9)))
          CFI (cfiCond56) V2 load(1, XDATA, add(CFA_XSP16, literal(-8)))
          CFI (cfiCond56) V3 load(1, XDATA, add(CFA_XSP16, literal(-7)))
          CFI (cfiCond56) R7 load(1, XDATA, add(CFA_XSP16, literal(-6)))
          CFI (cfiCond56) ?RET_LOW load(1, XDATA, add(CFA_XSP16, literal(-5)))
          CFI (cfiCond56) ?RET_HIGH load(1, XDATA, add(CFA_XSP16, literal(-4)))
          CFI (cfiCond56) ?BRET_EXT load(1, XDATA, add(CFA_XSP16, literal(-3)))
          CFI (cfiCond56) DPL0 load(1, XDATA, add(CFA_XSP16, literal(-2)))
          CFI (cfiCond56) DPH0 load(1, XDATA, add(CFA_XSP16, literal(-1)))
          CFI (cfiCond56) CFA_SP SP+-4
          CFI (cfiCond56) CFA_XSP16 add(XSP16, 12)
          CFI Block cfiCond57 Using cfiCommon0
          CFI (cfiCond57) Function zcl_HandleExternal
          CFI (cfiCond57) Conditional ??CrossCallReturnLabel_270, ??CrossCallReturnLabel_40
          CFI (cfiCond57) R6 load(1, XDATA, add(CFA_XSP16, literal(-12)))
          CFI (cfiCond57) VB load(1, XDATA, add(CFA_XSP16, literal(-11)))
          CFI (cfiCond57) V0 load(1, XDATA, add(CFA_XSP16, literal(-10)))
          CFI (cfiCond57) V1 load(1, XDATA, add(CFA_XSP16, literal(-9)))
          CFI (cfiCond57) V2 load(1, XDATA, add(CFA_XSP16, literal(-8)))
          CFI (cfiCond57) V3 load(1, XDATA, add(CFA_XSP16, literal(-7)))
          CFI (cfiCond57) R7 load(1, XDATA, add(CFA_XSP16, literal(-6)))
          CFI (cfiCond57) ?RET_LOW load(1, XDATA, add(CFA_XSP16, literal(-5)))
          CFI (cfiCond57) ?RET_HIGH load(1, XDATA, add(CFA_XSP16, literal(-4)))
          CFI (cfiCond57) ?BRET_EXT load(1, XDATA, add(CFA_XSP16, literal(-3)))
          CFI (cfiCond57) DPL0 load(1, XDATA, add(CFA_XSP16, literal(-2)))
          CFI (cfiCond57) DPH0 load(1, XDATA, add(CFA_XSP16, literal(-1)))
          CFI (cfiCond57) CFA_SP SP+-4
          CFI (cfiCond57) CFA_XSP16 add(XSP16, 12)
          CFI Block cfiCond58 Using cfiCommon0
          CFI (cfiCond58) Function zcl_registerReadWriteCB
          CFI (cfiCond58) Conditional ??CrossCallReturnLabel_270, ??CrossCallReturnLabel_41
          CFI (cfiCond58) R6 load(1, XDATA, add(CFA_XSP16, literal(-14)))
          CFI (cfiCond58) VB load(1, XDATA, add(CFA_XSP16, literal(-13)))
          CFI (cfiCond58) V0 load(1, XDATA, add(CFA_XSP16, literal(-12)))
          CFI (cfiCond58) V1 load(1, XDATA, add(CFA_XSP16, literal(-11)))
          CFI (cfiCond58) V2 load(1, XDATA, add(CFA_XSP16, literal(-10)))
          CFI (cfiCond58) V3 load(1, XDATA, add(CFA_XSP16, literal(-9)))
          CFI (cfiCond58) V4 load(1, XDATA, add(CFA_XSP16, literal(-8)))
          CFI (cfiCond58) V5 load(1, XDATA, add(CFA_XSP16, literal(-7)))
          CFI (cfiCond58) R7 load(1, XDATA, add(CFA_XSP16, literal(-6)))
          CFI (cfiCond58) ?RET_LOW load(1, XDATA, add(CFA_XSP16, literal(-5)))
          CFI (cfiCond58) ?RET_HIGH load(1, XDATA, add(CFA_XSP16, literal(-4)))
          CFI (cfiCond58) ?BRET_EXT load(1, XDATA, add(CFA_XSP16, literal(-3)))
          CFI (cfiCond58) DPL0 load(1, XDATA, add(CFA_XSP16, literal(-2)))
          CFI (cfiCond58) DPH0 load(1, XDATA, add(CFA_XSP16, literal(-1)))
          CFI (cfiCond58) CFA_SP SP+-4
          CFI (cfiCond58) CFA_XSP16 add(XSP16, 14)
          CFI Block cfiPicker59 Using cfiCommon1
          CFI (cfiPicker59) NoFunction
          CFI (cfiPicker59) Picker
        LCALL     ?Subroutine190 & 0xFFFF
??CrossCallReturnLabel_327:
        INC       DPTR
        RET
          CFI EndBlock cfiCond55
          CFI EndBlock cfiCond56
          CFI EndBlock cfiCond57
          CFI EndBlock cfiCond58
          CFI EndBlock cfiPicker59

        RSEG BANKED_CODE:HUGECODE:NOROOT(0)
?Subroutine190:
          CFI Block cfiCond60 Using cfiCommon0
          CFI Function zcl_registerPlugin
          CFI Conditional ??CrossCallReturnLabel_326, ??CrossCallReturnLabel_265
          CFI R6 load(1, XDATA, add(CFA_XSP16, literal(-12)))
          CFI VB load(1, XDATA, add(CFA_XSP16, literal(-11)))
          CFI V0 load(1, XDATA, add(CFA_XSP16, literal(-10)))
          CFI V1 load(1, XDATA, add(CFA_XSP16, literal(-9)))
          CFI V2 load(1, XDATA, add(CFA_XSP16, literal(-8)))
          CFI V3 load(1, XDATA, add(CFA_XSP16, literal(-7)))
          CFI R7 load(1, XDATA, add(CFA_XSP16, literal(-6)))
          CFI ?RET_LOW load(1, XDATA, add(CFA_XSP16, literal(-5)))
          CFI ?RET_HIGH load(1, XDATA, add(CFA_XSP16, literal(-4)))
          CFI ?BRET_EXT load(1, XDATA, add(CFA_XSP16, literal(-3)))
          CFI DPL0 load(1, XDATA, add(CFA_XSP16, literal(-2)))
          CFI DPH0 load(1, XDATA, add(CFA_XSP16, literal(-1)))
          CFI CFA_SP SP+-4
          CFI CFA_XSP16 add(XSP16, 12)
          CFI Block cfiCond61 Using cfiCommon0
          CFI (cfiCond61) Function zcl_registerCmdList
          CFI (cfiCond61) Conditional ??CrossCallReturnLabel_326, ??CrossCallReturnLabel_266, ??CrossCallReturnLabel_2
          CFI (cfiCond61) R6 load(1, XDATA, add(CFA_XSP16, literal(-12)))
          CFI (cfiCond61) VB load(1, XDATA, add(CFA_XSP16, literal(-11)))
          CFI (cfiCond61) V0 load(1, XDATA, add(CFA_XSP16, literal(-10)))
          CFI (cfiCond61) V1 load(1, XDATA, add(CFA_XSP16, literal(-9)))
          CFI (cfiCond61) V2 load(1, XDATA, add(CFA_XSP16, literal(-8)))
          CFI (cfiCond61) V3 load(1, XDATA, add(CFA_XSP16, literal(-7)))
          CFI (cfiCond61) R7 load(1, XDATA, add(CFA_XSP16, literal(-6)))
          CFI (cfiCond61) ?RET_LOW load(1, XDATA, add(CFA_XSP16, literal(-5)))
          CFI (cfiCond61) ?RET_HIGH load(1, XDATA, add(CFA_XSP16, literal(-4)))
          CFI (cfiCond61) ?BRET_EXT load(1, XDATA, add(CFA_XSP16, literal(-3)))
          CFI (cfiCond61) DPL0 load(1, XDATA, add(CFA_XSP16, literal(-2)))
          CFI (cfiCond61) DPH0 load(1, XDATA, add(CFA_XSP16, literal(-1)))
          CFI (cfiCond61) CFA_SP SP+-6
          CFI (cfiCond61) CFA_XSP16 add(XSP16, 12)
          CFI Block cfiCond62 Using cfiCommon0
          CFI (cfiCond62) Function zcl_registerClusterOptionList
          CFI (cfiCond62) Conditional ??CrossCallReturnLabel_326, ??CrossCallReturnLabel_266, ??CrossCallReturnLabel_3
          CFI (cfiCond62) R6 load(1, XDATA, add(CFA_XSP16, literal(-12)))
          CFI (cfiCond62) VB load(1, XDATA, add(CFA_XSP16, literal(-11)))
          CFI (cfiCond62) V0 load(1, XDATA, add(CFA_XSP16, literal(-10)))
          CFI (cfiCond62) V1 load(1, XDATA, add(CFA_XSP16, literal(-9)))
          CFI (cfiCond62) V2 load(1, XDATA, add(CFA_XSP16, literal(-8)))
          CFI (cfiCond62) V3 load(1, XDATA, add(CFA_XSP16, literal(-7)))
          CFI (cfiCond62) R7 load(1, XDATA, add(CFA_XSP16, literal(-6)))
          CFI (cfiCond62) ?RET_LOW load(1, XDATA, add(CFA_XSP16, literal(-5)))
          CFI (cfiCond62) ?RET_HIGH load(1, XDATA, add(CFA_XSP16, literal(-4)))
          CFI (cfiCond62) ?BRET_EXT load(1, XDATA, add(CFA_XSP16, literal(-3)))
          CFI (cfiCond62) DPL0 load(1, XDATA, add(CFA_XSP16, literal(-2)))
          CFI (cfiCond62) DPH0 load(1, XDATA, add(CFA_XSP16, literal(-1)))
          CFI (cfiCond62) CFA_SP SP+-6
          CFI (cfiCond62) CFA_XSP16 add(XSP16, 12)
          CFI Block cfiCond63 Using cfiCommon0
          CFI (cfiCond63) Function zcl_registerAttrList
          CFI (cfiCond63) Conditional ??CrossCallReturnLabel_327, ??CrossCallReturnLabel_269, ??CrossCallReturnLabel_34
          CFI (cfiCond63) R6 load(1, XDATA, add(CFA_XSP16, literal(-12)))
          CFI (cfiCond63) VB load(1, XDATA, add(CFA_XSP16, literal(-11)))
          CFI (cfiCond63) V0 load(1, XDATA, add(CFA_XSP16, literal(-10)))
          CFI (cfiCond63) V1 load(1, XDATA, add(CFA_XSP16, literal(-9)))
          CFI (cfiCond63) V2 load(1, XDATA, add(CFA_XSP16, literal(-8)))
          CFI (cfiCond63) V3 load(1, XDATA, add(CFA_XSP16, literal(-7)))
          CFI (cfiCond63) R7 load(1, XDATA, add(CFA_XSP16, literal(-6)))
          CFI (cfiCond63) ?RET_LOW load(1, XDATA, add(CFA_XSP16, literal(-5)))
          CFI (cfiCond63) ?RET_HIGH load(1, XDATA, add(CFA_XSP16, literal(-4)))
          CFI (cfiCond63) ?BRET_EXT load(1, XDATA, add(CFA_XSP16, literal(-3)))
          CFI (cfiCond63) DPL0 load(1, XDATA, add(CFA_XSP16, literal(-2)))
          CFI (cfiCond63) DPH0 load(1, XDATA, add(CFA_XSP16, literal(-1)))
          CFI (cfiCond63) CFA_SP SP+-6
          CFI (cfiCond63) CFA_XSP16 add(XSP16, 12)
          CFI Block cfiCond64 Using cfiCommon0
          CFI (cfiCond64) Function zcl_registerAttrList
          CFI (cfiCond64) Conditional ??CrossCallReturnLabel_327, ??CrossCallReturnLabel_269, ??CrossCallReturnLabel_35
          CFI (cfiCond64) R6 load(1, XDATA, add(CFA_XSP16, literal(-12)))
          CFI (cfiCond64) VB load(1, XDATA, add(CFA_XSP16, literal(-11)))
          CFI (cfiCond64) V0 load(1, XDATA, add(CFA_XSP16, literal(-10)))
          CFI (cfiCond64) V1 load(1, XDATA, add(CFA_XSP16, literal(-9)))
          CFI (cfiCond64) V2 load(1, XDATA, add(CFA_XSP16, literal(-8)))
          CFI (cfiCond64) V3 load(1, XDATA, add(CFA_XSP16, literal(-7)))
          CFI (cfiCond64) R7 load(1, XDATA, add(CFA_XSP16, literal(-6)))
          CFI (cfiCond64) ?RET_LOW load(1, XDATA, add(CFA_XSP16, literal(-5)))
          CFI (cfiCond64) ?RET_HIGH load(1, XDATA, add(CFA_XSP16, literal(-4)))
          CFI (cfiCond64) ?BRET_EXT load(1, XDATA, add(CFA_XSP16, literal(-3)))
          CFI (cfiCond64) DPL0 load(1, XDATA, add(CFA_XSP16, literal(-2)))
          CFI (cfiCond64) DPH0 load(1, XDATA, add(CFA_XSP16, literal(-1)))
          CFI (cfiCond64) CFA_SP SP+-6
          CFI (cfiCond64) CFA_XSP16 add(XSP16, 12)
          CFI Block cfiCond65 Using cfiCommon0
          CFI (cfiCond65) Function zcl_HandleExternal
          CFI (cfiCond65) Conditional ??CrossCallReturnLabel_327, ??CrossCallReturnLabel_270, ??CrossCallReturnLabel_40
          CFI (cfiCond65) R6 load(1, XDATA, add(CFA_XSP16, literal(-12)))
          CFI (cfiCond65) VB load(1, XDATA, add(CFA_XSP16, literal(-11)))
          CFI (cfiCond65) V0 load(1, XDATA, add(CFA_XSP16, literal(-10)))
          CFI (cfiCond65) V1 load(1, XDATA, add(CFA_XSP16, literal(-9)))
          CFI (cfiCond65) V2 load(1, XDATA, add(CFA_XSP16, literal(-8)))
          CFI (cfiCond65) V3 load(1, XDATA, add(CFA_XSP16, literal(-7)))
          CFI (cfiCond65) R7 load(1, XDATA, add(CFA_XSP16, literal(-6)))
          CFI (cfiCond65) ?RET_LOW load(1, XDATA, add(CFA_XSP16, literal(-5)))
          CFI (cfiCond65) ?RET_HIGH load(1, XDATA, add(CFA_XSP16, literal(-4)))
          CFI (cfiCond65) ?BRET_EXT load(1, XDATA, add(CFA_XSP16, literal(-3)))
          CFI (cfiCond65) DPL0 load(1, XDATA, add(CFA_XSP16, literal(-2)))
          CFI (cfiCond65) DPH0 load(1, XDATA, add(CFA_XSP16, literal(-1)))
          CFI (cfiCond65) CFA_SP SP+-6
          CFI (cfiCond65) CFA_XSP16 add(XSP16, 12)
          CFI Block cfiCond66 Using cfiCommon0
          CFI (cfiCond66) Function zcl_registerReadWriteCB
          CFI (cfiCond66) Conditional ??CrossCallReturnLabel_327, ??CrossCallReturnLabel_270, ??CrossCallReturnLabel_41
          CFI (cfiCond66) R6 load(1, XDATA, add(CFA_XSP16, literal(-14)))
          CFI (cfiCond66) VB load(1, XDATA, add(CFA_XSP16, literal(-13)))
          CFI (cfiCond66) V0 load(1, XDATA, add(CFA_XSP16, literal(-12)))
          CFI (cfiCond66) V1 load(1, XDATA, add(CFA_XSP16, literal(-11)))
          CFI (cfiCond66) V2 load(1, XDATA, add(CFA_XSP16, literal(-10)))
          CFI (cfiCond66) V3 load(1, XDATA, add(CFA_XSP16, literal(-9)))
          CFI (cfiCond66) V4 load(1, XDATA, add(CFA_XSP16, literal(-8)))
          CFI (cfiCond66) V5 load(1, XDATA, add(CFA_XSP16, literal(-7)))
          CFI (cfiCond66) R7 load(1, XDATA, add(CFA_XSP16, literal(-6)))
          CFI (cfiCond66) ?RET_LOW load(1, XDATA, add(CFA_XSP16, literal(-5)))
          CFI (cfiCond66) ?RET_HIGH load(1, XDATA, add(CFA_XSP16, literal(-4)))
          CFI (cfiCond66) ?BRET_EXT load(1, XDATA, add(CFA_XSP16, literal(-3)))
          CFI (cfiCond66) DPL0 load(1, XDATA, add(CFA_XSP16, literal(-2)))
          CFI (cfiCond66) DPH0 load(1, XDATA, add(CFA_XSP16, literal(-1)))
          CFI (cfiCond66) CFA_SP SP+-6
          CFI (cfiCond66) CFA_XSP16 add(XSP16, 14)
          CFI Block cfiPicker67 Using cfiCommon1
          CFI (cfiPicker67) NoFunction
          CFI (cfiPicker67) Picker
        LCALL     ?Subroutine197 & 0xFFFF
??CrossCallReturnLabel_372:
        INC       DPTR
        INC       DPTR
        INC       DPTR
        RET
          CFI EndBlock cfiCond60
          CFI EndBlock cfiCond61
          CFI EndBlock cfiCond62
          CFI EndBlock cfiCond63
          CFI EndBlock cfiCond64
          CFI EndBlock cfiCond65
          CFI EndBlock cfiCond66
          CFI EndBlock cfiPicker67
// 1026 
// 1027 /*********************************************************************
// 1028  * @fn      zcl_DeviceOperational
// 1029  *
// 1030  * @brief   Used to see whether or not the device can send or respond
// 1031  *          to application level commands.
// 1032  *
// 1033  * @param   srcEP - source endpoint
// 1034  * @param   clusterID - cluster ID
// 1035  * @param   frameType - command type
// 1036  * @param   cmd - command ID
// 1037  *
// 1038  * @return  TRUE if device is operational, FALSE otherwise
// 1039  */

        RSEG BANKED_CODE:HUGECODE:NOROOT(0)
// 1040 static uint8 zcl_DeviceOperational( uint8 srcEP, uint16 clusterID,
zcl_DeviceOperational:
          CFI Block cfiBlock68 Using cfiCommon0
          CFI Function zcl_DeviceOperational
        CODE
// 1041                                     uint8 frameType, uint8 cmd, uint16 profileID )
// 1042 {
        FUNCALL zcl_DeviceOperational, zclFindAttrRec
        LOCFRAME ISTACK, 0, STACK
        LOCFRAME PSTACK, 0, STACK
        LOCFRAME XSTACK, 23, STACK
        LOCFRAME IOVERLAY, 0, STATIC
        LOCFRAME DOVERLAY, 0, STATIC
        ARGFRAME ISTACK, 0, STACK
        ARGFRAME PSTACK, 0, STACK
        ARGFRAME XSTACK, 23, STACK
        ARGFRAME IOVERLAY, 0, STATIC
        ARGFRAME DOVERLAY, 0, STATIC
        FUNCALL zcl_DeviceOperational, zclReadAttrData
        LOCFRAME ISTACK, 0, STACK
        LOCFRAME PSTACK, 0, STACK
        LOCFRAME XSTACK, 23, STACK
        LOCFRAME IOVERLAY, 0, STATIC
        LOCFRAME DOVERLAY, 0, STATIC
        ARGFRAME ISTACK, 0, STACK
        ARGFRAME PSTACK, 0, STACK
        ARGFRAME XSTACK, 23, STACK
        ARGFRAME IOVERLAY, 0, STATIC
        ARGFRAME DOVERLAY, 0, STATIC
        REQUIRE ?V0
        REQUIRE ?V2
        REQUIRE ?V3
        MOV       A,#-0xc
        LCALL     ?BANKED_ENTER_XDATA
          CFI DPH0 load(1, XDATA, add(CFA_XSP16, literal(-1)))
          CFI DPL0 load(1, XDATA, add(CFA_XSP16, literal(-2)))
          CFI ?BRET_EXT load(1, XDATA, add(CFA_XSP16, literal(-3)))
          CFI ?RET_HIGH load(1, XDATA, add(CFA_XSP16, literal(-4)))
          CFI ?RET_LOW load(1, XDATA, add(CFA_XSP16, literal(-5)))
          CFI R7 load(1, XDATA, add(CFA_XSP16, literal(-6)))
          CFI V3 load(1, XDATA, add(CFA_XSP16, literal(-7)))
          CFI V2 load(1, XDATA, add(CFA_XSP16, literal(-8)))
          CFI V1 load(1, XDATA, add(CFA_XSP16, literal(-9)))
          CFI V0 load(1, XDATA, add(CFA_XSP16, literal(-10)))
          CFI VB load(1, XDATA, add(CFA_XSP16, literal(-11)))
          CFI R6 load(1, XDATA, add(CFA_XSP16, literal(-12)))
          CFI CFA_SP SP+0
          CFI CFA_XSP16 add(XSP16, 12)
        ; Saved register size: 12
        ; Auto size: 9
        MOV       A,#-0x9
        LCALL     ?ALLOC_XSTACK8
          CFI CFA_XSP16 add(XSP16, 21)
        MOV       A,R1
        MOV       R6,A
        MOV       A,R4
        MOV       R7,A
// 1043   zclAttrRec_t attrRec;
// 1044   uint8 deviceEnabled = DEVICE_ENABLED; // default value
        MOV       DPL,?XSP + 0
        MOV       DPH,?XSP + 1
        MOV       A,#0x1
        MOVX      @DPTR,A
// 1045 
// 1046   (void)profileID;  // Intentionally unreferenced parameter
// 1047 
// 1048   // If the device is Disabled (DeviceEnabled attribute is set to Disabled), it
// 1049   // cannot send or respond to application level commands, other than commands
// 1050   // to read or write attributes. Note that the Identify cluster cannot be
// 1051   // disabled, and remains functional regardless of this setting.
// 1052   if ( zcl_ProfileCmd( frameType ) && cmd <= ZCL_CMD_WRITE_NO_RSP )
        MOV       A,R7
        JNZ       ??zcl_DeviceOperational_0
        MOV       A,R5
        CLR       C
        SUBB      A,#0x6
        JC        ??zcl_DeviceOperational_1
// 1053   {
// 1054     return ( TRUE );
// 1055   }
// 1056 
// 1057   if ( clusterID == ZCL_CLUSTER_ID_GEN_IDENTIFY )
??zcl_DeviceOperational_0:
        MOV       A,#0x3
        XRL       A,R2
        ORL       A,R3
        JZ        ??zcl_DeviceOperational_1
// 1058   {
// 1059     return ( TRUE );
// 1060   }
// 1061 
// 1062   // Is device enabled?
// 1063   if ( zclFindAttrRec( srcEP, ZCL_CLUSTER_ID_GEN_BASIC,
// 1064                        ATTRID_BASIC_DEVICE_ENABLED, &attrRec ) )
        ; Setup parameters for call to function zclFindAttrRec
        MOV       A,#0x1
        LCALL     ?XSTACK_DISP100_8
        MOV       ?V2,R0
        MOV       ?V3,R1
        MOV       R0,#?V2
        LCALL     ?PUSH_XSTACK_I_TWO
          CFI CFA_XSP16 add(XSP16, 23)
        MOV       R4,#0x12
        MOV       R5,#0x0
        MOV       R2,#0x0
        MOV       R3,#0x0
        MOV       A,R6
        MOV       R1,A
        LCALL     `??zclFindAttrRec::?relay`; Banked call to: zclFindAttrRec
        MOV       A,#0x2
        LCALL     ?DEALLOC_XSTACK8
          CFI CFA_XSP16 add(XSP16, 21)
        MOV       A,R1
        JZ        ??zcl_DeviceOperational_2
// 1065   {
// 1066 #ifdef ZCL_READ
// 1067     zclReadAttrData( &deviceEnabled, &attrRec, NULL );
        ; Setup parameters for call to function zclReadAttrData
        CLR       A
        MOV       ?V2,A
        MOV       ?V3,A
        MOV       R0,#?V2
        LCALL     ?PUSH_XSTACK_I_TWO
          CFI CFA_XSP16 add(XSP16, 23)
        MOV       A,#0x3
        LCALL     ?XSTACK_DISP102_8
        MOV       A,#0x2
        LCALL     ?XSTACK_DISP101_8
        LCALL     `??zclReadAttrData::?relay`; Banked call to: zclReadAttrData
        MOV       A,#0x2
        LCALL     ?DEALLOC_XSTACK8
          CFI CFA_XSP16 add(XSP16, 21)
// 1068 #endif
// 1069   }
// 1070 
// 1071   return ( deviceEnabled == DEVICE_ENABLED ? TRUE : FALSE );
??zcl_DeviceOperational_2:
        MOV       DPL,?XSP + 0
        MOV       DPH,?XSP + 1
        MOVX      A,@DPTR
        XRL       A,#0x1
        JNZ       ??zcl_DeviceOperational_3
??zcl_DeviceOperational_1:
        MOV       R1,#0x1
        SJMP      ??zcl_DeviceOperational_4
??zcl_DeviceOperational_3:
        MOV       R1,#0x0
??zcl_DeviceOperational_4:
        MOV       A,#0x9
        LJMP      ?Subroutine1 & 0xFFFF
// 1072 }
          CFI EndBlock cfiBlock68
// 1073 
// 1074 /*********************************************************************
// 1075  * @fn      zcl_SendCommand
// 1076  *
// 1077  * @brief   Used to send Profile and Cluster Specific Command messages.
// 1078  *
// 1079  *          NOTE: The calling application is responsible for incrementing
// 1080  *                the Sequence Number.
// 1081  *
// 1082  * @param   srcEp - source endpoint
// 1083  * @param   destAddr - destination address
// 1084  * @param   clusterID - cluster ID
// 1085  * @param   cmd - command ID
// 1086  * @param   specific - whether the command is Cluster Specific
// 1087  * @param   direction - client/server direction of the command
// 1088  * @param   disableDefaultRsp - disable Default Response command
// 1089  * @param   manuCode - manufacturer code for proprietary extensions to a profile
// 1090  * @param   seqNumber - identification number for the transaction
// 1091  * @param   cmdFormatLen - length of the command to be sent
// 1092  * @param   cmdFormat - command to be sent
// 1093  *
// 1094  * @return  ZSuccess if OK
// 1095  */

        RSEG BANKED_CODE:HUGECODE:NOROOT(0)
// 1096 ZStatus_t zcl_SendCommand( uint8 srcEP, afAddrType_t *destAddr,
zcl_SendCommand:
          CFI Block cfiBlock69 Using cfiCommon0
          CFI Function zcl_SendCommand
        CODE
// 1097                            uint16 clusterID, uint8 cmd, uint8 specific, uint8 direction,
// 1098                            uint8 disableDefaultRsp, uint16 manuCode, uint8 seqNum,
// 1099                            uint16 cmdFormatLen, uint8 *cmdFormat )
// 1100 {
        FUNCALL zcl_SendCommand, afFindEndPointDesc
        LOCFRAME ISTACK, 0, STACK
        LOCFRAME PSTACK, 0, STACK
        LOCFRAME XSTACK, 30, STACK
        LOCFRAME IOVERLAY, 0, STATIC
        LOCFRAME DOVERLAY, 0, STATIC
        ARGFRAME ISTACK, 0, STACK
        ARGFRAME PSTACK, 0, STACK
        ARGFRAME XSTACK, 30, STACK
        ARGFRAME IOVERLAY, 0, STATIC
        ARGFRAME DOVERLAY, 0, STATIC
        FUNCALL zcl_SendCommand, zclGetClusterOption
        LOCFRAME ISTACK, 0, STACK
        LOCFRAME PSTACK, 0, STACK
        LOCFRAME XSTACK, 30, STACK
        LOCFRAME IOVERLAY, 0, STATIC
        LOCFRAME DOVERLAY, 0, STATIC
        ARGFRAME ISTACK, 0, STACK
        ARGFRAME PSTACK, 0, STACK
        ARGFRAME XSTACK, 30, STACK
        ARGFRAME IOVERLAY, 0, STATIC
        ARGFRAME DOVERLAY, 0, STATIC
        FUNCALL zcl_SendCommand, osal_memset
        LOCFRAME ISTACK, 0, STACK
        LOCFRAME PSTACK, 0, STACK
        LOCFRAME XSTACK, 30, STACK
        LOCFRAME IOVERLAY, 0, STATIC
        LOCFRAME DOVERLAY, 0, STATIC
        ARGFRAME ISTACK, 0, STACK
        ARGFRAME PSTACK, 0, STACK
        ARGFRAME XSTACK, 30, STACK
        ARGFRAME IOVERLAY, 0, STATIC
        ARGFRAME DOVERLAY, 0, STATIC
        FUNCALL zcl_SendCommand, zcl_DeviceOperational
        LOCFRAME ISTACK, 0, STACK
        LOCFRAME PSTACK, 0, STACK
        LOCFRAME XSTACK, 32, STACK
        LOCFRAME IOVERLAY, 0, STATIC
        LOCFRAME DOVERLAY, 0, STATIC
        ARGFRAME ISTACK, 0, STACK
        ARGFRAME PSTACK, 0, STACK
        ARGFRAME XSTACK, 32, STACK
        ARGFRAME IOVERLAY, 0, STATIC
        ARGFRAME DOVERLAY, 0, STATIC
        FUNCALL zcl_SendCommand, osal_mem_alloc
        LOCFRAME ISTACK, 0, STACK
        LOCFRAME PSTACK, 0, STACK
        LOCFRAME XSTACK, 30, STACK
        LOCFRAME IOVERLAY, 0, STATIC
        LOCFRAME DOVERLAY, 0, STATIC
        ARGFRAME ISTACK, 0, STACK
        ARGFRAME PSTACK, 0, STACK
        ARGFRAME XSTACK, 30, STACK
        ARGFRAME IOVERLAY, 0, STATIC
        ARGFRAME DOVERLAY, 0, STATIC
        FUNCALL zcl_SendCommand, zclBuildHdr
        LOCFRAME ISTACK, 0, STACK
        LOCFRAME PSTACK, 0, STACK
        LOCFRAME XSTACK, 30, STACK
        LOCFRAME IOVERLAY, 0, STATIC
        LOCFRAME DOVERLAY, 0, STATIC
        ARGFRAME ISTACK, 0, STACK
        ARGFRAME PSTACK, 0, STACK
        ARGFRAME XSTACK, 30, STACK
        ARGFRAME IOVERLAY, 0, STATIC
        ARGFRAME DOVERLAY, 0, STATIC
        FUNCALL zcl_SendCommand, osal_memcpy
        LOCFRAME ISTACK, 0, STACK
        LOCFRAME PSTACK, 0, STACK
        LOCFRAME XSTACK, 33, STACK
        LOCFRAME IOVERLAY, 0, STATIC
        LOCFRAME DOVERLAY, 0, STATIC
        ARGFRAME ISTACK, 0, STACK
        ARGFRAME PSTACK, 0, STACK
        ARGFRAME XSTACK, 33, STACK
        ARGFRAME IOVERLAY, 0, STATIC
        ARGFRAME DOVERLAY, 0, STATIC
        FUNCALL zcl_SendCommand, AF_DataRequest
        LOCFRAME ISTACK, 0, STACK
        LOCFRAME PSTACK, 0, STACK
        LOCFRAME XSTACK, 39, STACK
        LOCFRAME IOVERLAY, 0, STATIC
        LOCFRAME DOVERLAY, 0, STATIC
        ARGFRAME ISTACK, 0, STACK
        ARGFRAME PSTACK, 0, STACK
        ARGFRAME XSTACK, 39, STACK
        ARGFRAME IOVERLAY, 0, STATIC
        ARGFRAME DOVERLAY, 0, STATIC
        FUNCALL zcl_SendCommand, osal_mem_free
        LOCFRAME ISTACK, 0, STACK
        LOCFRAME PSTACK, 0, STACK
        LOCFRAME XSTACK, 30, STACK
        LOCFRAME IOVERLAY, 0, STATIC
        LOCFRAME DOVERLAY, 0, STATIC
        ARGFRAME ISTACK, 0, STACK
        ARGFRAME PSTACK, 0, STACK
        ARGFRAME XSTACK, 30, STACK
        ARGFRAME IOVERLAY, 0, STATIC
        ARGFRAME DOVERLAY, 0, STATIC
        REQUIRE ?V0
        REQUIRE ?V1
        REQUIRE ?V2
        REQUIRE ?V3
        REQUIRE ?V4
        REQUIRE ?V5
        REQUIRE ?V6
        REQUIRE ?V7
        REQUIRE ?V8
        REQUIRE ?V9
        REQUIRE ?V10
        REQUIRE ?V12
        REQUIRE ?V13
        REQUIRE ?V14
        REQUIRE ?V15
        MOV       A,#-0x18
        LCALL     ?BANKED_ENTER_XDATA
          CFI DPH0 load(1, XDATA, add(CFA_XSP16, literal(-1)))
          CFI DPL0 load(1, XDATA, add(CFA_XSP16, literal(-2)))
          CFI ?BRET_EXT load(1, XDATA, add(CFA_XSP16, literal(-3)))
          CFI ?RET_HIGH load(1, XDATA, add(CFA_XSP16, literal(-4)))
          CFI ?RET_LOW load(1, XDATA, add(CFA_XSP16, literal(-5)))
          CFI R7 load(1, XDATA, add(CFA_XSP16, literal(-6)))
          CFI V15 load(1, XDATA, add(CFA_XSP16, literal(-7)))
          CFI V14 load(1, XDATA, add(CFA_XSP16, literal(-8)))
          CFI V13 load(1, XDATA, add(CFA_XSP16, literal(-9)))
          CFI V12 load(1, XDATA, add(CFA_XSP16, literal(-10)))
          CFI V11 load(1, XDATA, add(CFA_XSP16, literal(-11)))
          CFI V10 load(1, XDATA, add(CFA_XSP16, literal(-12)))
          CFI V9 load(1, XDATA, add(CFA_XSP16, literal(-13)))
          CFI V8 load(1, XDATA, add(CFA_XSP16, literal(-14)))
          CFI V7 load(1, XDATA, add(CFA_XSP16, literal(-15)))
          CFI V6 load(1, XDATA, add(CFA_XSP16, literal(-16)))
          CFI V5 load(1, XDATA, add(CFA_XSP16, literal(-17)))
          CFI V4 load(1, XDATA, add(CFA_XSP16, literal(-18)))
          CFI V3 load(1, XDATA, add(CFA_XSP16, literal(-19)))
          CFI V2 load(1, XDATA, add(CFA_XSP16, literal(-20)))
          CFI V1 load(1, XDATA, add(CFA_XSP16, literal(-21)))
          CFI V0 load(1, XDATA, add(CFA_XSP16, literal(-22)))
          CFI VB load(1, XDATA, add(CFA_XSP16, literal(-23)))
          CFI R6 load(1, XDATA, add(CFA_XSP16, literal(-24)))
          CFI CFA_SP SP+0
          CFI CFA_XSP16 add(XSP16, 24)
        ; Saved register size: 24
        ; Auto size: 6
        MOV       A,#-0x6
        LCALL     ?ALLOC_XSTACK8
          CFI CFA_XSP16 add(XSP16, 30)
        MOV       ?V10,R1
        MOV       ?V14,R2
        MOV       ?V15,R3
        MOV       ?V0,R4
        MOV       ?V1,R5
// 1101   endPointDesc_t *epDesc;
// 1102   zclFrameHdr_t hdr;
// 1103   uint8 *msgBuf;
// 1104   uint16 msgLen;
// 1105   uint8 *pBuf;
// 1106   uint8 options;
// 1107   ZStatus_t status;
// 1108 
// 1109   epDesc = afFindEndPointDesc( srcEP );
        ; Setup parameters for call to function afFindEndPointDesc
        LCALL     `??afFindEndPointDesc::?relay`; Banked call to: afFindEndPointDesc
        MOV       ?V12,R2
        MOV       ?V13,R3
// 1110   if ( epDesc == NULL )
        MOV       A,R2
        ORL       A,?V13
        JNZ       ??zcl_SendCommand_0
// 1111   {
// 1112     return ( ZInvalidParameter ); // EMBEDDED RETURN
        MOV       R1,#0x2
        LJMP      ??zcl_SendCommand_1 & 0xFFFF
// 1113   }
// 1114 
// 1115 #if defined ( INTER_PAN )
// 1116   if ( StubAPS_InterPan( destAddr->panId, destAddr->endPoint ) )
// 1117   {
// 1118     options = AF_TX_OPTIONS_NONE;
// 1119   }
// 1120   else
// 1121 #endif
// 1122   {
// 1123     options = zclGetClusterOption( srcEP, clusterID );
??zcl_SendCommand_0:
        ; Setup parameters for call to function zclGetClusterOption
        MOV       R2,?V0
        MOV       R3,?V1
        MOV       R1,?V10
        LCALL     `??zclGetClusterOption::?relay`; Banked call to: zclGetClusterOption
        MOV       A,R1
        MOV       ?V7,A
// 1124 
// 1125     // The cluster might not have been defined to use security but if this message
// 1126     // is in response to another message that was using APS security this message
// 1127     // will be sent with APS security
// 1128     if ( !( options & AF_EN_SECURITY ) )
        MOV       C,0xE0 /* A   */.6
        JC        ??zcl_SendCommand_2
// 1129     {
// 1130       afIncomingMSGPacket_t *origPkt = zcl_getRawAFMsg();
        MOV       DPTR,#rawAFMsg
        LCALL     ??Subroutine218_0 & 0xFFFF
// 1131 
// 1132       if ( ( origPkt != NULL ) && ( origPkt->SecurityUse == TRUE ) )
??CrossCallReturnLabel_424:
        JZ        ??zcl_SendCommand_2
        MOV       A,R0
        ADD       A,#0x19
        MOV       DPL,A
        CLR       A
        ADDC      A,R1
        MOV       DPH,A
        MOVX      A,@DPTR
        XRL       A,#0x1
        JNZ       ??zcl_SendCommand_2
// 1133       {
// 1134         options |= AF_EN_SECURITY;
        MOV       A,?V7
        SETB      0xE0 /* A   */.6
        MOV       ?V7,A
// 1135       }
// 1136     }
// 1137   }
// 1138 
// 1139   zcl_memset( &hdr, 0, sizeof( zclFrameHdr_t ) );
??zcl_SendCommand_2:
        ; Setup parameters for call to function osal_memset
        MOV       R4,#0x6
        MOV       R5,#0x0
        MOV       R1,#0x0
        MOV       R2,?XSP + 0
        MOV       R3,?XSP + 1
        LCALL     `??osal_memset::?relay`; Banked call to: osal_memset
// 1140 
// 1141   // Not Profile wide command (like READ, WRITE)
// 1142   if ( specific )
        MOV       A,#0x1f
        LCALL     ?XSTACK_DISP0_8
        LCALL     ?Subroutine120 & 0xFFFF
??CrossCallReturnLabel_207:
        JZ        ??zcl_SendCommand_3
// 1143   {
// 1144     hdr.fc.type = ZCL_FRAME_TYPE_SPECIFIC_CMD;
        MOVX      A,@DPTR
        ANL       A,#0xfc
        MOVX      @DPTR,A
        MOVX      A,@DPTR
        ORL       A,#0x1
        SJMP      ??zcl_SendCommand_4
// 1145   }
// 1146   else
// 1147   {
// 1148     hdr.fc.type = ZCL_FRAME_TYPE_PROFILE_CMD;
??zcl_SendCommand_3:
        MOVX      A,@DPTR
        ANL       A,#0xfc
// 1149   }
??zcl_SendCommand_4:
        LCALL     ?Subroutine191 & 0xFFFF
// 1150 
// 1151   if ( ( epDesc->simpleDesc == NULL ) ||
// 1152        ( zcl_DeviceOperational( srcEP, clusterID, hdr.fc.type,
// 1153                                 cmd, epDesc->simpleDesc->AppProfId ) == FALSE ) )
??CrossCallReturnLabel_328:
        INC       DPTR
        LCALL     ??Subroutine217_0 & 0xFFFF
??CrossCallReturnLabel_435:
        JZ        ??zcl_SendCommand_5
        MOV       A,#0x1e
        LCALL     ?XSTACK_DISP0_8
        MOVX      A,@DPTR
        MOV       R6,A
        ; Setup parameters for call to function zcl_DeviceOperational
        MOV       DPL,R0
        MOV       DPH,R1
        INC       DPTR
        LCALL     ?PUSH_XSTACK8_X_TWO
          CFI CFA_XSP16 add(XSP16, 32)
        MOV       A,R6
        MOV       R5,A
        MOV       A,#0x2
        LCALL     ?XSTACK_DISP0_8
        MOVX      A,@DPTR
        ANL       A,#0x3
        MOV       R4,A
        MOV       R2,?V0
        MOV       R3,?V1
        MOV       R1,?V10
        LCALL     `??zcl_DeviceOperational::?relay`; Banked call to: zcl_DeviceOperational
        MOV       A,#0x2
        LCALL     ?DEALLOC_XSTACK8
          CFI CFA_XSP16 add(XSP16, 30)
        MOV       A,R1
        JNZ       ??zcl_SendCommand_6
// 1154   {
// 1155     return ( ZFailure ); // EMBEDDED RETURN
??zcl_SendCommand_5:
        MOV       R1,#0x1
        LJMP      ??zcl_SendCommand_1 & 0xFFFF
// 1156   }
??zcl_SendCommand_6:
        MOV       A,#0x22
        LCALL     ?XSTACK_DISP0_8
        LCALL     ??Subroutine218_0 & 0xFFFF
// 1157 
// 1158   // Fill in the Maufacturer Code
// 1159   if ( manuCode != 0 )
??CrossCallReturnLabel_425:
        JZ        ??CrossCallReturnLabel_516
// 1160   {
// 1161     hdr.fc.manuSpecific = 1;
        MOV       DPL,?XSP + 0
        MOV       DPH,?XSP + 1
        MOVX      A,@DPTR
        ORL       A,#0x4
        MOVX      @DPTR,A
// 1162     hdr.manuCode = manuCode;
        MOV       A,#0x2
        LCALL     ?XSTACK_DISP0_8
        LCALL     ??Subroutine230_0 & 0xFFFF
// 1163   }
// 1164 
// 1165   // Set the Command Direction
// 1166   if ( direction )
??CrossCallReturnLabel_516:
        MOV       A,#0x20
        LCALL     ?XSTACK_DISP0_8
        LCALL     ?Subroutine120 & 0xFFFF
??CrossCallReturnLabel_208:
        JZ        ??zcl_SendCommand_7
// 1167   {
// 1168     hdr.fc.direction = ZCL_FRAME_SERVER_CLIENT_DIR;
        MOVX      A,@DPTR
        ORL       A,#0x8
        SJMP      ??zcl_SendCommand_8
// 1169   }
// 1170   else
// 1171   {
// 1172     hdr.fc.direction = ZCL_FRAME_CLIENT_SERVER_DIR;
??zcl_SendCommand_7:
        MOVX      A,@DPTR
        ANL       A,#0xf7
??zcl_SendCommand_8:
        MOVX      @DPTR,A
// 1173   }
// 1174 
// 1175   // Set the Disable Default Response field
// 1176   if ( disableDefaultRsp )
        MOV       A,#0x21
        LCALL     ?XSTACK_DISP0_8
        LCALL     ?Subroutine120 & 0xFFFF
??CrossCallReturnLabel_209:
        JZ        ??zcl_SendCommand_9
// 1177   {
// 1178     hdr.fc.disableDefaultRsp = 1;
        MOVX      A,@DPTR
        ORL       A,#0x10
        SJMP      ??zcl_SendCommand_10
// 1179   }
// 1180   else
// 1181   {
// 1182     hdr.fc.disableDefaultRsp = 0;
??zcl_SendCommand_9:
        MOVX      A,@DPTR
        ANL       A,#0xef
??zcl_SendCommand_10:
        MOVX      @DPTR,A
// 1183   }
// 1184 
// 1185   // Fill in the Transaction Sequence Number
// 1186   hdr.transSeqNum = seqNum;
        MOV       A,#0x24
        LCALL     ?XSTACK_DISP0_8
        MOVX      A,@DPTR
        PUSH      A
          CFI CFA_SP SP+-1
        MOV       A,#0x4
        LCALL     ?XSTACK_DISP0_8
        POP       A
          CFI CFA_SP SP+0
        MOVX      @DPTR,A
// 1187 
// 1188   // Fill in the command
// 1189   hdr.commandID = cmd;
        MOV       A,#0x5
        LCALL     ?XSTACK_DISP0_8
        MOV       A,R6
        MOVX      @DPTR,A
// 1190 
// 1191   // calculate the needed buffer size
// 1192   msgLen = zclCalcHdrSize( &hdr );
        MOV       R0,#0x3
        MOV       DPL,?XSP + 0
        MOV       DPH,?XSP + 1
        MOVX      A,@DPTR
        ANL       A,#0x4
        JZ        ??zcl_SendCommand_11
        MOV       R0,#0x5
??zcl_SendCommand_11:
        MOV       A,#0x25
        LCALL     ?XSTACK_DISP0_8
        LCALL     ??Subroutine233_0 & 0xFFFF
// 1193   msgLen += cmdFormatLen;
??CrossCallReturnLabel_535:
        MOV       A,R0
        ADD       A,?V8
        MOV       R6,A
        CLR       A
        ADDC      A,?V9
        MOV       R7,A
// 1194 
// 1195   // Allocate the buffer needed
// 1196   msgBuf = zcl_mem_alloc( msgLen );
        ; Setup parameters for call to function osal_mem_alloc
        MOV       A,R6
        MOV       R2,A
        MOV       A,R7
        MOV       R3,A
        LCALL     `??osal_mem_alloc::?relay`; Banked call to: osal_mem_alloc
        MOV       ?V2,R2
        MOV       ?V3,R3
// 1197   if ( msgBuf != NULL )
        MOV       A,R2
        ORL       A,?V3
        JZ        ??zcl_SendCommand_12
// 1198   {
// 1199     // Fill in the ZCL Header
// 1200     pBuf = zclBuildHdr( &hdr, msgBuf );
        ; Setup parameters for call to function zclBuildHdr
        MOV       R4,?V2
        MOV       R5,?V3
        MOV       R2,?XSP + 0
        MOV       R3,?XSP + 1
        LCALL     `??zclBuildHdr::?relay`; Banked call to: zclBuildHdr
// 1201 
// 1202     // Fill in the command frame
// 1203     zcl_memcpy( pBuf, cmdFormat, cmdFormatLen );
        ; Setup parameters for call to function osal_memcpy
        MOV       A,#0x27
        LCALL     ?XSTACK_DISP0_8
        LCALL     ?Subroutine65 & 0xFFFF
??CrossCallReturnLabel_105:
        LCALL     ?PUSH_XSTACK_I_THREE
          CFI CFA_XSP16 add(XSP16, 33)
        MOV       R4,?V8
        MOV       R5,?V9
        LCALL     `??osal_memcpy::?relay`; Banked call to: osal_memcpy
        MOV       A,#0x3
        LCALL     ?DEALLOC_XSTACK8
          CFI CFA_XSP16 add(XSP16, 30)
// 1204 
// 1205     status = AF_DataRequest( destAddr, epDesc, clusterID, msgLen, msgBuf,
// 1206                              &APS_Counter, options, zcl_radius );
        ; Setup parameters for call to function AF_DataRequest
        MOV       DPTR,#zcl_radius
        MOVX      A,@DPTR
        MOV       ?V4,A
        MOV       R0,#?V4
        LCALL     ?PUSH_XSTACK_I_ONE
          CFI CFA_XSP16 add(XSP16, 31)
        MOV       ?V4,#APS_Counter & 0xff
        MOV       ?V5,#(APS_Counter >> 8) & 0xff
        MOV       R0,#?V4
        LCALL     ?PUSH_XSTACK_I_TWO
          CFI CFA_XSP16 add(XSP16, 33)
        MOV       R0,#?V2
        LCALL     ?PUSH_XSTACK_I_TWO
          CFI CFA_XSP16 add(XSP16, 35)
        MOV       ?V4,R6
        MOV       ?V5,R7
        MOV       R0,#?V4
        LCALL     ?PUSH_XSTACK_I_TWO
          CFI CFA_XSP16 add(XSP16, 37)
        MOV       R0,#?V0
        LCALL     ?PUSH_XSTACK_I_TWO
          CFI CFA_XSP16 add(XSP16, 39)
        MOV       R1,?V7
        MOV       R4,?V12
        MOV       R5,?V13
        MOV       R2,?V14
        MOV       R3,?V15
        LCALL     `??AF_DataRequest::?relay`; Banked call to: AF_DataRequest
        MOV       A,#0x9
        LCALL     ?DEALLOC_XSTACK8
          CFI CFA_XSP16 add(XSP16, 30)
        MOV       A,R1
        MOV       R6,A
// 1207     zcl_mem_free ( msgBuf );
        ; Setup parameters for call to function osal_mem_free
        MOV       R2,?V2
        MOV       R3,?V3
        LCALL     `??osal_mem_free::?relay`; Banked call to: osal_mem_free
        SJMP      ??zcl_SendCommand_13
// 1208   }
// 1209   else
// 1210   {
// 1211     status = ZMemError;
??zcl_SendCommand_12:
        MOV       R6,#0x10
// 1212   }
// 1213 
// 1214   return ( status );
??zcl_SendCommand_13:
        MOV       A,R6
        MOV       R1,A
??zcl_SendCommand_1:
        MOV       A,#0x6
        LJMP      ?Subroutine5 & 0xFFFF
// 1215 }
          CFI EndBlock cfiBlock69

        RSEG BANKED_CODE:HUGECODE:NOROOT(0)
?Subroutine120:
          CFI Block cfiCond70 Using cfiCommon0
          CFI Function zcl_SendCommand
          CFI Conditional ??CrossCallReturnLabel_207
          CFI R6 load(1, XDATA, add(CFA_XSP16, literal(-24)))
          CFI VB load(1, XDATA, add(CFA_XSP16, literal(-23)))
          CFI V0 load(1, XDATA, add(CFA_XSP16, literal(-22)))
          CFI V1 load(1, XDATA, add(CFA_XSP16, literal(-21)))
          CFI V2 load(1, XDATA, add(CFA_XSP16, literal(-20)))
          CFI V3 load(1, XDATA, add(CFA_XSP16, literal(-19)))
          CFI V4 load(1, XDATA, add(CFA_XSP16, literal(-18)))
          CFI V5 load(1, XDATA, add(CFA_XSP16, literal(-17)))
          CFI V6 load(1, XDATA, add(CFA_XSP16, literal(-16)))
          CFI V7 load(1, XDATA, add(CFA_XSP16, literal(-15)))
          CFI V8 load(1, XDATA, add(CFA_XSP16, literal(-14)))
          CFI V9 load(1, XDATA, add(CFA_XSP16, literal(-13)))
          CFI V10 load(1, XDATA, add(CFA_XSP16, literal(-12)))
          CFI V11 load(1, XDATA, add(CFA_XSP16, literal(-11)))
          CFI V12 load(1, XDATA, add(CFA_XSP16, literal(-10)))
          CFI V13 load(1, XDATA, add(CFA_XSP16, literal(-9)))
          CFI V14 load(1, XDATA, add(CFA_XSP16, literal(-8)))
          CFI V15 load(1, XDATA, add(CFA_XSP16, literal(-7)))
          CFI R7 load(1, XDATA, add(CFA_XSP16, literal(-6)))
          CFI ?RET_LOW load(1, XDATA, add(CFA_XSP16, literal(-5)))
          CFI ?RET_HIGH load(1, XDATA, add(CFA_XSP16, literal(-4)))
          CFI ?BRET_EXT load(1, XDATA, add(CFA_XSP16, literal(-3)))
          CFI DPL0 load(1, XDATA, add(CFA_XSP16, literal(-2)))
          CFI DPH0 load(1, XDATA, add(CFA_XSP16, literal(-1)))
          CFI CFA_SP SP+-2
          CFI CFA_XSP16 add(XSP16, 30)
          CFI Block cfiCond71 Using cfiCommon0
          CFI (cfiCond71) Function zcl_SendCommand
          CFI (cfiCond71) Conditional ??CrossCallReturnLabel_208
          CFI (cfiCond71) R6 load(1, XDATA, add(CFA_XSP16, literal(-24)))
          CFI (cfiCond71) VB load(1, XDATA, add(CFA_XSP16, literal(-23)))
          CFI (cfiCond71) V0 load(1, XDATA, add(CFA_XSP16, literal(-22)))
          CFI (cfiCond71) V1 load(1, XDATA, add(CFA_XSP16, literal(-21)))
          CFI (cfiCond71) V2 load(1, XDATA, add(CFA_XSP16, literal(-20)))
          CFI (cfiCond71) V3 load(1, XDATA, add(CFA_XSP16, literal(-19)))
          CFI (cfiCond71) V4 load(1, XDATA, add(CFA_XSP16, literal(-18)))
          CFI (cfiCond71) V5 load(1, XDATA, add(CFA_XSP16, literal(-17)))
          CFI (cfiCond71) V6 load(1, XDATA, add(CFA_XSP16, literal(-16)))
          CFI (cfiCond71) V7 load(1, XDATA, add(CFA_XSP16, literal(-15)))
          CFI (cfiCond71) V8 load(1, XDATA, add(CFA_XSP16, literal(-14)))
          CFI (cfiCond71) V9 load(1, XDATA, add(CFA_XSP16, literal(-13)))
          CFI (cfiCond71) V10 load(1, XDATA, add(CFA_XSP16, literal(-12)))
          CFI (cfiCond71) V11 load(1, XDATA, add(CFA_XSP16, literal(-11)))
          CFI (cfiCond71) V12 load(1, XDATA, add(CFA_XSP16, literal(-10)))
          CFI (cfiCond71) V13 load(1, XDATA, add(CFA_XSP16, literal(-9)))
          CFI (cfiCond71) V14 load(1, XDATA, add(CFA_XSP16, literal(-8)))
          CFI (cfiCond71) V15 load(1, XDATA, add(CFA_XSP16, literal(-7)))
          CFI (cfiCond71) R7 load(1, XDATA, add(CFA_XSP16, literal(-6)))
          CFI (cfiCond71) ?RET_LOW load(1, XDATA, add(CFA_XSP16, literal(-5)))
          CFI (cfiCond71) ?RET_HIGH load(1, XDATA, add(CFA_XSP16, literal(-4)))
          CFI (cfiCond71) ?BRET_EXT load(1, XDATA, add(CFA_XSP16, literal(-3)))
          CFI (cfiCond71) DPL0 load(1, XDATA, add(CFA_XSP16, literal(-2)))
          CFI (cfiCond71) DPH0 load(1, XDATA, add(CFA_XSP16, literal(-1)))
          CFI (cfiCond71) CFA_SP SP+-2
          CFI (cfiCond71) CFA_XSP16 add(XSP16, 30)
          CFI Block cfiCond72 Using cfiCommon0
          CFI (cfiCond72) Function zcl_SendCommand
          CFI (cfiCond72) Conditional ??CrossCallReturnLabel_209
          CFI (cfiCond72) R6 load(1, XDATA, add(CFA_XSP16, literal(-24)))
          CFI (cfiCond72) VB load(1, XDATA, add(CFA_XSP16, literal(-23)))
          CFI (cfiCond72) V0 load(1, XDATA, add(CFA_XSP16, literal(-22)))
          CFI (cfiCond72) V1 load(1, XDATA, add(CFA_XSP16, literal(-21)))
          CFI (cfiCond72) V2 load(1, XDATA, add(CFA_XSP16, literal(-20)))
          CFI (cfiCond72) V3 load(1, XDATA, add(CFA_XSP16, literal(-19)))
          CFI (cfiCond72) V4 load(1, XDATA, add(CFA_XSP16, literal(-18)))
          CFI (cfiCond72) V5 load(1, XDATA, add(CFA_XSP16, literal(-17)))
          CFI (cfiCond72) V6 load(1, XDATA, add(CFA_XSP16, literal(-16)))
          CFI (cfiCond72) V7 load(1, XDATA, add(CFA_XSP16, literal(-15)))
          CFI (cfiCond72) V8 load(1, XDATA, add(CFA_XSP16, literal(-14)))
          CFI (cfiCond72) V9 load(1, XDATA, add(CFA_XSP16, literal(-13)))
          CFI (cfiCond72) V10 load(1, XDATA, add(CFA_XSP16, literal(-12)))
          CFI (cfiCond72) V11 load(1, XDATA, add(CFA_XSP16, literal(-11)))
          CFI (cfiCond72) V12 load(1, XDATA, add(CFA_XSP16, literal(-10)))
          CFI (cfiCond72) V13 load(1, XDATA, add(CFA_XSP16, literal(-9)))
          CFI (cfiCond72) V14 load(1, XDATA, add(CFA_XSP16, literal(-8)))
          CFI (cfiCond72) V15 load(1, XDATA, add(CFA_XSP16, literal(-7)))
          CFI (cfiCond72) R7 load(1, XDATA, add(CFA_XSP16, literal(-6)))
          CFI (cfiCond72) ?RET_LOW load(1, XDATA, add(CFA_XSP16, literal(-5)))
          CFI (cfiCond72) ?RET_HIGH load(1, XDATA, add(CFA_XSP16, literal(-4)))
          CFI (cfiCond72) ?BRET_EXT load(1, XDATA, add(CFA_XSP16, literal(-3)))
          CFI (cfiCond72) DPL0 load(1, XDATA, add(CFA_XSP16, literal(-2)))
          CFI (cfiCond72) DPH0 load(1, XDATA, add(CFA_XSP16, literal(-1)))
          CFI (cfiCond72) CFA_SP SP+-2
          CFI (cfiCond72) CFA_XSP16 add(XSP16, 30)
          CFI Block cfiPicker73 Using cfiCommon1
          CFI (cfiPicker73) NoFunction
          CFI (cfiPicker73) Picker
        LCALL     ?Subroutine192 & 0xFFFF
??CrossCallReturnLabel_331:
        RET
          CFI EndBlock cfiCond70
          CFI EndBlock cfiCond71
          CFI EndBlock cfiCond72
          CFI EndBlock cfiPicker73

        RSEG BANKED_CODE:HUGECODE:NOROOT(0)
?Subroutine192:
          CFI Block cfiCond74 Using cfiCommon0
          CFI Function zcl_SendCommand
          CFI Conditional ??CrossCallReturnLabel_331, ??CrossCallReturnLabel_207
          CFI R6 load(1, XDATA, add(CFA_XSP16, literal(-24)))
          CFI VB load(1, XDATA, add(CFA_XSP16, literal(-23)))
          CFI V0 load(1, XDATA, add(CFA_XSP16, literal(-22)))
          CFI V1 load(1, XDATA, add(CFA_XSP16, literal(-21)))
          CFI V2 load(1, XDATA, add(CFA_XSP16, literal(-20)))
          CFI V3 load(1, XDATA, add(CFA_XSP16, literal(-19)))
          CFI V4 load(1, XDATA, add(CFA_XSP16, literal(-18)))
          CFI V5 load(1, XDATA, add(CFA_XSP16, literal(-17)))
          CFI V6 load(1, XDATA, add(CFA_XSP16, literal(-16)))
          CFI V7 load(1, XDATA, add(CFA_XSP16, literal(-15)))
          CFI V8 load(1, XDATA, add(CFA_XSP16, literal(-14)))
          CFI V9 load(1, XDATA, add(CFA_XSP16, literal(-13)))
          CFI V10 load(1, XDATA, add(CFA_XSP16, literal(-12)))
          CFI V11 load(1, XDATA, add(CFA_XSP16, literal(-11)))
          CFI V12 load(1, XDATA, add(CFA_XSP16, literal(-10)))
          CFI V13 load(1, XDATA, add(CFA_XSP16, literal(-9)))
          CFI V14 load(1, XDATA, add(CFA_XSP16, literal(-8)))
          CFI V15 load(1, XDATA, add(CFA_XSP16, literal(-7)))
          CFI R7 load(1, XDATA, add(CFA_XSP16, literal(-6)))
          CFI ?RET_LOW load(1, XDATA, add(CFA_XSP16, literal(-5)))
          CFI ?RET_HIGH load(1, XDATA, add(CFA_XSP16, literal(-4)))
          CFI ?BRET_EXT load(1, XDATA, add(CFA_XSP16, literal(-3)))
          CFI DPL0 load(1, XDATA, add(CFA_XSP16, literal(-2)))
          CFI DPH0 load(1, XDATA, add(CFA_XSP16, literal(-1)))
          CFI CFA_SP SP+-4
          CFI CFA_XSP16 add(XSP16, 30)
          CFI Block cfiCond75 Using cfiCommon0
          CFI (cfiCond75) Function zcl_SendCommand
          CFI (cfiCond75) Conditional ??CrossCallReturnLabel_331, ??CrossCallReturnLabel_208
          CFI (cfiCond75) R6 load(1, XDATA, add(CFA_XSP16, literal(-24)))
          CFI (cfiCond75) VB load(1, XDATA, add(CFA_XSP16, literal(-23)))
          CFI (cfiCond75) V0 load(1, XDATA, add(CFA_XSP16, literal(-22)))
          CFI (cfiCond75) V1 load(1, XDATA, add(CFA_XSP16, literal(-21)))
          CFI (cfiCond75) V2 load(1, XDATA, add(CFA_XSP16, literal(-20)))
          CFI (cfiCond75) V3 load(1, XDATA, add(CFA_XSP16, literal(-19)))
          CFI (cfiCond75) V4 load(1, XDATA, add(CFA_XSP16, literal(-18)))
          CFI (cfiCond75) V5 load(1, XDATA, add(CFA_XSP16, literal(-17)))
          CFI (cfiCond75) V6 load(1, XDATA, add(CFA_XSP16, literal(-16)))
          CFI (cfiCond75) V7 load(1, XDATA, add(CFA_XSP16, literal(-15)))
          CFI (cfiCond75) V8 load(1, XDATA, add(CFA_XSP16, literal(-14)))
          CFI (cfiCond75) V9 load(1, XDATA, add(CFA_XSP16, literal(-13)))
          CFI (cfiCond75) V10 load(1, XDATA, add(CFA_XSP16, literal(-12)))
          CFI (cfiCond75) V11 load(1, XDATA, add(CFA_XSP16, literal(-11)))
          CFI (cfiCond75) V12 load(1, XDATA, add(CFA_XSP16, literal(-10)))
          CFI (cfiCond75) V13 load(1, XDATA, add(CFA_XSP16, literal(-9)))
          CFI (cfiCond75) V14 load(1, XDATA, add(CFA_XSP16, literal(-8)))
          CFI (cfiCond75) V15 load(1, XDATA, add(CFA_XSP16, literal(-7)))
          CFI (cfiCond75) R7 load(1, XDATA, add(CFA_XSP16, literal(-6)))
          CFI (cfiCond75) ?RET_LOW load(1, XDATA, add(CFA_XSP16, literal(-5)))
          CFI (cfiCond75) ?RET_HIGH load(1, XDATA, add(CFA_XSP16, literal(-4)))
          CFI (cfiCond75) ?BRET_EXT load(1, XDATA, add(CFA_XSP16, literal(-3)))
          CFI (cfiCond75) DPL0 load(1, XDATA, add(CFA_XSP16, literal(-2)))
          CFI (cfiCond75) DPH0 load(1, XDATA, add(CFA_XSP16, literal(-1)))
          CFI (cfiCond75) CFA_SP SP+-4
          CFI (cfiCond75) CFA_XSP16 add(XSP16, 30)
          CFI Block cfiCond76 Using cfiCommon0
          CFI (cfiCond76) Function zcl_SendCommand
          CFI (cfiCond76) Conditional ??CrossCallReturnLabel_331, ??CrossCallReturnLabel_209
          CFI (cfiCond76) R6 load(1, XDATA, add(CFA_XSP16, literal(-24)))
          CFI (cfiCond76) VB load(1, XDATA, add(CFA_XSP16, literal(-23)))
          CFI (cfiCond76) V0 load(1, XDATA, add(CFA_XSP16, literal(-22)))
          CFI (cfiCond76) V1 load(1, XDATA, add(CFA_XSP16, literal(-21)))
          CFI (cfiCond76) V2 load(1, XDATA, add(CFA_XSP16, literal(-20)))
          CFI (cfiCond76) V3 load(1, XDATA, add(CFA_XSP16, literal(-19)))
          CFI (cfiCond76) V4 load(1, XDATA, add(CFA_XSP16, literal(-18)))
          CFI (cfiCond76) V5 load(1, XDATA, add(CFA_XSP16, literal(-17)))
          CFI (cfiCond76) V6 load(1, XDATA, add(CFA_XSP16, literal(-16)))
          CFI (cfiCond76) V7 load(1, XDATA, add(CFA_XSP16, literal(-15)))
          CFI (cfiCond76) V8 load(1, XDATA, add(CFA_XSP16, literal(-14)))
          CFI (cfiCond76) V9 load(1, XDATA, add(CFA_XSP16, literal(-13)))
          CFI (cfiCond76) V10 load(1, XDATA, add(CFA_XSP16, literal(-12)))
          CFI (cfiCond76) V11 load(1, XDATA, add(CFA_XSP16, literal(-11)))
          CFI (cfiCond76) V12 load(1, XDATA, add(CFA_XSP16, literal(-10)))
          CFI (cfiCond76) V13 load(1, XDATA, add(CFA_XSP16, literal(-9)))
          CFI (cfiCond76) V14 load(1, XDATA, add(CFA_XSP16, literal(-8)))
          CFI (cfiCond76) V15 load(1, XDATA, add(CFA_XSP16, literal(-7)))
          CFI (cfiCond76) R7 load(1, XDATA, add(CFA_XSP16, literal(-6)))
          CFI (cfiCond76) ?RET_LOW load(1, XDATA, add(CFA_XSP16, literal(-5)))
          CFI (cfiCond76) ?RET_HIGH load(1, XDATA, add(CFA_XSP16, literal(-4)))
          CFI (cfiCond76) ?BRET_EXT load(1, XDATA, add(CFA_XSP16, literal(-3)))
          CFI (cfiCond76) DPL0 load(1, XDATA, add(CFA_XSP16, literal(-2)))
          CFI (cfiCond76) DPH0 load(1, XDATA, add(CFA_XSP16, literal(-1)))
          CFI (cfiCond76) CFA_SP SP+-4
          CFI (cfiCond76) CFA_XSP16 add(XSP16, 30)
          CFI Block cfiCond77 Using cfiCommon0
          CFI (cfiCond77) Function zcl_SendDefaultRspCmd
          CFI (cfiCond77) Conditional ??CrossCallReturnLabel_330, ??CrossCallReturnLabel_363
          CFI (cfiCond77) R6 load(1, XDATA, add(CFA_XSP16, literal(-10)))
          CFI (cfiCond77) VB load(1, XDATA, add(CFA_XSP16, literal(-9)))
          CFI (cfiCond77) V0 load(1, XDATA, add(CFA_XSP16, literal(-8)))
          CFI (cfiCond77) V1 load(1, XDATA, add(CFA_XSP16, literal(-7)))
          CFI (cfiCond77) R7 load(1, XDATA, add(CFA_XSP16, literal(-6)))
          CFI (cfiCond77) ?RET_LOW load(1, XDATA, add(CFA_XSP16, literal(-5)))
          CFI (cfiCond77) ?RET_HIGH load(1, XDATA, add(CFA_XSP16, literal(-4)))
          CFI (cfiCond77) ?BRET_EXT load(1, XDATA, add(CFA_XSP16, literal(-3)))
          CFI (cfiCond77) DPL0 load(1, XDATA, add(CFA_XSP16, literal(-2)))
          CFI (cfiCond77) DPH0 load(1, XDATA, add(CFA_XSP16, literal(-1)))
          CFI (cfiCond77) CFA_SP SP+-4
          CFI (cfiCond77) CFA_XSP16 add(XSP16, 12)
          CFI Block cfiCond78 Using cfiCommon0
          CFI (cfiCond78) Function zcl_SendDiscoverCmdsCmd
          CFI (cfiCond78) Conditional ??CrossCallReturnLabel_330, ??CrossCallReturnLabel_364
          CFI (cfiCond78) R6 load(1, XDATA, add(CFA_XSP16, literal(-12)))
          CFI (cfiCond78) VB load(1, XDATA, add(CFA_XSP16, literal(-11)))
          CFI (cfiCond78) V0 load(1, XDATA, add(CFA_XSP16, literal(-10)))
          CFI (cfiCond78) V1 load(1, XDATA, add(CFA_XSP16, literal(-9)))
          CFI (cfiCond78) V2 load(1, XDATA, add(CFA_XSP16, literal(-8)))
          CFI (cfiCond78) V3 load(1, XDATA, add(CFA_XSP16, literal(-7)))
          CFI (cfiCond78) R7 load(1, XDATA, add(CFA_XSP16, literal(-6)))
          CFI (cfiCond78) ?RET_LOW load(1, XDATA, add(CFA_XSP16, literal(-5)))
          CFI (cfiCond78) ?RET_HIGH load(1, XDATA, add(CFA_XSP16, literal(-4)))
          CFI (cfiCond78) ?BRET_EXT load(1, XDATA, add(CFA_XSP16, literal(-3)))
          CFI (cfiCond78) DPL0 load(1, XDATA, add(CFA_XSP16, literal(-2)))
          CFI (cfiCond78) DPH0 load(1, XDATA, add(CFA_XSP16, literal(-1)))
          CFI (cfiCond78) CFA_SP SP+-4
          CFI (cfiCond78) CFA_XSP16 add(XSP16, 14)
          CFI Block cfiCond79 Using cfiCommon0
          CFI (cfiCond79) Function zcl_SendDiscoverAttrsExt
          CFI (cfiCond79) Conditional ??CrossCallReturnLabel_330, ??CrossCallReturnLabel_365
          CFI (cfiCond79) R6 load(1, XDATA, add(CFA_XSP16, literal(-12)))
          CFI (cfiCond79) VB load(1, XDATA, add(CFA_XSP16, literal(-11)))
          CFI (cfiCond79) V0 load(1, XDATA, add(CFA_XSP16, literal(-10)))
          CFI (cfiCond79) V1 load(1, XDATA, add(CFA_XSP16, literal(-9)))
          CFI (cfiCond79) V2 load(1, XDATA, add(CFA_XSP16, literal(-8)))
          CFI (cfiCond79) V3 load(1, XDATA, add(CFA_XSP16, literal(-7)))
          CFI (cfiCond79) R7 load(1, XDATA, add(CFA_XSP16, literal(-6)))
          CFI (cfiCond79) ?RET_LOW load(1, XDATA, add(CFA_XSP16, literal(-5)))
          CFI (cfiCond79) ?RET_HIGH load(1, XDATA, add(CFA_XSP16, literal(-4)))
          CFI (cfiCond79) ?BRET_EXT load(1, XDATA, add(CFA_XSP16, literal(-3)))
          CFI (cfiCond79) DPL0 load(1, XDATA, add(CFA_XSP16, literal(-2)))
          CFI (cfiCond79) DPH0 load(1, XDATA, add(CFA_XSP16, literal(-1)))
          CFI (cfiCond79) CFA_SP SP+-4
          CFI (cfiCond79) CFA_XSP16 add(XSP16, 15)
          CFI Block cfiCond80 Using cfiCommon0
          CFI (cfiCond80) Function zcl_ProcessMessageMSG
          CFI (cfiCond80) Conditional ??CrossCallReturnLabel_332, ??CrossCallReturnLabel_307, ??CrossCallReturnLabel_164
          CFI (cfiCond80) R6 load(1, XDATA, add(CFA_XSP16, literal(-15)))
          CFI (cfiCond80) VB load(1, XDATA, add(CFA_XSP16, literal(-14)))
          CFI (cfiCond80) V0 load(1, XDATA, add(CFA_XSP16, literal(-13)))
          CFI (cfiCond80) V1 load(1, XDATA, add(CFA_XSP16, literal(-12)))
          CFI (cfiCond80) V2 load(1, XDATA, add(CFA_XSP16, literal(-11)))
          CFI (cfiCond80) V3 load(1, XDATA, add(CFA_XSP16, literal(-10)))
          CFI (cfiCond80) V4 load(1, XDATA, add(CFA_XSP16, literal(-9)))
          CFI (cfiCond80) V5 load(1, XDATA, add(CFA_XSP16, literal(-8)))
          CFI (cfiCond80) V6 load(1, XDATA, add(CFA_XSP16, literal(-7)))
          CFI (cfiCond80) R7 load(1, XDATA, add(CFA_XSP16, literal(-6)))
          CFI (cfiCond80) ?RET_LOW load(1, XDATA, add(CFA_XSP16, literal(-5)))
          CFI (cfiCond80) ?RET_HIGH load(1, XDATA, add(CFA_XSP16, literal(-4)))
          CFI (cfiCond80) ?BRET_EXT load(1, XDATA, add(CFA_XSP16, literal(-3)))
          CFI (cfiCond80) DPL0 load(1, XDATA, add(CFA_XSP16, literal(-2)))
          CFI (cfiCond80) DPH0 load(1, XDATA, add(CFA_XSP16, literal(-1)))
          CFI (cfiCond80) CFA_SP SP+-6
          CFI (cfiCond80) CFA_XSP16 add(XSP16, 36)
          CFI Block cfiCond81 Using cfiCommon0
          CFI (cfiCond81) Function zcl_ProcessMessageMSG
          CFI (cfiCond81) Conditional ??CrossCallReturnLabel_332, ??CrossCallReturnLabel_307, ??CrossCallReturnLabel_165
          CFI (cfiCond81) R6 load(1, XDATA, add(CFA_XSP16, literal(-15)))
          CFI (cfiCond81) VB load(1, XDATA, add(CFA_XSP16, literal(-14)))
          CFI (cfiCond81) V0 load(1, XDATA, add(CFA_XSP16, literal(-13)))
          CFI (cfiCond81) V1 load(1, XDATA, add(CFA_XSP16, literal(-12)))
          CFI (cfiCond81) V2 load(1, XDATA, add(CFA_XSP16, literal(-11)))
          CFI (cfiCond81) V3 load(1, XDATA, add(CFA_XSP16, literal(-10)))
          CFI (cfiCond81) V4 load(1, XDATA, add(CFA_XSP16, literal(-9)))
          CFI (cfiCond81) V5 load(1, XDATA, add(CFA_XSP16, literal(-8)))
          CFI (cfiCond81) V6 load(1, XDATA, add(CFA_XSP16, literal(-7)))
          CFI (cfiCond81) R7 load(1, XDATA, add(CFA_XSP16, literal(-6)))
          CFI (cfiCond81) ?RET_LOW load(1, XDATA, add(CFA_XSP16, literal(-5)))
          CFI (cfiCond81) ?RET_HIGH load(1, XDATA, add(CFA_XSP16, literal(-4)))
          CFI (cfiCond81) ?BRET_EXT load(1, XDATA, add(CFA_XSP16, literal(-3)))
          CFI (cfiCond81) DPL0 load(1, XDATA, add(CFA_XSP16, literal(-2)))
          CFI (cfiCond81) DPH0 load(1, XDATA, add(CFA_XSP16, literal(-1)))
          CFI (cfiCond81) CFA_SP SP+-6
          CFI (cfiCond81) CFA_XSP16 add(XSP16, 36)
          CFI Block cfiCond82 Using cfiCommon0
          CFI (cfiCond82) Function zclProcessInDiscCmd
          CFI (cfiCond82) Conditional ??CrossCallReturnLabel_332, ??CrossCallReturnLabel_308, ??CrossCallReturnLabel_205
          CFI (cfiCond82) R6 load(1, XDATA, add(CFA_XSP16, literal(-20)))
          CFI (cfiCond82) VB load(1, XDATA, add(CFA_XSP16, literal(-19)))
          CFI (cfiCond82) V0 load(1, XDATA, add(CFA_XSP16, literal(-18)))
          CFI (cfiCond82) V1 load(1, XDATA, add(CFA_XSP16, literal(-17)))
          CFI (cfiCond82) V2 load(1, XDATA, add(CFA_XSP16, literal(-16)))
          CFI (cfiCond82) V3 load(1, XDATA, add(CFA_XSP16, literal(-15)))
          CFI (cfiCond82) V4 load(1, XDATA, add(CFA_XSP16, literal(-14)))
          CFI (cfiCond82) V5 load(1, XDATA, add(CFA_XSP16, literal(-13)))
          CFI (cfiCond82) V6 load(1, XDATA, add(CFA_XSP16, literal(-12)))
          CFI (cfiCond82) V7 load(1, XDATA, add(CFA_XSP16, literal(-11)))
          CFI (cfiCond82) V8 load(1, XDATA, add(CFA_XSP16, literal(-10)))
          CFI (cfiCond82) V9 load(1, XDATA, add(CFA_XSP16, literal(-9)))
          CFI (cfiCond82) V10 load(1, XDATA, add(CFA_XSP16, literal(-8)))
          CFI (cfiCond82) V11 load(1, XDATA, add(CFA_XSP16, literal(-7)))
          CFI (cfiCond82) R7 load(1, XDATA, add(CFA_XSP16, literal(-6)))
          CFI (cfiCond82) ?RET_LOW load(1, XDATA, add(CFA_XSP16, literal(-5)))
          CFI (cfiCond82) ?RET_HIGH load(1, XDATA, add(CFA_XSP16, literal(-4)))
          CFI (cfiCond82) ?BRET_EXT load(1, XDATA, add(CFA_XSP16, literal(-3)))
          CFI (cfiCond82) DPL0 load(1, XDATA, add(CFA_XSP16, literal(-2)))
          CFI (cfiCond82) DPH0 load(1, XDATA, add(CFA_XSP16, literal(-1)))
          CFI (cfiCond82) CFA_SP SP+-6
          CFI (cfiCond82) CFA_XSP16 add(XSP16, 30)
          CFI Block cfiCond83 Using cfiCommon0
          CFI (cfiCond83) Function zclProcessInDiscCmd
          CFI (cfiCond83) Conditional ??CrossCallReturnLabel_332, ??CrossCallReturnLabel_308, ??CrossCallReturnLabel_206
          CFI (cfiCond83) R6 load(1, XDATA, add(CFA_XSP16, literal(-20)))
          CFI (cfiCond83) VB load(1, XDATA, add(CFA_XSP16, literal(-19)))
          CFI (cfiCond83) V0 load(1, XDATA, add(CFA_XSP16, literal(-18)))
          CFI (cfiCond83) V1 load(1, XDATA, add(CFA_XSP16, literal(-17)))
          CFI (cfiCond83) V2 load(1, XDATA, add(CFA_XSP16, literal(-16)))
          CFI (cfiCond83) V3 load(1, XDATA, add(CFA_XSP16, literal(-15)))
          CFI (cfiCond83) V4 load(1, XDATA, add(CFA_XSP16, literal(-14)))
          CFI (cfiCond83) V5 load(1, XDATA, add(CFA_XSP16, literal(-13)))
          CFI (cfiCond83) V6 load(1, XDATA, add(CFA_XSP16, literal(-12)))
          CFI (cfiCond83) V7 load(1, XDATA, add(CFA_XSP16, literal(-11)))
          CFI (cfiCond83) V8 load(1, XDATA, add(CFA_XSP16, literal(-10)))
          CFI (cfiCond83) V9 load(1, XDATA, add(CFA_XSP16, literal(-9)))
          CFI (cfiCond83) V10 load(1, XDATA, add(CFA_XSP16, literal(-8)))
          CFI (cfiCond83) V11 load(1, XDATA, add(CFA_XSP16, literal(-7)))
          CFI (cfiCond83) R7 load(1, XDATA, add(CFA_XSP16, literal(-6)))
          CFI (cfiCond83) ?RET_LOW load(1, XDATA, add(CFA_XSP16, literal(-5)))
          CFI (cfiCond83) ?RET_HIGH load(1, XDATA, add(CFA_XSP16, literal(-4)))
          CFI (cfiCond83) ?BRET_EXT load(1, XDATA, add(CFA_XSP16, literal(-3)))
          CFI (cfiCond83) DPL0 load(1, XDATA, add(CFA_XSP16, literal(-2)))
          CFI (cfiCond83) DPH0 load(1, XDATA, add(CFA_XSP16, literal(-1)))
          CFI (cfiCond83) CFA_SP SP+-6
          CFI (cfiCond83) CFA_XSP16 add(XSP16, 30)
          CFI Block cfiPicker84 Using cfiCommon1
          CFI (cfiPicker84) NoFunction
          CFI (cfiPicker84) Picker
        MOVX      A,@DPTR
        MOV       DPL,?XSP + 0
        MOV       DPH,?XSP + 1
        RET
          CFI EndBlock cfiCond74
          CFI EndBlock cfiCond75
          CFI EndBlock cfiCond76
          CFI EndBlock cfiCond77
          CFI EndBlock cfiCond78
          CFI EndBlock cfiCond79
          CFI EndBlock cfiCond80
          CFI EndBlock cfiCond81
          CFI EndBlock cfiCond82
          CFI EndBlock cfiCond83
          CFI EndBlock cfiPicker84
// 1216 
// 1217 #ifdef ZCL_READ
// 1218 /*********************************************************************
// 1219  * @fn      zcl_SendRead
// 1220  *
// 1221  * @brief   Send a Read command
// 1222  *
// 1223  * @param   srcEP - Application's endpoint
// 1224  * @param   dstAddr - destination address
// 1225  * @param   clusterID - cluster ID
// 1226  * @param   readCmd - read command to be sent
// 1227  * @param   direction - direction of the command
// 1228  * @param   seqNum - transaction sequence number
// 1229  *
// 1230  * @return  ZSuccess if OK
// 1231  */

        RSEG BANKED_CODE:HUGECODE:NOROOT(0)
// 1232 ZStatus_t zcl_SendRead( uint8 srcEP, afAddrType_t *dstAddr,
zcl_SendRead:
          CFI Block cfiBlock85 Using cfiCommon0
          CFI Function zcl_SendRead
        CODE
// 1233                         uint16 clusterID, zclReadCmd_t *readCmd,
// 1234                         uint8 direction, uint8 disableDefaultRsp, uint8 seqNum)
// 1235 {
        FUNCALL zcl_SendRead, osal_mem_alloc
        LOCFRAME ISTACK, 0, STACK
        LOCFRAME PSTACK, 0, STACK
        LOCFRAME XSTACK, 20, STACK
        LOCFRAME IOVERLAY, 0, STATIC
        LOCFRAME DOVERLAY, 0, STATIC
        ARGFRAME ISTACK, 0, STACK
        ARGFRAME PSTACK, 0, STACK
        ARGFRAME XSTACK, 20, STACK
        ARGFRAME IOVERLAY, 0, STATIC
        ARGFRAME DOVERLAY, 0, STATIC
        FUNCALL zcl_SendRead, zcl_SendCommand
        LOCFRAME ISTACK, 0, STACK
        LOCFRAME PSTACK, 0, STACK
        LOCFRAME XSTACK, 31, STACK
        LOCFRAME IOVERLAY, 0, STATIC
        LOCFRAME DOVERLAY, 0, STATIC
        ARGFRAME ISTACK, 0, STACK
        ARGFRAME PSTACK, 0, STACK
        ARGFRAME XSTACK, 31, STACK
        ARGFRAME IOVERLAY, 0, STATIC
        ARGFRAME DOVERLAY, 0, STATIC
        FUNCALL zcl_SendRead, osal_mem_free
        LOCFRAME ISTACK, 0, STACK
        LOCFRAME PSTACK, 0, STACK
        LOCFRAME XSTACK, 20, STACK
        LOCFRAME IOVERLAY, 0, STATIC
        LOCFRAME DOVERLAY, 0, STATIC
        ARGFRAME ISTACK, 0, STACK
        ARGFRAME PSTACK, 0, STACK
        ARGFRAME XSTACK, 20, STACK
        ARGFRAME IOVERLAY, 0, STATIC
        ARGFRAME DOVERLAY, 0, STATIC
        REQUIRE ?V0
        REQUIRE ?V1
        REQUIRE ?V2
        REQUIRE ?V3
        REQUIRE ?V4
        REQUIRE ?V5
        REQUIRE ?V6
        REQUIRE ?V7
        REQUIRE ?V8
        REQUIRE ?V9
        REQUIRE ?V10
        REQUIRE ?V11
        MOV       A,#-0x14
        LCALL     ?BANKED_ENTER_XDATA
          CFI DPH0 load(1, XDATA, add(CFA_XSP16, literal(-1)))
          CFI DPL0 load(1, XDATA, add(CFA_XSP16, literal(-2)))
          CFI ?BRET_EXT load(1, XDATA, add(CFA_XSP16, literal(-3)))
          CFI ?RET_HIGH load(1, XDATA, add(CFA_XSP16, literal(-4)))
          CFI ?RET_LOW load(1, XDATA, add(CFA_XSP16, literal(-5)))
          CFI R7 load(1, XDATA, add(CFA_XSP16, literal(-6)))
          CFI V11 load(1, XDATA, add(CFA_XSP16, literal(-7)))
          CFI V10 load(1, XDATA, add(CFA_XSP16, literal(-8)))
          CFI V9 load(1, XDATA, add(CFA_XSP16, literal(-9)))
          CFI V8 load(1, XDATA, add(CFA_XSP16, literal(-10)))
          CFI V7 load(1, XDATA, add(CFA_XSP16, literal(-11)))
          CFI V6 load(1, XDATA, add(CFA_XSP16, literal(-12)))
          CFI V5 load(1, XDATA, add(CFA_XSP16, literal(-13)))
          CFI V4 load(1, XDATA, add(CFA_XSP16, literal(-14)))
          CFI V3 load(1, XDATA, add(CFA_XSP16, literal(-15)))
          CFI V2 load(1, XDATA, add(CFA_XSP16, literal(-16)))
          CFI V1 load(1, XDATA, add(CFA_XSP16, literal(-17)))
          CFI V0 load(1, XDATA, add(CFA_XSP16, literal(-18)))
          CFI VB load(1, XDATA, add(CFA_XSP16, literal(-19)))
          CFI R6 load(1, XDATA, add(CFA_XSP16, literal(-20)))
          CFI CFA_SP SP+0
          CFI CFA_XSP16 add(XSP16, 20)
        ; Saved register size: 20
        ; Auto size: 0
        MOV       ?V2,R1
        MOV       ?V8,R2
        MOV       ?V9,R3
        MOV       A,R4
        MOV       R6,A
        MOV       A,R5
        MOV       R7,A
        MOV       A,#0x14
        LCALL     ?XSTACK_DISP0_8
        LCALL     ?Subroutine62 & 0xFFFF
// 1236   uint16 dataLen;
// 1237   uint8 *buf;
// 1238   uint8 *pBuf;
// 1239   ZStatus_t status;
// 1240 
// 1241   dataLen = readCmd->numAttr * 2; // Attribute ID
??CrossCallReturnLabel_88:
        ADD       A,0xE0 /* A   */
        MOV       ?V6,A
        CLR       A
        RLC       A
        MOV       ?V7,A
// 1242 
// 1243   buf = zcl_mem_alloc( dataLen );
        ; Setup parameters for call to function osal_mem_alloc
        MOV       R2,?V6
        MOV       R3,A
        LCALL     `??osal_mem_alloc::?relay`; Banked call to: osal_mem_alloc
        MOV       ?V0,R2
        MOV       ?V1,R3
// 1244   if ( buf != NULL )
        MOV       A,R2
        ORL       A,?V1
        JNZ       $+5
        LJMP      ??zcl_SendRead_0 & 0xFFFF
// 1245   {
// 1246     uint8 i;
// 1247 
// 1248     // Load the buffer - serially
// 1249     pBuf = buf;
        MOV       R0,?V0
        MOV       R1,?V1
// 1250     for (i = 0; i < readCmd->numAttr; i++)
        MOV       R4,#0x0
        SJMP      ??zcl_SendRead_1
// 1251     {
// 1252       *pBuf++ = LO_UINT16( readCmd->attrID[i] );
??zcl_SendRead_2:
        MOV       A,R4
        ADD       A,0xE0 /* A   */
        MOV       R2,A
        CLR       A
        RLC       A
        MOV       R3,A
        LCALL     ?Subroutine181 & 0xFFFF
// 1253       *pBuf++ = HI_UINT16( readCmd->attrID[i] );
// 1254     }
??CrossCallReturnLabel_318:
        MOV       R2,DPL
        MOV       R3,DPH
        LCALL     ?Subroutine111 & 0xFFFF
??CrossCallReturnLabel_189:
        LCALL     ?Subroutine27 & 0xFFFF
??CrossCallReturnLabel_22:
        MOVX      @DPTR,A
        MOV       A,R0
        ADD       A,#0x2
        MOV       R0,A
        JNC       ??zcl_SendRead_3
        INC       R1
??zcl_SendRead_3:
        INC       R4
??zcl_SendRead_1:
        MOV       DPL,?V4
        MOV       DPH,?V5
        MOVX      A,@DPTR
        MOV       R2,A
        MOV       A,R4
        CLR       C
        SUBB      A,R2
        JC        ??zcl_SendRead_2
// 1255 
// 1256     status = zcl_SendCommand( srcEP, dstAddr, clusterID, ZCL_CMD_READ, FALSE,
// 1257                               direction, disableDefaultRsp, 0, seqNum, dataLen, buf );
        ; Setup parameters for call to function zcl_SendCommand
        MOV       R0,#?V0
        LCALL     ?PUSH_XSTACK_I_TWO
          CFI CFA_XSP16 add(XSP16, 22)
        MOV       R0,#?V6
        LCALL     ?PUSH_XSTACK_I_TWO
          CFI CFA_XSP16 add(XSP16, 24)
        MOV       A,#0x1c
        LCALL     ?XSTACK_DISP0_8
        LCALL     ?Subroutine56 & 0xFFFF
??CrossCallReturnLabel_68:
        LCALL     ?PUSH_XSTACK_I_ONE
          CFI CFA_XSP16 add(XSP16, 25)
        CLR       A
        MOV       ?V4,A
        MOV       ?V5,A
        MOV       R0,#?V4
        LCALL     ?PUSH_XSTACK_I_TWO
          CFI CFA_XSP16 add(XSP16, 27)
        MOV       A,#0x1e
        LCALL     ?XSTACK_DISP0_8
        LCALL     ?Subroutine56 & 0xFFFF
??CrossCallReturnLabel_69:
        LCALL     ?PUSH_XSTACK_I_ONE
          CFI CFA_XSP16 add(XSP16, 28)
        MOV       A,#0x1e
        LCALL     ?XSTACK_DISP0_8
        LCALL     ?Subroutine56 & 0xFFFF
??CrossCallReturnLabel_70:
        LCALL     ?PUSH_XSTACK_I_ONE
          CFI CFA_XSP16 add(XSP16, 29)
        MOV       ?V3,#0x0
        MOV       R0,#?V3
        LCALL     ?PUSH_XSTACK_I_ONE
          CFI CFA_XSP16 add(XSP16, 30)
        MOV       R0,#?V3
        LCALL     ?PUSH_XSTACK_I_ONE
          CFI CFA_XSP16 add(XSP16, 31)
        MOV       A,R6
        MOV       R4,A
        MOV       A,R7
        MOV       R5,A
        MOV       R2,?V8
        MOV       R3,?V9
        MOV       R1,?V2
        LCALL     `??zcl_SendCommand::?relay`; Banked call to: zcl_SendCommand
        MOV       A,#0xb
        LCALL     ?DEALLOC_XSTACK8
          CFI CFA_XSP16 add(XSP16, 20)
        MOV       A,R1
        MOV       R6,A
// 1258     zcl_mem_free( buf );
        ; Setup parameters for call to function osal_mem_free
        MOV       R2,?V0
        MOV       R3,?V1
        LCALL     `??osal_mem_free::?relay`; Banked call to: osal_mem_free
        SJMP      ??zcl_SendRead_4
// 1259   }
// 1260   else
// 1261   {
// 1262     status = ZMemError;
??zcl_SendRead_0:
        MOV       R6,#0x10
// 1263   }
// 1264 
// 1265   return ( status );
??zcl_SendRead_4:
          CFI EndBlock cfiBlock85
        REQUIRE ?Subroutine10
        ; // Fall through to label ?Subroutine10
// 1266 }

        RSEG BANKED_CODE:HUGECODE:NOROOT(0)
?Subroutine10:
          CFI Block cfiBlock86 Using cfiCommon0
          CFI NoFunction
          CFI CFA_SP SP+0
          CFI CFA_XSP16 add(XSP16, 20)
          CFI VB load(1, XDATA, add(CFA_XSP16, literal(-19)))
          CFI DPL0 load(1, XDATA, add(CFA_XSP16, literal(-2)))
          CFI DPH0 load(1, XDATA, add(CFA_XSP16, literal(-1)))
          CFI R6 load(1, XDATA, add(CFA_XSP16, literal(-20)))
          CFI R7 load(1, XDATA, add(CFA_XSP16, literal(-6)))
          CFI V0 load(1, XDATA, add(CFA_XSP16, literal(-18)))
          CFI V1 load(1, XDATA, add(CFA_XSP16, literal(-17)))
          CFI V2 load(1, XDATA, add(CFA_XSP16, literal(-16)))
          CFI V3 load(1, XDATA, add(CFA_XSP16, literal(-15)))
          CFI V4 load(1, XDATA, add(CFA_XSP16, literal(-14)))
          CFI V5 load(1, XDATA, add(CFA_XSP16, literal(-13)))
          CFI V6 load(1, XDATA, add(CFA_XSP16, literal(-12)))
          CFI V7 load(1, XDATA, add(CFA_XSP16, literal(-11)))
          CFI V8 load(1, XDATA, add(CFA_XSP16, literal(-10)))
          CFI V9 load(1, XDATA, add(CFA_XSP16, literal(-9)))
          CFI V10 load(1, XDATA, add(CFA_XSP16, literal(-8)))
          CFI V11 load(1, XDATA, add(CFA_XSP16, literal(-7)))
          CFI ?BRET_EXT load(1, XDATA, add(CFA_XSP16, literal(-3)))
          CFI ?RET_HIGH load(1, XDATA, add(CFA_XSP16, literal(-4)))
          CFI ?RET_LOW load(1, XDATA, add(CFA_XSP16, literal(-5)))
        MOV       A,R6
        MOV       R1,A
        LJMP      ??Subroutine237_0 & 0xFFFF
          CFI EndBlock cfiBlock86
// 1267 
// 1268 /*********************************************************************
// 1269  * @fn      zcl_SendReadRsp
// 1270  *
// 1271  * @brief   Send a Read Response command.
// 1272  *
// 1273  * @param   srcEP - Application's endpoint
// 1274  * @param   dstAddr - destination address
// 1275  * @param   clusterID - cluster ID
// 1276  * @param   readRspCmd - read response command to be sent
// 1277  * @param   direction - direction of the command
// 1278  * @param   seqNum - transaction sequence number
// 1279  *
// 1280  * @return  ZSuccess if OK
// 1281  */

        RSEG BANKED_CODE:HUGECODE:NOROOT(0)
// 1282 ZStatus_t zcl_SendReadRsp( uint8 srcEP, afAddrType_t *dstAddr,
zcl_SendReadRsp:
          CFI Block cfiBlock87 Using cfiCommon0
          CFI Function zcl_SendReadRsp
        CODE
// 1283                            uint16 clusterID, zclReadRspCmd_t *readRspCmd,
// 1284                            uint8 direction, uint8 disableDefaultRsp, uint8 seqNum )
// 1285 {
        FUNCALL zcl_SendReadRsp, zclGetAttrDataLengthUsingCB
        LOCFRAME ISTACK, 0, STACK
        LOCFRAME PSTACK, 0, STACK
        LOCFRAME XSTACK, 24, STACK
        LOCFRAME IOVERLAY, 0, STATIC
        LOCFRAME DOVERLAY, 0, STATIC
        ARGFRAME ISTACK, 0, STACK
        ARGFRAME PSTACK, 0, STACK
        ARGFRAME XSTACK, 24, STACK
        ARGFRAME IOVERLAY, 0, STATIC
        ARGFRAME DOVERLAY, 0, STATIC
        FUNCALL zcl_SendReadRsp, zclGetAttrDataLength
        LOCFRAME ISTACK, 0, STACK
        LOCFRAME PSTACK, 0, STACK
        LOCFRAME XSTACK, 24, STACK
        LOCFRAME IOVERLAY, 0, STATIC
        LOCFRAME DOVERLAY, 0, STATIC
        ARGFRAME ISTACK, 0, STACK
        ARGFRAME PSTACK, 0, STACK
        ARGFRAME XSTACK, 24, STACK
        ARGFRAME IOVERLAY, 0, STATIC
        ARGFRAME DOVERLAY, 0, STATIC
        FUNCALL zcl_SendReadRsp, osal_mem_alloc
        LOCFRAME ISTACK, 0, STACK
        LOCFRAME PSTACK, 0, STACK
        LOCFRAME XSTACK, 24, STACK
        LOCFRAME IOVERLAY, 0, STATIC
        LOCFRAME DOVERLAY, 0, STATIC
        ARGFRAME ISTACK, 0, STACK
        ARGFRAME PSTACK, 0, STACK
        ARGFRAME XSTACK, 24, STACK
        ARGFRAME IOVERLAY, 0, STATIC
        ARGFRAME DOVERLAY, 0, STATIC
        FUNCALL zcl_SendReadRsp, zclReadAttrDataUsingCB
        LOCFRAME ISTACK, 0, STACK
        LOCFRAME PSTACK, 0, STACK
        LOCFRAME XSTACK, 28, STACK
        LOCFRAME IOVERLAY, 0, STATIC
        LOCFRAME DOVERLAY, 0, STATIC
        ARGFRAME ISTACK, 0, STACK
        ARGFRAME PSTACK, 0, STACK
        ARGFRAME XSTACK, 28, STACK
        ARGFRAME IOVERLAY, 0, STATIC
        ARGFRAME DOVERLAY, 0, STATIC
        FUNCALL zcl_SendReadRsp, zclSerializeData
        LOCFRAME ISTACK, 0, STACK
        LOCFRAME PSTACK, 0, STACK
        LOCFRAME XSTACK, 24, STACK
        LOCFRAME IOVERLAY, 0, STATIC
        LOCFRAME DOVERLAY, 0, STATIC
        ARGFRAME ISTACK, 0, STACK
        ARGFRAME PSTACK, 0, STACK
        ARGFRAME XSTACK, 24, STACK
        ARGFRAME IOVERLAY, 0, STATIC
        ARGFRAME DOVERLAY, 0, STATIC
        FUNCALL zcl_SendReadRsp, zcl_SendCommand
        LOCFRAME ISTACK, 0, STACK
        LOCFRAME PSTACK, 0, STACK
        LOCFRAME XSTACK, 35, STACK
        LOCFRAME IOVERLAY, 0, STATIC
        LOCFRAME DOVERLAY, 0, STATIC
        ARGFRAME ISTACK, 0, STACK
        ARGFRAME PSTACK, 0, STACK
        ARGFRAME XSTACK, 35, STACK
        ARGFRAME IOVERLAY, 0, STATIC
        ARGFRAME DOVERLAY, 0, STATIC
        FUNCALL zcl_SendReadRsp, osal_mem_free
        LOCFRAME ISTACK, 0, STACK
        LOCFRAME PSTACK, 0, STACK
        LOCFRAME XSTACK, 24, STACK
        LOCFRAME IOVERLAY, 0, STATIC
        LOCFRAME DOVERLAY, 0, STATIC
        ARGFRAME ISTACK, 0, STACK
        ARGFRAME PSTACK, 0, STACK
        ARGFRAME XSTACK, 24, STACK
        ARGFRAME IOVERLAY, 0, STATIC
        ARGFRAME DOVERLAY, 0, STATIC
        REQUIRE ?V0
        REQUIRE ?V1
        REQUIRE ?V2
        REQUIRE ?V3
        REQUIRE ?V4
        REQUIRE ?V5
        REQUIRE ?V6
        REQUIRE ?V7
        REQUIRE ?V8
        REQUIRE ?V9
        REQUIRE ?V10
        REQUIRE ?V11
        REQUIRE ?V12
        REQUIRE ?V13
        MOV       A,#-0x16
        LCALL     ?BANKED_ENTER_XDATA
          CFI DPH0 load(1, XDATA, add(CFA_XSP16, literal(-1)))
          CFI DPL0 load(1, XDATA, add(CFA_XSP16, literal(-2)))
          CFI ?BRET_EXT load(1, XDATA, add(CFA_XSP16, literal(-3)))
          CFI ?RET_HIGH load(1, XDATA, add(CFA_XSP16, literal(-4)))
          CFI ?RET_LOW load(1, XDATA, add(CFA_XSP16, literal(-5)))
          CFI R7 load(1, XDATA, add(CFA_XSP16, literal(-6)))
          CFI V13 load(1, XDATA, add(CFA_XSP16, literal(-7)))
          CFI V12 load(1, XDATA, add(CFA_XSP16, literal(-8)))
          CFI V11 load(1, XDATA, add(CFA_XSP16, literal(-9)))
