///////////////////////////////////////////////////////////////////////////////
//
// IAR C/C++ Compiler V10.10.1.4655 for 8051              21/Jul/2021  15:47:09
// Copyright 2004-2017 IAR Systems AB.
// Standalone license - IAR Embedded Workbench for 8051
//
//    Core               =  plain
//    Code model         =  banked
//    Data model         =  large
//    Calling convention =  xdata reentrant
//    Constant location  =  data_rom
//    Dptr setup         =  1,16
//                          
//    Source file        =  
//        D:\work\zigbee\ti_cc2530_zstack\Z-Stack
//        3.0.2\Components\stack\zdo\ZDProfile.c
//    Command line       =  
//        -f C:\Users\WenHao\AppData\Local\Temp\EWD772.tmp
//        ("D:\work\zigbee\ti_cc2530_zstack\Z-Stack
//        3.0.2\Components\stack\zdo\ZDProfile.c" -D CSTX_BOARD -D SECURE=1 -D
//        TC_LINKKEY_JOIN -D NV_INIT -D NV_RESTORE -D xPOWER_SAVING -D
//        NWK_AUTO_POLL -D xZTOOL_P1 -D xMT_TASK -D xMT_APP_FUNC -D
//        xMT_SYS_FUNC -D xMT_ZDO_FUNC -D xMT_ZDO_MGMT -D xMT_APP_CNF_FUNC -D
//        LCD_SUPPORTED=DEBUG -D MULTICAST_ENABLED=FALSE -D ZCL_IDENTIFY -D
//        ZCL_READ -D ZCL_DISCOVER -D ZCL_WRITE -D ZCL_BASIC -D
//        ZCL_REPORTING_DEVICE -D HAL_LED=TRUE -D HAL_UART=TRUE -D HAL_KEY=TRUE
//        -D ISR_KEYINTERRUPT -lC "D:\work\zigbee\ti_cc2530_zstack\Z-Stack
//        3.0.2\Projects\zstack\HomeAutomation\AcoinfoZigBeeSampleLight\CC2530DB\EndDeviceEB\List"
//        -lA "D:\work\zigbee\ti_cc2530_zstack\Z-Stack
//        3.0.2\Projects\zstack\HomeAutomation\AcoinfoZigBeeSampleLight\CC2530DB\EndDeviceEB\List"
//        --diag_suppress Pe001,Pa010 -o
//        "D:\work\zigbee\ti_cc2530_zstack\Z-Stack
//        3.0.2\Projects\zstack\HomeAutomation\AcoinfoZigBeeSampleLight\CC2530DB\EndDeviceEB\Obj"
//        -e --debug --core=plain --dptr=16,1 --data_model=large
//        --code_model=banked --calling_convention=xdata_reentrant
//        --place_constants=data_rom --nr_virtual_regs 16 -f
//        "D:\work\zigbee\ti_cc2530_zstack\Z-Stack
//        3.0.2\Projects\zstack\HomeAutomation\AcoinfoZigBeeSampleLight\CC2530DB\..\..\..\Tools\CC2530DB\f8wEndev.cfg"
//        (-DCPU32MHZ -DROOT=__near_func -DMAC_CFG_TX_DATA_MAX=3
//        -DMAC_CFG_TX_MAX=6 -DMAC_CFG_RX_MAX=3) -f
//        "D:\work\zigbee\ti_cc2530_zstack\Z-Stack
//        3.0.2\Projects\zstack\HomeAutomation\AcoinfoZigBeeSampleLight\CC2530DB\..\..\..\Tools\CC2530DB\f8wConfig.cfg"
//        (-DZIGBEEPRO -DSECURE=1 -DZG_SECURE_DYNAMIC=0 -DREFLECTOR
//        -DDEFAULT_CHANLIST=0x00100000 -DZDAPP_CONFIG_PAN_ID=0xFFFF
//        -DNWK_START_DELAY=100 -DEXTENDED_JOINING_RANDOM_MASK=0x007F
//        -DBEACON_REQUEST_DELAY=100 -DBEACON_REQ_DELAY_MASK=0x00FF
//        -DLINK_STATUS_JITTER_MASK=0x007F -DROUTE_EXPIRY_TIME=30
//        -DAPSC_ACK_WAIT_DURATION_POLLED=3000 -DNWK_INDIRECT_MSG_TIMEOUT=7
//        -DMAX_RREQ_ENTRIES=8 -DAPSC_MAX_FRAME_RETRIES=3
//        -DNWK_MAX_DATA_RETRIES=2 -DMAX_POLL_FAILURE_RETRIES=2 -DMAX_BCAST=9
//        -DAPS_MAX_GROUPS=16 -DMAX_RTG_ENTRIES=40 -DNWK_MAX_BINDING_ENTRIES=4
//        -DMAX_BINDING_CLUSTER_IDS=4 -DDEFAULT_KEY={0}
//        -DMAC_MAX_FRAME_SIZE=116 -DZDNWKMGR_MIN_TRANSMISSIONS=20
//        "-DCONST=const __code" -DGENERIC=__generic -DRFD_RCVC_ALWAYS_ON=FALSE
//        -DPOLL_RATE=1000 -DQUEUED_POLL_RATE=100 -DRESPONSE_POLL_RATE=100
//        -DREJOIN_POLL_RATE=440 -DREJOIN_BACKOFF=900000 -DREJOIN_SCAN=900000
//        -DENABLE_LED4_DISABLE_S1) -f "D:\work\zigbee\ti_cc2530_zstack\Z-Stack
//        3.0.2\Projects\zstack\HomeAutomation\AcoinfoZigBeeSampleLight\CC2530DB\..\..\..\Tools\CC2530DB\f8wZCL.cfg"
//        -I "D:\work\zigbee\ti_cc2530_zstack\Z-Stack
//        3.0.2\Projects\zstack\HomeAutomation\AcoinfoZigBeeSampleLight\CC2530DB\"
//        -I "D:\work\zigbee\ti_cc2530_zstack\Z-Stack
//        3.0.2\Projects\zstack\HomeAutomation\AcoinfoZigBeeSampleLight\CC2530DB\..\Source\"
//        -I "D:\work\zigbee\ti_cc2530_zstack\Z-Stack
//        3.0.2\Projects\zstack\HomeAutomation\AcoinfoZigBeeSampleLight\CC2530DB\..\..\Source\"
//        -I "D:\work\zigbee\ti_cc2530_zstack\Z-Stack
//        3.0.2\Projects\zstack\HomeAutomation\AcoinfoZigBeeSampleLight\CC2530DB\..\..\..\ZMain\TI2530DB\"
//        -I "D:\work\zigbee\ti_cc2530_zstack\Z-Stack
//        3.0.2\Projects\zstack\HomeAutomation\AcoinfoZigBeeSampleLight\CC2530DB\..\..\..\..\..\Components\hal\include\"
//        -I "D:\work\zigbee\ti_cc2530_zstack\Z-Stack
//        3.0.2\Projects\zstack\HomeAutomation\AcoinfoZigBeeSampleLight\CC2530DB\..\..\..\..\..\Components\hal\target\CC2530EB\"
//        -I "D:\work\zigbee\ti_cc2530_zstack\Z-Stack
//        3.0.2\Projects\zstack\HomeAutomation\AcoinfoZigBeeSampleLight\CC2530DB\..\..\..\..\..\Components\mac\include\"
//        -I "D:\work\zigbee\ti_cc2530_zstack\Z-Stack
//        3.0.2\Projects\zstack\HomeAutomation\AcoinfoZigBeeSampleLight\CC2530DB\..\..\..\..\..\Components\mac\high_level\"
//        -I "D:\work\zigbee\ti_cc2530_zstack\Z-Stack
//        3.0.2\Projects\zstack\HomeAutomation\AcoinfoZigBeeSampleLight\CC2530DB\..\..\..\..\..\Components\mac\low_level\srf04\"
//        -I "D:\work\zigbee\ti_cc2530_zstack\Z-Stack
//        3.0.2\Projects\zstack\HomeAutomation\AcoinfoZigBeeSampleLight\CC2530DB\..\..\..\..\..\Components\mac\low_level\srf04\single_chip\"
//        -I "D:\work\zigbee\ti_cc2530_zstack\Z-Stack
//        3.0.2\Projects\zstack\HomeAutomation\AcoinfoZigBeeSampleLight\CC2530DB\..\..\..\..\..\Components\mt\"
//        -I "D:\work\zigbee\ti_cc2530_zstack\Z-Stack
//        3.0.2\Projects\zstack\HomeAutomation\AcoinfoZigBeeSampleLight\CC2530DB\..\..\..\..\..\Components\osal\include\"
//        -I "D:\work\zigbee\ti_cc2530_zstack\Z-Stack
//        3.0.2\Projects\zstack\HomeAutomation\AcoinfoZigBeeSampleLight\CC2530DB\..\..\..\..\..\Components\services\saddr\"
//        -I "D:\work\zigbee\ti_cc2530_zstack\Z-Stack
//        3.0.2\Projects\zstack\HomeAutomation\AcoinfoZigBeeSampleLight\CC2530DB\..\..\..\..\..\Components\services\sdata\"
//        -I "D:\work\zigbee\ti_cc2530_zstack\Z-Stack
//        3.0.2\Projects\zstack\HomeAutomation\AcoinfoZigBeeSampleLight\CC2530DB\..\..\..\..\..\Components\stack\af\"
//        -I "D:\work\zigbee\ti_cc2530_zstack\Z-Stack
//        3.0.2\Projects\zstack\HomeAutomation\AcoinfoZigBeeSampleLight\CC2530DB\..\..\..\..\..\Components\stack\bdb\"
//        -I "D:\work\zigbee\ti_cc2530_zstack\Z-Stack
//        3.0.2\Projects\zstack\HomeAutomation\AcoinfoZigBeeSampleLight\CC2530DB\..\..\..\..\..\Components\stack\gp\"
//        -I "D:\work\zigbee\ti_cc2530_zstack\Z-Stack
//        3.0.2\Projects\zstack\HomeAutomation\AcoinfoZigBeeSampleLight\CC2530DB\..\..\..\..\..\Components\stack\nwk\"
//        -I "D:\work\zigbee\ti_cc2530_zstack\Z-Stack
//        3.0.2\Projects\zstack\HomeAutomation\AcoinfoZigBeeSampleLight\CC2530DB\..\..\..\..\..\Components\stack\sapi\"
//        -I "D:\work\zigbee\ti_cc2530_zstack\Z-Stack
//        3.0.2\Projects\zstack\HomeAutomation\AcoinfoZigBeeSampleLight\CC2530DB\..\..\..\..\..\Components\stack\sec\"
//        -I "D:\work\zigbee\ti_cc2530_zstack\Z-Stack
//        3.0.2\Projects\zstack\HomeAutomation\AcoinfoZigBeeSampleLight\CC2530DB\..\..\..\..\..\Components\stack\sys\"
//        -I "D:\work\zigbee\ti_cc2530_zstack\Z-Stack
//        3.0.2\Projects\zstack\HomeAutomation\AcoinfoZigBeeSampleLight\CC2530DB\..\..\..\..\..\Components\stack\zcl\"
//        -I "D:\work\zigbee\ti_cc2530_zstack\Z-Stack
//        3.0.2\Projects\zstack\HomeAutomation\AcoinfoZigBeeSampleLight\CC2530DB\..\..\..\..\..\Components\stack\zdo\"
//        -I "D:\work\zigbee\ti_cc2530_zstack\Z-Stack
//        3.0.2\Projects\zstack\HomeAutomation\AcoinfoZigBeeSampleLight\CC2530DB\..\..\..\..\..\Components\zmac\"
//        -I "D:\work\zigbee\ti_cc2530_zstack\Z-Stack
//        3.0.2\Projects\zstack\HomeAutomation\AcoinfoZigBeeSampleLight\CC2530DB\..\..\..\..\..\Components\zmac\f8w\"
//        -Ohz --require_prototypes)
//    Locale             =  Chinese (Simplified)_China.936
//    List file          =  
//        D:\work\zigbee\ti_cc2530_zstack\Z-Stack
//        3.0.2\Projects\zstack\HomeAutomation\AcoinfoZigBeeSampleLight\CC2530DB\EndDeviceEB\List\ZDProfile.s51
//
///////////////////////////////////////////////////////////////////////////////

        NAME ZDProfile

        RTMODEL "__SystemLibrary", "CLib"
        RTMODEL "__calling_convention", "xdata_reentrant"
        RTMODEL "__code_model", "banked"
        RTMODEL "__core", "plain"
        RTMODEL "__data_model", "large"
        RTMODEL "__dptr_size", "16"
        RTMODEL "__extended_stack", "disabled"
        RTMODEL "__location_for_constants", "data"
        RTMODEL "__number_of_dptrs", "1"
        RTMODEL "__register_banks", "*"
        RTMODEL "__rt_version", "1"

        RSEG DOVERLAY:DATA:NOROOT(0)
        RSEG IOVERLAY:IDATA:NOROOT(0)
        RSEG ISTACK:IDATA:NOROOT(0)
        RSEG PSTACK:XDATA:NOROOT(0)
        RSEG XSTACK:XDATA:NOROOT(0)

        EXTERN ?V0
        EXTERN ?V1
        EXTERN ?V2
        EXTERN ?V3
        EXTERN ?V4
        EXTERN ?V5
        EXTERN ?V6
        EXTERN ?V7
        EXTERN ?V8
        EXTERN ?V10
        EXTERN ?V11
        EXTERN ?V12
        EXTERN ?V13
        EXTERN ?V9
        EXTERN ?ALLOC_XSTACK8
        EXTERN ?BANKED_ENTER_XDATA
        EXTERN ?BANKED_LEAVE_XDATA
        EXTERN ?BDISPATCH
        EXTERN ?CALL_IND
        EXTERN ?DEALLOC_XSTACK8
        EXTERN ?PUSH_XSTACK8_X_FOUR
        EXTERN ?PUSH_XSTACK8_X_TWO
        EXTERN ?PUSH_XSTACK_I_ONE
        EXTERN ?PUSH_XSTACK_I_THREE
        EXTERN ?PUSH_XSTACK_I_TWO
        EXTERN ?S_SHL
        EXTERN ?US_SHR
        EXTERN ?XSP
        EXTERN ?XSTACK_DISP0_8
        EXTERN ?XSTACK_DISP101_8
        EXTERN ?XSTACK_DISP102_8
        EXTERN __INIT_XDATA_I
        EXTERN __INIT_XDATA_Z

        PUBLIC `??ZDO_RegisterForZDOMsg::?relay`
        FUNCTION `??ZDO_RegisterForZDOMsg::?relay`,0203H
        PUBLIC `??ZDO_RemoveRegisteredCB::?relay`
        FUNCTION `??ZDO_RemoveRegisteredCB::?relay`,0203H
        PUBLIC `??ZDO_SendMsgCBs::?relay`
        FUNCTION `??ZDO_SendMsgCBs::?relay`,0203H
        PUBLIC `??ZDP_BindUnbindReq::?relay`
        FUNCTION `??ZDP_BindUnbindReq::?relay`,0203H
        PUBLIC `??ZDP_DeviceAnnce::?relay`
        FUNCTION `??ZDP_DeviceAnnce::?relay`,0203H
        PUBLIC `??ZDP_EPRsp::?relay`
        FUNCTION `??ZDP_EPRsp::?relay`,0203H
        PUBLIC `??ZDP_EndDeviceBindReq::?relay`
        FUNCTION `??ZDP_EndDeviceBindReq::?relay`,0203H
        PUBLIC `??ZDP_GenericRsp::?relay`
        FUNCTION `??ZDP_GenericRsp::?relay`,0203H
        PUBLIC `??ZDP_IEEEAddrReq::?relay`
        FUNCTION `??ZDP_IEEEAddrReq::?relay`,0203H
        PUBLIC `??ZDP_IncomingData::?relay`
        FUNCTION `??ZDP_IncomingData::?relay`,0203H
        PUBLIC `??ZDP_MatchDescReq::?relay`
        FUNCTION `??ZDP_MatchDescReq::?relay`,0203H
        PUBLIC `??ZDP_MgmtBindRsp::?relay`
        FUNCTION `??ZDP_MgmtBindRsp::?relay`,0203H
        PUBLIC `??ZDP_MgmtDirectJoinReq::?relay`
        FUNCTION `??ZDP_MgmtDirectJoinReq::?relay`,0203H
        PUBLIC `??ZDP_MgmtLeaveReq::?relay`
        FUNCTION `??ZDP_MgmtLeaveReq::?relay`,0203H
        PUBLIC `??ZDP_MgmtLqiRsp::?relay`
        FUNCTION `??ZDP_MgmtLqiRsp::?relay`,0203H
        PUBLIC `??ZDP_MgmtNwkDiscReq::?relay`
        FUNCTION `??ZDP_MgmtNwkDiscReq::?relay`,0203H
        PUBLIC `??ZDP_MgmtNwkDiscRsp::?relay`
        FUNCTION `??ZDP_MgmtNwkDiscRsp::?relay`,0203H
        PUBLIC `??ZDP_MgmtNwkUpdateNotify::?relay`
        FUNCTION `??ZDP_MgmtNwkUpdateNotify::?relay`,0203H
        PUBLIC `??ZDP_MgmtNwkUpdateReq::?relay`
        FUNCTION `??ZDP_MgmtNwkUpdateReq::?relay`,0203H
        PUBLIC `??ZDP_MgmtPermitJoinReq::?relay`
        FUNCTION `??ZDP_MgmtPermitJoinReq::?relay`,0203H
        PUBLIC `??ZDP_MgmtRtgRsp::?relay`
        FUNCTION `??ZDP_MgmtRtgRsp::?relay`,0203H
        PUBLIC `??ZDP_NWKAddrOfInterestReq::?relay`
        FUNCTION `??ZDP_NWKAddrOfInterestReq::?relay`,0203H
        PUBLIC `??ZDP_NodeDescMsg::?relay`
        FUNCTION `??ZDP_NodeDescMsg::?relay`,0203H
        PUBLIC `??ZDP_NwkAddrReq::?relay`
        FUNCTION `??ZDP_NwkAddrReq::?relay`,0203H
        PUBLIC `??ZDP_ParentAnnce::?relay`
        FUNCTION `??ZDP_ParentAnnce::?relay`,0203H
        PUBLIC `??ZDP_PowerDescMsg::?relay`
        FUNCTION `??ZDP_PowerDescMsg::?relay`,0203H
        PUBLIC `??ZDP_SendData::?relay`
        FUNCTION `??ZDP_SendData::?relay`,0203H
        PUBLIC `??ZDP_ServerDiscReq::?relay`
        FUNCTION `??ZDP_ServerDiscReq::?relay`,0203H
        PUBLIC `??ZDP_ServerDiscRsp::?relay`
        FUNCTION `??ZDP_ServerDiscRsp::?relay`,0203H
        PUBLIC `??ZDP_SimpleDescMsg::?relay`
        FUNCTION `??ZDP_SimpleDescMsg::?relay`,0203H
        PUBLIC `??ZDP_SimpleDescReq::?relay`
        FUNCTION `??ZDP_SimpleDescReq::?relay`,0203H
        PUBLIC `??ZDP_UserDescRsp::?relay`
        FUNCTION `??ZDP_UserDescRsp::?relay`,0203H
        PUBLIC `??ZDP_UserDescSet::?relay`
        FUNCTION `??ZDP_UserDescSet::?relay`,0203H
        FUNCTION `??fillAndSend::?relay`,0203H
        PUBLIC `??zdpProcessAddrReq::?relay`
        FUNCTION `??zdpProcessAddrReq::?relay`,0203H
        PUBLIC ZDO_RegisterForZDOMsg
        FUNCTION ZDO_RegisterForZDOMsg,0a1203H
        ARGFRAME XSTACK, 0, STACK
        LOCFRAME ISTACK, 1, STACK
        LOCFRAME XSTACK, 14, STACK
        PUBLIC ZDO_RemoveRegisteredCB
        FUNCTION ZDO_RemoveRegisteredCB,021203H
        ARGFRAME XSTACK, 0, STACK
        LOCFRAME XSTACK, 9, STACK
        PUBLIC ZDO_SendMsgCBs
        FUNCTION ZDO_SendMsgCBs,0a1203H
        ARGFRAME XSTACK, 33, STACK
        ARGFRAME IOVERLAY, 0, STATIC
        ARGFRAME DOVERLAY, 0, STATIC
        LOCFRAME XSTACK, 21, STACK
        PUBLIC ZDP_AF_ENDPOINT
        PUBLIC ZDP_BindUnbindReq
        FUNCTION ZDP_BindUnbindReq,0a1203H
        ARGFRAME XSTACK, 8, STACK
        LOCFRAME ISTACK, 1, STACK
        LOCFRAME XSTACK, 20, STACK
        PUBLIC ZDP_DeviceAnnce
        FUNCTION ZDP_DeviceAnnce,0a1203H
        ARGFRAME XSTACK, 1, STACK
        LOCFRAME ISTACK, 1, STACK
        LOCFRAME XSTACK, 21, STACK
        PUBLIC ZDP_EPRsp
        FUNCTION ZDP_EPRsp,0a1203H
        ARGFRAME XSTACK, 7, STACK
        LOCFRAME ISTACK, 1, STACK
        LOCFRAME XSTACK, 19, STACK
        PUBLIC ZDP_EndDeviceBindReq
        FUNCTION ZDP_EndDeviceBindReq,0a1203H
        ARGFRAME XSTACK, 9, STACK
        LOCFRAME ISTACK, 1, STACK
        LOCFRAME XSTACK, 20, STACK
        PUBLIC ZDP_GenericRsp
        FUNCTION ZDP_GenericRsp,021203H
        ARGFRAME XSTACK, 4, STACK
        LOCFRAME ISTACK, 1, STACK
        LOCFRAME XSTACK, 12, STACK
        PUBLIC ZDP_IEEEAddrReq
        FUNCTION ZDP_IEEEAddrReq,0a1203H
        ARGFRAME XSTACK, 0, STACK
        LOCFRAME ISTACK, 1, STACK
        LOCFRAME XSTACK, 21, STACK
        PUBLIC ZDP_IncomingData
        FUNCTION ZDP_IncomingData,0a1203H
        ARGFRAME XSTACK, 0, STACK
        LOCFRAME ISTACK, 1, STACK
        LOCFRAME XSTACK, 33, STACK
        PUBLIC ZDP_MatchDescReq
        FUNCTION ZDP_MatchDescReq,0a1203H
        ARGFRAME XSTACK, 8, STACK
        LOCFRAME ISTACK, 1, STACK
        LOCFRAME XSTACK, 16, STACK
        PUBLIC ZDP_MgmtBindRsp
        FUNCTION ZDP_MgmtBindRsp,0a1203H
        ARGFRAME XSTACK, 5, STACK
        LOCFRAME ISTACK, 1, STACK
        LOCFRAME XSTACK, 25, STACK
        PUBLIC ZDP_MgmtDirectJoinReq
        FUNCTION ZDP_MgmtDirectJoinReq,0a1203H
        ARGFRAME XSTACK, 1, STACK
        LOCFRAME ISTACK, 1, STACK
        LOCFRAME XSTACK, 14, STACK
        PUBLIC ZDP_MgmtLeaveReq
        FUNCTION ZDP_MgmtLeaveReq,0a1203H
        ARGFRAME XSTACK, 2, STACK
        LOCFRAME XSTACK, 14, STACK
        PUBLIC ZDP_MgmtLqiRsp
        FUNCTION ZDP_MgmtLqiRsp,0a1203H
        ARGFRAME XSTACK, 5, STACK
        LOCFRAME ISTACK, 1, STACK
        LOCFRAME XSTACK, 24, STACK
        PUBLIC ZDP_MgmtNwkDiscReq
        FUNCTION ZDP_MgmtNwkDiscReq,0a1203H
        ARGFRAME XSTACK, 4, STACK
        LOCFRAME ISTACK, 1, STACK
        LOCFRAME XSTACK, 16, STACK
        PUBLIC ZDP_MgmtNwkDiscRsp
        FUNCTION ZDP_MgmtNwkDiscRsp,0a1203H
        ARGFRAME XSTACK, 5, STACK
        LOCFRAME ISTACK, 1, STACK
        LOCFRAME XSTACK, 25, STACK
        PUBLIC ZDP_MgmtNwkUpdateNotify
        FUNCTION ZDP_MgmtNwkUpdateNotify,0a1203H
        ARGFRAME XSTACK, 12, STACK
        LOCFRAME ISTACK, 1, STACK
        LOCFRAME XSTACK, 23, STACK
        PUBLIC ZDP_MgmtNwkUpdateReq
        FUNCTION ZDP_MgmtNwkUpdateReq,0a1203H
        ARGFRAME XSTACK, 6, STACK
        LOCFRAME ISTACK, 1, STACK
        LOCFRAME XSTACK, 18, STACK
        PUBLIC ZDP_MgmtPermitJoinReq
        FUNCTION ZDP_MgmtPermitJoinReq,0a1203H
        ARGFRAME XSTACK, 0, STACK
        LOCFRAME ISTACK, 1, STACK
        LOCFRAME XSTACK, 23, STACK
        PUBLIC ZDP_MgmtRtgRsp
        FUNCTION ZDP_MgmtRtgRsp,0a1203H
        ARGFRAME XSTACK, 5, STACK
        LOCFRAME ISTACK, 1, STACK
        LOCFRAME XSTACK, 23, STACK
        PUBLIC ZDP_NWKAddrOfInterestReq
        FUNCTION ZDP_NWKAddrOfInterestReq,0a1203H
        ARGFRAME XSTACK, 1, STACK
        LOCFRAME ISTACK, 1, STACK
        LOCFRAME XSTACK, 12, STACK
        PUBLIC ZDP_NodeDescMsg
        FUNCTION ZDP_NodeDescMsg,0a1203H
        ARGFRAME XSTACK, 2, STACK
        LOCFRAME ISTACK, 1, STACK
        LOCFRAME XSTACK, 12, STACK
        PUBLIC ZDP_NwkAddrReq
        FUNCTION ZDP_NwkAddrReq,0a1203H
        ARGFRAME XSTACK, 0, STACK
        LOCFRAME ISTACK, 1, STACK
        LOCFRAME XSTACK, 23, STACK
        PUBLIC ZDP_ParentAnnce
        FUNCTION ZDP_ParentAnnce,0a1203H
        ARGFRAME XSTACK, 5, STACK
        LOCFRAME ISTACK, 1, STACK
        LOCFRAME XSTACK, 26, STACK
        PUBLIC ZDP_PowerDescMsg
        FUNCTION ZDP_PowerDescMsg,0a1203H
        ARGFRAME XSTACK, 2, STACK
        LOCFRAME ISTACK, 1, STACK
        LOCFRAME XSTACK, 12, STACK
        PUBLIC ZDP_SendData
        FUNCTION ZDP_SendData,0a1203H
        ARGFRAME XSTACK, 5, STACK
        LOCFRAME ISTACK, 1, STACK
        LOCFRAME XSTACK, 14, STACK
        PUBLIC ZDP_ServerDiscReq
        FUNCTION ZDP_ServerDiscReq,0a1203H
        ARGFRAME XSTACK, 0, STACK
        LOCFRAME ISTACK, 1, STACK
        LOCFRAME XSTACK, 21, STACK
        PUBLIC ZDP_ServerDiscRsp
        FUNCTION ZDP_ServerDiscRsp,0a1203H
        ARGFRAME XSTACK, 4, STACK
        LOCFRAME ISTACK, 1, STACK
        LOCFRAME XSTACK, 13, STACK
        PUBLIC ZDP_SimpleDescMsg
        FUNCTION ZDP_SimpleDescMsg,0a1203H
        ARGFRAME XSTACK, 0, STACK
        LOCFRAME ISTACK, 1, STACK
        LOCFRAME XSTACK, 22, STACK
        PUBLIC ZDP_SimpleDescReq
        FUNCTION ZDP_SimpleDescReq,0a1203H
        ARGFRAME XSTACK, 1, STACK
        LOCFRAME ISTACK, 1, STACK
        LOCFRAME XSTACK, 12, STACK
        PUBLIC ZDP_TransID
        PUBLIC ZDP_TxOptions
        PUBLIC ZDP_UserDescRsp
        FUNCTION ZDP_UserDescRsp,0a1203H
        ARGFRAME XSTACK, 3, STACK
        LOCFRAME ISTACK, 1, STACK
        LOCFRAME XSTACK, 22, STACK
        PUBLIC ZDP_UserDescSet
        FUNCTION ZDP_UserDescSet,0a1203H
        ARGFRAME XSTACK, 2, STACK
        LOCFRAME ISTACK, 1, STACK
        LOCFRAME XSTACK, 18, STACK
        PUBWEAK __Constant_a
        PUBLIC childIndex
        FUNCTION fillAndSend,0a1203H
        ARGFRAME XSTACK, 30, STACK
        ARGFRAME IOVERLAY, 0, STATIC
        ARGFRAME DOVERLAY, 0, STATIC
        LOCFRAME ISTACK, 1, STACK
        LOCFRAME XSTACK, 35, STACK
        PUBLIC zdoMsgCBs
        PUBLIC zdpMsgProcs
        PUBLIC zdpProcessAddrReq
        FUNCTION zdpProcessAddrReq,0a1603H
        ARGFRAME XSTACK, 0, STACK
        LOCFRAME ISTACK, 1, STACK
        LOCFRAME XSTACK, 30, STACK
        
          CFI Names cfiNames0
          CFI StackFrame CFA_SP SP IDATA
          CFI StackFrame CFA_PSP16 PSP16 XDATA
          CFI StackFrame CFA_XSP16 XSP16 XDATA
          CFI StaticOverlayFrame CFA_IOVERLAY IOVERLAY
          CFI StaticOverlayFrame CFA_DOVERLAY DOVERLAY
          CFI Resource `PSW.CY`:1, `B.BR0`:1, `B.BR1`:1, `B.BR2`:1, `B.BR3`:1
          CFI Resource `B.BR4`:1, `B.BR5`:1, `B.BR6`:1, `B.BR7`:1, `VB.BR8`:1
          CFI Resource `VB.BR9`:1, `VB.BR10`:1, `VB.BR11`:1, `VB.BR12`:1
          CFI Resource `VB.BR13`:1, `VB.BR14`:1, `VB.BR15`:1, VB:8, B:8, A:8
          CFI Resource PSW:8, DPL0:8, DPH0:8, R0:8, R1:8, R2:8, R3:8, R4:8, R5:8
          CFI Resource R6:8, R7:8, V0:8, V1:8, V2:8, V3:8, V4:8, V5:8, V6:8, V7:8
          CFI Resource V8:8, V9:8, V10:8, V11:8, V12:8, V13:8, V14:8, V15:8, SP:8
          CFI Resource PSPH:8, PSPL:8, PSP16:16, XSPH:8, XSPL:8, XSP16:16
          CFI VirtualResource ?RET:24
          CFI Resource ?BRET_EXT:8
          CFI VirtualResource ?RET_HIGH:8, ?RET_LOW:8
          CFI ResourceParts PSP16 PSPH, PSPL
          CFI ResourceParts XSP16 XSPH, XSPL
          CFI ResourceParts ?RET ?BRET_EXT, ?RET_HIGH, ?RET_LOW
          CFI EndNames cfiNames0
        
          CFI Common cfiCommon0 Using cfiNames0
          CFI CodeAlign 1
          CFI DataAlign -1
          CFI ReturnAddress ?RET CODE
          CFI CFA_DOVERLAY Used
          CFI CFA_IOVERLAY Used
          CFI CFA_SP SP+-3
          CFI CFA_PSP16 PSP16+0
          CFI CFA_XSP16 XSP16+0
          CFI `PSW.CY` SameValue
          CFI `B.BR0` SameValue
          CFI `B.BR1` SameValue
          CFI `B.BR2` SameValue
          CFI `B.BR3` SameValue
          CFI `B.BR4` SameValue
          CFI `B.BR5` SameValue
          CFI `B.BR6` SameValue
          CFI `B.BR7` SameValue
          CFI `VB.BR8` SameValue
          CFI `VB.BR9` SameValue
          CFI `VB.BR10` SameValue
          CFI `VB.BR11` SameValue
          CFI `VB.BR12` SameValue
          CFI `VB.BR13` SameValue
          CFI `VB.BR14` SameValue
          CFI `VB.BR15` SameValue
          CFI VB SameValue
          CFI B Undefined
          CFI A Undefined
          CFI PSW SameValue
          CFI DPL0 SameValue
          CFI DPH0 SameValue
          CFI R0 Undefined
          CFI R1 Undefined
          CFI R2 Undefined
          CFI R3 Undefined
          CFI R4 Undefined
          CFI R5 Undefined
          CFI R6 SameValue
          CFI R7 SameValue
          CFI V0 SameValue
          CFI V1 SameValue
          CFI V2 SameValue
          CFI V3 SameValue
          CFI V4 SameValue
          CFI V5 SameValue
          CFI V6 SameValue
          CFI V7 SameValue
          CFI V8 SameValue
          CFI V9 SameValue
          CFI V10 SameValue
          CFI V11 SameValue
          CFI V12 SameValue
          CFI V13 SameValue
          CFI V14 SameValue
          CFI V15 SameValue
          CFI PSPH Undefined
          CFI PSPL Undefined
          CFI XSPH Undefined
          CFI XSPL Undefined
          CFI ?RET Concat
          CFI ?BRET_EXT Frame(CFA_SP, 3)
          CFI ?RET_HIGH Frame(CFA_SP, 2)
          CFI ?RET_LOW Frame(CFA_SP, 1)
          CFI EndCommon cfiCommon0
        
        
          CFI Common cfiCommon1 Using cfiNames0
          CFI CodeAlign 1
          CFI DataAlign -1
          CFI ReturnAddress ?RET CODE
          CFI CFA_DOVERLAY Used
          CFI CFA_IOVERLAY Used
          CFI CFA_SP SP+-2
          CFI CFA_PSP16 PSP16+0
          CFI CFA_XSP16 XSP16+0
          CFI `PSW.CY` SameValue
          CFI `B.BR0` SameValue
          CFI `B.BR1` SameValue
          CFI `B.BR2` SameValue
          CFI `B.BR3` SameValue
          CFI `B.BR4` SameValue
          CFI `B.BR5` SameValue
          CFI `B.BR6` SameValue
          CFI `B.BR7` SameValue
          CFI `VB.BR8` SameValue
          CFI `VB.BR9` SameValue
          CFI `VB.BR10` SameValue
          CFI `VB.BR11` SameValue
          CFI `VB.BR12` SameValue
          CFI `VB.BR13` SameValue
          CFI `VB.BR14` SameValue
          CFI `VB.BR15` SameValue
          CFI VB SameValue
          CFI B SameValue
          CFI A SameValue
          CFI PSW SameValue
          CFI DPL0 SameValue
          CFI DPH0 SameValue
          CFI R0 SameValue
          CFI R1 SameValue
          CFI R2 SameValue
          CFI R3 SameValue
          CFI R4 SameValue
          CFI R5 SameValue
          CFI R6 SameValue
          CFI R7 SameValue
          CFI V0 SameValue
          CFI V1 SameValue
          CFI V2 SameValue
          CFI V3 SameValue
          CFI V4 SameValue
          CFI V5 SameValue
          CFI V6 SameValue
          CFI V7 SameValue
          CFI V8 SameValue
          CFI V9 SameValue
          CFI V10 SameValue
          CFI V11 SameValue
          CFI V12 SameValue
          CFI V13 SameValue
          CFI V14 SameValue
          CFI V15 SameValue
          CFI PSPH Undefined
          CFI PSPL Undefined
          CFI XSPH Undefined
          CFI XSPL Undefined
          CFI ?RET Concat
          CFI ?BRET_EXT SameValue
          CFI ?RET_HIGH Frame(CFA_SP, 2)
          CFI ?RET_LOW Frame(CFA_SP, 1)
          CFI EndCommon cfiCommon1
        
AF_DataRequest      SYMBOL "AF_DataRequest"
`??AF_DataRequest::?relay` SYMBOL "?relay", AF_DataRequest
NLME_GetExtAddr     SYMBOL "NLME_GetExtAddr"
`??NLME_GetExtAddr::?relay` SYMBOL "?relay", NLME_GetExtAddr
NLME_GetShortAddr   SYMBOL "NLME_GetShortAddr"
`??NLME_GetShortAddr::?relay` SYMBOL "?relay", NLME_GetShortAddr
ZDApp_InMsgCB       SYMBOL "ZDApp_InMsgCB"
`??ZDApp_InMsgCB::?relay` SYMBOL "?relay", ZDApp_InMsgCB
ZDApp_SetParentAnnceTimer SYMBOL "ZDApp_SetParentAnnceTimer"
`??ZDApp_SetParentAnnceTimer::?relay` SYMBOL "?relay", ZDApp_SetParentAnnceTimer
`?<Name ZDO_ProcessActiveEPR 10>` SYMBOL "ZDO_ProcessActiveEPReq"
`??ZDO_ProcessActiveEPReq::?relay` SYMBOL "?relay", `?<Name ZDO_ProcessActiveEPR 10>`
`?<Name ZDO_ProcessMatchDesc 12>` SYMBOL "ZDO_ProcessMatchDescReq"
`??ZDO_ProcessMatchDescReq::?relay` SYMBOL "?relay", `?<Name ZDO_ProcessMatchDesc 12>`
`?<Name ZDO_ProcessMgmtBindR 14>` SYMBOL "ZDO_ProcessMgmtBindReq"
`??ZDO_ProcessMgmtBindReq::?relay` SYMBOL "?relay", `?<Name ZDO_ProcessMgmtBindR 14>`
`?<Name ZDO_ProcessMgmtLeave 16>` SYMBOL "ZDO_ProcessMgmtLeaveReq"
`??ZDO_ProcessMgmtLeaveReq::?relay` SYMBOL "?relay", `?<Name ZDO_ProcessMgmtLeave 16>`
`?<Name ZDO_ProcessMgmtLqiRe 18>` SYMBOL "ZDO_ProcessMgmtLqiReq"
`??ZDO_ProcessMgmtLqiReq::?relay` SYMBOL "?relay", `?<Name ZDO_ProcessMgmtLqiRe 18>`
`?<Name ZDO_ProcessNodeDescR 20>` SYMBOL "ZDO_ProcessNodeDescReq"
`??ZDO_ProcessNodeDescReq::?relay` SYMBOL "?relay", `?<Name ZDO_ProcessNodeDescR 20>`
`?<Name ZDO_ProcessNodeDescR 22>` SYMBOL "ZDO_ProcessNodeDescRsp"
`??ZDO_ProcessNodeDescRsp::?relay` SYMBOL "?relay", `?<Name ZDO_ProcessNodeDescR 22>`
`?<Name ZDO_ProcessPowerDesc 24>` SYMBOL "ZDO_ProcessPowerDescReq"
`??ZDO_ProcessPowerDescReq::?relay` SYMBOL "?relay", `?<Name ZDO_ProcessPowerDesc 24>`
`?<Name ZDO_ProcessSimpleDes 26>` SYMBOL "ZDO_ProcessSimpleDescReq"
`??ZDO_ProcessSimpleDescReq::?relay` SYMBOL "?relay", `?<Name ZDO_ProcessSimpleDes 26>`
`?<Name ZDO_ProcessSimpleDes 28>` SYMBOL "ZDO_ProcessSimpleDescRsp"
`??ZDO_ProcessSimpleDescRsp::?relay` SYMBOL "?relay", `?<Name ZDO_ProcessSimpleDes 28>`
osal_buffer_uint32  SYMBOL "osal_buffer_uint32"
`??osal_buffer_uint32::?relay` SYMBOL "?relay", osal_buffer_uint32
osal_mem_alloc      SYMBOL "osal_mem_alloc"
`??osal_mem_alloc::?relay` SYMBOL "?relay", osal_mem_alloc
osal_mem_free       SYMBOL "osal_mem_free"
`??osal_mem_free::?relay` SYMBOL "?relay", osal_mem_free
osal_memcpy         SYMBOL "osal_memcpy"
`??osal_memcpy::?relay` SYMBOL "?relay", osal_memcpy
osal_memset         SYMBOL "osal_memset"
`??osal_memset::?relay` SYMBOL "?relay", osal_memset
osal_msg_allocate   SYMBOL "osal_msg_allocate"
`??osal_msg_allocate::?relay` SYMBOL "?relay", osal_msg_allocate
osal_msg_send       SYMBOL "osal_msg_send"
`??osal_msg_send::?relay` SYMBOL "?relay", osal_msg_send
osal_start_timerEx  SYMBOL "osal_start_timerEx"
`??osal_start_timerEx::?relay` SYMBOL "?relay", osal_start_timerEx
sAddrExtCmp         SYMBOL "sAddrExtCmp"
`??sAddrExtCmp::?relay` SYMBOL "?relay", sAddrExtCmp
sAddrExtCpy         SYMBOL "sAddrExtCpy"
`??sAddrExtCpy::?relay` SYMBOL "?relay", sAddrExtCpy
ZDO_RegisterForZDOMsg SYMBOL "ZDO_RegisterForZDOMsg"
`??ZDO_RegisterForZDOMsg::?relay` SYMBOL "?relay", ZDO_RegisterForZDOMsg
ZDO_RemoveRegisteredCB SYMBOL "ZDO_RemoveRegisteredCB"
`??ZDO_RemoveRegisteredCB::?relay` SYMBOL "?relay", ZDO_RemoveRegisteredCB
ZDO_SendMsgCBs      SYMBOL "ZDO_SendMsgCBs"
`??ZDO_SendMsgCBs::?relay` SYMBOL "?relay", ZDO_SendMsgCBs
ZDP_BindUnbindReq   SYMBOL "ZDP_BindUnbindReq"
`??ZDP_BindUnbindReq::?relay` SYMBOL "?relay", ZDP_BindUnbindReq
ZDP_DeviceAnnce     SYMBOL "ZDP_DeviceAnnce"
`??ZDP_DeviceAnnce::?relay` SYMBOL "?relay", ZDP_DeviceAnnce
ZDP_EPRsp           SYMBOL "ZDP_EPRsp"
`??ZDP_EPRsp::?relay` SYMBOL "?relay", ZDP_EPRsp
ZDP_EndDeviceBindReq SYMBOL "ZDP_EndDeviceBindReq"
`??ZDP_EndDeviceBindReq::?relay` SYMBOL "?relay", ZDP_EndDeviceBindReq
ZDP_GenericRsp      SYMBOL "ZDP_GenericRsp"
`??ZDP_GenericRsp::?relay` SYMBOL "?relay", ZDP_GenericRsp
ZDP_IEEEAddrReq     SYMBOL "ZDP_IEEEAddrReq"
`??ZDP_IEEEAddrReq::?relay` SYMBOL "?relay", ZDP_IEEEAddrReq
ZDP_IncomingData    SYMBOL "ZDP_IncomingData"
`??ZDP_IncomingData::?relay` SYMBOL "?relay", ZDP_IncomingData
ZDP_MatchDescReq    SYMBOL "ZDP_MatchDescReq"
`??ZDP_MatchDescReq::?relay` SYMBOL "?relay", ZDP_MatchDescReq
ZDP_MgmtBindRsp     SYMBOL "ZDP_MgmtBindRsp"
`??ZDP_MgmtBindRsp::?relay` SYMBOL "?relay", ZDP_MgmtBindRsp
ZDP_MgmtDirectJoinReq SYMBOL "ZDP_MgmtDirectJoinReq"
`??ZDP_MgmtDirectJoinReq::?relay` SYMBOL "?relay", ZDP_MgmtDirectJoinReq
ZDP_MgmtLeaveReq    SYMBOL "ZDP_MgmtLeaveReq"
`??ZDP_MgmtLeaveReq::?relay` SYMBOL "?relay", ZDP_MgmtLeaveReq
ZDP_MgmtLqiRsp      SYMBOL "ZDP_MgmtLqiRsp"
`??ZDP_MgmtLqiRsp::?relay` SYMBOL "?relay", ZDP_MgmtLqiRsp
ZDP_MgmtNwkDiscReq  SYMBOL "ZDP_MgmtNwkDiscReq"
`??ZDP_MgmtNwkDiscReq::?relay` SYMBOL "?relay", ZDP_MgmtNwkDiscReq
ZDP_MgmtNwkDiscRsp  SYMBOL "ZDP_MgmtNwkDiscRsp"
`??ZDP_MgmtNwkDiscRsp::?relay` SYMBOL "?relay", ZDP_MgmtNwkDiscRsp
ZDP_MgmtNwkUpdateNotify SYMBOL "ZDP_MgmtNwkUpdateNotify"
`??ZDP_MgmtNwkUpdateNotify::?relay` SYMBOL "?relay", ZDP_MgmtNwkUpdateNotify
ZDP_MgmtNwkUpdateReq SYMBOL "ZDP_MgmtNwkUpdateReq"
`??ZDP_MgmtNwkUpdateReq::?relay` SYMBOL "?relay", ZDP_MgmtNwkUpdateReq
ZDP_MgmtPermitJoinReq SYMBOL "ZDP_MgmtPermitJoinReq"
`??ZDP_MgmtPermitJoinReq::?relay` SYMBOL "?relay", ZDP_MgmtPermitJoinReq
ZDP_MgmtRtgRsp      SYMBOL "ZDP_MgmtRtgRsp"
`??ZDP_MgmtRtgRsp::?relay` SYMBOL "?relay", ZDP_MgmtRtgRsp
ZDP_NWKAddrOfInterestReq SYMBOL "ZDP_NWKAddrOfInterestReq"
`??ZDP_NWKAddrOfInterestReq::?relay` SYMBOL "?relay", ZDP_NWKAddrOfInterestReq
ZDP_NodeDescMsg     SYMBOL "ZDP_NodeDescMsg"
`??ZDP_NodeDescMsg::?relay` SYMBOL "?relay", ZDP_NodeDescMsg
ZDP_NwkAddrReq      SYMBOL "ZDP_NwkAddrReq"
`??ZDP_NwkAddrReq::?relay` SYMBOL "?relay", ZDP_NwkAddrReq
ZDP_ParentAnnce     SYMBOL "ZDP_ParentAnnce"
`??ZDP_ParentAnnce::?relay` SYMBOL "?relay", ZDP_ParentAnnce
ZDP_PowerDescMsg    SYMBOL "ZDP_PowerDescMsg"
`??ZDP_PowerDescMsg::?relay` SYMBOL "?relay", ZDP_PowerDescMsg
ZDP_SendData        SYMBOL "ZDP_SendData"
`??ZDP_SendData::?relay` SYMBOL "?relay", ZDP_SendData
ZDP_ServerDiscReq   SYMBOL "ZDP_ServerDiscReq"
`??ZDP_ServerDiscReq::?relay` SYMBOL "?relay", ZDP_ServerDiscReq
ZDP_ServerDiscRsp   SYMBOL "ZDP_ServerDiscRsp"
`??ZDP_ServerDiscRsp::?relay` SYMBOL "?relay", ZDP_ServerDiscRsp
ZDP_SimpleDescMsg   SYMBOL "ZDP_SimpleDescMsg"
`??ZDP_SimpleDescMsg::?relay` SYMBOL "?relay", ZDP_SimpleDescMsg
ZDP_SimpleDescReq   SYMBOL "ZDP_SimpleDescReq"
`??ZDP_SimpleDescReq::?relay` SYMBOL "?relay", ZDP_SimpleDescReq
ZDP_UserDescRsp     SYMBOL "ZDP_UserDescRsp"
`??ZDP_UserDescRsp::?relay` SYMBOL "?relay", ZDP_UserDescRsp
ZDP_UserDescSet     SYMBOL "ZDP_UserDescSet"
`??ZDP_UserDescSet::?relay` SYMBOL "?relay", ZDP_UserDescSet
zdpProcessAddrReq   SYMBOL "zdpProcessAddrReq"
`??zdpProcessAddrReq::?relay` SYMBOL "?relay", zdpProcessAddrReq

        EXTERN `??AF_DataRequest::?relay`
        FUNCTION `??AF_DataRequest::?relay`,00H
        EXTERN `??NLME_GetExtAddr::?relay`
        FUNCTION `??NLME_GetExtAddr::?relay`,00H
        EXTERN `??NLME_GetShortAddr::?relay`
        FUNCTION `??NLME_GetShortAddr::?relay`,00H
        EXTERN `??ZDApp_InMsgCB::?relay`
        FUNCTION `??ZDApp_InMsgCB::?relay`,00H
        EXTERN `??ZDApp_SetParentAnnceTimer::?relay`
        FUNCTION `??ZDApp_SetParentAnnceTimer::?relay`,00H
        EXTERN `??ZDO_ProcessActiveEPReq::?relay`
        FUNCTION `??ZDO_ProcessActiveEPReq::?relay`,00H
        EXTERN `??ZDO_ProcessMatchDescReq::?relay`
        FUNCTION `??ZDO_ProcessMatchDescReq::?relay`,00H
        EXTERN `??ZDO_ProcessMgmtBindReq::?relay`
        FUNCTION `??ZDO_ProcessMgmtBindReq::?relay`,00H
        EXTERN `??ZDO_ProcessMgmtLeaveReq::?relay`
        FUNCTION `??ZDO_ProcessMgmtLeaveReq::?relay`,00H
        EXTERN `??ZDO_ProcessMgmtLqiReq::?relay`
        FUNCTION `??ZDO_ProcessMgmtLqiReq::?relay`,00H
        EXTERN `??ZDO_ProcessNodeDescReq::?relay`
        FUNCTION `??ZDO_ProcessNodeDescReq::?relay`,00H
        EXTERN `??ZDO_ProcessNodeDescRsp::?relay`
        FUNCTION `??ZDO_ProcessNodeDescRsp::?relay`,00H
        EXTERN `??ZDO_ProcessPowerDescReq::?relay`
        FUNCTION `??ZDO_ProcessPowerDescReq::?relay`,00H
        EXTERN `??ZDO_ProcessSimpleDescReq::?relay`
        FUNCTION `??ZDO_ProcessSimpleDescReq::?relay`,00H
        EXTERN `??ZDO_ProcessSimpleDescRsp::?relay`
        FUNCTION `??ZDO_ProcessSimpleDescRsp::?relay`,00H
        EXTERN `??osal_buffer_uint32::?relay`
        FUNCTION `??osal_buffer_uint32::?relay`,00H
        EXTERN `??osal_mem_alloc::?relay`
        FUNCTION `??osal_mem_alloc::?relay`,00H
        EXTERN `??osal_mem_free::?relay`
        FUNCTION `??osal_mem_free::?relay`,00H
        EXTERN `??osal_memcpy::?relay`
        FUNCTION `??osal_memcpy::?relay`,00H
        EXTERN `??osal_memset::?relay`
        FUNCTION `??osal_memset::?relay`,00H
        EXTERN `??osal_msg_allocate::?relay`
        FUNCTION `??osal_msg_allocate::?relay`,00H
        EXTERN `??osal_msg_send::?relay`
        FUNCTION `??osal_msg_send::?relay`,00H
        EXTERN `??osal_start_timerEx::?relay`
        FUNCTION `??osal_start_timerEx::?relay`,00H
        EXTERN `??sAddrExtCmp::?relay`
        FUNCTION `??sAddrExtCmp::?relay`,00H
        EXTERN `??sAddrExtCpy::?relay`
        FUNCTION `??sAddrExtCpy::?relay`,00H
        EXTERN AF_DataRequest
        FUNCTION AF_DataRequest,0202H
        ARGFRAME ISTACK, 0, STACK
        ARGFRAME PSTACK, 0, STACK
        ARGFRAME XSTACK, 35, STACK
        ARGFRAME IOVERLAY, 0, STATIC
        ARGFRAME DOVERLAY, 0, STATIC
        EXTERN NLME_GetExtAddr
        FUNCTION NLME_GetExtAddr,0202H
        ARGFRAME ISTACK, 0, STACK
        ARGFRAME PSTACK, 0, STACK
        ARGFRAME XSTACK, 18, STACK
        ARGFRAME IOVERLAY, 0, STATIC
        ARGFRAME DOVERLAY, 0, STATIC
        EXTERN NLME_GetShortAddr
        FUNCTION NLME_GetShortAddr,0202H
        ARGFRAME ISTACK, 0, STACK
        ARGFRAME PSTACK, 0, STACK
        ARGFRAME XSTACK, 21, STACK
        ARGFRAME IOVERLAY, 0, STATIC
        ARGFRAME DOVERLAY, 0, STATIC
        EXTERN ZDAppNwkAddr
        EXTERN ZDAppTaskID
        EXTERN ZDApp_InMsgCB
        FUNCTION ZDApp_InMsgCB,0202H
        ARGFRAME ISTACK, 0, STACK
        ARGFRAME PSTACK, 0, STACK
        ARGFRAME XSTACK, 33, STACK
        ARGFRAME IOVERLAY, 0, STATIC
        ARGFRAME DOVERLAY, 0, STATIC
        EXTERN ZDApp_SetParentAnnceTimer
        FUNCTION ZDApp_SetParentAnnceTimer,0202H
        ARGFRAME ISTACK, 0, STACK
        ARGFRAME PSTACK, 0, STACK
        ARGFRAME XSTACK, 22, STACK
        ARGFRAME IOVERLAY, 0, STATIC
        ARGFRAME DOVERLAY, 0, STATIC
        EXTERN ZDApp_epDesc
        EXTERN osal_buffer_uint32
        FUNCTION osal_buffer_uint32,0202H
        ARGFRAME ISTACK, 0, STACK
        ARGFRAME PSTACK, 0, STACK
        ARGFRAME XSTACK, 23, STACK
        ARGFRAME IOVERLAY, 0, STATIC
        ARGFRAME DOVERLAY, 0, STATIC
        EXTERN osal_mem_alloc
        FUNCTION osal_mem_alloc,0202H
        ARGFRAME ISTACK, 0, STACK
        ARGFRAME PSTACK, 0, STACK
        ARGFRAME XSTACK, 23, STACK
        ARGFRAME IOVERLAY, 0, STATIC
        ARGFRAME DOVERLAY, 0, STATIC
        EXTERN osal_mem_free
        FUNCTION osal_mem_free,0202H
        ARGFRAME ISTACK, 0, STACK
        ARGFRAME PSTACK, 0, STACK
        ARGFRAME XSTACK, 23, STACK
        ARGFRAME IOVERLAY, 0, STATIC
        ARGFRAME DOVERLAY, 0, STATIC
        EXTERN osal_memcpy
        FUNCTION osal_memcpy,0202H
        ARGFRAME ISTACK, 0, STACK
        ARGFRAME PSTACK, 0, STACK
        ARGFRAME XSTACK, 22, STACK
        ARGFRAME IOVERLAY, 0, STATIC
        ARGFRAME DOVERLAY, 0, STATIC
        EXTERN osal_memset
        FUNCTION osal_memset,0202H
        ARGFRAME ISTACK, 0, STACK
        ARGFRAME PSTACK, 0, STACK
        ARGFRAME XSTACK, 28, STACK
        ARGFRAME IOVERLAY, 0, STATIC
        ARGFRAME DOVERLAY, 0, STATIC
        EXTERN osal_msg_allocate
        FUNCTION osal_msg_allocate,0202H
        ARGFRAME ISTACK, 0, STACK
        ARGFRAME PSTACK, 0, STACK
        ARGFRAME XSTACK, 18, STACK
        ARGFRAME IOVERLAY, 0, STATIC
        ARGFRAME DOVERLAY, 0, STATIC
        EXTERN osal_msg_send
        FUNCTION osal_msg_send,0202H
        ARGFRAME ISTACK, 0, STACK
        ARGFRAME PSTACK, 0, STACK
        ARGFRAME XSTACK, 18, STACK
        ARGFRAME IOVERLAY, 0, STATIC
        ARGFRAME DOVERLAY, 0, STATIC
        EXTERN osal_start_timerEx
        FUNCTION osal_start_timerEx,0202H
        ARGFRAME ISTACK, 0, STACK
        ARGFRAME PSTACK, 0, STACK
        ARGFRAME XSTACK, 26, STACK
        ARGFRAME IOVERLAY, 0, STATIC
        ARGFRAME DOVERLAY, 0, STATIC
        EXTERN sAddrExtCmp
        FUNCTION sAddrExtCmp,0202H
        ARGFRAME ISTACK, 0, STACK
        ARGFRAME PSTACK, 0, STACK
        ARGFRAME XSTACK, 28, STACK
        ARGFRAME IOVERLAY, 0, STATIC
        ARGFRAME DOVERLAY, 0, STATIC
        EXTERN sAddrExtCpy
        FUNCTION sAddrExtCpy,0202H
        ARGFRAME ISTACK, 1, STACK
        ARGFRAME PSTACK, 0, STACK
        ARGFRAME XSTACK, 28, STACK
        ARGFRAME IOVERLAY, 0, STATIC
        ARGFRAME DOVERLAY, 0, STATIC
        EXTERN saveExtAddr

// D:\work\zigbee\ti_cc2530_zstack\Z-Stack 3.0.2\Components\stack\zdo\ZDProfile.c
//    1 /**************************************************************************************************
//    2   Filename:       ZDProfile.c
//    3   Revised:        $Date: 2015-10-14 11:48:06 -0700 (Wed, 14 Oct 2015) $
//    4   Revision:       $Revision: 44530 $
//    5 
//    6   Description:    This is the Zigbee Device Profile.
//    7 
//    8 
//    9   Copyright 2004-2015 Texas Instruments Incorporated. All rights reserved.
//   10 
//   11   IMPORTANT: Your use of this Software is limited to those specific rights
//   12   granted under the terms of a software license agreement between the user
//   13   who downloaded the software, his/her employer (which must be your employer)
//   14   and Texas Instruments Incorporated (the "License").  You may not use this
//   15   Software unless you agree to abide by the terms of the License. The License
//   16   limits your use, and you acknowledge, that the Software may not be modified,
//   17   copied or distributed unless embedded on a Texas Instruments microcontroller
//   18   or used solely and exclusively in conjunction with a Texas Instruments radio
//   19   frequency transceiver, which is integrated into your product.  Other than for
//   20   the foregoing purpose, you may not use, reproduce, copy, prepare derivative
//   21   works of, modify, distribute, perform, display or sell this Software and/or
//   22   its documentation for any purpose.
//   23 
//   24   YOU FURTHER ACKNOWLEDGE AND AGREE THAT THE SOFTWARE AND DOCUMENTATION ARE
//   25   PROVIDED "AS IS" WITHOUT WARRANTY OF ANY KIND, EITHER EXPRESS OR IMPLIED,
//   26   INCLUDING WITHOUT LIMITATION, ANY WARRANTY OF MERCHANTABILITY, TITLE,
//   27   NON-INFRINGEMENT AND FITNESS FOR A PARTICULAR PURPOSE. IN NO EVENT SHALL
//   28   TEXAS INSTRUMENTS OR ITS LICENSORS BE LIABLE OR OBLIGATED UNDER CONTRACT,
//   29   NEGLIGENCE, STRICT LIABILITY, CONTRIBUTION, BREACH OF WARRANTY, OR OTHER
//   30   LEGAL EQUITABLE THEORY ANY DIRECT OR INDIRECT DAMAGES OR EXPENSES
//   31   INCLUDING BUT NOT LIMITED TO ANY INCIDENTAL, SPECIAL, INDIRECT, PUNITIVE
//   32   OR CONSEQUENTIAL DAMAGES, LOST PROFITS OR LOST DATA, COST OF PROCUREMENT
//   33   OF SUBSTITUTE GOODS, TECHNOLOGY, SERVICES, OR ANY CLAIMS BY THIRD PARTIES
//   34   (INCLUDING BUT NOT LIMITED TO ANY DEFENSE THEREOF), OR OTHER SIMILAR COSTS.
//   35 
//   36   Should you have any questions regarding your right to use this Software,
//   37   contact Texas Instruments Incorporated at www.TI.com.
//   38 **************************************************************************************************/
//   39 
//   40 /*********************************************************************
//   41  * INCLUDES
//   42  */
//   43 #include "ZComDef.h"
//   44 #include "OSAL.h"
//   45 #include "AF.h"
//   46 #include "NLMEDE.h"
//   47 #include "nwk_util.h"
//   48 #include "APS.h"
//   49 
//   50 #include "AddrMgr.h"
//   51 #include "ZDConfig.h"
//   52 #include "ZDProfile.h"
//   53 #include "ZDObject.h"
//   54 #include "ZDNwkMgr.h"
//   55 
//   56 #if defined( LCD_SUPPORTED )
//   57   #include "OnBoard.h"
//   58 #endif
//   59 
//   60 #include "nwk_util.h"
//   61 
//   62 #if defined( MT_ZDO_FUNC )
//   63   #include "MT_ZDO.h"
//   64 #endif
//   65 
//   66 /*********************************************************************
//   67  * MACROS
//   68  */
//   69 
//   70 #define ZADDR_TO_AFADDR( pZADDR, AFADDR ) {                            \ 
//   71   (AFADDR).endPoint = ZDP_AF_ENDPOINT;                                 \ 
//   72   (AFADDR).addrMode = (afAddrMode_t)(pZADDR)->addrMode;                \ 
//   73   (AFADDR).addr.shortAddr = (pZADDR)->addr.shortAddr;                  \ 
//   74 }
//   75 
//   76 #define FillAndSendBuffer( TRANSSEQ, ADDR, ID, LEN, BUF ) {     \ 
//   77   afStatus_t stat;                                    \ 
//   78   ZDP_TmpBuf = (BUF)+1;                               \ 
//   79   stat = fillAndSend( (TRANSSEQ), (ADDR), (ID), (LEN) );          \ 
//   80   osal_mem_free( (BUF) );                             \ 
//   81   ZDP_TmpBuf = ZDP_Buf+1;                             \ 
//   82   return stat;                                        \ 
//   83 }
//   84 
//   85 #define FillAndSendTxOptions( TRANSSEQ, ADDR, ID, LEN, TxO ) {  \ 
//   86   afStatus_t stat;                                    \ 
//   87   ZDP_TxOptions = (TxO);                              \ 
//   88   stat = fillAndSend( (TRANSSEQ), (ADDR), (ID), (LEN) );          \ 
//   89   ZDP_TxOptions = AF_TX_OPTIONS_NONE;                 \ 
//   90   return stat;                                        \ 
//   91 }
//   92 
//   93 #define FillAndSendBufferTxOptions( TRANSSEQ, ADDR, ID, LEN, BUF, TxO ) { \ 
//   94   afStatus_t stat;                                    \ 
//   95   ZDP_TmpBuf = (BUF)+1;                               \ 
//   96   ZDP_TxOptions = (TxO);                              \ 
//   97   stat = fillAndSend( (TRANSSEQ), (ADDR), (ID), (LEN) );          \ 
//   98   osal_mem_free( (BUF) );                             \ 
//   99   ZDP_TmpBuf = ZDP_Buf+1;                             \ 
//  100   ZDP_TxOptions = AF_TX_OPTIONS_NONE;                 \ 
//  101   return stat;                                        \ 
//  102 }
//  103 
//  104 /*********************************************************************
//  105  * CONSTANTS
//  106  */
//  107 
//  108 #define ZDP_BUF_SZ          80
//  109 

        RSEG CODE_C:CODE:REORDER:NOROOT(0)
        DATA8
//  110 CONST byte ZDP_AF_ENDPOINT = 0;
ZDP_AF_ENDPOINT:
        DB 0
//  111 
//  112 // Routing table options
//  113 #define ZP_RTG_RECORD       0x04       // Routing table indication that a route record is needed
//  114 #define ZP_MTO_ROUTE_RC     0x08       // Concentrator with routing cache
//  115 #define ZP_MTO_ROUTE_NRC    0x10       // Concentrator with limited cache
//  116 
//  117 
//  118 /*********************************************************************
//  119  * TYPEDEFS
//  120  */
//  121 typedef struct
//  122 {
//  123   void *next;
//  124   uint8 taskID;
//  125   uint16 clusterID;
//  126 } ZDO_MsgCB_t;
//  127 
//  128 
//  129 /*********************************************************************
//  130  * GLOBAL VARIABLES
//  131  */
//  132 

        RSEG XDATA_Z:XDATA:NOROOT(0)
        DATA8
//  133 byte ZDP_TransID = 0;
ZDP_TransID:
        DS 1
        REQUIRE __INIT_XDATA_Z

        RSEG XDATA_Z:XDATA:NOROOT(0)
        DATA8
//  134 uint8 childIndex = 0;
childIndex:
        DS 1
        REQUIRE __INIT_XDATA_Z
//  135 
//  136 /*********************************************************************
//  137  * EXTERNAL VARIABLES
//  138  */
//  139 
//  140 extern endPointDesc_t ZDApp_epDesc;
//  141 
//  142 /*********************************************************************
//  143  * EXTERNAL FUNCTIONS
//  144  */
//  145 extern void ZDApp_SetParentAnnceTimer( void );
//  146 
//  147 /*********************************************************************
//  148  * LOCAL FUNCTIONS
//  149  */
//  150 
//  151 static afStatus_t fillAndSend( uint8 *transSeq, zAddrType_t *addr, cId_t clusterID, byte len );
//  152 uint8 ZDO_SendMsgCBs( zdoIncomingMsg_t *inMsg );
//  153 void zdpProcessAddrReq( zdoIncomingMsg_t *inMsg );
//  154 
//  155 /*********************************************************************
//  156  * LOCAL VARIABLES
//  157  */
//  158 

        RSEG XDATA_Z:XDATA:NOROOT(0)
        DATA8
//  159 static uint8  ZDP_Buf[ ZDP_BUF_SZ ];
ZDP_Buf:
        DS 80
        REQUIRE __INIT_XDATA_Z

        RSEG XDATA_I:XDATA:NOROOT(0)
//  160 static uint8 *ZDP_TmpBuf = ZDP_Buf+1;
ZDP_TmpBuf:
        DATA16
        DS 2
        REQUIRE `?<Initializer for ZDP_TmpBuf>`
        REQUIRE __INIT_XDATA_I
//  161 

        RSEG XDATA_Z:XDATA:NOROOT(0)
        DATA8
//  162 byte ZDP_TxOptions = AF_TX_OPTIONS_NONE;
ZDP_TxOptions:
        DS 1
        REQUIRE __INIT_XDATA_Z

        RSEG XDATA_Z:XDATA:NOROOT(0)
        DATA16
//  163 ZDO_MsgCB_t *zdoMsgCBs = (ZDO_MsgCB_t *)NULL;
zdoMsgCBs:
        DS 2
        REQUIRE __INIT_XDATA_Z
//  164 
//  165 /*********************************************************************
//  166  * ZDO Message Processing table
//  167  */
//  168 
//  169 typedef void (*pfnZDPMsgProcessor)( zdoIncomingMsg_t *inMsg );
//  170 
//  171 typedef struct
//  172 {
//  173   uint16                clusterID;
//  174   pfnZDPMsgProcessor    pFn;
//  175 } zdpMsgProcItem_t;
//  176 

        RSEG CODE_C:CODE:REORDER:NOROOT(0)
        DATA8
//  177 CONST zdpMsgProcItem_t zdpMsgProcs[] =
zdpMsgProcs:
        DATA16
        DW 0
        DW `??zdpProcessAddrReq::?relay`
        DW 1
        DW `??zdpProcessAddrReq::?relay`
        DW 2
        DW `??ZDO_ProcessNodeDescReq::?relay`
        DW 32770
        DW `??ZDO_ProcessNodeDescRsp::?relay`
        DW 3
        DW `??ZDO_ProcessPowerDescReq::?relay`
        DW 4
        DW `??ZDO_ProcessSimpleDescReq::?relay`
        DW 32772
        DW `??ZDO_ProcessSimpleDescRsp::?relay`
        DW 5
        DW `??ZDO_ProcessActiveEPReq::?relay`
        DW 6
        DW `??ZDO_ProcessMatchDescReq::?relay`
        DW 49
        DW `??ZDO_ProcessMgmtLqiReq::?relay`
        DW 51
        DW `??ZDO_ProcessMgmtBindReq::?relay`
        DW 52
        DW `??ZDO_ProcessMgmtLeaveReq::?relay`
        DW 65535
        DW 0H
//  178 {
//  179 #if ( RFD_RCVC_ALWAYS_ON==TRUE ) || ( ZG_BUILD_RTR_TYPE )
//  180   // These aren't processed by sleeping end devices.
//  181   { Device_annce,           ZDO_ProcessDeviceAnnce },
//  182 #endif
//  183 #if ( ZG_BUILD_RTR_TYPE )
//  184   // These aren't processed by end devices.
//  185   { Parent_annce,           ZDO_ProcessParentAnnce },
//  186   { Parent_annce_rsp,       ZDO_ProcessParentAnnceRsp },
//  187 #endif
//  188   { NWK_addr_req,           zdpProcessAddrReq },
//  189   { IEEE_addr_req,          zdpProcessAddrReq },
//  190   { Node_Desc_req,          ZDO_ProcessNodeDescReq },
//  191   { Node_Desc_rsp,          ZDO_ProcessNodeDescRsp },
//  192   { Power_Desc_req,         ZDO_ProcessPowerDescReq },
//  193   { Simple_Desc_req,        ZDO_ProcessSimpleDescReq },
//  194   { Simple_Desc_rsp,        ZDO_ProcessSimpleDescRsp },
//  195   { Active_EP_req,          ZDO_ProcessActiveEPReq },
//  196   { Match_Desc_req,         ZDO_ProcessMatchDescReq },
//  197 #if defined ( ZDO_MGMT_NWKDISC_RESPONSE )
//  198   { Mgmt_NWK_Disc_req,      ZDO_ProcessMgmtNwkDiscReq },
//  199 #endif
//  200 #if defined ( ZDO_MGMT_LQI_RESPONSE ) && ( ZG_BUILD_RTR_TYPE || ZG_BUILD_ENDDEVICE_TYPE )
//  201   { Mgmt_Lqi_req,           ZDO_ProcessMgmtLqiReq },
//  202 #endif
//  203 #if defined ( ZDO_MGMT_RTG_RESPONSE ) && ( ZG_BUILD_RTR_TYPE )
//  204   { Mgmt_Rtg_req,           ZDO_ProcessMgmtRtgReq },
//  205 #endif
//  206 #if defined ( ZDO_MGMT_BIND_RESPONSE ) && defined ( REFLECTOR )
//  207   { Mgmt_Bind_req,          ZDO_ProcessMgmtBindReq },
//  208 #endif
//  209 #if defined ( ZDO_MGMT_JOINDIRECT_RESPONSE ) && ( ZG_BUILD_RTR_TYPE )
//  210   { Mgmt_Direct_Join_req,   ZDO_ProcessMgmtDirectJoinReq },
//  211 #endif
//  212 #if defined ( ZDO_MGMT_LEAVE_RESPONSE )
//  213   { Mgmt_Leave_req,         ZDO_ProcessMgmtLeaveReq },
//  214 #endif
//  215 #if defined ( ZDO_MGMT_PERMIT_JOIN_RESPONSE )  && ( ZG_BUILD_RTR_TYPE )
//  216   { Mgmt_Permit_Join_req,   ZDO_ProcessMgmtPermitJoinReq },
//  217 #endif
//  218 #if defined ( ZDO_USERDESC_RESPONSE )
//  219   { User_Desc_req,          ZDO_ProcessUserDescReq },
//  220 #endif
//  221 #if defined ( ZDO_USERDESCSET_RESPONSE )
//  222   { User_Desc_set,          ZDO_ProcessUserDescSet },
//  223 #endif
//  224 #if defined ( ZDO_SERVERDISC_RESPONSE )
//  225   { Server_Discovery_req,   ZDO_ProcessServerDiscReq },
//  226 #endif
//  227   {0xFFFF, NULL} // Last
//  228 };
//  229 
//  230 /*********************************************************************
//  231  * @fn          fillAndSend
//  232  *
//  233  * @brief       Combined to reduce space
//  234  *
//  235  * @param
//  236  * @param
//  237  *
//  238  * @return      afStatus_t
//  239  */

        RSEG BANKED_CODE:HUGECODE:NOROOT(0)
//  240 static afStatus_t fillAndSend( uint8 *transSeq, zAddrType_t *addr, cId_t clusterID, byte len )
fillAndSend:
          CFI Block cfiBlock0 Using cfiCommon0
          CFI Function fillAndSend
        CODE
//  241 {
        FUNCALL fillAndSend, osal_memset
        LOCFRAME ISTACK, 0, STACK
        LOCFRAME PSTACK, 0, STACK
        LOCFRAME XSTACK, 26, STACK
        LOCFRAME IOVERLAY, 0, STATIC
        LOCFRAME DOVERLAY, 0, STATIC
        ARGFRAME ISTACK, 0, STACK
        ARGFRAME PSTACK, 0, STACK
        ARGFRAME XSTACK, 26, STACK
        ARGFRAME IOVERLAY, 0, STATIC
        ARGFRAME DOVERLAY, 0, STATIC
        FUNCALL fillAndSend, AF_DataRequest
        LOCFRAME ISTACK, 0, STACK
        LOCFRAME PSTACK, 0, STACK
        LOCFRAME XSTACK, 35, STACK
        LOCFRAME IOVERLAY, 0, STATIC
        LOCFRAME DOVERLAY, 0, STATIC
        ARGFRAME ISTACK, 0, STACK
        ARGFRAME PSTACK, 0, STACK
        ARGFRAME XSTACK, 35, STACK
        ARGFRAME IOVERLAY, 0, STATIC
        ARGFRAME DOVERLAY, 0, STATIC
        REQUIRE ?V0
        REQUIRE ?V1
        REQUIRE ?V2
        REQUIRE ?V3
        REQUIRE ?V4
        REQUIRE ?V5
        MOV       A,#-0xe
        LCALL     ?BANKED_ENTER_XDATA
          CFI DPH0 load(1, XDATA, add(CFA_XSP16, literal(-1)))
          CFI DPL0 load(1, XDATA, add(CFA_XSP16, literal(-2)))
          CFI ?BRET_EXT load(1, XDATA, add(CFA_XSP16, literal(-3)))
          CFI ?RET_HIGH load(1, XDATA, add(CFA_XSP16, literal(-4)))
          CFI ?RET_LOW load(1, XDATA, add(CFA_XSP16, literal(-5)))
          CFI R7 load(1, XDATA, add(CFA_XSP16, literal(-6)))
          CFI V5 load(1, XDATA, add(CFA_XSP16, literal(-7)))
          CFI V4 load(1, XDATA, add(CFA_XSP16, literal(-8)))
          CFI V3 load(1, XDATA, add(CFA_XSP16, literal(-9)))
          CFI V2 load(1, XDATA, add(CFA_XSP16, literal(-10)))
          CFI V1 load(1, XDATA, add(CFA_XSP16, literal(-11)))
          CFI V0 load(1, XDATA, add(CFA_XSP16, literal(-12)))
          CFI VB load(1, XDATA, add(CFA_XSP16, literal(-13)))
          CFI R6 load(1, XDATA, add(CFA_XSP16, literal(-14)))
          CFI CFA_SP SP+0
          CFI CFA_XSP16 add(XSP16, 14)
        ; Saved register size: 14
        ; Auto size: 12
        MOV       A,#-0xc
        LCALL     ?ALLOC_XSTACK8
          CFI CFA_XSP16 add(XSP16, 26)
        MOV       ?V0,R2
        MOV       ?V1,R3
        MOV       A,R4
        MOV       R6,A
        MOV       A,R5
        MOV       R7,A
        MOV       ?V4,R1
//  242   afAddrType_t afAddr;
//  243 
//  244   osal_memset( &afAddr, 0, sizeof(afAddrType_t) );
        ; Setup parameters for call to function osal_memset
        MOV       R4,#0xc
        MOV       R5,#0x0
        MOV       R1,#0x0
        MOV       R2,?XSP + 0
        MOV       R3,?XSP + 1
        LCALL     `??osal_memset::?relay`; Banked call to: osal_memset
//  245   ZADDR_TO_AFADDR( addr, afAddr );
        MOV       A,#0x9
        LCALL     ?XSTACK_DISP0_8
        CLR       A
        LCALL     ?Subroutine20 & 0xFFFF
??CrossCallReturnLabel_22:
        MOVX      A,@DPTR
        PUSH      A
          CFI CFA_SP SP+-1
        MOV       A,#0x8
        LCALL     ?XSTACK_DISP0_8
        POP       A
          CFI CFA_SP SP+0
        MOVX      @DPTR,A
        MOV       DPL,R6
        MOV       DPH,R7
        LCALL     ?Subroutine48 & 0xFFFF
??CrossCallReturnLabel_76:
        LCALL     ?Subroutine28 & 0xFFFF
//  246 
//  247   *(ZDP_TmpBuf-1) = *transSeq;
??CrossCallReturnLabel_37:
        MOV       DPTR,#ZDP_TmpBuf
        MOVX      A,@DPTR
        ADD       A,#-0x1
        MOV       ?V2,A
        INC       DPTR
        MOVX      A,@DPTR
        ADDC      A,#-0x1
        MOV       ?V3,A
        MOV       DPL,?V0
        MOV       DPH,?V1
        MOVX      A,@DPTR
        MOV       DPL,?V2
        MOV       DPH,?V3
        MOVX      @DPTR,A
//  248 
//  249   return AF_DataRequest( &afAddr, &ZDApp_epDesc, clusterID,
//  250                            (uint16)(len+1), (uint8*)(ZDP_TmpBuf-1),
//  251                            transSeq, ZDP_TxOptions,  AF_DEFAULT_RADIUS );
        ; Setup parameters for call to function AF_DataRequest
        MOV       ?V5,#0x1e
        MOV       R0,#?V5
        LCALL     ?PUSH_XSTACK_I_ONE
          CFI CFA_XSP16 add(XSP16, 27)
        MOV       R0,#?V0
        LCALL     ?PUSH_XSTACK_I_TWO
          CFI CFA_XSP16 add(XSP16, 29)
        MOV       R0,#?V2
        LCALL     ?PUSH_XSTACK_I_TWO
          CFI CFA_XSP16 add(XSP16, 31)
        MOV       A,?V4
        ADD       A,#0x1
        MOV       ?V0,A
        CLR       A
        ADDC      A,#0x0
        MOV       ?V1,A
        MOV       R0,#?V0
        LCALL     ?PUSH_XSTACK_I_TWO
          CFI CFA_XSP16 add(XSP16, 33)
        MOV       A,#0x21
        LCALL     ?XSTACK_DISP0_8
        LCALL     ?PUSH_XSTACK8_X_TWO
          CFI CFA_XSP16 add(XSP16, 35)
        MOV       DPTR,#ZDP_TxOptions
        MOVX      A,@DPTR
        MOV       R1,A
        MOV       R4,#ZDApp_epDesc & 0xff
        MOV       R5,#(ZDApp_epDesc >> 8) & 0xff
        MOV       A,#0x9
        LCALL     ?XSTACK_DISP101_8
        LCALL     `??AF_DataRequest::?relay`; Banked call to: AF_DataRequest
        MOV       A,#0x9
        LCALL     ?DEALLOC_XSTACK8
          CFI CFA_XSP16 add(XSP16, 26)
        MOV       A,#0xc
        LJMP      ?Subroutine0 & 0xFFFF
//  252 
//  253 }
          CFI EndBlock cfiBlock0
//  254 
//  255 /*********************************************************************
//  256  * @fn          ZDP_SendData
//  257  *
//  258  * @brief       This builds and send a request message that has
//  259  *              NWKAddrOfInterest as its only parameter.
//  260  *
//  261  * @param       dstAddr - destination address
//  262  * @param       cmd - clusterID
//  263  * @param       dataLen - number of bytes of data
//  264  * @param       data - pointer to the data
//  265  * @param       SecurityEnable - Security Options
//  266  *
//  267  * @return      afStatus_t
//  268  */

        RSEG BANKED_CODE:HUGECODE:NOROOT(0)
//  269 afStatus_t ZDP_SendData( uint8 *TransSeq, zAddrType_t *dstAddr, uint16 cmd,
ZDP_SendData:
          CFI Block cfiBlock1 Using cfiCommon0
          CFI Function ZDP_SendData
        CODE
//  270                         byte len, uint8 *buf, byte SecurityEnable )
//  271 {
        FUNCALL ZDP_SendData, fillAndSend
        LOCFRAME ISTACK, 0, STACK
        LOCFRAME PSTACK, 0, STACK
        LOCFRAME XSTACK, 14, STACK
        LOCFRAME IOVERLAY, 0, STATIC
        LOCFRAME DOVERLAY, 0, STATIC
        ARGFRAME ISTACK, 0, STACK
        ARGFRAME PSTACK, 0, STACK
        ARGFRAME XSTACK, 14, STACK
        ARGFRAME IOVERLAY, 0, STATIC
        ARGFRAME DOVERLAY, 0, STATIC
        REQUIRE ?V0
        REQUIRE ?V2
        REQUIRE ?V3
        MOV       A,#-0xc
        LCALL     ?BANKED_ENTER_XDATA
          CFI DPH0 load(1, XDATA, add(CFA_XSP16, literal(-1)))
          CFI DPL0 load(1, XDATA, add(CFA_XSP16, literal(-2)))
          CFI ?BRET_EXT load(1, XDATA, add(CFA_XSP16, literal(-3)))
          CFI ?RET_HIGH load(1, XDATA, add(CFA_XSP16, literal(-4)))
          CFI ?RET_LOW load(1, XDATA, add(CFA_XSP16, literal(-5)))
          CFI R7 load(1, XDATA, add(CFA_XSP16, literal(-6)))
          CFI V3 load(1, XDATA, add(CFA_XSP16, literal(-7)))
          CFI V2 load(1, XDATA, add(CFA_XSP16, literal(-8)))
          CFI V1 load(1, XDATA, add(CFA_XSP16, literal(-9)))
          CFI V0 load(1, XDATA, add(CFA_XSP16, literal(-10)))
          CFI VB load(1, XDATA, add(CFA_XSP16, literal(-11)))
          CFI R6 load(1, XDATA, add(CFA_XSP16, literal(-12)))
          CFI CFA_SP SP+0
          CFI CFA_XSP16 add(XSP16, 12)
        ; Saved register size: 12
        ; Auto size: 0
        MOV       A,R1
        MOV       R7,A
//  272   uint8 *pBuf = ZDP_TmpBuf;
        MOV       DPTR,#ZDP_TmpBuf
        LCALL     ?Subroutine43 & 0xFFFF
//  273   byte cnt = len;
??CrossCallReturnLabel_63:
        MOV       A,R7
        MOV       R6,A
        MOV       A,#0xe
        LCALL     ?XSTACK_DISP0_8
        LCALL     ??Subroutine117_0 & 0xFFFF
??CrossCallReturnLabel_233:
        SJMP      ??ZDP_SendData_0
//  274 
//  275   while ( cnt-- )
//  276   {
//  277     *pBuf++ = *buf++;
??ZDP_SendData_1:
        MOV       DPL,R0
        MOV       DPH,R1
        MOVX      A,@DPTR
        MOV       DPL,?V2
        MOV       DPH,?V3
        LCALL     ??Subroutine114_0 & 0xFFFF
//  278   }
??CrossCallReturnLabel_222:
        MOV       R0,DPL
        MOV       R1,DPH
        MOV       DPL,?V2
        MOV       DPH,?V3
        INC       DPTR
        MOV       ?V2,DPL
        MOV       ?V3,DPH
??ZDP_SendData_0:
        MOV       A,#-0x1
        ADD       A,R6
        MOV       R6,A
        INC       A
        JNZ       ??ZDP_SendData_1
//  279 
//  280   FillAndSendTxOptions( TransSeq, dstAddr, cmd, len, ((SecurityEnable) ? AF_EN_SECURITY : 0) );
        MOV       A,#0x10
        LCALL     ?XSTACK_DISP0_8
        MOVX      A,@DPTR
        MOV       DPTR,#ZDP_TxOptions
        JZ        ??ZDP_SendData_2
        MOV       A,#0x40
        SJMP      ??ZDP_SendData_3
??ZDP_SendData_2:
        CLR       A
??ZDP_SendData_3:
        MOVX      @DPTR,A
        ; Setup parameters for call to function fillAndSend
        MOV       A,#0xc
        LCALL     ?XSTACK_DISP0_8
        LCALL     ?PUSH_XSTACK8_X_TWO
          CFI CFA_XSP16 add(XSP16, 14)
        MOV       A,R7
        MOV       R1,A
        LCALL     `??fillAndSend::?relay`; Banked call to: fillAndSend
        MOV       A,#0x2
        LCALL     ?DEALLOC_XSTACK8
          CFI CFA_XSP16 add(XSP16, 12)
        MOV       A,R1
        MOV       R1,A
        MOV       DPTR,#ZDP_TxOptions
        CLR       A
        MOVX      @DPTR,A
        LJMP      ??Subroutine92_0 & 0xFFFF
//  281 }
          CFI EndBlock cfiBlock1
//  282 
//  283 /*********************************************************************
//  284  * @fn          ZDP_NWKAddrOfInterestReq
//  285  *
//  286  * @brief       This builds and send a request message that has
//  287  *              NWKAddrOfInterest as its only parameter.
//  288  *
//  289  * @param       dstAddr - destination address
//  290  * @param       nwkAddr - 16 bit address
//  291  * @param       SecurityEnable - Security Options
//  292  *
//  293  * @return      afStatus_t
//  294  */

        RSEG BANKED_CODE:HUGECODE:NOROOT(0)
//  295 afStatus_t ZDP_NWKAddrOfInterestReq( zAddrType_t *dstAddr, uint16 nwkAddr,
ZDP_NWKAddrOfInterestReq:
          CFI Block cfiBlock2 Using cfiCommon0
          CFI Function ZDP_NWKAddrOfInterestReq
        CODE
//  296                                      byte cmd, byte SecurityEnable )
//  297 {
        FUNCALL ZDP_NWKAddrOfInterestReq, fillAndSend
        LOCFRAME ISTACK, 0, STACK
        LOCFRAME PSTACK, 0, STACK
        LOCFRAME XSTACK, 12, STACK
        LOCFRAME IOVERLAY, 0, STATIC
        LOCFRAME DOVERLAY, 0, STATIC
        ARGFRAME ISTACK, 0, STACK
        ARGFRAME PSTACK, 0, STACK
        ARGFRAME XSTACK, 12, STACK
        ARGFRAME IOVERLAY, 0, STATIC
        ARGFRAME DOVERLAY, 0, STATIC
        REQUIRE ?V0
        REQUIRE ?V1
        MOV       A,#-0xa
        LCALL     ?BANKED_ENTER_XDATA
          CFI DPH0 load(1, XDATA, add(CFA_XSP16, literal(-1)))
          CFI DPL0 load(1, XDATA, add(CFA_XSP16, literal(-2)))
          CFI ?BRET_EXT load(1, XDATA, add(CFA_XSP16, literal(-3)))
          CFI ?RET_HIGH load(1, XDATA, add(CFA_XSP16, literal(-4)))
          CFI ?RET_LOW load(1, XDATA, add(CFA_XSP16, literal(-5)))
          CFI R7 load(1, XDATA, add(CFA_XSP16, literal(-6)))
          CFI V1 load(1, XDATA, add(CFA_XSP16, literal(-7)))
          CFI V0 load(1, XDATA, add(CFA_XSP16, literal(-8)))
          CFI VB load(1, XDATA, add(CFA_XSP16, literal(-9)))
          CFI R6 load(1, XDATA, add(CFA_XSP16, literal(-10)))
          CFI CFA_SP SP+0
          CFI CFA_XSP16 add(XSP16, 10)
        ; Saved register size: 10
        ; Auto size: 0
        MOV       A,R1
        MOV       R6,A
//  298   (void)SecurityEnable;  // Intentionally unreferenced parameter
//  299 
//  300   ZDP_TmpBuf[0] = LO_UINT16( nwkAddr );
        LCALL     ?Subroutine17 & 0xFFFF
//  301   ZDP_TmpBuf[1] = HI_UINT16( nwkAddr );
??CrossCallReturnLabel_16:
        MOVX      @DPTR,A
//  302 
//  303   return fillAndSend( &ZDP_TransID, dstAddr, cmd, 2 );
        ; Setup parameters for call to function fillAndSend
        MOV       A,R6
        MOV       ?V0,A
        MOV       ?V1,#0x0
        MOV       R0,#?V0
        LCALL     ?PUSH_XSTACK_I_TWO
          CFI CFA_XSP16 add(XSP16, 12)
        MOV       R1,#0x2
        LJMP      ?Subroutine8 & 0xFFFF
//  304 }
          CFI EndBlock cfiBlock2
//  305 
//  306 /*********************************************************************
//  307  * Address Requests
//  308  */
//  309 
//  310 /*********************************************************************
//  311  * @fn          ZDP_NwkAddrReq
//  312  *
//  313  * @brief       This builds and send a NWK_addr_req message.  This
//  314  *              function sends a broadcast message looking for a 16
//  315  *              bit address with a 64 bit address as bait.
//  316  *
//  317  * @param       IEEEAddress - looking for this device
//  318  * @param       SecurityEnable - Security Options
//  319  *
//  320  * @return      afStatus_t
//  321  */

        RSEG BANKED_CODE:HUGECODE:NOROOT(0)
//  322 afStatus_t ZDP_NwkAddrReq( uint8 *IEEEAddress, byte ReqType,
ZDP_NwkAddrReq:
          CFI Block cfiBlock3 Using cfiCommon0
          CFI Function ZDP_NwkAddrReq
        CODE
//  323                            byte StartIndex, byte SecurityEnable )
//  324 {
        FUNCALL ZDP_NwkAddrReq, sAddrExtCmp
        LOCFRAME ISTACK, 0, STACK
        LOCFRAME PSTACK, 0, STACK
        LOCFRAME XSTACK, 21, STACK
        LOCFRAME IOVERLAY, 0, STATIC
        LOCFRAME DOVERLAY, 0, STATIC
        ARGFRAME ISTACK, 0, STACK
        ARGFRAME PSTACK, 0, STACK
        ARGFRAME XSTACK, 21, STACK
        ARGFRAME IOVERLAY, 0, STATIC
        ARGFRAME DOVERLAY, 0, STATIC
        FUNCALL ZDP_NwkAddrReq, sAddrExtCpy
        LOCFRAME ISTACK, 0, STACK
        LOCFRAME PSTACK, 0, STACK
        LOCFRAME XSTACK, 21, STACK
        LOCFRAME IOVERLAY, 0, STATIC
        LOCFRAME DOVERLAY, 0, STATIC
        ARGFRAME ISTACK, 0, STACK
        ARGFRAME PSTACK, 0, STACK
        ARGFRAME XSTACK, 21, STACK
        ARGFRAME IOVERLAY, 0, STATIC
        ARGFRAME DOVERLAY, 0, STATIC
        FUNCALL ZDP_NwkAddrReq, fillAndSend
        LOCFRAME ISTACK, 0, STACK
        LOCFRAME PSTACK, 0, STACK
        LOCFRAME XSTACK, 23, STACK
        LOCFRAME IOVERLAY, 0, STATIC
        LOCFRAME DOVERLAY, 0, STATIC
        ARGFRAME ISTACK, 0, STACK
        ARGFRAME PSTACK, 0, STACK
        ARGFRAME XSTACK, 23, STACK
        ARGFRAME IOVERLAY, 0, STATIC
        ARGFRAME DOVERLAY, 0, STATIC
        REQUIRE ?V0
        REQUIRE ?V1
        REQUIRE ?V2
        REQUIRE ?V3
        MOV       A,#-0xc
        LCALL     ?BANKED_ENTER_XDATA
          CFI DPH0 load(1, XDATA, add(CFA_XSP16, literal(-1)))
          CFI DPL0 load(1, XDATA, add(CFA_XSP16, literal(-2)))
          CFI ?BRET_EXT load(1, XDATA, add(CFA_XSP16, literal(-3)))
          CFI ?RET_HIGH load(1, XDATA, add(CFA_XSP16, literal(-4)))
          CFI ?RET_LOW load(1, XDATA, add(CFA_XSP16, literal(-5)))
          CFI R7 load(1, XDATA, add(CFA_XSP16, literal(-6)))
          CFI V3 load(1, XDATA, add(CFA_XSP16, literal(-7)))
          CFI V2 load(1, XDATA, add(CFA_XSP16, literal(-8)))
          CFI V1 load(1, XDATA, add(CFA_XSP16, literal(-9)))
          CFI V0 load(1, XDATA, add(CFA_XSP16, literal(-10)))
          CFI VB load(1, XDATA, add(CFA_XSP16, literal(-11)))
          CFI R6 load(1, XDATA, add(CFA_XSP16, literal(-12)))
          CFI CFA_SP SP+0
          CFI CFA_XSP16 add(XSP16, 12)
        ; Saved register size: 12
        ; Auto size: 9
        MOV       A,#-0x9
        LCALL     ?ALLOC_XSTACK8
          CFI CFA_XSP16 add(XSP16, 21)
        MOV       A,R2
        MOV       R6,A
        MOV       A,R3
        MOV       R7,A
        MOV       ?V2,R1
        MOV       ?V3,R4
//  325   uint8 *pBuf = ZDP_TmpBuf;
        LCALL     ?Subroutine41 & 0xFFFF
//  326   byte len = Z_EXTADDR_LEN + 1 + 1;  // IEEEAddress + ReqType + StartIndex.
//  327   zAddrType_t dstAddr;
//  328 
//  329   (void)SecurityEnable;  // Intentionally unreferenced parameter
//  330 
//  331   if ( osal_ExtAddrEqual( saveExtAddr, IEEEAddress ) == FALSE )
??CrossCallReturnLabel_154:
        ; Setup parameters for call to function sAddrExtCmp
        MOV       A,R6
        MOV       R4,A
        MOV       A,R7
        MOV       R5,A
        MOV       R2,#saveExtAddr & 0xff
        MOV       R3,#(saveExtAddr >> 8) & 0xff
        LCALL     `??sAddrExtCmp::?relay`; Banked call to: sAddrExtCmp
        MOV       A,R1
        JNZ       ??ZDP_NwkAddrReq_0
//  332   {
//  333     dstAddr.addrMode = AddrBroadcast;
        MOV       A,#0x8
        LCALL     ?XSTACK_DISP0_8
        LCALL     ?Subroutine80 & 0xFFFF
//  334     dstAddr.addr.shortAddr = NWK_BROADCAST_SHORTADDR_DEVRXON;
//  335   }
??CrossCallReturnLabel_135:
        SJMP      ??ZDP_NwkAddrReq_1
//  336   else
//  337   {
//  338     dstAddr.addrMode = Addr16Bit;
??ZDP_NwkAddrReq_0:
        MOV       A,#0x8
        LCALL     ?XSTACK_DISP0_8
        MOV       A,#0x2
        MOVX      @DPTR,A
//  339     dstAddr.addr.shortAddr = ZDAppNwkAddr.addr.shortAddr;
        MOV       DPTR,#ZDAppNwkAddr
        LCALL     ?Subroutine48 & 0xFFFF
//  340   }
??CrossCallReturnLabel_77:
        MOV       A,R0
        MOVX      @DPTR,A
        INC       DPTR
        MOV       A,R1
??ZDP_NwkAddrReq_1:
        MOVX      @DPTR,A
//  341 
//  342   pBuf = osal_cpyExtAddr( pBuf, IEEEAddress );
        ; Setup parameters for call to function sAddrExtCpy
        MOV       A,R6
        MOV       R4,A
        MOV       A,R7
        MOV       R5,A
        MOV       R2,?V0
        MOV       R3,?V1
        LCALL     `??sAddrExtCpy::?relay`; Banked call to: sAddrExtCpy
        MOV       DPL,R2
        MOV       DPH,R3
//  343 
//  344   *pBuf++ = ReqType;
        MOV       A,?V2
        MOVX      @DPTR,A
//  345   *pBuf++ = StartIndex;
        INC       DPTR
        MOV       A,?V3
        MOVX      @DPTR,A
//  346 
//  347   return fillAndSend( &ZDP_TransID, &dstAddr, NWK_addr_req, len );
        ; Setup parameters for call to function fillAndSend
        CLR       A
        MOV       ?V0,A
        MOV       ?V1,A
        MOV       R0,#?V0
        LCALL     ?PUSH_XSTACK_I_TWO
          CFI CFA_XSP16 add(XSP16, 23)
        MOV       R1,#0xa
        MOV       A,#0x2
        LCALL     ?XSTACK_DISP102_8
          CFI EndBlock cfiBlock3
        REQUIRE ?Subroutine9
        ; // Fall through to label ?Subroutine9
//  348 }

        RSEG BANKED_CODE:HUGECODE:NOROOT(0)
?Subroutine9:
          CFI Block cfiBlock4 Using cfiCommon0
          CFI NoFunction
          CFI CFA_SP SP+0
          CFI CFA_XSP16 add(XSP16, 23)
          CFI VB load(1, XDATA, add(CFA_XSP16, literal(-11)))
          CFI DPL0 load(1, XDATA, add(CFA_XSP16, literal(-2)))
          CFI DPH0 load(1, XDATA, add(CFA_XSP16, literal(-1)))
          CFI R6 load(1, XDATA, add(CFA_XSP16, literal(-12)))
          CFI R7 load(1, XDATA, add(CFA_XSP16, literal(-6)))
          CFI V0 load(1, XDATA, add(CFA_XSP16, literal(-10)))
          CFI V1 load(1, XDATA, add(CFA_XSP16, literal(-9)))
          CFI V2 load(1, XDATA, add(CFA_XSP16, literal(-8)))
          CFI V3 load(1, XDATA, add(CFA_XSP16, literal(-7)))
          CFI ?BRET_EXT load(1, XDATA, add(CFA_XSP16, literal(-3)))
          CFI ?RET_HIGH load(1, XDATA, add(CFA_XSP16, literal(-4)))
          CFI ?RET_LOW load(1, XDATA, add(CFA_XSP16, literal(-5)))
        MOV       R2,#ZDP_TransID & 0xff
        MOV       R3,#(ZDP_TransID >> 8) & 0xff
        LCALL     `??fillAndSend::?relay`; Banked call to: fillAndSend
        MOV       A,#0x2
        LCALL     ?DEALLOC_XSTACK8
          CFI CFA_XSP16 add(XSP16, 21)
        MOV       A,#0x9
        SJMP      ??Subroutine91_0
          CFI EndBlock cfiBlock4

        RSEG BANKED_CODE:HUGECODE:NOROOT(0)
?Subroutine48:
          CFI Block cfiCond5 Using cfiCommon0
          CFI Function fillAndSend
          CFI Conditional ??CrossCallReturnLabel_76
          CFI R6 load(1, XDATA, add(CFA_XSP16, literal(-14)))
          CFI VB load(1, XDATA, add(CFA_XSP16, literal(-13)))
          CFI V0 load(1, XDATA, add(CFA_XSP16, literal(-12)))
          CFI V1 load(1, XDATA, add(CFA_XSP16, literal(-11)))
          CFI V2 load(1, XDATA, add(CFA_XSP16, literal(-10)))
          CFI V3 load(1, XDATA, add(CFA_XSP16, literal(-9)))
          CFI V4 load(1, XDATA, add(CFA_XSP16, literal(-8)))
          CFI V5 load(1, XDATA, add(CFA_XSP16, literal(-7)))
          CFI R7 load(1, XDATA, add(CFA_XSP16, literal(-6)))
          CFI ?RET_LOW load(1, XDATA, add(CFA_XSP16, literal(-5)))
          CFI ?RET_HIGH load(1, XDATA, add(CFA_XSP16, literal(-4)))
          CFI ?BRET_EXT load(1, XDATA, add(CFA_XSP16, literal(-3)))
          CFI DPL0 load(1, XDATA, add(CFA_XSP16, literal(-2)))
          CFI DPH0 load(1, XDATA, add(CFA_XSP16, literal(-1)))
          CFI CFA_SP SP+-2
          CFI CFA_XSP16 add(XSP16, 26)
          CFI Block cfiCond6 Using cfiCommon0
          CFI (cfiCond6) Function ZDP_NwkAddrReq
          CFI (cfiCond6) Conditional ??CrossCallReturnLabel_77
          CFI (cfiCond6) R6 load(1, XDATA, add(CFA_XSP16, literal(-12)))
          CFI (cfiCond6) VB load(1, XDATA, add(CFA_XSP16, literal(-11)))
          CFI (cfiCond6) V0 load(1, XDATA, add(CFA_XSP16, literal(-10)))
          CFI (cfiCond6) V1 load(1, XDATA, add(CFA_XSP16, literal(-9)))
          CFI (cfiCond6) V2 load(1, XDATA, add(CFA_XSP16, literal(-8)))
          CFI (cfiCond6) V3 load(1, XDATA, add(CFA_XSP16, literal(-7)))
          CFI (cfiCond6) R7 load(1, XDATA, add(CFA_XSP16, literal(-6)))
          CFI (cfiCond6) ?RET_LOW load(1, XDATA, add(CFA_XSP16, literal(-5)))
          CFI (cfiCond6) ?RET_HIGH load(1, XDATA, add(CFA_XSP16, literal(-4)))
          CFI (cfiCond6) ?BRET_EXT load(1, XDATA, add(CFA_XSP16, literal(-3)))
          CFI (cfiCond6) DPL0 load(1, XDATA, add(CFA_XSP16, literal(-2)))
          CFI (cfiCond6) DPH0 load(1, XDATA, add(CFA_XSP16, literal(-1)))
          CFI (cfiCond6) CFA_SP SP+-2
          CFI (cfiCond6) CFA_XSP16 add(XSP16, 21)
          CFI Block cfiPicker7 Using cfiCommon1
          CFI (cfiPicker7) NoFunction
          CFI (cfiPicker7) Picker
        LCALL     ??Subroutine118_0 & 0xFFFF
??CrossCallReturnLabel_248:
        MOV       R1,A
        MOV       DPL,?XSP + 0
        MOV       DPH,?XSP + 1
        RET
          CFI EndBlock cfiCond5
          CFI EndBlock cfiCond6
          CFI EndBlock cfiPicker7

        RSEG BANKED_CODE:HUGECODE:NOROOT(0)
?Subroutine1:
          CFI Block cfiBlock8 Using cfiCommon0
          CFI NoFunction
          CFI CFA_SP SP+0
          CFI CFA_XSP16 add(XSP16, 12)
          CFI VB load(1, XDATA, add(CFA_XSP16, literal(-11)))
          CFI DPL0 load(1, XDATA, add(CFA_XSP16, literal(-2)))
          CFI DPH0 load(1, XDATA, add(CFA_XSP16, literal(-1)))
          CFI R6 load(1, XDATA, add(CFA_XSP16, literal(-12)))
          CFI R7 load(1, XDATA, add(CFA_XSP16, literal(-6)))
          CFI V0 load(1, XDATA, add(CFA_XSP16, literal(-10)))
          CFI V1 load(1, XDATA, add(CFA_XSP16, literal(-9)))
          CFI V2 load(1, XDATA, add(CFA_XSP16, literal(-8)))
          CFI V3 load(1, XDATA, add(CFA_XSP16, literal(-7)))
          CFI ?BRET_EXT load(1, XDATA, add(CFA_XSP16, literal(-3)))
          CFI ?RET_HIGH load(1, XDATA, add(CFA_XSP16, literal(-4)))
          CFI ?RET_LOW load(1, XDATA, add(CFA_XSP16, literal(-5)))
        MOV       ?V3,#0x0
        MOV       R0,#?V2
        LCALL     ?PUSH_XSTACK_I_TWO
          CFI CFA_XSP16 add(XSP16, 14)
        MOV       R1,#0x9
          CFI EndBlock cfiBlock8
        REQUIRE ??Subroutine90_0
        ; // Fall through to label ??Subroutine90_0

        RSEG BANKED_CODE:HUGECODE:NOROOT(0)
??Subroutine90_0:
          CFI Block cfiBlock9 Using cfiCommon0
          CFI NoFunction
          CFI CFA_SP SP+0
          CFI CFA_XSP16 add(XSP16, 14)
          CFI VB load(1, XDATA, add(CFA_XSP16, literal(-11)))
          CFI DPL0 load(1, XDATA, add(CFA_XSP16, literal(-2)))
          CFI DPH0 load(1, XDATA, add(CFA_XSP16, literal(-1)))
          CFI R6 load(1, XDATA, add(CFA_XSP16, literal(-12)))
          CFI R7 load(1, XDATA, add(CFA_XSP16, literal(-6)))
          CFI V0 load(1, XDATA, add(CFA_XSP16, literal(-10)))
          CFI V1 load(1, XDATA, add(CFA_XSP16, literal(-9)))
          CFI V2 load(1, XDATA, add(CFA_XSP16, literal(-8)))
          CFI V3 load(1, XDATA, add(CFA_XSP16, literal(-7)))
          CFI ?BRET_EXT load(1, XDATA, add(CFA_XSP16, literal(-3)))
          CFI ?RET_HIGH load(1, XDATA, add(CFA_XSP16, literal(-4)))
          CFI ?RET_LOW load(1, XDATA, add(CFA_XSP16, literal(-5)))
        MOV       A,R6
        MOV       R4,A
        MOV       A,R7
        MOV       R5,A
        MOV       R2,#ZDP_TransID & 0xff
        MOV       R3,#(ZDP_TransID >> 8) & 0xff
        LCALL     `??fillAndSend::?relay`; Banked call to: fillAndSend
        MOV       A,#0x2
          CFI EndBlock cfiBlock9
        REQUIRE ??Subroutine91_0
        ; // Fall through to label ??Subroutine91_0

        RSEG BANKED_CODE:HUGECODE:NOROOT(0)
??Subroutine91_0:
          CFI Block cfiBlock10 Using cfiCommon0
          CFI NoFunction
          CFI CFA_SP SP+0
          CFI CFA_XSP16 add(XSP16, 21)
          CFI VB load(1, XDATA, add(CFA_XSP16, literal(-11)))
          CFI DPL0 load(1, XDATA, add(CFA_XSP16, literal(-2)))
          CFI DPH0 load(1, XDATA, add(CFA_XSP16, literal(-1)))
          CFI R6 load(1, XDATA, add(CFA_XSP16, literal(-12)))
          CFI R7 load(1, XDATA, add(CFA_XSP16, literal(-6)))
          CFI V0 load(1, XDATA, add(CFA_XSP16, literal(-10)))
          CFI V1 load(1, XDATA, add(CFA_XSP16, literal(-9)))
          CFI V2 load(1, XDATA, add(CFA_XSP16, literal(-8)))
          CFI V3 load(1, XDATA, add(CFA_XSP16, literal(-7)))
          CFI ?BRET_EXT load(1, XDATA, add(CFA_XSP16, literal(-3)))
          CFI ?RET_HIGH load(1, XDATA, add(CFA_XSP16, literal(-4)))
          CFI ?RET_LOW load(1, XDATA, add(CFA_XSP16, literal(-5)))
          CFI Invalid
        LCALL     ?DEALLOC_XSTACK8
          CFI EndBlock cfiBlock10
        REQUIRE ??Subroutine92_0
        ; // Fall through to label ??Subroutine92_0

        RSEG BANKED_CODE:HUGECODE:NOROOT(0)
??Subroutine92_0:
          CFI Block cfiBlock11 Using cfiCommon0
          CFI NoFunction
          CFI CFA_SP SP+0
          CFI CFA_XSP16 add(XSP16, 12)
          CFI VB load(1, XDATA, add(CFA_XSP16, literal(-11)))
          CFI DPL0 load(1, XDATA, add(CFA_XSP16, literal(-2)))
          CFI DPH0 load(1, XDATA, add(CFA_XSP16, literal(-1)))
          CFI R6 load(1, XDATA, add(CFA_XSP16, literal(-12)))
          CFI R7 load(1, XDATA, add(CFA_XSP16, literal(-6)))
          CFI V0 load(1, XDATA, add(CFA_XSP16, literal(-10)))
          CFI V1 load(1, XDATA, add(CFA_XSP16, literal(-9)))
          CFI V2 load(1, XDATA, add(CFA_XSP16, literal(-8)))
          CFI V3 load(1, XDATA, add(CFA_XSP16, literal(-7)))
          CFI ?BRET_EXT load(1, XDATA, add(CFA_XSP16, literal(-3)))
          CFI ?RET_HIGH load(1, XDATA, add(CFA_XSP16, literal(-4)))
          CFI ?RET_LOW load(1, XDATA, add(CFA_XSP16, literal(-5)))
        MOV       R7,#0x4
        LJMP      ?BANKED_LEAVE_XDATA
          CFI EndBlock cfiBlock11
//  349 
//  350 /*********************************************************************
//  351  * @fn          ZDP_IEEEAddrReq
//  352  *
//  353  * @brief       This builds and send a IEEE_addr_req message.  This
//  354  *              function sends a unicast message looking for a 64
//  355  *              bit IEEE address with a 16 bit address as bait.
//  356  *
//  357  * @param       ReqType - ZDP_IEEEADDR_REQTYPE_SINGLE or
//  358  *                        ZDP_IEEEADDR_REQTYPE_EXTENDED
//  359  * @param       SecurityEnable - Security Options
//  360  *
//  361  * @return      afStatus_t
//  362  */

        RSEG BANKED_CODE:HUGECODE:NOROOT(0)
//  363 afStatus_t ZDP_IEEEAddrReq( uint16 shortAddr, byte ReqType,
ZDP_IEEEAddrReq:
          CFI Block cfiBlock12 Using cfiCommon0
          CFI Function ZDP_IEEEAddrReq
        CODE
//  364                             byte StartIndex, byte SecurityEnable )
//  365 {
        FUNCALL ZDP_IEEEAddrReq, fillAndSend
        LOCFRAME ISTACK, 0, STACK
        LOCFRAME PSTACK, 0, STACK
        LOCFRAME XSTACK, 21, STACK
        LOCFRAME IOVERLAY, 0, STATIC
        LOCFRAME DOVERLAY, 0, STATIC
        ARGFRAME ISTACK, 0, STACK
        ARGFRAME PSTACK, 0, STACK
        ARGFRAME XSTACK, 21, STACK
        ARGFRAME IOVERLAY, 0, STATIC
        ARGFRAME DOVERLAY, 0, STATIC
        REQUIRE ?V0
        REQUIRE ?V1
        MOV       A,#-0xa
        LCALL     ?BANKED_ENTER_XDATA
          CFI DPH0 load(1, XDATA, add(CFA_XSP16, literal(-1)))
          CFI DPL0 load(1, XDATA, add(CFA_XSP16, literal(-2)))
          CFI ?BRET_EXT load(1, XDATA, add(CFA_XSP16, literal(-3)))
          CFI ?RET_HIGH load(1, XDATA, add(CFA_XSP16, literal(-4)))
          CFI ?RET_LOW load(1, XDATA, add(CFA_XSP16, literal(-5)))
          CFI R7 load(1, XDATA, add(CFA_XSP16, literal(-6)))
          CFI V1 load(1, XDATA, add(CFA_XSP16, literal(-7)))
          CFI V0 load(1, XDATA, add(CFA_XSP16, literal(-8)))
          CFI VB load(1, XDATA, add(CFA_XSP16, literal(-9)))
          CFI R6 load(1, XDATA, add(CFA_XSP16, literal(-10)))
          CFI CFA_SP SP+0
          CFI CFA_XSP16 add(XSP16, 10)
        ; Saved register size: 10
        ; Auto size: 9
        MOV       A,#-0x9
        LCALL     ?ALLOC_XSTACK8
          CFI CFA_XSP16 add(XSP16, 19)
        MOV       A,R1
        MOV       R6,A
        MOV       A,R4
        LCALL     ??Subroutine115_0 & 0xFFFF
//  366   uint8 *pBuf = ZDP_TmpBuf;
//  367   byte len = 2 + 1 + 1;  // shortAddr + ReqType + StartIndex.
//  368   zAddrType_t dstAddr;
//  369 
//  370   (void)SecurityEnable;  // Intentionally unreferenced parameter
//  371 
//  372   dstAddr.addrMode = (afAddrMode_t)Addr16Bit;
??CrossCallReturnLabel_232:
        MOV       A,#0x8
        LCALL     ?XSTACK_DISP0_8
        MOV       A,#0x2
        MOVX      @DPTR,A
//  373   dstAddr.addr.shortAddr = shortAddr;
        MOV       DPL,?XSP + 0
        MOV       DPH,?XSP + 1
        MOV       A,R2
        MOVX      @DPTR,A
        INC       DPTR
        MOV       A,R3
        MOVX      @DPTR,A
//  374 
//  375   *pBuf++ = LO_UINT16( shortAddr );
        MOV       A,R2
        MOV       DPL,R0
        MOV       DPH,R1
        MOVX      @DPTR,A
//  376   *pBuf++ = HI_UINT16( shortAddr );
        MOV       A,R3
        LCALL     ?Subroutine35 & 0xFFFF
//  377 
//  378   *pBuf++ = ReqType;
??CrossCallReturnLabel_50:
        MOVX      @DPTR,A
//  379   *pBuf++ = StartIndex;
        MOV       A,R7
        MOV       DPL,R0
        MOV       DPH,R1
        INC       DPTR
        INC       DPTR
        INC       DPTR
        MOVX      @DPTR,A
//  380 
//  381   return fillAndSend( &ZDP_TransID, &dstAddr, IEEE_addr_req, len );
        ; Setup parameters for call to function fillAndSend
        MOV       ?V0,#0x1
        MOV       ?V1,#0x0
        MOV       R0,#?V0
        LCALL     ?PUSH_XSTACK_I_TWO
          CFI CFA_XSP16 add(XSP16, 21)
        MOV       R1,#0x4
        LJMP      ?Subroutine2 & 0xFFFF
//  382 }
          CFI EndBlock cfiBlock12
//  383 
//  384 /*********************************************************************
//  385  * @fn          ZDP_MatchDescReq
//  386  *
//  387  * @brief       This builds and send a Match_Desc_req message.  This
//  388  *              function sends a broadcast or unicast message
//  389  *              requesting the list of endpoint/interfaces that
//  390  *              match profile ID and cluster IDs.
//  391  *
//  392  * @param       dstAddr - destination address
//  393  * @param       nwkAddr - network address of interest
//  394  * @param       ProfileID - Profile ID
//  395  * @param       NumInClusters - number of input clusters
//  396  * @param       InClusterList - input cluster ID list
//  397  * @param       NumOutClusters - number of output clusters
//  398  * @param       OutClusterList - output cluster ID list
//  399  * @param       SecurityEnable - Security Options
//  400  *
//  401  * @return      afStatus_t
//  402  */

        RSEG BANKED_CODE:HUGECODE:NOROOT(0)
//  403 afStatus_t ZDP_MatchDescReq( zAddrType_t *dstAddr, uint16 nwkAddr,
ZDP_MatchDescReq:
          CFI Block cfiBlock13 Using cfiCommon0
          CFI Function ZDP_MatchDescReq
        CODE
//  404                                 uint16 ProfileID,
//  405                                 byte NumInClusters, cId_t *InClusterList,
//  406                                 byte NumOutClusters, cId_t *OutClusterList,
//  407                                 byte SecurityEnable )
//  408 {
        FUNCALL ZDP_MatchDescReq, fillAndSend
        LOCFRAME ISTACK, 0, STACK
        LOCFRAME PSTACK, 0, STACK
        LOCFRAME XSTACK, 16, STACK
        LOCFRAME IOVERLAY, 0, STATIC
        LOCFRAME DOVERLAY, 0, STATIC
        ARGFRAME ISTACK, 0, STACK
        ARGFRAME PSTACK, 0, STACK
        ARGFRAME XSTACK, 16, STACK
        ARGFRAME IOVERLAY, 0, STATIC
        ARGFRAME DOVERLAY, 0, STATIC
        REQUIRE ?V0
        REQUIRE ?V1
        REQUIRE ?V2
        REQUIRE ?V3
        REQUIRE ?V4
        REQUIRE ?V5
        MOV       A,#-0xe
        LCALL     ?BANKED_ENTER_XDATA
          CFI DPH0 load(1, XDATA, add(CFA_XSP16, literal(-1)))
          CFI DPL0 load(1, XDATA, add(CFA_XSP16, literal(-2)))
          CFI ?BRET_EXT load(1, XDATA, add(CFA_XSP16, literal(-3)))
          CFI ?RET_HIGH load(1, XDATA, add(CFA_XSP16, literal(-4)))
          CFI ?RET_LOW load(1, XDATA, add(CFA_XSP16, literal(-5)))
          CFI R7 load(1, XDATA, add(CFA_XSP16, literal(-6)))
          CFI V5 load(1, XDATA, add(CFA_XSP16, literal(-7)))
          CFI V4 load(1, XDATA, add(CFA_XSP16, literal(-8)))
          CFI V3 load(1, XDATA, add(CFA_XSP16, literal(-9)))
          CFI V2 load(1, XDATA, add(CFA_XSP16, literal(-10)))
          CFI V1 load(1, XDATA, add(CFA_XSP16, literal(-11)))
          CFI V0 load(1, XDATA, add(CFA_XSP16, literal(-12)))
          CFI VB load(1, XDATA, add(CFA_XSP16, literal(-13)))
          CFI R6 load(1, XDATA, add(CFA_XSP16, literal(-14)))
          CFI CFA_SP SP+0
          CFI CFA_XSP16 add(XSP16, 14)
        ; Saved register size: 14
        ; Auto size: 0
        MOV       A,R1
        MOV       R6,A
//  409   uint8 *pBuf = ZDP_TmpBuf;
        LCALL     ??Subroutine116_0 & 0xFFFF
??CrossCallReturnLabel_243:
        MOV       A,#0x12
        LCALL     ?XSTACK_DISP0_8
        MOVX      A,@DPTR
        MOV       ?V0,A
//  410   // nwkAddr+ProfileID+NumInClusters+NumOutClusters.
//  411   byte i, len = 2 + 2 + 1 + 1;  // nwkAddr+ProfileID+NumInClusters+NumOutClusters.
//  412 
//  413   (void)SecurityEnable;  // Intentionally unreferenced parameter
//  414 
//  415   len += (NumInClusters + NumOutClusters) * sizeof(uint16);
        MOV       A,R6
        ADD       A,?V0
        CLR       C
        RLC       A
        ADD       A,#0x6
        MOV       R7,A
//  416 
//  417   if ( len >= ZDP_BUF_SZ-1 )
        CLR       C
        SUBB      A,#0x4f
        JC        ??ZDP_MatchDescReq_0
//  418   {
//  419     return afStatus_MEM_FAIL;
        MOV       R1,#0x10
        LJMP      ??ZDP_MatchDescReq_1 & 0xFFFF
//  420   }
//  421 
//  422   // The spec changed in Zigbee 2007 (2.4.3.1.7.1) to not allow sending
//  423   // this command to 0xFFFF.  So, here we will filter this and replace
//  424   // with 0xFFFD to only send to devices with RX ON.  This includes the
//  425   // network address of interest.
//  426   if ( ((dstAddr->addrMode == AddrBroadcast) || (dstAddr->addrMode == Addr16Bit))
//  427       && (dstAddr->addr.shortAddr == NWK_BROADCAST_SHORTADDR_DEVALL) )
??ZDP_MatchDescReq_0:
        MOV       DPL,R2
        MOV       DPH,R3
        INC       DPTR
        INC       DPTR
        INC       DPTR
        INC       DPTR
        INC       DPTR
        INC       DPTR
        INC       DPTR
        INC       DPTR
        MOVX      A,@DPTR
        MOV       ?V1,A
        MOV       A,#0xf
        XRL       A,?V1
        JZ        ??ZDP_MatchDescReq_2
        MOV       A,#0x2
        XRL       A,?V1
        JNZ       ??ZDP_MatchDescReq_3
??ZDP_MatchDescReq_2:
        MOV       DPL,R2
        MOV       DPH,R3
        MOVX      A,@DPTR
        CPL       A
        JNZ       ??ZDP_MatchDescReq_4
        INC       DPTR
        MOVX      A,@DPTR
        CPL       A
??ZDP_MatchDescReq_4:
        JNZ       ??ZDP_MatchDescReq_3
//  428   {
//  429     dstAddr->addr.shortAddr = NWK_BROADCAST_SHORTADDR_DEVRXON;
        MOV       DPL,R2
        MOV       DPH,R3
        MOV       A,#-0x3
        MOVX      @DPTR,A
        INC       DPTR
        MOV       A,#-0x1
        MOVX      @DPTR,A
//  430   }
//  431   if ( nwkAddr == NWK_BROADCAST_SHORTADDR_DEVALL )
??ZDP_MatchDescReq_3:
        MOV       A,#-0x1
        XRL       A,R4
        JNZ       ??ZDP_MatchDescReq_5
        MOV       A,#-0x1
        XRL       A,R5
??ZDP_MatchDescReq_5:
        JNZ       ??ZDP_MatchDescReq_6
//  432   {
//  433     nwkAddr = NWK_BROADCAST_SHORTADDR_DEVRXON;
        MOV       R4,#-0x3
        MOV       R5,#-0x1
//  434   }
//  435 
//  436   *pBuf++ = LO_UINT16( nwkAddr );   // NWKAddrOfInterest
??ZDP_MatchDescReq_6:
        MOV       A,R4
        MOV       DPL,R0
        MOV       DPH,R1
        MOVX      @DPTR,A
//  437   *pBuf++ = HI_UINT16( nwkAddr );
        MOV       A,R5
        INC       DPTR
        MOVX      @DPTR,A
        MOV       A,#0xe
        LCALL     ?XSTACK_DISP0_8
        LCALL     ?Subroutine49 & 0xFFFF
//  438 
//  439   *pBuf++ = LO_UINT16( ProfileID );   // Profile ID
??CrossCallReturnLabel_78:
        MOV       A,R4
        MOV       DPL,R0
        MOV       DPH,R1
        INC       DPTR
        INC       DPTR
        MOVX      @DPTR,A
//  440   *pBuf++ = HI_UINT16( ProfileID );
        MOV       A,R5
        MOV       DPL,R0
        MOV       DPH,R1
        INC       DPTR
        INC       DPTR
        LCALL     ?Subroutine35 & 0xFFFF
//  441 
//  442   *pBuf++ = NumInClusters; // Input cluster list
??CrossCallReturnLabel_51:
        INC       DPTR
        INC       DPTR
        MOVX      @DPTR,A
        MOV       A,R0
        ADD       A,#0x5
        MOV       R0,A
        JNC       ??ZDP_MatchDescReq_7
        INC       R1
//  443   if ( NumInClusters )
??ZDP_MatchDescReq_7:
        MOV       A,R6
        JZ        ??ZDP_MatchDescReq_8
//  444   {
//  445     for (i=0; i<NumInClusters; ++i)  {
        MOV       ?V1,#0x0
        MOV       A,#0x10
        LCALL     ?XSTACK_DISP0_8
        LCALL     ?Subroutine49 & 0xFFFF
//  446       *pBuf++ = LO_UINT16( InClusterList[i] );
??CrossCallReturnLabel_79:
        LCALL     ?Subroutine11 & 0xFFFF
//  447       *pBuf++ = HI_UINT16( InClusterList[i] );
//  448     }
??CrossCallReturnLabel_2:
        JNC       ??ZDP_MatchDescReq_9
        INC       R1
??ZDP_MatchDescReq_9:
        INC       ?V1
        MOV       A,?V1
        CLR       C
        SUBB      A,R6
        JC        ??CrossCallReturnLabel_79
//  449   }
//  450 
//  451   *pBuf++ = NumOutClusters; // Output cluster list
??ZDP_MatchDescReq_8:
        MOV       DPL,R0
        MOV       DPH,R1
        MOV       A,?V0
        MOVX      @DPTR,A
        INC       DPTR
        MOV       R0,DPL
        MOV       R1,DPH
//  452   if ( NumOutClusters )
        JZ        ??ZDP_MatchDescReq_10
//  453   {
//  454     for (i=0; i<NumOutClusters; ++i)  {
        MOV       ?V1,#0x0
        MOV       A,#0x13
        LCALL     ?XSTACK_DISP0_8
        LCALL     ?Subroutine49 & 0xFFFF
//  455       *pBuf++ = LO_UINT16( OutClusterList[i] );
??CrossCallReturnLabel_80:
        LCALL     ?Subroutine11 & 0xFFFF
//  456       *pBuf++ = HI_UINT16( OutClusterList[i] );
//  457     }
??CrossCallReturnLabel_3:
        JNC       ??ZDP_MatchDescReq_11
        INC       R1
??ZDP_MatchDescReq_11:
        INC       ?V1
        MOV       A,?V1
        CLR       C
        SUBB      A,?V0
        JC        ??CrossCallReturnLabel_80
//  458   }
//  459 
//  460   return fillAndSend( &ZDP_TransID, dstAddr, Match_Desc_req, len );
??ZDP_MatchDescReq_10:
        ; Setup parameters for call to function fillAndSend
        MOV       ?V0,#0x6
        MOV       ?V1,#0x0
        MOV       R0,#?V0
        LCALL     ?PUSH_XSTACK_I_TWO
          CFI CFA_XSP16 add(XSP16, 16)
        MOV       A,R7
        MOV       R1,A
        MOV       A,R2
        MOV       R4,A
        MOV       A,R3
        MOV       R5,A
        MOV       R2,#ZDP_TransID & 0xff
        MOV       R3,#(ZDP_TransID >> 8) & 0xff
        LCALL     `??fillAndSend::?relay`; Banked call to: fillAndSend
        MOV       A,#0x2
        LCALL     ?DEALLOC_XSTACK8
          CFI CFA_XSP16 add(XSP16, 14)
??ZDP_MatchDescReq_1:
        SJMP      ??Subroutine93_0
//  461 }
          CFI EndBlock cfiBlock13

        RSEG BANKED_CODE:HUGECODE:NOROOT(0)
?Subroutine35:
          CFI Block cfiCond14 Using cfiCommon0
          CFI Function ZDP_IEEEAddrReq
          CFI Conditional ??CrossCallReturnLabel_50
          CFI R6 load(1, XDATA, add(CFA_XSP16, literal(-10)))
          CFI VB load(1, XDATA, add(CFA_XSP16, literal(-9)))
          CFI V0 load(1, XDATA, add(CFA_XSP16, literal(-8)))
          CFI V1 load(1, XDATA, add(CFA_XSP16, literal(-7)))
          CFI R7 load(1, XDATA, add(CFA_XSP16, literal(-6)))
          CFI ?RET_LOW load(1, XDATA, add(CFA_XSP16, literal(-5)))
          CFI ?RET_HIGH load(1, XDATA, add(CFA_XSP16, literal(-4)))
          CFI ?BRET_EXT load(1, XDATA, add(CFA_XSP16, literal(-3)))
          CFI DPL0 load(1, XDATA, add(CFA_XSP16, literal(-2)))
          CFI DPH0 load(1, XDATA, add(CFA_XSP16, literal(-1)))
          CFI CFA_SP SP+-2
          CFI CFA_XSP16 add(XSP16, 19)
          CFI Block cfiCond15 Using cfiCommon0
          CFI (cfiCond15) Function ZDP_MatchDescReq
          CFI (cfiCond15) Conditional ??CrossCallReturnLabel_51
          CFI (cfiCond15) R6 load(1, XDATA, add(CFA_XSP16, literal(-14)))
          CFI (cfiCond15) VB load(1, XDATA, add(CFA_XSP16, literal(-13)))
          CFI (cfiCond15) V0 load(1, XDATA, add(CFA_XSP16, literal(-12)))
          CFI (cfiCond15) V1 load(1, XDATA, add(CFA_XSP16, literal(-11)))
          CFI (cfiCond15) V2 load(1, XDATA, add(CFA_XSP16, literal(-10)))
          CFI (cfiCond15) V3 load(1, XDATA, add(CFA_XSP16, literal(-9)))
          CFI (cfiCond15) V4 load(1, XDATA, add(CFA_XSP16, literal(-8)))
          CFI (cfiCond15) V5 load(1, XDATA, add(CFA_XSP16, literal(-7)))
          CFI (cfiCond15) R7 load(1, XDATA, add(CFA_XSP16, literal(-6)))
          CFI (cfiCond15) ?RET_LOW load(1, XDATA, add(CFA_XSP16, literal(-5)))
          CFI (cfiCond15) ?RET_HIGH load(1, XDATA, add(CFA_XSP16, literal(-4)))
          CFI (cfiCond15) ?BRET_EXT load(1, XDATA, add(CFA_XSP16, literal(-3)))
          CFI (cfiCond15) DPL0 load(1, XDATA, add(CFA_XSP16, literal(-2)))
          CFI (cfiCond15) DPH0 load(1, XDATA, add(CFA_XSP16, literal(-1)))
          CFI (cfiCond15) CFA_SP SP+-2
          CFI (cfiCond15) CFA_XSP16 add(XSP16, 14)
          CFI Block cfiPicker16 Using cfiCommon1
          CFI (cfiPicker16) NoFunction
          CFI (cfiPicker16) Picker
        INC       DPTR
        MOVX      @DPTR,A
        MOV       A,R6
        MOV       DPL,R0
        MOV       DPH,R1
        INC       DPTR
        INC       DPTR
        RET
          CFI EndBlock cfiCond14
          CFI EndBlock cfiCond15
          CFI EndBlock cfiPicker16

        RSEG BANKED_CODE:HUGECODE:NOROOT(0)
?Subroutine11:
          CFI Block cfiCond17 Using cfiCommon0
          CFI Function ZDP_MatchDescReq
          CFI Conditional ??CrossCallReturnLabel_2
          CFI R6 load(1, XDATA, add(CFA_XSP16, literal(-14)))
          CFI VB load(1, XDATA, add(CFA_XSP16, literal(-13)))
          CFI V0 load(1, XDATA, add(CFA_XSP16, literal(-12)))
          CFI V1 load(1, XDATA, add(CFA_XSP16, literal(-11)))
          CFI V2 load(1, XDATA, add(CFA_XSP16, literal(-10)))
          CFI V3 load(1, XDATA, add(CFA_XSP16, literal(-9)))
          CFI V4 load(1, XDATA, add(CFA_XSP16, literal(-8)))
          CFI V5 load(1, XDATA, add(CFA_XSP16, literal(-7)))
          CFI R7 load(1, XDATA, add(CFA_XSP16, literal(-6)))
          CFI ?RET_LOW load(1, XDATA, add(CFA_XSP16, literal(-5)))
          CFI ?RET_HIGH load(1, XDATA, add(CFA_XSP16, literal(-4)))
          CFI ?BRET_EXT load(1, XDATA, add(CFA_XSP16, literal(-3)))
          CFI DPL0 load(1, XDATA, add(CFA_XSP16, literal(-2)))
          CFI DPH0 load(1, XDATA, add(CFA_XSP16, literal(-1)))
          CFI CFA_SP SP+-2
          CFI CFA_XSP16 add(XSP16, 14)
          CFI Block cfiCond18 Using cfiCommon0
          CFI (cfiCond18) Function ZDP_MatchDescReq
          CFI (cfiCond18) Conditional ??CrossCallReturnLabel_3
          CFI (cfiCond18) R6 load(1, XDATA, add(CFA_XSP16, literal(-14)))
          CFI (cfiCond18) VB load(1, XDATA, add(CFA_XSP16, literal(-13)))
          CFI (cfiCond18) V0 load(1, XDATA, add(CFA_XSP16, literal(-12)))
          CFI (cfiCond18) V1 load(1, XDATA, add(CFA_XSP16, literal(-11)))
          CFI (cfiCond18) V2 load(1, XDATA, add(CFA_XSP16, literal(-10)))
          CFI (cfiCond18) V3 load(1, XDATA, add(CFA_XSP16, literal(-9)))
          CFI (cfiCond18) V4 load(1, XDATA, add(CFA_XSP16, literal(-8)))
          CFI (cfiCond18) V5 load(1, XDATA, add(CFA_XSP16, literal(-7)))
          CFI (cfiCond18) R7 load(1, XDATA, add(CFA_XSP16, literal(-6)))
          CFI (cfiCond18) ?RET_LOW load(1, XDATA, add(CFA_XSP16, literal(-5)))
          CFI (cfiCond18) ?RET_HIGH load(1, XDATA, add(CFA_XSP16, literal(-4)))
          CFI (cfiCond18) ?BRET_EXT load(1, XDATA, add(CFA_XSP16, literal(-3)))
          CFI (cfiCond18) DPL0 load(1, XDATA, add(CFA_XSP16, literal(-2)))
          CFI (cfiCond18) DPH0 load(1, XDATA, add(CFA_XSP16, literal(-1)))
          CFI (cfiCond18) CFA_SP SP+-2
          CFI (cfiCond18) CFA_XSP16 add(XSP16, 14)
          CFI Block cfiPicker19 Using cfiCommon1
          CFI (cfiPicker19) NoFunction
          CFI (cfiPicker19) Picker
        MOV       A,?V1
        LCALL     ?Subroutine87 & 0xFFFF
??CrossCallReturnLabel_148:
        MOV       A,R4
        ADD       A,?V2
        MOV       ?V2,A
        MOV       A,R5
        ADDC      A,?V3
        MOV       ?V3,A
        MOV       DPL,?V2
        LCALL     ?Subroutine74 & 0xFFFF
??CrossCallReturnLabel_208:
        LCALL     ?Subroutine88 & 0xFFFF
??CrossCallReturnLabel_149:
        LCALL     ?Subroutine71 & 0xFFFF
??CrossCallReturnLabel_127:
        RET
          CFI EndBlock cfiCond17
          CFI EndBlock cfiCond18
          CFI EndBlock cfiPicker19

        RSEG BANKED_CODE:HUGECODE:NOROOT(0)
?Subroutine0:
          CFI Block cfiBlock20 Using cfiCommon0
          CFI NoFunction
          CFI CFA_SP SP+0
          CFI CFA_XSP16 add(XSP16, 26)
          CFI VB load(1, XDATA, add(CFA_XSP16, literal(-13)))
          CFI DPL0 load(1, XDATA, add(CFA_XSP16, literal(-2)))
          CFI DPH0 load(1, XDATA, add(CFA_XSP16, literal(-1)))
          CFI R6 load(1, XDATA, add(CFA_XSP16, literal(-14)))
          CFI R7 load(1, XDATA, add(CFA_XSP16, literal(-6)))
          CFI V0 load(1, XDATA, add(CFA_XSP16, literal(-12)))
          CFI V1 load(1, XDATA, add(CFA_XSP16, literal(-11)))
          CFI V2 load(1, XDATA, add(CFA_XSP16, literal(-10)))
          CFI V3 load(1, XDATA, add(CFA_XSP16, literal(-9)))
          CFI V4 load(1, XDATA, add(CFA_XSP16, literal(-8)))
          CFI V5 load(1, XDATA, add(CFA_XSP16, literal(-7)))
          CFI ?BRET_EXT load(1, XDATA, add(CFA_XSP16, literal(-3)))
          CFI ?RET_HIGH load(1, XDATA, add(CFA_XSP16, literal(-4)))
          CFI ?RET_LOW load(1, XDATA, add(CFA_XSP16, literal(-5)))
          CFI Invalid
        LCALL     ?DEALLOC_XSTACK8
          CFI EndBlock cfiBlock20
        REQUIRE ??Subroutine93_0
        ; // Fall through to label ??Subroutine93_0

        RSEG BANKED_CODE:HUGECODE:NOROOT(0)
??Subroutine93_0:
          CFI Block cfiBlock21 Using cfiCommon0
          CFI NoFunction
          CFI CFA_SP SP+0
          CFI CFA_XSP16 add(XSP16, 14)
          CFI VB load(1, XDATA, add(CFA_XSP16, literal(-13)))
          CFI DPL0 load(1, XDATA, add(CFA_XSP16, literal(-2)))
          CFI DPH0 load(1, XDATA, add(CFA_XSP16, literal(-1)))
          CFI R6 load(1, XDATA, add(CFA_XSP16, literal(-14)))
          CFI R7 load(1, XDATA, add(CFA_XSP16, literal(-6)))
          CFI V0 load(1, XDATA, add(CFA_XSP16, literal(-12)))
          CFI V1 load(1, XDATA, add(CFA_XSP16, literal(-11)))
          CFI V2 load(1, XDATA, add(CFA_XSP16, literal(-10)))
          CFI V3 load(1, XDATA, add(CFA_XSP16, literal(-9)))
          CFI V4 load(1, XDATA, add(CFA_XSP16, literal(-8)))
          CFI V5 load(1, XDATA, add(CFA_XSP16, literal(-7)))
          CFI ?BRET_EXT load(1, XDATA, add(CFA_XSP16, literal(-3)))
          CFI ?RET_HIGH load(1, XDATA, add(CFA_XSP16, literal(-4)))
          CFI ?RET_LOW load(1, XDATA, add(CFA_XSP16, literal(-5)))
        MOV       R7,#0x6
        LJMP      ?BANKED_LEAVE_XDATA
          CFI EndBlock cfiBlock21
//  462 
//  463 /*********************************************************************
//  464  * @fn          ZDP_SimpleDescReq
//  465  *
//  466  * @brief       This builds and send a NWK_Simple_Desc_req
//  467  *              message.  This function sends unicast message to the
//  468  *              destination device.
//  469  *
//  470  * @param       dstAddr - destination address
//  471  * @param       nwkAddr - 16 bit address
//  472  * @param       epIntf - endpoint/interface
//  473  * @param       SecurityEnable - Security Options
//  474  *
//  475  * @return      afStatus_t
//  476  */

        RSEG BANKED_CODE:HUGECODE:NOROOT(0)
//  477 afStatus_t ZDP_SimpleDescReq( zAddrType_t *dstAddr, uint16 nwkAddr,
ZDP_SimpleDescReq:
          CFI Block cfiBlock22 Using cfiCommon0
          CFI Function ZDP_SimpleDescReq
        CODE
//  478                                     byte endPoint, byte SecurityEnable )
//  479 
//  480 {
        FUNCALL ZDP_SimpleDescReq, fillAndSend
        LOCFRAME ISTACK, 0, STACK
        LOCFRAME PSTACK, 0, STACK
        LOCFRAME XSTACK, 12, STACK
        LOCFRAME IOVERLAY, 0, STATIC
        LOCFRAME DOVERLAY, 0, STATIC
        ARGFRAME ISTACK, 0, STACK
        ARGFRAME PSTACK, 0, STACK
        ARGFRAME XSTACK, 12, STACK
        ARGFRAME IOVERLAY, 0, STATIC
        ARGFRAME DOVERLAY, 0, STATIC
        REQUIRE ?V0
        REQUIRE ?V1
        MOV       A,#-0xa
        LCALL     ?BANKED_ENTER_XDATA
          CFI DPH0 load(1, XDATA, add(CFA_XSP16, literal(-1)))
          CFI DPL0 load(1, XDATA, add(CFA_XSP16, literal(-2)))
          CFI ?BRET_EXT load(1, XDATA, add(CFA_XSP16, literal(-3)))
          CFI ?RET_HIGH load(1, XDATA, add(CFA_XSP16, literal(-4)))
          CFI ?RET_LOW load(1, XDATA, add(CFA_XSP16, literal(-5)))
          CFI R7 load(1, XDATA, add(CFA_XSP16, literal(-6)))
          CFI V1 load(1, XDATA, add(CFA_XSP16, literal(-7)))
          CFI V0 load(1, XDATA, add(CFA_XSP16, literal(-8)))
          CFI VB load(1, XDATA, add(CFA_XSP16, literal(-9)))
          CFI R6 load(1, XDATA, add(CFA_XSP16, literal(-10)))
          CFI CFA_SP SP+0
          CFI CFA_XSP16 add(XSP16, 10)
        ; Saved register size: 10
        ; Auto size: 0
//  481   (void)SecurityEnable;  // Intentionally unreferenced parameter
//  482 
//  483   ZDP_TmpBuf[0] = LO_UINT16( nwkAddr );
        LCALL     ?Subroutine17 & 0xFFFF
//  484   ZDP_TmpBuf[1] = HI_UINT16( nwkAddr );
??CrossCallReturnLabel_17:
        LCALL     ?Subroutine13 & 0xFFFF
//  485   ZDP_TmpBuf[2] = endPoint;
//  486 
//  487   return fillAndSend( &ZDP_TransID, dstAddr, Simple_Desc_req, 3 );
??CrossCallReturnLabel_6:
        ; Setup parameters for call to function fillAndSend
        MOV       ?V0,#0x4
        MOV       ?V1,#0x0
        MOV       R0,#?V0
        LCALL     ?PUSH_XSTACK_I_TWO
          CFI CFA_XSP16 add(XSP16, 12)
        MOV       R1,#0x3
        LJMP      ?Subroutine8 & 0xFFFF
//  488 }
          CFI EndBlock cfiBlock22

        RSEG BANKED_CODE:HUGECODE:NOROOT(0)
?Subroutine17:
          CFI Block cfiCond23 Using cfiCommon0
          CFI Function ZDP_NWKAddrOfInterestReq
          CFI Conditional ??CrossCallReturnLabel_16
          CFI R6 load(1, XDATA, add(CFA_XSP16, literal(-10)))
          CFI VB load(1, XDATA, add(CFA_XSP16, literal(-9)))
          CFI V0 load(1, XDATA, add(CFA_XSP16, literal(-8)))
          CFI V1 load(1, XDATA, add(CFA_XSP16, literal(-7)))
          CFI R7 load(1, XDATA, add(CFA_XSP16, literal(-6)))
          CFI ?RET_LOW load(1, XDATA, add(CFA_XSP16, literal(-5)))
          CFI ?RET_HIGH load(1, XDATA, add(CFA_XSP16, literal(-4)))
          CFI ?BRET_EXT load(1, XDATA, add(CFA_XSP16, literal(-3)))
          CFI DPL0 load(1, XDATA, add(CFA_XSP16, literal(-2)))
          CFI DPH0 load(1, XDATA, add(CFA_XSP16, literal(-1)))
          CFI CFA_SP SP+-2
          CFI CFA_XSP16 add(XSP16, 10)
          CFI Block cfiCond24 Using cfiCommon0
          CFI (cfiCond24) Function ZDP_SimpleDescReq
          CFI (cfiCond24) Conditional ??CrossCallReturnLabel_17
          CFI (cfiCond24) R6 load(1, XDATA, add(CFA_XSP16, literal(-10)))
          CFI (cfiCond24) VB load(1, XDATA, add(CFA_XSP16, literal(-9)))
          CFI (cfiCond24) V0 load(1, XDATA, add(CFA_XSP16, literal(-8)))
          CFI (cfiCond24) V1 load(1, XDATA, add(CFA_XSP16, literal(-7)))
          CFI (cfiCond24) R7 load(1, XDATA, add(CFA_XSP16, literal(-6)))
          CFI (cfiCond24) ?RET_LOW load(1, XDATA, add(CFA_XSP16, literal(-5)))
          CFI (cfiCond24) ?RET_HIGH load(1, XDATA, add(CFA_XSP16, literal(-4)))
          CFI (cfiCond24) ?BRET_EXT load(1, XDATA, add(CFA_XSP16, literal(-3)))
          CFI (cfiCond24) DPL0 load(1, XDATA, add(CFA_XSP16, literal(-2)))
          CFI (cfiCond24) DPH0 load(1, XDATA, add(CFA_XSP16, literal(-1)))
          CFI (cfiCond24) CFA_SP SP+-2
          CFI (cfiCond24) CFA_XSP16 add(XSP16, 10)
          CFI Block cfiPicker25 Using cfiCommon1
          CFI (cfiPicker25) NoFunction
          CFI (cfiPicker25) Picker
        LCALL     ?Subroutine76 & 0xFFFF
??CrossCallReturnLabel_251:
        MOV       DPH,A
        MOV       DPL,R0
        MOV       A,R4
        LCALL     ?Subroutine70 & 0xFFFF
??CrossCallReturnLabel_124:
        MOV       A,R5
        RET
          CFI EndBlock cfiCond23
          CFI EndBlock cfiCond24
          CFI EndBlock cfiPicker25

        RSEG BANKED_CODE:HUGECODE:NOROOT(0)
?Subroutine2:
          CFI Block cfiBlock26 Using cfiCommon0
          CFI NoFunction
          CFI CFA_SP SP+0
          CFI CFA_XSP16 add(XSP16, 21)
          CFI VB load(1, XDATA, add(CFA_XSP16, literal(-9)))
          CFI DPL0 load(1, XDATA, add(CFA_XSP16, literal(-2)))
          CFI DPH0 load(1, XDATA, add(CFA_XSP16, literal(-1)))
          CFI R6 load(1, XDATA, add(CFA_XSP16, literal(-10)))
          CFI R7 load(1, XDATA, add(CFA_XSP16, literal(-6)))
          CFI V0 load(1, XDATA, add(CFA_XSP16, literal(-8)))
          CFI V1 load(1, XDATA, add(CFA_XSP16, literal(-7)))
          CFI ?BRET_EXT load(1, XDATA, add(CFA_XSP16, literal(-3)))
          CFI ?RET_HIGH load(1, XDATA, add(CFA_XSP16, literal(-4)))
          CFI ?RET_LOW load(1, XDATA, add(CFA_XSP16, literal(-5)))
        MOV       A,#0x2
        LCALL     ?XSTACK_DISP102_8
        MOV       R2,#ZDP_TransID & 0xff
        MOV       R3,#(ZDP_TransID >> 8) & 0xff
        LCALL     `??fillAndSend::?relay`; Banked call to: fillAndSend
        MOV       A,#0x2
        LCALL     ?DEALLOC_XSTACK8
          CFI EndBlock cfiBlock26
        REQUIRE ??Subroutine94_0
        ; // Fall through to label ??Subroutine94_0

        RSEG BANKED_CODE:HUGECODE:NOROOT(0)
??Subroutine94_0:
          CFI Block cfiBlock27 Using cfiCommon0
          CFI NoFunction
          CFI CFA_SP SP+0
          CFI CFA_XSP16 add(XSP16, 19)
          CFI VB load(1, XDATA, add(CFA_XSP16, literal(-9)))
          CFI DPL0 load(1, XDATA, add(CFA_XSP16, literal(-2)))
          CFI DPH0 load(1, XDATA, add(CFA_XSP16, literal(-1)))
          CFI R6 load(1, XDATA, add(CFA_XSP16, literal(-10)))
          CFI R7 load(1, XDATA, add(CFA_XSP16, literal(-6)))
          CFI V0 load(1, XDATA, add(CFA_XSP16, literal(-8)))
          CFI V1 load(1, XDATA, add(CFA_XSP16, literal(-7)))
          CFI ?BRET_EXT load(1, XDATA, add(CFA_XSP16, literal(-3)))
          CFI ?RET_HIGH load(1, XDATA, add(CFA_XSP16, literal(-4)))
          CFI ?RET_LOW load(1, XDATA, add(CFA_XSP16, literal(-5)))
        MOV       A,#0x9
          CFI EndBlock cfiBlock27
        REQUIRE ??Subroutine95_0
        ; // Fall through to label ??Subroutine95_0

        RSEG BANKED_CODE:HUGECODE:NOROOT(0)
??Subroutine95_0:
          CFI Block cfiBlock28 Using cfiCommon0
          CFI NoFunction
          CFI CFA_SP SP+0
          CFI CFA_XSP16 add(XSP16, 12)
          CFI VB load(1, XDATA, add(CFA_XSP16, literal(-9)))
          CFI DPL0 load(1, XDATA, add(CFA_XSP16, literal(-2)))
          CFI DPH0 load(1, XDATA, add(CFA_XSP16, literal(-1)))
          CFI R6 load(1, XDATA, add(CFA_XSP16, literal(-10)))
          CFI R7 load(1, XDATA, add(CFA_XSP16, literal(-6)))
          CFI V0 load(1, XDATA, add(CFA_XSP16, literal(-8)))
          CFI V1 load(1, XDATA, add(CFA_XSP16, literal(-7)))
          CFI ?BRET_EXT load(1, XDATA, add(CFA_XSP16, literal(-3)))
          CFI ?RET_HIGH load(1, XDATA, add(CFA_XSP16, literal(-4)))
          CFI ?RET_LOW load(1, XDATA, add(CFA_XSP16, literal(-5)))
          CFI Invalid
        LCALL     ?DEALLOC_XSTACK8
          CFI CFA_XSP16 add(XSP16, 10)
          CFI Valid
        MOV       R7,#0x2
        LJMP      ?BANKED_LEAVE_XDATA
          CFI EndBlock cfiBlock28
//  489 
//  490 /*********************************************************************
//  491  * @fn          ZDP_UserDescSet
//  492  *
//  493  * @brief       This builds and send a User_Desc_set message to set
//  494  *              the user descriptor.  This function sends unicast
//  495  *              message to the destination device.
//  496  *
//  497  * @param       dstAddr - destination address
//  498  * @param       nwkAddr - 16 bit address
//  499  * @param       UserDescriptor - user descriptor
//  500  * @param       SecurityEnable - Security Options
//  501  *
//  502  * @return      afStatus_t
//  503  */

        RSEG BANKED_CODE:HUGECODE:NOROOT(0)
//  504 afStatus_t ZDP_UserDescSet( zAddrType_t *dstAddr, uint16 nwkAddr,
ZDP_UserDescSet:
          CFI Block cfiBlock29 Using cfiCommon0
          CFI Function ZDP_UserDescSet
        CODE
//  505                           UserDescriptorFormat_t *UserDescriptor,
//  506                           byte SecurityEnable )
//  507 {
        FUNCALL ZDP_UserDescSet, osal_memcpy
        LOCFRAME ISTACK, 0, STACK
        LOCFRAME PSTACK, 0, STACK
        LOCFRAME XSTACK, 18, STACK
        LOCFRAME IOVERLAY, 0, STATIC
        LOCFRAME DOVERLAY, 0, STATIC
        ARGFRAME ISTACK, 0, STACK
        ARGFRAME PSTACK, 0, STACK
        ARGFRAME XSTACK, 18, STACK
        ARGFRAME IOVERLAY, 0, STATIC
        ARGFRAME DOVERLAY, 0, STATIC
        FUNCALL ZDP_UserDescSet, osal_memset
        LOCFRAME ISTACK, 0, STACK
        LOCFRAME PSTACK, 0, STACK
        LOCFRAME XSTACK, 15, STACK
        LOCFRAME IOVERLAY, 0, STATIC
        LOCFRAME DOVERLAY, 0, STATIC
        ARGFRAME ISTACK, 0, STACK
        ARGFRAME PSTACK, 0, STACK
        ARGFRAME XSTACK, 15, STACK
        ARGFRAME IOVERLAY, 0, STATIC
        ARGFRAME DOVERLAY, 0, STATIC
        FUNCALL ZDP_UserDescSet, fillAndSend
        LOCFRAME ISTACK, 0, STACK
        LOCFRAME PSTACK, 0, STACK
        LOCFRAME XSTACK, 17, STACK
        LOCFRAME IOVERLAY, 0, STATIC
        LOCFRAME DOVERLAY, 0, STATIC
        ARGFRAME ISTACK, 0, STACK
        ARGFRAME PSTACK, 0, STACK
        ARGFRAME XSTACK, 17, STACK
        ARGFRAME IOVERLAY, 0, STATIC
        ARGFRAME DOVERLAY, 0, STATIC
        REQUIRE ?V0
        REQUIRE ?V2
        REQUIRE ?V3
        REQUIRE ?V4
        REQUIRE ?V5
        REQUIRE ?V6
        MOV       A,#-0xf
        LCALL     ?BANKED_ENTER_XDATA
          CFI DPH0 load(1, XDATA, add(CFA_XSP16, literal(-1)))
          CFI DPL0 load(1, XDATA, add(CFA_XSP16, literal(-2)))
          CFI ?BRET_EXT load(1, XDATA, add(CFA_XSP16, literal(-3)))
          CFI ?RET_HIGH load(1, XDATA, add(CFA_XSP16, literal(-4)))
          CFI ?RET_LOW load(1, XDATA, add(CFA_XSP16, literal(-5)))
          CFI R7 load(1, XDATA, add(CFA_XSP16, literal(-6)))
          CFI V6 load(1, XDATA, add(CFA_XSP16, literal(-7)))
          CFI V5 load(1, XDATA, add(CFA_XSP16, literal(-8)))
          CFI V4 load(1, XDATA, add(CFA_XSP16, literal(-9)))
          CFI V3 load(1, XDATA, add(CFA_XSP16, literal(-10)))
          CFI V2 load(1, XDATA, add(CFA_XSP16, literal(-11)))
          CFI V1 load(1, XDATA, add(CFA_XSP16, literal(-12)))
          CFI V0 load(1, XDATA, add(CFA_XSP16, literal(-13)))
          CFI VB load(1, XDATA, add(CFA_XSP16, literal(-14)))
          CFI R6 load(1, XDATA, add(CFA_XSP16, literal(-15)))
          CFI CFA_SP SP+0
          CFI CFA_XSP16 add(XSP16, 15)
        ; Saved register size: 15
        ; Auto size: 0
        LCALL     ?Subroutine57 & 0xFFFF
//  508   uint8 *pBuf = ZDP_TmpBuf;
??CrossCallReturnLabel_230:
        MOV       ?V2,R0
        MOV       ?V3,R1
        MOV       A,#0xf
        LCALL     ?XSTACK_DISP0_8
        LCALL     ?Subroutine42 & 0xFFFF
//  509   byte len = (UserDescriptor->len < AF_MAX_USER_DESCRIPTOR_LEN) ?
//  510               UserDescriptor->len : AF_MAX_USER_DESCRIPTOR_LEN;
??CrossCallReturnLabel_60:
        MOV       R2,A
        CLR       C
        SUBB      A,#0x10
        JNC       ??ZDP_UserDescSet_0
        MOV       ?V0,R2
        SJMP      ??ZDP_UserDescSet_1
??ZDP_UserDescSet_0:
        MOV       ?V0,#0x10
//  511   byte addrLen = 2;
//  512 
//  513   (void)SecurityEnable;  // Intentionally unreferenced parameter
//  514 
//  515   *pBuf++ = LO_UINT16( nwkAddr );
??ZDP_UserDescSet_1:
        MOV       A,R4
        MOV       DPL,?V2
        MOV       DPH,?V3
        MOVX      @DPTR,A
//  516   *pBuf++ = HI_UINT16( nwkAddr );
        MOV       A,R5
        INC       DPTR
        LCALL     ?Subroutine30 & 0xFFFF
//  517 
//  518   *pBuf++ = len;
??CrossCallReturnLabel_44:
        MOV       A,?V0
        LCALL     ?Subroutine10 & 0xFFFF
//  519   addrLen = 3;
//  520 
//  521   pBuf = osal_memcpy( pBuf, UserDescriptor->desc, len );
??CrossCallReturnLabel_0:
        LCALL     ?PUSH_XSTACK_I_THREE
          CFI CFA_XSP16 add(XSP16, 18)
        MOV       R4,?V0
        MOV       R5,#0x0
        MOV       A,?V2
        ADD       A,#0x3
        MOV       R2,A
        CLR       A
        ADDC      A,?V3
        MOV       R3,A
        LCALL     `??osal_memcpy::?relay`; Banked call to: osal_memcpy
        MOV       A,#0x3
        LCALL     ?DEALLOC_XSTACK8
          CFI CFA_XSP16 add(XSP16, 15)
//  522   osal_memset( pBuf, AF_USER_DESCRIPTOR_FILL, AF_MAX_USER_DESCRIPTOR_LEN-len );
        ; Setup parameters for call to function osal_memset
        MOV       R0,?V0
        MOV       A,#0x10
        CLR       C
        SUBB      A,R0
        MOV       R4,A
        SUBB      A,0xE0 /* A   */
        MOV       R5,A
        MOV       R1,#0x20
        LCALL     `??osal_memset::?relay`; Banked call to: osal_memset
//  523 
//  524   return fillAndSend( &ZDP_TransID, dstAddr, User_Desc_set, (AF_MAX_USER_DESCRIPTOR_LEN + addrLen) );
        ; Setup parameters for call to function fillAndSend
        MOV       ?V2,#0x14
        MOV       ?V3,#0x0
        MOV       R0,#?V2
        LCALL     ?PUSH_XSTACK_I_TWO
          CFI CFA_XSP16 add(XSP16, 17)
        MOV       R1,#0x13
        MOV       A,R6
        MOV       R4,A
        MOV       A,R7
        MOV       R5,A
        MOV       R2,#ZDP_TransID & 0xff
        MOV       R3,#(ZDP_TransID >> 8) & 0xff
        LCALL     `??fillAndSend::?relay`; Banked call to: fillAndSend
        MOV       A,#0x2
          CFI EndBlock cfiBlock29
        REQUIRE ?Subroutine3
        ; // Fall through to label ?Subroutine3
//  525 }

        RSEG BANKED_CODE:HUGECODE:NOROOT(0)
?Subroutine3:
          CFI Block cfiBlock30 Using cfiCommon0
          CFI NoFunction
          CFI CFA_SP SP+0
          CFI CFA_XSP16 add(XSP16, 17)
          CFI VB load(1, XDATA, add(CFA_XSP16, literal(-14)))
          CFI DPL0 load(1, XDATA, add(CFA_XSP16, literal(-2)))
          CFI DPH0 load(1, XDATA, add(CFA_XSP16, literal(-1)))
          CFI R6 load(1, XDATA, add(CFA_XSP16, literal(-15)))
          CFI R7 load(1, XDATA, add(CFA_XSP16, literal(-6)))
          CFI V0 load(1, XDATA, add(CFA_XSP16, literal(-13)))
          CFI V1 load(1, XDATA, add(CFA_XSP16, literal(-12)))
          CFI V2 load(1, XDATA, add(CFA_XSP16, literal(-11)))
          CFI V3 load(1, XDATA, add(CFA_XSP16, literal(-10)))
          CFI V4 load(1, XDATA, add(CFA_XSP16, literal(-9)))
          CFI V5 load(1, XDATA, add(CFA_XSP16, literal(-8)))
          CFI V6 load(1, XDATA, add(CFA_XSP16, literal(-7)))
          CFI ?BRET_EXT load(1, XDATA, add(CFA_XSP16, literal(-3)))
          CFI ?RET_HIGH load(1, XDATA, add(CFA_XSP16, literal(-4)))
          CFI ?RET_LOW load(1, XDATA, add(CFA_XSP16, literal(-5)))
          CFI Invalid
        LCALL     ?DEALLOC_XSTACK8
          CFI CFA_XSP16 add(XSP16, 15)
          CFI Valid
        MOV       R7,#0x7
        LJMP      ?BANKED_LEAVE_XDATA
          CFI EndBlock cfiBlock30
//  526 
//  527 /*********************************************************************
//  528  * @fn          ZDP_ServerDiscReq
//  529  *
//  530  * @brief       Build and send a Server_Discovery_req request message.
//  531  *
//  532  * @param       serverMask - 16-bit bit-mask of server services being sought.
//  533  * @param       SecurityEnable - Security Options
//  534  *
//  535  * @return      afStatus_t
//  536  */

        RSEG BANKED_CODE:HUGECODE:NOROOT(0)
//  537 afStatus_t ZDP_ServerDiscReq( uint16 serverMask, byte SecurityEnable )
ZDP_ServerDiscReq:
          CFI Block cfiBlock31 Using cfiCommon0
          CFI Function ZDP_ServerDiscReq
        CODE
//  538 {
        FUNCALL ZDP_ServerDiscReq, fillAndSend
        LOCFRAME ISTACK, 0, STACK
        LOCFRAME PSTACK, 0, STACK
        LOCFRAME XSTACK, 21, STACK
        LOCFRAME IOVERLAY, 0, STATIC
        LOCFRAME DOVERLAY, 0, STATIC
        ARGFRAME ISTACK, 0, STACK
        ARGFRAME PSTACK, 0, STACK
        ARGFRAME XSTACK, 21, STACK
        ARGFRAME IOVERLAY, 0, STATIC
        ARGFRAME DOVERLAY, 0, STATIC
        REQUIRE ?V0
        REQUIRE ?V1
        MOV       A,#-0xa
        LCALL     ?BANKED_ENTER_XDATA
          CFI DPH0 load(1, XDATA, add(CFA_XSP16, literal(-1)))
          CFI DPL0 load(1, XDATA, add(CFA_XSP16, literal(-2)))
          CFI ?BRET_EXT load(1, XDATA, add(CFA_XSP16, literal(-3)))
          CFI ?RET_HIGH load(1, XDATA, add(CFA_XSP16, literal(-4)))
          CFI ?RET_LOW load(1, XDATA, add(CFA_XSP16, literal(-5)))
          CFI R7 load(1, XDATA, add(CFA_XSP16, literal(-6)))
          CFI V1 load(1, XDATA, add(CFA_XSP16, literal(-7)))
          CFI V0 load(1, XDATA, add(CFA_XSP16, literal(-8)))
          CFI VB load(1, XDATA, add(CFA_XSP16, literal(-9)))
          CFI R6 load(1, XDATA, add(CFA_XSP16, literal(-10)))
          CFI CFA_SP SP+0
          CFI CFA_XSP16 add(XSP16, 10)
        ; Saved register size: 10
        ; Auto size: 9
        MOV       A,#-0x9
        LCALL     ?ALLOC_XSTACK8
          CFI CFA_XSP16 add(XSP16, 19)
        MOV       A,R1
        MOV       R6,A
//  539   uint8 *pBuf = ZDP_TmpBuf;
        LCALL     ??Subroutine116_0 & 0xFFFF
//  540   zAddrType_t dstAddr;
//  541 
//  542   dstAddr.addrMode = AddrBroadcast;
??CrossCallReturnLabel_244:
        MOV       A,#0x8
        LCALL     ?XSTACK_DISP0_8
        LCALL     ?Subroutine18 & 0xFFFF
//  543   dstAddr.addr.shortAddr = NWK_BROADCAST_SHORTADDR_DEVRXON;
//  544 
//  545   *pBuf++ = LO_UINT16( serverMask );
??CrossCallReturnLabel_18:
        MOV       A,R2
        MOV       DPL,R0
        MOV       DPH,R1
        MOVX      @DPTR,A
//  546   *pBuf = HI_UINT16( serverMask );
        MOV       A,R3
        INC       DPTR
        MOVX      @DPTR,A
//  547 
//  548   FillAndSendTxOptions( &ZDP_TransID, &dstAddr, Server_Discovery_req, 2,
//  549              ((SecurityEnable) ? AF_EN_SECURITY : AF_TX_OPTIONS_NONE) );
        MOV       A,R6
        MOV       DPTR,#ZDP_TxOptions
        JZ        ??ZDP_ServerDiscReq_0
        MOV       A,#0x40
        SJMP      ??ZDP_ServerDiscReq_1
??ZDP_ServerDiscReq_0:
        CLR       A
??ZDP_ServerDiscReq_1:
        MOVX      @DPTR,A
        ; Setup parameters for call to function fillAndSend
        MOV       ?V0,#0x15
        MOV       ?V1,#0x0
        MOV       R0,#?V0
        LCALL     ?PUSH_XSTACK_I_TWO
          CFI CFA_XSP16 add(XSP16, 21)
        MOV       R1,#0x2
        MOV       A,R1
        LCALL     ?XSTACK_DISP102_8
        MOV       R2,#ZDP_TransID & 0xff
        MOV       R3,#(ZDP_TransID >> 8) & 0xff
        LCALL     `??fillAndSend::?relay`; Banked call to: fillAndSend
        MOV       A,#0x2
        LCALL     ?DEALLOC_XSTACK8
          CFI CFA_XSP16 add(XSP16, 19)
        MOV       A,R1
        MOV       R1,A
        MOV       DPTR,#ZDP_TxOptions
        CLR       A
        MOVX      @DPTR,A
        LJMP      ??Subroutine94_0 & 0xFFFF
//  550 }
          CFI EndBlock cfiBlock31
//  551 
//  552 /*********************************************************************
//  553  * @fn          ZDP_DeviceAnnce
//  554  *
//  555  * @brief       This builds and send a Device_Annce message.  This
//  556  *              function sends a broadcast message.
//  557  *
//  558  * @param       nwkAddr - 16 bit address of the device
//  559  * @param       IEEEAddr - 64 bit address of the device
//  560  * @param       capabilities - device capabilities.  This field is only
//  561  *                 sent for v1.1 networks.
//  562  * @param       SecurityEnable - Security Options
//  563  *
//  564  * @return      afStatus_t
//  565  */

        RSEG BANKED_CODE:HUGECODE:NOROOT(0)
//  566 afStatus_t ZDP_DeviceAnnce( uint16 nwkAddr, uint8 *IEEEAddr,
ZDP_DeviceAnnce:
          CFI Block cfiBlock32 Using cfiCommon0
          CFI Function ZDP_DeviceAnnce
        CODE
//  567                               byte capabilities, byte SecurityEnable )
//  568 {
        FUNCALL ZDP_DeviceAnnce, sAddrExtCpy
        LOCFRAME ISTACK, 0, STACK
        LOCFRAME PSTACK, 0, STACK
        LOCFRAME XSTACK, 19, STACK
        LOCFRAME IOVERLAY, 0, STATIC
        LOCFRAME DOVERLAY, 0, STATIC
        ARGFRAME ISTACK, 0, STACK
        ARGFRAME PSTACK, 0, STACK
        ARGFRAME XSTACK, 19, STACK
        ARGFRAME IOVERLAY, 0, STATIC
        ARGFRAME DOVERLAY, 0, STATIC
        FUNCALL ZDP_DeviceAnnce, fillAndSend
        LOCFRAME ISTACK, 0, STACK
        LOCFRAME PSTACK, 0, STACK
        LOCFRAME XSTACK, 21, STACK
        LOCFRAME IOVERLAY, 0, STATIC
        LOCFRAME DOVERLAY, 0, STATIC
        ARGFRAME ISTACK, 0, STACK
        ARGFRAME PSTACK, 0, STACK
        ARGFRAME XSTACK, 21, STACK
        ARGFRAME IOVERLAY, 0, STATIC
        ARGFRAME DOVERLAY, 0, STATIC
        REQUIRE ?V0
        REQUIRE ?V1
        MOV       A,#-0xa
        LCALL     ?BANKED_ENTER_XDATA
          CFI DPH0 load(1, XDATA, add(CFA_XSP16, literal(-1)))
          CFI DPL0 load(1, XDATA, add(CFA_XSP16, literal(-2)))
          CFI ?BRET_EXT load(1, XDATA, add(CFA_XSP16, literal(-3)))
          CFI ?RET_HIGH load(1, XDATA, add(CFA_XSP16, literal(-4)))
          CFI ?RET_LOW load(1, XDATA, add(CFA_XSP16, literal(-5)))
          CFI R7 load(1, XDATA, add(CFA_XSP16, literal(-6)))
          CFI V1 load(1, XDATA, add(CFA_XSP16, literal(-7)))
          CFI V0 load(1, XDATA, add(CFA_XSP16, literal(-8)))
          CFI VB load(1, XDATA, add(CFA_XSP16, literal(-9)))
          CFI R6 load(1, XDATA, add(CFA_XSP16, literal(-10)))
          CFI CFA_SP SP+0
          CFI CFA_XSP16 add(XSP16, 10)
        ; Saved register size: 10
        ; Auto size: 9
        MOV       A,#-0x9
        LCALL     ?ALLOC_XSTACK8
          CFI CFA_XSP16 add(XSP16, 19)
        MOV       A,R1
        MOV       R6,A
//  569   zAddrType_t dstAddr;
//  570   uint8 len;
//  571 
//  572   (void)SecurityEnable;  // Intentionally unreferenced parameter
//  573 
//  574   dstAddr.addrMode = (afAddrMode_t)AddrBroadcast;
        MOV       A,#0x8
        LCALL     ?XSTACK_DISP0_8
        LCALL     ?Subroutine18 & 0xFFFF
//  575   dstAddr.addr.shortAddr = NWK_BROADCAST_SHORTADDR_DEVRXON;
//  576 
//  577   ZDP_TmpBuf[0] = LO_UINT16( nwkAddr );
??CrossCallReturnLabel_19:
        LCALL     ?Subroutine46 & 0xFFFF
??CrossCallReturnLabel_175:
        MOV       A,R2
        LCALL     ?Subroutine21 & 0xFFFF
//  578   ZDP_TmpBuf[1] = HI_UINT16( nwkAddr );
??CrossCallReturnLabel_24:
        MOV       A,R3
        MOVX      @DPTR,A
//  579   osal_cpyExtAddr( &ZDP_TmpBuf[2], IEEEAddr );
        ; Setup parameters for call to function sAddrExtCpy
        MOV       DPTR,#ZDP_TmpBuf
        MOVX      A,@DPTR
        ADD       A,#0x2
        MOV       R2,A
        INC       DPTR
        MOVX      A,@DPTR
        ADDC      A,#0x0
        MOV       R3,A
        LCALL     `??sAddrExtCpy::?relay`; Banked call to: sAddrExtCpy
//  580   len = 2 + Z_EXTADDR_LEN;
//  581 
//  582   ZDP_TmpBuf[10] = capabilities;
        LCALL     ?Subroutine76 & 0xFFFF
??CrossCallReturnLabel_249:
        XCH       A,R0
        ADD       A,#0xa
        MOV       DPL,A
        CLR       A
        ADDC      A,R0
        MOV       DPH,A
        MOV       A,R6
        MOVX      @DPTR,A
//  583   len++;
//  584 
//  585   return fillAndSend( &ZDP_TransID, &dstAddr, Device_annce, len );
        ; Setup parameters for call to function fillAndSend
        MOV       ?V0,#0x13
        MOV       ?V1,#0x0
        MOV       R0,#?V0
        LCALL     ?PUSH_XSTACK_I_TWO
          CFI CFA_XSP16 add(XSP16, 21)
        MOV       R1,#0xb
        LJMP      ?Subroutine2 & 0xFFFF
//  586 }
          CFI EndBlock cfiBlock32

        RSEG BANKED_CODE:HUGECODE:NOROOT(0)
?Subroutine18:
          CFI Block cfiCond33 Using cfiCommon0
          CFI Function ZDP_ServerDiscReq
          CFI Conditional ??CrossCallReturnLabel_18
          CFI R6 load(1, XDATA, add(CFA_XSP16, literal(-10)))
          CFI VB load(1, XDATA, add(CFA_XSP16, literal(-9)))
          CFI V0 load(1, XDATA, add(CFA_XSP16, literal(-8)))
          CFI V1 load(1, XDATA, add(CFA_XSP16, literal(-7)))
          CFI R7 load(1, XDATA, add(CFA_XSP16, literal(-6)))
          CFI ?RET_LOW load(1, XDATA, add(CFA_XSP16, literal(-5)))
          CFI ?RET_HIGH load(1, XDATA, add(CFA_XSP16, literal(-4)))
          CFI ?BRET_EXT load(1, XDATA, add(CFA_XSP16, literal(-3)))
          CFI DPL0 load(1, XDATA, add(CFA_XSP16, literal(-2)))
          CFI DPH0 load(1, XDATA, add(CFA_XSP16, literal(-1)))
          CFI CFA_SP SP+-2
          CFI CFA_XSP16 add(XSP16, 19)
          CFI Block cfiCond34 Using cfiCommon0
          CFI (cfiCond34) Function ZDP_DeviceAnnce
          CFI (cfiCond34) Conditional ??CrossCallReturnLabel_19
          CFI (cfiCond34) R6 load(1, XDATA, add(CFA_XSP16, literal(-10)))
          CFI (cfiCond34) VB load(1, XDATA, add(CFA_XSP16, literal(-9)))
          CFI (cfiCond34) V0 load(1, XDATA, add(CFA_XSP16, literal(-8)))
          CFI (cfiCond34) V1 load(1, XDATA, add(CFA_XSP16, literal(-7)))
          CFI (cfiCond34) R7 load(1, XDATA, add(CFA_XSP16, literal(-6)))
          CFI (cfiCond34) ?RET_LOW load(1, XDATA, add(CFA_XSP16, literal(-5)))
          CFI (cfiCond34) ?RET_HIGH load(1, XDATA, add(CFA_XSP16, literal(-4)))
          CFI (cfiCond34) ?BRET_EXT load(1, XDATA, add(CFA_XSP16, literal(-3)))
          CFI (cfiCond34) DPL0 load(1, XDATA, add(CFA_XSP16, literal(-2)))
          CFI (cfiCond34) DPH0 load(1, XDATA, add(CFA_XSP16, literal(-1)))
          CFI (cfiCond34) CFA_SP SP+-2
          CFI (cfiCond34) CFA_XSP16 add(XSP16, 19)
          CFI Block cfiPicker35 Using cfiCommon1
          CFI (cfiPicker35) NoFunction
          CFI (cfiPicker35) Picker
        LCALL     ?Subroutine80 & 0xFFFF
??CrossCallReturnLabel_136:
        MOVX      @DPTR,A
        RET
          CFI EndBlock cfiCond33
          CFI EndBlock cfiCond34
          CFI EndBlock cfiPicker35

        RSEG BANKED_CODE:HUGECODE:NOROOT(0)
?Subroutine80:
          CFI Block cfiCond36 Using cfiCommon0
          CFI Function ZDP_NwkAddrReq
          CFI Conditional ??CrossCallReturnLabel_135
          CFI R6 load(1, XDATA, add(CFA_XSP16, literal(-12)))
          CFI VB load(1, XDATA, add(CFA_XSP16, literal(-11)))
          CFI V0 load(1, XDATA, add(CFA_XSP16, literal(-10)))
          CFI V1 load(1, XDATA, add(CFA_XSP16, literal(-9)))
          CFI V2 load(1, XDATA, add(CFA_XSP16, literal(-8)))
          CFI V3 load(1, XDATA, add(CFA_XSP16, literal(-7)))
          CFI R7 load(1, XDATA, add(CFA_XSP16, literal(-6)))
          CFI ?RET_LOW load(1, XDATA, add(CFA_XSP16, literal(-5)))
          CFI ?RET_HIGH load(1, XDATA, add(CFA_XSP16, literal(-4)))
          CFI ?BRET_EXT load(1, XDATA, add(CFA_XSP16, literal(-3)))
          CFI DPL0 load(1, XDATA, add(CFA_XSP16, literal(-2)))
          CFI DPH0 load(1, XDATA, add(CFA_XSP16, literal(-1)))
          CFI CFA_SP SP+-2
          CFI CFA_XSP16 add(XSP16, 21)
          CFI Block cfiCond37 Using cfiCommon0
          CFI (cfiCond37) Function ZDP_ServerDiscReq
          CFI (cfiCond37) Conditional ??CrossCallReturnLabel_136, ??CrossCallReturnLabel_18
          CFI (cfiCond37) R6 load(1, XDATA, add(CFA_XSP16, literal(-10)))
          CFI (cfiCond37) VB load(1, XDATA, add(CFA_XSP16, literal(-9)))
          CFI (cfiCond37) V0 load(1, XDATA, add(CFA_XSP16, literal(-8)))
          CFI (cfiCond37) V1 load(1, XDATA, add(CFA_XSP16, literal(-7)))
          CFI (cfiCond37) R7 load(1, XDATA, add(CFA_XSP16, literal(-6)))
          CFI (cfiCond37) ?RET_LOW load(1, XDATA, add(CFA_XSP16, literal(-5)))
          CFI (cfiCond37) ?RET_HIGH load(1, XDATA, add(CFA_XSP16, literal(-4)))
          CFI (cfiCond37) ?BRET_EXT load(1, XDATA, add(CFA_XSP16, literal(-3)))
          CFI (cfiCond37) DPL0 load(1, XDATA, add(CFA_XSP16, literal(-2)))
          CFI (cfiCond37) DPH0 load(1, XDATA, add(CFA_XSP16, literal(-1)))
          CFI (cfiCond37) CFA_SP SP+-4
          CFI (cfiCond37) CFA_XSP16 add(XSP16, 19)
          CFI Block cfiCond38 Using cfiCommon0
          CFI (cfiCond38) Function ZDP_DeviceAnnce
          CFI (cfiCond38) Conditional ??CrossCallReturnLabel_136, ??CrossCallReturnLabel_19
          CFI (cfiCond38) R6 load(1, XDATA, add(CFA_XSP16, literal(-10)))
          CFI (cfiCond38) VB load(1, XDATA, add(CFA_XSP16, literal(-9)))
          CFI (cfiCond38) V0 load(1, XDATA, add(CFA_XSP16, literal(-8)))
          CFI (cfiCond38) V1 load(1, XDATA, add(CFA_XSP16, literal(-7)))
          CFI (cfiCond38) R7 load(1, XDATA, add(CFA_XSP16, literal(-6)))
          CFI (cfiCond38) ?RET_LOW load(1, XDATA, add(CFA_XSP16, literal(-5)))
          CFI (cfiCond38) ?RET_HIGH load(1, XDATA, add(CFA_XSP16, literal(-4)))
          CFI (cfiCond38) ?BRET_EXT load(1, XDATA, add(CFA_XSP16, literal(-3)))
          CFI (cfiCond38) DPL0 load(1, XDATA, add(CFA_XSP16, literal(-2)))
          CFI (cfiCond38) DPH0 load(1, XDATA, add(CFA_XSP16, literal(-1)))
          CFI (cfiCond38) CFA_SP SP+-4
          CFI (cfiCond38) CFA_XSP16 add(XSP16, 19)
          CFI Block cfiPicker39 Using cfiCommon1
          CFI (cfiPicker39) NoFunction
          CFI (cfiPicker39) Picker
        MOV       A,#0xf
        MOVX      @DPTR,A
        MOV       DPL,?XSP + 0
        MOV       DPH,?XSP + 1
        MOV       A,#-0x3
        MOVX      @DPTR,A
        INC       DPTR
        MOV       A,#-0x1
        RET
          CFI EndBlock cfiCond36
          CFI EndBlock cfiCond37
          CFI EndBlock cfiCond38
          CFI EndBlock cfiPicker39
//  587 
//  588 /*********************************************************************
//  589  * @fn          ZDP_ParentAnnce
//  590  *
//  591  * @brief       This builds and send a Parent_Annce and Parent_Annce_Rsp
//  592  *              messages, it will depend on the clusterID parameter.
//  593  *
//  594  * @param       TransSeq - ZDP Transaction Sequence Number
//  595  * @param       dstAddr - destination address
//  596  * @param       numberOfChildren - 8 bit number of children
//  597  * @param       childInfo - list of children information (ExtAddr and Age)
//  598  * @param       clusterID - Parent_annce or Parent_annce_rsp
//  599  * @param       SecurityEnable - Security Options
//  600  *
//  601  * @return      afStatus_t
//  602  */

        RSEG BANKED_CODE:HUGECODE:NOROOT(0)
//  603 afStatus_t ZDP_ParentAnnce( uint8 *TransSeq,
ZDP_ParentAnnce:
          CFI Block cfiBlock40 Using cfiCommon0
          CFI Function ZDP_ParentAnnce
        CODE
//  604                             zAddrType_t *dstAddr,
//  605                             uint8 numberOfChildren,
//  606                             uint8 *childInfo,
//  607                             cId_t clusterID,
//  608                             uint8 SecurityEnable )
//  609 {
        FUNCALL ZDP_ParentAnnce, sAddrExtCpy
        LOCFRAME ISTACK, 0, STACK
        LOCFRAME PSTACK, 0, STACK
        LOCFRAME XSTACK, 22, STACK
        LOCFRAME IOVERLAY, 0, STATIC
        LOCFRAME DOVERLAY, 0, STATIC
        ARGFRAME ISTACK, 0, STACK
        ARGFRAME PSTACK, 0, STACK
        ARGFRAME XSTACK, 22, STACK
        ARGFRAME IOVERLAY, 0, STATIC
        ARGFRAME DOVERLAY, 0, STATIC
        FUNCALL ZDP_ParentAnnce, fillAndSend
        LOCFRAME ISTACK, 0, STACK
        LOCFRAME PSTACK, 0, STACK
        LOCFRAME XSTACK, 24, STACK
        LOCFRAME IOVERLAY, 0, STATIC
        LOCFRAME DOVERLAY, 0, STATIC
        ARGFRAME ISTACK, 0, STACK
        ARGFRAME PSTACK, 0, STACK
        ARGFRAME XSTACK, 24, STACK
        ARGFRAME IOVERLAY, 0, STATIC
        ARGFRAME DOVERLAY, 0, STATIC
        FUNCALL ZDP_ParentAnnce, ZDApp_SetParentAnnceTimer
        LOCFRAME ISTACK, 0, STACK
        LOCFRAME PSTACK, 0, STACK
        LOCFRAME XSTACK, 22, STACK
        LOCFRAME IOVERLAY, 0, STATIC
        LOCFRAME DOVERLAY, 0, STATIC
        ARGFRAME ISTACK, 0, STACK
        ARGFRAME PSTACK, 0, STACK
        ARGFRAME XSTACK, 22, STACK
        ARGFRAME IOVERLAY, 0, STATIC
        ARGFRAME DOVERLAY, 0, STATIC
        FUNCALL ZDP_ParentAnnce, osal_start_timerEx
        LOCFRAME ISTACK, 0, STACK
        LOCFRAME PSTACK, 0, STACK
        LOCFRAME XSTACK, 26, STACK
        LOCFRAME IOVERLAY, 0, STATIC
        LOCFRAME DOVERLAY, 0, STATIC
        ARGFRAME ISTACK, 0, STACK
        ARGFRAME PSTACK, 0, STACK
        ARGFRAME XSTACK, 26, STACK
        ARGFRAME IOVERLAY, 0, STATIC
        ARGFRAME DOVERLAY, 0, STATIC
        FUNCALL ZDP_ParentAnnce, fillAndSend
        LOCFRAME ISTACK, 0, STACK
        LOCFRAME PSTACK, 0, STACK
        LOCFRAME XSTACK, 24, STACK
        LOCFRAME IOVERLAY, 0, STATIC
        LOCFRAME DOVERLAY, 0, STATIC
        ARGFRAME ISTACK, 0, STACK
        ARGFRAME PSTACK, 0, STACK
        ARGFRAME XSTACK, 24, STACK
        ARGFRAME IOVERLAY, 0, STATIC
        ARGFRAME DOVERLAY, 0, STATIC
        REQUIRE ?V0
        REQUIRE ?V1
        REQUIRE ?V2
        REQUIRE ?V3
        REQUIRE ?V4
        REQUIRE ?V5
        REQUIRE ?V6
        REQUIRE ?V7
        REQUIRE ?V8
        REQUIRE ?V10
        REQUIRE ?V11
        REQUIRE ?V12
        REQUIRE ?V13
        MOV       A,#-0x16
        LCALL     ?BANKED_ENTER_XDATA
          CFI DPH0 load(1, XDATA, add(CFA_XSP16, literal(-1)))
          CFI DPL0 load(1, XDATA, add(CFA_XSP16, literal(-2)))
          CFI ?BRET_EXT load(1, XDATA, add(CFA_XSP16, literal(-3)))
          CFI ?RET_HIGH load(1, XDATA, add(CFA_XSP16, literal(-4)))
          CFI ?RET_LOW load(1, XDATA, add(CFA_XSP16, literal(-5)))
          CFI R7 load(1, XDATA, add(CFA_XSP16, literal(-6)))
          CFI V13 load(1, XDATA, add(CFA_XSP16, literal(-7)))
          CFI V12 load(1, XDATA, add(CFA_XSP16, literal(-8)))
          CFI V11 load(1, XDATA, add(CFA_XSP16, literal(-9)))
          CFI V10 load(1, XDATA, add(CFA_XSP16, literal(-10)))
          CFI V9 load(1, XDATA, add(CFA_XSP16, literal(-11)))
          CFI V8 load(1, XDATA, add(CFA_XSP16, literal(-12)))
          CFI V7 load(1, XDATA, add(CFA_XSP16, literal(-13)))
          CFI V6 load(1, XDATA, add(CFA_XSP16, literal(-14)))
          CFI V5 load(1, XDATA, add(CFA_XSP16, literal(-15)))
          CFI V4 load(1, XDATA, add(CFA_XSP16, literal(-16)))
          CFI V3 load(1, XDATA, add(CFA_XSP16, literal(-17)))
          CFI V2 load(1, XDATA, add(CFA_XSP16, literal(-18)))
          CFI V1 load(1, XDATA, add(CFA_XSP16, literal(-19)))
          CFI V0 load(1, XDATA, add(CFA_XSP16, literal(-20)))
          CFI VB load(1, XDATA, add(CFA_XSP16, literal(-21)))
          CFI R6 load(1, XDATA, add(CFA_XSP16, literal(-22)))
          CFI CFA_SP SP+0
          CFI CFA_XSP16 add(XSP16, 22)
        ; Saved register size: 22
        ; Auto size: 0
        MOV       ?V4,R2
        MOV       ?V5,R3
        MOV       A,R4
        MOV       R6,A
        MOV       A,R5
        MOV       R7,A
        MOV       ?V8,R1
//  610   uint8 *pBuf = ZDP_TmpBuf;
        LCALL     ??Subroutine106_0 & 0xFFFF
//  611   ZDO_ChildInfo_t *pChildInfo;
//  612   uint8 i, len;
//  613   uint8 *numOfChild;
//  614 
//  615   (void)SecurityEnable;  // Intentionally unreferenced parameter
//  616 
//  617   pChildInfo = (ZDO_ChildInfo_t *)childInfo;
//  618 
//  619   if ( dstAddr->addrMode == AddrBroadcast )
??CrossCallReturnLabel_196:
        MOV       DPL,R6
        MOV       DPH,R7
        INC       DPTR
        INC       DPTR
        INC       DPTR
        INC       DPTR
        INC       DPTR
        INC       DPTR
        INC       DPTR
        INC       DPTR
        MOVX      A,@DPTR
        XRL       A,#0xf
        JNZ       ??ZDP_ParentAnnce_0
//  620   {
//  621     // Make sure is sent to 0xFFFC
//  622     dstAddr->addr.shortAddr = NWK_BROADCAST_SHORTADDR_DEVZCZR;
        MOV       DPL,R6
        MOV       DPH,R7
        MOV       A,#-0x4
        MOVX      @DPTR,A
        INC       DPTR
        MOV       A,#-0x1
        MOVX      @DPTR,A
//  623   }
//  624   len = 1;
??ZDP_ParentAnnce_0:
        MOV       ?V6,#0x1
        MOV       A,#0x18
        LCALL     ?XSTACK_DISP0_8
        LCALL     ?Subroutine43 & 0xFFFF
//  625   if ( clusterID == Parent_annce_rsp )
??CrossCallReturnLabel_64:
        MOV       A,#0x1f
        XRL       A,?V2
        JNZ       ??ZDP_ParentAnnce_1
        MOV       A,#-0x80
        XRL       A,?V3
??ZDP_ParentAnnce_1:
        JNZ       ??CrossCallReturnLabel_26
//  626   {
//  627     // + Status Byte
//  628     len += 1;
        MOV       ?V6,#0x2
//  629     // Set the status bit to success
//  630     *pBuf++ = 0;
        MOV       DPL,R2
        MOV       DPH,R3
        CLR       A
        LCALL     ?Subroutine22 & 0xFFFF
//  631   }
//  632   
//  633   numOfChild = pBuf;
??CrossCallReturnLabel_26:
        MOV       ?V0,R2
        MOV       ?V1,R3
//  634   *pBuf++ = numberOfChildren;
        MOV       DPL,R2
        MOV       DPH,R3
        MOV       A,R1
        LCALL     ?Subroutine22 & 0xFFFF
//  635 
//  636   for ( i = 0; i < MAX_PARENT_ANNCE_CHILD; i++ )
??CrossCallReturnLabel_27:
        MOV       ?V7,#0x0
        MOV       A,#0x16
        LCALL     ?XSTACK_DISP0_8
        MOVX      A,@DPTR
        MOV       ?V12,A
        INC       DPTR
        MOVX      A,@DPTR
        MOV       ?V13,A
//  637   {
//  638     pBuf = osal_cpyExtAddr( pBuf, pChildInfo[childIndex].extAddr );
??ZDP_ParentAnnce_2:
        ; Setup parameters for call to function sAddrExtCpy
        MOV       DPTR,#childIndex
        MOVX      A,@DPTR
        MOV       ?V10,A
        MOV       ?V11,#0x0
        MOV       A,#0x3
        MOV       R0,#?V10
        LCALL     ?S_SHL
        MOV       A,?V12
        ADD       A,?V10
        MOV       R4,A
        MOV       A,?V13
        ADDC      A,?V11
        MOV       R5,A
        LCALL     `??sAddrExtCpy::?relay`; Banked call to: sAddrExtCpy
//  639     childIndex++;
        MOV       DPTR,#childIndex
        MOVX      A,@DPTR
        INC       A
        MOVX      @DPTR,A
//  640     
//  641     len += Z_EXTADDR_LEN;
        MOV       A,#0x8
        ADD       A,?V6
        MOV       ?V6,A
//  642     
//  643     if ( childIndex == numberOfChildren )
        MOVX      A,@DPTR
        XRL       A,?V8
        JNZ       ??ZDP_ParentAnnce_3
//  644     {
//  645       pBuf = numOfChild;
//  646       *pBuf = i + 1;
        MOV       A,#0x1
        ADD       A,?V7
        MOV       DPL,?V0
        MOV       DPH,?V1
        MOVX      @DPTR,A
//  647       // All childs are taken, restart index and go out
//  648       childIndex = 0;
        MOV       DPTR,#childIndex
        CLR       A
        MOVX      @DPTR,A
//  649       return fillAndSend( TransSeq, dstAddr, clusterID, len );
        ; Setup parameters for call to function fillAndSend
        SJMP      ??ZDP_ParentAnnce_4
//  650     }
//  651   }
??ZDP_ParentAnnce_3:
        INC       ?V7
        MOV       A,?V7
        CLR       C
        SUBB      A,#0xa
        JC        ??ZDP_ParentAnnce_2
//  652   
//  653   pBuf = numOfChild;
//  654   *pBuf = MAX_PARENT_ANNCE_CHILD;
        MOV       DPL,?V0
        MOV       DPH,?V1
        MOV       A,#0xa
        MOVX      @DPTR,A
//  655   if ( childIndex < numberOfChildren )
        MOV       DPTR,#childIndex
        MOVX      A,@DPTR
        CLR       C
        SUBB      A,?V8
        JNC       ??ZDP_ParentAnnce_4
//  656   {
//  657     if ( clusterID == Parent_annce )
        MOV       A,#0x1f
        XRL       A,?V2
        ORL       A,?V3
        JNZ       ??ZDP_ParentAnnce_5
//  658     {
//  659       ZDApp_SetParentAnnceTimer();
        ; Setup parameters for call to function ZDApp_SetParentAnnceTimer
        LCALL     `??ZDApp_SetParentAnnceTimer::?relay`; Banked call to: ZDApp_SetParentAnnceTimer
        SJMP      ??ZDP_ParentAnnce_4
//  660     }
//  661     if ( clusterID == Parent_annce_rsp )
??ZDP_ParentAnnce_5:
        MOV       A,#0x1f
        XRL       A,?V2
        JNZ       ??ZDP_ParentAnnce_6
        MOV       A,#-0x80
        XRL       A,?V3
??ZDP_ParentAnnce_6:
        JNZ       ??ZDP_ParentAnnce_4
//  662     {
//  663       osal_start_timerEx( ZDAppTaskID, ZDO_PARENT_ANNCE_EVT, 10 );
        ; Setup parameters for call to function osal_start_timerEx
        MOV       DPTR,#__Constant_a
        LCALL     ?PUSH_XSTACK8_X_FOUR
          CFI CFA_XSP16 add(XSP16, 26)
        MOV       R2,#0x0
        MOV       R3,#0x40
        MOV       DPTR,#ZDAppTaskID
        MOVX      A,@DPTR
        MOV       R1,A
        LCALL     `??osal_start_timerEx::?relay`; Banked call to: osal_start_timerEx
        MOV       A,#0x4
        LCALL     ?DEALLOC_XSTACK8
          CFI CFA_XSP16 add(XSP16, 22)
//  664     }
//  665   }
//  666 
//  667   return fillAndSend( TransSeq, dstAddr, clusterID, len );
??ZDP_ParentAnnce_4:
        ; Setup parameters for call to function fillAndSend
        MOV       R0,#?V2
        LCALL     ?PUSH_XSTACK_I_TWO
          CFI CFA_XSP16 add(XSP16, 24)
        MOV       R1,?V6
        MOV       A,R6
        MOV       R4,A
        MOV       A,R7
        MOV       R5,A
        MOV       R2,?V4
        MOV       R3,?V5
        LCALL     `??fillAndSend::?relay`; Banked call to: fillAndSend
        MOV       A,#0x2
        LJMP      ??Subroutine108_0 & 0xFFFF
//  668 }
          CFI EndBlock cfiBlock40

        RSEG BANKED_CODE:HUGECODE:NOROOT(0)
?Subroutine43:
          CFI Block cfiCond41 Using cfiCommon0
          CFI Function ZDP_SendData
          CFI Conditional ??CrossCallReturnLabel_63
          CFI R6 load(1, XDATA, add(CFA_XSP16, literal(-12)))
          CFI VB load(1, XDATA, add(CFA_XSP16, literal(-11)))
          CFI V0 load(1, XDATA, add(CFA_XSP16, literal(-10)))
          CFI V1 load(1, XDATA, add(CFA_XSP16, literal(-9)))
          CFI V2 load(1, XDATA, add(CFA_XSP16, literal(-8)))
          CFI V3 load(1, XDATA, add(CFA_XSP16, literal(-7)))
          CFI R7 load(1, XDATA, add(CFA_XSP16, literal(-6)))
          CFI ?RET_LOW load(1, XDATA, add(CFA_XSP16, literal(-5)))
          CFI ?RET_HIGH load(1, XDATA, add(CFA_XSP16, literal(-4)))
          CFI ?BRET_EXT load(1, XDATA, add(CFA_XSP16, literal(-3)))
          CFI DPL0 load(1, XDATA, add(CFA_XSP16, literal(-2)))
          CFI DPH0 load(1, XDATA, add(CFA_XSP16, literal(-1)))
          CFI CFA_SP SP+-2
          CFI CFA_XSP16 add(XSP16, 12)
          CFI Block cfiCond42 Using cfiCommon0
          CFI (cfiCond42) Function ZDP_ParentAnnce
          CFI (cfiCond42) Conditional ??CrossCallReturnLabel_64
          CFI (cfiCond42) R6 load(1, XDATA, add(CFA_XSP16, literal(-22)))
          CFI (cfiCond42) VB load(1, XDATA, add(CFA_XSP16, literal(-21)))
          CFI (cfiCond42) V0 load(1, XDATA, add(CFA_XSP16, literal(-20)))
          CFI (cfiCond42) V1 load(1, XDATA, add(CFA_XSP16, literal(-19)))
          CFI (cfiCond42) V2 load(1, XDATA, add(CFA_XSP16, literal(-18)))
          CFI (cfiCond42) V3 load(1, XDATA, add(CFA_XSP16, literal(-17)))
          CFI (cfiCond42) V4 load(1, XDATA, add(CFA_XSP16, literal(-16)))
          CFI (cfiCond42) V5 load(1, XDATA, add(CFA_XSP16, literal(-15)))
          CFI (cfiCond42) V6 load(1, XDATA, add(CFA_XSP16, literal(-14)))
          CFI (cfiCond42) V7 load(1, XDATA, add(CFA_XSP16, literal(-13)))
          CFI (cfiCond42) V8 load(1, XDATA, add(CFA_XSP16, literal(-12)))
          CFI (cfiCond42) V9 load(1, XDATA, add(CFA_XSP16, literal(-11)))
          CFI (cfiCond42) V10 load(1, XDATA, add(CFA_XSP16, literal(-10)))
          CFI (cfiCond42) V11 load(1, XDATA, add(CFA_XSP16, literal(-9)))
          CFI (cfiCond42) V12 load(1, XDATA, add(CFA_XSP16, literal(-8)))
          CFI (cfiCond42) V13 load(1, XDATA, add(CFA_XSP16, literal(-7)))
          CFI (cfiCond42) R7 load(1, XDATA, add(CFA_XSP16, literal(-6)))
          CFI (cfiCond42) ?RET_LOW load(1, XDATA, add(CFA_XSP16, literal(-5)))
          CFI (cfiCond42) ?RET_HIGH load(1, XDATA, add(CFA_XSP16, literal(-4)))
          CFI (cfiCond42) ?BRET_EXT load(1, XDATA, add(CFA_XSP16, literal(-3)))
          CFI (cfiCond42) DPL0 load(1, XDATA, add(CFA_XSP16, literal(-2)))
          CFI (cfiCond42) DPH0 load(1, XDATA, add(CFA_XSP16, literal(-1)))
          CFI (cfiCond42) CFA_SP SP+-2
          CFI (cfiCond42) CFA_XSP16 add(XSP16, 22)
          CFI Block cfiCond43 Using cfiCommon0
          CFI (cfiCond43) Function ZDP_MgmtNwkDiscRsp
          CFI (cfiCond43) Conditional ??CrossCallReturnLabel_65
          CFI (cfiCond43) R6 load(1, XDATA, add(CFA_XSP16, literal(-22)))
          CFI (cfiCond43) VB load(1, XDATA, add(CFA_XSP16, literal(-21)))
          CFI (cfiCond43) V0 load(1, XDATA, add(CFA_XSP16, literal(-20)))
          CFI (cfiCond43) V1 load(1, XDATA, add(CFA_XSP16, literal(-19)))
          CFI (cfiCond43) V2 load(1, XDATA, add(CFA_XSP16, literal(-18)))
          CFI (cfiCond43) V3 load(1, XDATA, add(CFA_XSP16, literal(-17)))
          CFI (cfiCond43) V4 load(1, XDATA, add(CFA_XSP16, literal(-16)))
          CFI (cfiCond43) V5 load(1, XDATA, add(CFA_XSP16, literal(-15)))
          CFI (cfiCond43) V6 load(1, XDATA, add(CFA_XSP16, literal(-14)))
          CFI (cfiCond43) V7 load(1, XDATA, add(CFA_XSP16, literal(-13)))
          CFI (cfiCond43) V8 load(1, XDATA, add(CFA_XSP16, literal(-12)))
          CFI (cfiCond43) V9 load(1, XDATA, add(CFA_XSP16, literal(-11)))
          CFI (cfiCond43) V10 load(1, XDATA, add(CFA_XSP16, literal(-10)))
          CFI (cfiCond43) V11 load(1, XDATA, add(CFA_XSP16, literal(-9)))
          CFI (cfiCond43) V12 load(1, XDATA, add(CFA_XSP16, literal(-8)))
          CFI (cfiCond43) V13 load(1, XDATA, add(CFA_XSP16, literal(-7)))
          CFI (cfiCond43) R7 load(1, XDATA, add(CFA_XSP16, literal(-6)))
          CFI (cfiCond43) ?RET_LOW load(1, XDATA, add(CFA_XSP16, literal(-5)))
          CFI (cfiCond43) ?RET_HIGH load(1, XDATA, add(CFA_XSP16, literal(-4)))
          CFI (cfiCond43) ?BRET_EXT load(1, XDATA, add(CFA_XSP16, literal(-3)))
          CFI (cfiCond43) DPL0 load(1, XDATA, add(CFA_XSP16, literal(-2)))
          CFI (cfiCond43) DPH0 load(1, XDATA, add(CFA_XSP16, literal(-1)))
          CFI (cfiCond43) CFA_SP SP+-2
          CFI (cfiCond43) CFA_XSP16 add(XSP16, 23)
          CFI Block cfiCond44 Using cfiCommon0
          CFI (cfiCond44) Function ZDP_MgmtNwkDiscRsp
          CFI (cfiCond44) Conditional ??CrossCallReturnLabel_66
          CFI (cfiCond44) R6 load(1, XDATA, add(CFA_XSP16, literal(-22)))
          CFI (cfiCond44) VB load(1, XDATA, add(CFA_XSP16, literal(-21)))
          CFI (cfiCond44) V0 load(1, XDATA, add(CFA_XSP16, literal(-20)))
          CFI (cfiCond44) V1 load(1, XDATA, add(CFA_XSP16, literal(-19)))
          CFI (cfiCond44) V2 load(1, XDATA, add(CFA_XSP16, literal(-18)))
          CFI (cfiCond44) V3 load(1, XDATA, add(CFA_XSP16, literal(-17)))
          CFI (cfiCond44) V4 load(1, XDATA, add(CFA_XSP16, literal(-16)))
          CFI (cfiCond44) V5 load(1, XDATA, add(CFA_XSP16, literal(-15)))
          CFI (cfiCond44) V6 load(1, XDATA, add(CFA_XSP16, literal(-14)))
          CFI (cfiCond44) V7 load(1, XDATA, add(CFA_XSP16, literal(-13)))
          CFI (cfiCond44) V8 load(1, XDATA, add(CFA_XSP16, literal(-12)))
          CFI (cfiCond44) V9 load(1, XDATA, add(CFA_XSP16, literal(-11)))
          CFI (cfiCond44) V10 load(1, XDATA, add(CFA_XSP16, literal(-10)))
          CFI (cfiCond44) V11 load(1, XDATA, add(CFA_XSP16, literal(-9)))
          CFI (cfiCond44) V12 load(1, XDATA, add(CFA_XSP16, literal(-8)))
          CFI (cfiCond44) V13 load(1, XDATA, add(CFA_XSP16, literal(-7)))
          CFI (cfiCond44) R7 load(1, XDATA, add(CFA_XSP16, literal(-6)))
          CFI (cfiCond44) ?RET_LOW load(1, XDATA, add(CFA_XSP16, literal(-5)))
          CFI (cfiCond44) ?RET_HIGH load(1, XDATA, add(CFA_XSP16, literal(-4)))
          CFI (cfiCond44) ?BRET_EXT load(1, XDATA, add(CFA_XSP16, literal(-3)))
          CFI (cfiCond44) DPL0 load(1, XDATA, add(CFA_XSP16, literal(-2)))
          CFI (cfiCond44) DPH0 load(1, XDATA, add(CFA_XSP16, literal(-1)))
          CFI (cfiCond44) CFA_SP SP+-2
          CFI (cfiCond44) CFA_XSP16 add(XSP16, 23)
          CFI Block cfiPicker45 Using cfiCommon1
          CFI (cfiPicker45) NoFunction
          CFI (cfiPicker45) Picker
        MOVX      A,@DPTR
        MOV       ?V2,A
        INC       DPTR
        MOVX      A,@DPTR
        MOV       ?V3,A
        RET
          CFI EndBlock cfiCond41
          CFI EndBlock cfiCond42
          CFI EndBlock cfiCond43
          CFI EndBlock cfiCond44
          CFI EndBlock cfiPicker45
//  669 
//  670 /*********************************************************************
//  671  * Address Responses
//  672  */
//  673 
//  674 /*********************************************************************
//  675  * @fn      zdpProcessAddrReq
//  676  *
//  677  * @brief   Process an incoming NWK_addr_req or IEEE_addr_req message and then
//  678  *          build and send a corresponding NWK_addr_rsp or IEEE_addr_rsp msg.
//  679  *
//  680  * @param   inMsg - incoming message
//  681  *
//  682  * @return  none
//  683  */

        RSEG BANKED_CODE:HUGECODE:NOROOT(0)
//  684 void zdpProcessAddrReq( zdoIncomingMsg_t *inMsg )
zdpProcessAddrReq:
          CFI Block cfiBlock46 Using cfiCommon0
          CFI Function zdpProcessAddrReq
        CODE
//  685 {
        FUNCALL zdpProcessAddrReq, sAddrExtCmp
        LOCFRAME ISTACK, 0, STACK
        LOCFRAME PSTACK, 0, STACK
        LOCFRAME XSTACK, 28, STACK
        LOCFRAME IOVERLAY, 0, STATIC
        LOCFRAME DOVERLAY, 0, STATIC
        ARGFRAME ISTACK, 0, STACK
        ARGFRAME PSTACK, 0, STACK
        ARGFRAME XSTACK, 28, STACK
        ARGFRAME IOVERLAY, 0, STATIC
        ARGFRAME DOVERLAY, 0, STATIC
        FUNCALL zdpProcessAddrReq, osal_memset
        LOCFRAME ISTACK, 0, STACK
        LOCFRAME PSTACK, 0, STACK
        LOCFRAME XSTACK, 28, STACK
        LOCFRAME IOVERLAY, 0, STATIC
        LOCFRAME DOVERLAY, 0, STATIC
        ARGFRAME ISTACK, 0, STACK
        ARGFRAME PSTACK, 0, STACK
        ARGFRAME XSTACK, 28, STACK
        ARGFRAME IOVERLAY, 0, STATIC
        ARGFRAME DOVERLAY, 0, STATIC
        FUNCALL zdpProcessAddrReq, sAddrExtCpy
        LOCFRAME ISTACK, 0, STACK
        LOCFRAME PSTACK, 0, STACK
        LOCFRAME XSTACK, 28, STACK
        LOCFRAME IOVERLAY, 0, STATIC
        LOCFRAME DOVERLAY, 0, STATIC
        ARGFRAME ISTACK, 0, STACK
        ARGFRAME PSTACK, 0, STACK
        ARGFRAME XSTACK, 28, STACK
        ARGFRAME IOVERLAY, 0, STATIC
        ARGFRAME DOVERLAY, 0, STATIC
        FUNCALL zdpProcessAddrReq, fillAndSend
        LOCFRAME ISTACK, 0, STACK
        LOCFRAME PSTACK, 0, STACK
        LOCFRAME XSTACK, 30, STACK
        LOCFRAME IOVERLAY, 0, STATIC
        LOCFRAME DOVERLAY, 0, STATIC
        ARGFRAME ISTACK, 0, STACK
        ARGFRAME PSTACK, 0, STACK
        ARGFRAME XSTACK, 30, STACK
        ARGFRAME IOVERLAY, 0, STATIC
        ARGFRAME DOVERLAY, 0, STATIC
        REQUIRE ?V0
        REQUIRE ?V1
        REQUIRE ?V2
        REQUIRE ?V3
        REQUIRE ?V4
        REQUIRE ?V5
        REQUIRE ?V6
        REQUIRE ?V8
        REQUIRE ?V9
        REQUIRE ?V10
        REQUIRE ?V11
        MOV       A,#-0x14
        LCALL     ?BANKED_ENTER_XDATA
          CFI DPH0 load(1, XDATA, add(CFA_XSP16, literal(-1)))
          CFI DPL0 load(1, XDATA, add(CFA_XSP16, literal(-2)))
          CFI ?BRET_EXT load(1, XDATA, add(CFA_XSP16, literal(-3)))
          CFI ?RET_HIGH load(1, XDATA, add(CFA_XSP16, literal(-4)))
          CFI ?RET_LOW load(1, XDATA, add(CFA_XSP16, literal(-5)))
          CFI R7 load(1, XDATA, add(CFA_XSP16, literal(-6)))
          CFI V11 load(1, XDATA, add(CFA_XSP16, literal(-7)))
          CFI V10 load(1, XDATA, add(CFA_XSP16, literal(-8)))
          CFI V9 load(1, XDATA, add(CFA_XSP16, literal(-9)))
          CFI V8 load(1, XDATA, add(CFA_XSP16, literal(-10)))
          CFI V7 load(1, XDATA, add(CFA_XSP16, literal(-11)))
          CFI V6 load(1, XDATA, add(CFA_XSP16, literal(-12)))
          CFI V5 load(1, XDATA, add(CFA_XSP16, literal(-13)))
          CFI V4 load(1, XDATA, add(CFA_XSP16, literal(-14)))
          CFI V3 load(1, XDATA, add(CFA_XSP16, literal(-15)))
          CFI V2 load(1, XDATA, add(CFA_XSP16, literal(-16)))
          CFI V1 load(1, XDATA, add(CFA_XSP16, literal(-17)))
          CFI V0 load(1, XDATA, add(CFA_XSP16, literal(-18)))
          CFI VB load(1, XDATA, add(CFA_XSP16, literal(-19)))
          CFI R6 load(1, XDATA, add(CFA_XSP16, literal(-20)))
          CFI CFA_SP SP+0
          CFI CFA_XSP16 add(XSP16, 20)
        ; Saved register size: 20
        ; Auto size: 8
        MOV       A,#-0x8
        LCALL     ?ALLOC_XSTACK8
          CFI CFA_XSP16 add(XSP16, 28)
        MOV       ?V4,R2
        MOV       ?V5,R3
//  686   associated_devices_t *pAssoc;
//  687   uint8 reqType;
//  688   uint16 aoi = INVALID_NODE_ADDR;
        MOV       R6,#-0x2
        MOV       R7,#-0x1
//  689   uint8 *ieee = NULL;
        MOV       ?V2,#0x0
        MOV       ?V3,#0x0
//  690 
//  691   reqType = inMsg->asdu[(inMsg->clusterID == NWK_addr_req) ? Z_EXTADDR_LEN : sizeof( uint16 ) ];
        MOV       A,R2
        ADD       A,#0xc
        MOV       ?V8,A
        CLR       A
        ADDC      A,?V5
        MOV       ?V9,A
        MOV       DPL,?V8
        MOV       DPH,A
        LCALL     ??Subroutine107_0 & 0xFFFF
??CrossCallReturnLabel_192:
        MOV       A,R2
        ORL       A,R3
        JNZ       ??zdpProcessAddrReq_0
        MOV       R4,#0x8
        SJMP      ??zdpProcessAddrReq_1
??zdpProcessAddrReq_0:
        MOV       R4,#0x2
??zdpProcessAddrReq_1:
        MOV       A,?V4
        ADD       A,#0x13
        MOV       DPL,A
        CLR       A
        ADDC      A,?V5
        MOV       DPH,A
        LCALL     ??Subroutine100_0 & 0xFFFF
??CrossCallReturnLabel_161:
        ADD       A,R4
        MOV       DPL,A
        CLR       A
        ADDC      A,R1
        MOV       DPH,A
        MOVX      A,@DPTR
        MOV       ?V6,A
//  692 
//  693   if ( inMsg->clusterID == NWK_addr_req )
        MOV       A,?V4
        ADD       A,#0xb
        MOV       ?V10,A
        CLR       A
        ADDC      A,?V5
        MOV       ?V11,A
        MOV       A,R2
        ORL       A,R3
        JNZ       ??zdpProcessAddrReq_2
//  694 
//  695   {
//  696     ieee = inMsg->asdu;
        MOV       ?V2,R0
        MOV       ?V3,R1
//  697 
//  698     if ( osal_ExtAddrEqual( saveExtAddr, ieee ) )
        ; Setup parameters for call to function sAddrExtCmp
        MOV       R4,?V2
        MOV       R5,?V3
        MOV       R2,#saveExtAddr & 0xff
        MOV       R3,#(saveExtAddr >> 8) & 0xff
        LCALL     `??sAddrExtCmp::?relay`; Banked call to: sAddrExtCmp
        MOV       A,R1
        JZ        ??zdpProcessAddrReq_3
//  699     {
//  700       aoi = ZDAppNwkAddr.addr.shortAddr;
        MOV       DPTR,#ZDAppNwkAddr
        LCALL     ?Subroutine50 & 0xFFFF
//  701     }
//  702     // Handle response for sleeping end devices
//  703     else if ( (ZSTACK_ROUTER_BUILD)
//  704       && (((pAssoc = AssocGetWithExt( ieee )) != NULL)
//  705              && ((pAssoc->nodeRelation == CHILD_RFD) || (pAssoc->nodeRelation == CHILD_RFD_RX_IDLE)) ) )
//  706     {
//  707       aoi = pAssoc->shortAddr;
//  708       if ( reqType != ZDP_ADDR_REQTYPE_SINGLE )
//  709         reqType = 0xFF; // Force Invalid
//  710     }
//  711   }
??CrossCallReturnLabel_83:
        SJMP      ??zdpProcessAddrReq_4
//  712   else  // if ( inMsg->clusterID == IEEE_addr_req )
//  713   {
//  714     aoi = BUILD_UINT16( inMsg->asdu[0], inMsg->asdu[1] );
??zdpProcessAddrReq_2:
        MOV       DPL,R0
        MOV       DPH,R1
        MOVX      A,@DPTR
        MOV       R2,A
        INC       DPTR
        MOVX      A,@DPTR
        MOV       R0,A
        CLR       A
        XCH       A,R0
        MOV       R1,A
        MOV       A,R2
        ADD       A,R0
        MOV       R6,A
        CLR       A
        ADDC      A,R1
        MOV       R7,A
//  715 
//  716     if ( aoi == ZDAppNwkAddr.addr.shortAddr )
        MOV       DPTR,#ZDAppNwkAddr
        MOVX      A,@DPTR
        XRL       A,R6
        JNZ       ??zdpProcessAddrReq_5
        INC       DPTR
        MOVX      A,@DPTR
        XRL       A,R7
??zdpProcessAddrReq_5:
        JNZ       ??zdpProcessAddrReq_3
//  717     {
//  718       ieee = saveExtAddr;
        MOV       ?V2,#saveExtAddr & 0xff
        MOV       ?V3,#(saveExtAddr >> 8) & 0xff
//  719     }
//  720     else if ( (ZSTACK_ROUTER_BUILD)
//  721       && (((pAssoc = AssocGetWithShort( aoi )) != NULL)
//  722              && (pAssoc->nodeRelation == CHILD_RFD)) )
//  723     {
//  724       AddrMgrEntry_t addrEntry;
//  725       addrEntry.user = ADDRMGR_USER_DEFAULT;
//  726       addrEntry.index = pAssoc->addrIdx;
//  727       if ( AddrMgrEntryGet( &addrEntry ) )
//  728       {
//  729         ieee = addrEntry.extAddr;
//  730       }
//  731 
//  732       if ( reqType != ZDP_ADDR_REQTYPE_SINGLE )
//  733         reqType = 0xFF; // Force Invalid
//  734     }
//  735   }
//  736 
//  737   if ( ((aoi != INVALID_NODE_ADDR) && (ieee != NULL)) || (inMsg->wasBroadcast == FALSE) )
??zdpProcessAddrReq_4:
        MOV       A,#-0x2
        XRL       A,R6
        JNZ       ??zdpProcessAddrReq_6
        MOV       A,#-0x1
        XRL       A,R7
??zdpProcessAddrReq_6:
        JZ        ??zdpProcessAddrReq_3
        MOV       A,?V2
        ORL       A,?V3
        JNZ       ??zdpProcessAddrReq_7
??zdpProcessAddrReq_3:
        MOV       DPL,?V10
        MOV       DPH,?V11
        MOVX      A,@DPTR
        JZ        $+5
        LJMP      ??zdpProcessAddrReq_8 & 0xFFFF
//  738   {
//  739     uint8 stat;
//  740     uint8 *pBuf = ZDP_TmpBuf;
??zdpProcessAddrReq_7:
        LCALL     ?Subroutine41 & 0xFFFF
//  741     // Status + IEEE-Addr + Nwk-Addr.
//  742     uint8 len = 1 + Z_EXTADDR_LEN + 2;
//  743 
//  744     // If aoi and iee are both setup, we found results
//  745     if ( (aoi != INVALID_NODE_ADDR) && (ieee != NULL) )
??CrossCallReturnLabel_155:
        MOV       A,#-0x2
        XRL       A,R6
        JNZ       ??zdpProcessAddrReq_9
        MOV       A,#-0x1
        XRL       A,R7
??zdpProcessAddrReq_9:
        JZ        ??zdpProcessAddrReq_10
        MOV       A,?V2
        ORL       A,?V3
        JZ        ??zdpProcessAddrReq_10
//  746     {
//  747       stat = ((reqType == ZDP_ADDR_REQTYPE_SINGLE) || (reqType == ZDP_ADDR_REQTYPE_EXTENDED))
//  748                     ? ZDP_SUCCESS : ZDP_INVALID_REQTYPE;
        MOV       A,?V6
        JZ        ??zdpProcessAddrReq_11
        MOV       A,#0x1
        XRL       A,?V6
        JNZ       ??zdpProcessAddrReq_12
??zdpProcessAddrReq_11:
        MOV       ?V6,#0x0
        SJMP      ??zdpProcessAddrReq_13
??zdpProcessAddrReq_12:
        MOV       ?V6,#-0x80
//  749               
//  750       if(stat == ZDP_INVALID_REQTYPE)
//  751       {
//  752         //R21 Errata update CCB 2111 
//  753         if(inMsg->wasBroadcast == TRUE)
        MOV       DPL,?V10
        MOV       DPH,?V11
        MOVX      A,@DPTR
        XRL       A,#0x1
        JNZ       ??zdpProcessAddrReq_13
//  754         {
//  755           return;
        LJMP      ??zdpProcessAddrReq_8 & 0xFFFF
//  756         }
//  757         
//  758         stat = ZDP_INVALID_REQTYPE;
//  759       }
//  760     }
//  761     else
//  762     {
//  763       // not found and the req was unicast to this device
//  764       stat = ZDP_DEVICE_NOT_FOUND;
??zdpProcessAddrReq_10:
        MOV       ?V6,#-0x7f
//  765 
//  766       // Fill in the missing field with this device's address
//  767       if ( inMsg->clusterID == NWK_addr_req )
        MOV       DPL,?V8
        MOV       DPH,?V9
        LCALL     ??Subroutine100_0 & 0xFFFF
??CrossCallReturnLabel_162:
        ORL       A,R1
        JNZ       ??zdpProcessAddrReq_14
//  768       {
//  769         //CCB 2112 Zigbee Core spec
//  770         aoi = 0xFFFF;
        MOV       R6,#-0x1
        MOV       R7,#-0x1
        SJMP      ??zdpProcessAddrReq_13
//  771       }
//  772       else
//  773       {
//  774         //CCB 2113 Zigbee Core spec
//  775         uint8 invalidIEEEAddr[Z_EXTADDR_LEN];
//  776         osal_memset(invalidIEEEAddr,0xFF,Z_EXTADDR_LEN);
??zdpProcessAddrReq_14:
        ; Setup parameters for call to function osal_memset
        MOV       R4,#0x8
        MOV       R5,#0x0
        MOV       R1,#-0x1
        MOV       R2,?XSP + 0
        MOV       R3,?XSP + 1
        LCALL     `??osal_memset::?relay`; Banked call to: osal_memset
//  777         ieee = invalidIEEEAddr;
        MOV       R0,?XSP + 0
        MOV       R1,?XSP + 1
        MOV       ?V2,R0
        MOV       ?V3,R1
//  778       }
//  779     }
//  780 
//  781     *pBuf++ = stat;
??zdpProcessAddrReq_13:
        MOV       DPL,?V0
        MOV       DPH,?V1
        MOV       A,?V6
        MOVX      @DPTR,A
        INC       DPTR
        MOV       ?V0,DPL
        MOV       ?V1,DPH
//  782 
//  783     pBuf = osal_cpyExtAddr( pBuf, ieee );
        ; Setup parameters for call to function sAddrExtCpy
        MOV       R4,?V2
        MOV       R5,?V3
        MOV       R2,?V0
        MOV       R3,?V1
        LCALL     `??sAddrExtCpy::?relay`; Banked call to: sAddrExtCpy
        MOV       DPL,R2
        MOV       DPH,R3
//  784 
//  785     *pBuf++ = LO_UINT16( aoi );
        MOV       A,R6
        MOVX      @DPTR,A
//  786     *pBuf++ = HI_UINT16( aoi );
        MOV       A,R7
        INC       DPTR
        MOVX      @DPTR,A
//  787 
//  788     if ( ZSTACK_ROUTER_BUILD )
//  789     {
//  790       if ( (reqType == ZDP_ADDR_REQTYPE_EXTENDED) && (aoi == ZDAppNwkAddr.addr.shortAddr)
//  791            && (stat == ZDP_SUCCESS) )
//  792       {
//  793         uint8  cnt = 0;
//  794         
//  795         //Updated to only search for ZED devices as per R21 spec (2.4.3.1.1.2)
//  796         uint16 *list = AssocMakeList( &cnt );
//  797 
//  798         if ( list != NULL )
//  799         {
//  800           byte idx = inMsg->asdu[(((inMsg->clusterID == NWK_addr_req) ? Z_EXTADDR_LEN : sizeof( uint16 )) + 1)];
//  801           uint16 *pList = list + idx;
//  802 
//  803           // NumAssocDev field is only present on success.
//  804           if ( cnt > idx )
//  805           {
//  806             cnt -= idx;
//  807             len += (cnt * sizeof( uint16 ));
//  808           }
//  809           else
//  810           {
//  811             cnt = 0;
//  812           }
//  813           *pBuf++ = cnt;
//  814           len++;
//  815 
//  816           // StartIndex field is only present if NumAssocDev field is non-zero.
//  817           *pBuf++ = idx;
//  818           len++;
//  819 
//  820           while ( cnt != 0 )
//  821           {
//  822             *pBuf++ = LO_UINT16( *pList );
//  823             *pBuf++ = HI_UINT16( *pList );
//  824             pList++;
//  825             cnt--;
//  826           }
//  827 
//  828           osal_mem_free( (uint8 *)list );
//  829         }
//  830         else
//  831         {
//  832           // NumAssocDev field is only present on success.
//  833           *pBuf++ = 0;
//  834           len++;
//  835         }
//  836       }
//  837     }
//  838 
//  839     ZDP_TxOptions = AF_MSG_ACK_REQUEST;
        MOV       DPTR,#ZDP_TxOptions
        MOV       A,#0x10
        LCALL     ?Subroutine37 & 0xFFFF
//  840     fillAndSend( &(inMsg->TransSeq), &(inMsg->srcAddr), (cId_t)(inMsg->clusterID | ZDO_RESPONSE_BIT), len );
??CrossCallReturnLabel_54:
        MOV       ?V0,A
        INC       DPTR
        MOVX      A,@DPTR
        ORL       A,#0x80
        MOV       ?V1,A
        MOV       R0,#?V0
        LCALL     ?PUSH_XSTACK_I_TWO
          CFI CFA_XSP16 add(XSP16, 30)
        MOV       R1,#0xb
        MOV       A,?V4
        ADD       A,#0x2
        MOV       R4,A
        CLR       A
        ADDC      A,?V5
        MOV       R5,A
        MOV       A,?V4
        ADD       A,#0xf
        MOV       R2,A
        CLR       A
        ADDC      A,?V5
        MOV       R3,A
        LCALL     `??fillAndSend::?relay`; Banked call to: fillAndSend
        MOV       A,#0x2
        LCALL     ?DEALLOC_XSTACK8
          CFI CFA_XSP16 add(XSP16, 28)
//  841     ZDP_TxOptions = AF_TX_OPTIONS_NONE;
        MOV       DPTR,#ZDP_TxOptions
        CLR       A
        MOVX      @DPTR,A
//  842   }
//  843 }
??zdpProcessAddrReq_8:
        MOV       A,#0x8
          CFI EndBlock cfiBlock46
        REQUIRE ?Subroutine5
        ; // Fall through to label ?Subroutine5

        RSEG BANKED_CODE:HUGECODE:NOROOT(0)
?Subroutine5:
          CFI Block cfiBlock47 Using cfiCommon0
          CFI NoFunction
          CFI CFA_SP SP+0
          CFI CFA_XSP16 add(XSP16, 28)
          CFI VB load(1, XDATA, add(CFA_XSP16, literal(-19)))
          CFI DPL0 load(1, XDATA, add(CFA_XSP16, literal(-2)))
          CFI DPH0 load(1, XDATA, add(CFA_XSP16, literal(-1)))
          CFI R6 load(1, XDATA, add(CFA_XSP16, literal(-20)))
          CFI R7 load(1, XDATA, add(CFA_XSP16, literal(-6)))
          CFI V0 load(1, XDATA, add(CFA_XSP16, literal(-18)))
          CFI V1 load(1, XDATA, add(CFA_XSP16, literal(-17)))
          CFI V2 load(1, XDATA, add(CFA_XSP16, literal(-16)))
          CFI V3 load(1, XDATA, add(CFA_XSP16, literal(-15)))
          CFI V4 load(1, XDATA, add(CFA_XSP16, literal(-14)))
          CFI V5 load(1, XDATA, add(CFA_XSP16, literal(-13)))
          CFI V6 load(1, XDATA, add(CFA_XSP16, literal(-12)))
          CFI V7 load(1, XDATA, add(CFA_XSP16, literal(-11)))
          CFI V8 load(1, XDATA, add(CFA_XSP16, literal(-10)))
          CFI V9 load(1, XDATA, add(CFA_XSP16, literal(-9)))
          CFI V10 load(1, XDATA, add(CFA_XSP16, literal(-8)))
          CFI V11 load(1, XDATA, add(CFA_XSP16, literal(-7)))
          CFI ?BRET_EXT load(1, XDATA, add(CFA_XSP16, literal(-3)))
          CFI ?RET_HIGH load(1, XDATA, add(CFA_XSP16, literal(-4)))
          CFI ?RET_LOW load(1, XDATA, add(CFA_XSP16, literal(-5)))
          CFI Invalid
        LCALL     ?DEALLOC_XSTACK8
          CFI EndBlock cfiBlock47
        REQUIRE ??Subroutine96_0
        ; // Fall through to label ??Subroutine96_0

        RSEG BANKED_CODE:HUGECODE:NOROOT(0)
??Subroutine96_0:
          CFI Block cfiBlock48 Using cfiCommon0
          CFI NoFunction
          CFI CFA_SP SP+0
          CFI CFA_XSP16 add(XSP16, 20)
          CFI VB load(1, XDATA, add(CFA_XSP16, literal(-19)))
          CFI DPL0 load(1, XDATA, add(CFA_XSP16, literal(-2)))
          CFI DPH0 load(1, XDATA, add(CFA_XSP16, literal(-1)))
          CFI R6 load(1, XDATA, add(CFA_XSP16, literal(-20)))
          CFI R7 load(1, XDATA, add(CFA_XSP16, literal(-6)))
          CFI V0 load(1, XDATA, add(CFA_XSP16, literal(-18)))
          CFI V1 load(1, XDATA, add(CFA_XSP16, literal(-17)))
          CFI V2 load(1, XDATA, add(CFA_XSP16, literal(-16)))
          CFI V3 load(1, XDATA, add(CFA_XSP16, literal(-15)))
          CFI V4 load(1, XDATA, add(CFA_XSP16, literal(-14)))
          CFI V5 load(1, XDATA, add(CFA_XSP16, literal(-13)))
          CFI V6 load(1, XDATA, add(CFA_XSP16, literal(-12)))
          CFI V7 load(1, XDATA, add(CFA_XSP16, literal(-11)))
          CFI V8 load(1, XDATA, add(CFA_XSP16, literal(-10)))
          CFI V9 load(1, XDATA, add(CFA_XSP16, literal(-9)))
          CFI V10 load(1, XDATA, add(CFA_XSP16, literal(-8)))
          CFI V11 load(1, XDATA, add(CFA_XSP16, literal(-7)))
          CFI ?BRET_EXT load(1, XDATA, add(CFA_XSP16, literal(-3)))
          CFI ?RET_HIGH load(1, XDATA, add(CFA_XSP16, literal(-4)))
          CFI ?RET_LOW load(1, XDATA, add(CFA_XSP16, literal(-5)))
        MOV       R7,#0xc
        LJMP      ?BANKED_LEAVE_XDATA
          CFI EndBlock cfiBlock48

        RSEG BANKED_CODE:HUGECODE:NOROOT(0)
?Subroutine41:
          CFI Block cfiCond49 Using cfiCommon0
          CFI Function ZDP_NwkAddrReq
          CFI Conditional ??CrossCallReturnLabel_154
          CFI R6 load(1, XDATA, add(CFA_XSP16, literal(-12)))
          CFI VB load(1, XDATA, add(CFA_XSP16, literal(-11)))
          CFI V0 load(1, XDATA, add(CFA_XSP16, literal(-10)))
          CFI V1 load(1, XDATA, add(CFA_XSP16, literal(-9)))
          CFI V2 load(1, XDATA, add(CFA_XSP16, literal(-8)))
          CFI V3 load(1, XDATA, add(CFA_XSP16, literal(-7)))
          CFI R7 load(1, XDATA, add(CFA_XSP16, literal(-6)))
          CFI ?RET_LOW load(1, XDATA, add(CFA_XSP16, literal(-5)))
          CFI ?RET_HIGH load(1, XDATA, add(CFA_XSP16, literal(-4)))
          CFI ?BRET_EXT load(1, XDATA, add(CFA_XSP16, literal(-3)))
          CFI DPL0 load(1, XDATA, add(CFA_XSP16, literal(-2)))
          CFI DPH0 load(1, XDATA, add(CFA_XSP16, literal(-1)))
          CFI CFA_SP SP+-2
          CFI CFA_XSP16 add(XSP16, 21)
          CFI Block cfiCond50 Using cfiCommon0
          CFI (cfiCond50) Function zdpProcessAddrReq
          CFI (cfiCond50) Conditional ??CrossCallReturnLabel_155
          CFI (cfiCond50) R6 load(1, XDATA, add(CFA_XSP16, literal(-20)))
          CFI (cfiCond50) VB load(1, XDATA, add(CFA_XSP16, literal(-19)))
          CFI (cfiCond50) V0 load(1, XDATA, add(CFA_XSP16, literal(-18)))
          CFI (cfiCond50) V1 load(1, XDATA, add(CFA_XSP16, literal(-17)))
          CFI (cfiCond50) V2 load(1, XDATA, add(CFA_XSP16, literal(-16)))
          CFI (cfiCond50) V3 load(1, XDATA, add(CFA_XSP16, literal(-15)))
          CFI (cfiCond50) V4 load(1, XDATA, add(CFA_XSP16, literal(-14)))
          CFI (cfiCond50) V5 load(1, XDATA, add(CFA_XSP16, literal(-13)))
          CFI (cfiCond50) V6 load(1, XDATA, add(CFA_XSP16, literal(-12)))
          CFI (cfiCond50) V7 load(1, XDATA, add(CFA_XSP16, literal(-11)))
          CFI (cfiCond50) V8 load(1, XDATA, add(CFA_XSP16, literal(-10)))
          CFI (cfiCond50) V9 load(1, XDATA, add(CFA_XSP16, literal(-9)))
          CFI (cfiCond50) V10 load(1, XDATA, add(CFA_XSP16, literal(-8)))
          CFI (cfiCond50) V11 load(1, XDATA, add(CFA_XSP16, literal(-7)))
          CFI (cfiCond50) R7 load(1, XDATA, add(CFA_XSP16, literal(-6)))
          CFI (cfiCond50) ?RET_LOW load(1, XDATA, add(CFA_XSP16, literal(-5)))
          CFI (cfiCond50) ?RET_HIGH load(1, XDATA, add(CFA_XSP16, literal(-4)))
          CFI (cfiCond50) ?BRET_EXT load(1, XDATA, add(CFA_XSP16, literal(-3)))
          CFI (cfiCond50) DPL0 load(1, XDATA, add(CFA_XSP16, literal(-2)))
          CFI (cfiCond50) DPH0 load(1, XDATA, add(CFA_XSP16, literal(-1)))
          CFI (cfiCond50) CFA_SP SP+-2
          CFI (cfiCond50) CFA_XSP16 add(XSP16, 28)
          CFI Block cfiCond51 Using cfiCommon0
          CFI (cfiCond51) Function ZDP_EndDeviceBindReq
          CFI (cfiCond51) Conditional ??CrossCallReturnLabel_156
          CFI (cfiCond51) R6 load(1, XDATA, add(CFA_XSP16, literal(-18)))
          CFI (cfiCond51) VB load(1, XDATA, add(CFA_XSP16, literal(-17)))
          CFI (cfiCond51) V0 load(1, XDATA, add(CFA_XSP16, literal(-16)))
          CFI (cfiCond51) V1 load(1, XDATA, add(CFA_XSP16, literal(-15)))
          CFI (cfiCond51) V2 load(1, XDATA, add(CFA_XSP16, literal(-14)))
          CFI (cfiCond51) V3 load(1, XDATA, add(CFA_XSP16, literal(-13)))
          CFI (cfiCond51) V4 load(1, XDATA, add(CFA_XSP16, literal(-12)))
          CFI (cfiCond51) V5 load(1, XDATA, add(CFA_XSP16, literal(-11)))
          CFI (cfiCond51) V6 load(1, XDATA, add(CFA_XSP16, literal(-10)))
          CFI (cfiCond51) V7 load(1, XDATA, add(CFA_XSP16, literal(-9)))
          CFI (cfiCond51) V8 load(1, XDATA, add(CFA_XSP16, literal(-8)))
          CFI (cfiCond51) V9 load(1, XDATA, add(CFA_XSP16, literal(-7)))
          CFI (cfiCond51) R7 load(1, XDATA, add(CFA_XSP16, literal(-6)))
          CFI (cfiCond51) ?RET_LOW load(1, XDATA, add(CFA_XSP16, literal(-5)))
          CFI (cfiCond51) ?RET_HIGH load(1, XDATA, add(CFA_XSP16, literal(-4)))
          CFI (cfiCond51) ?BRET_EXT load(1, XDATA, add(CFA_XSP16, literal(-3)))
          CFI (cfiCond51) DPL0 load(1, XDATA, add(CFA_XSP16, literal(-2)))
          CFI (cfiCond51) DPH0 load(1, XDATA, add(CFA_XSP16, literal(-1)))
          CFI (cfiCond51) CFA_SP SP+-2
          CFI (cfiCond51) CFA_XSP16 add(XSP16, 18)
          CFI Block cfiPicker52 Using cfiCommon1
          CFI (cfiPicker52) NoFunction
          CFI (cfiPicker52) Picker
        MOV       DPTR,#ZDP_TmpBuf
          CFI EndBlock cfiCond49
          CFI EndBlock cfiCond50
          CFI EndBlock cfiCond51
          CFI EndBlock cfiPicker52
        REQUIRE ??Subroutine97_0
        ; // Fall through to label ??Subroutine97_0

        RSEG BANKED_CODE:HUGECODE:NOROOT(0)
??Subroutine97_0:
          CFI Block cfiCond53 Using cfiCommon0
          CFI Function ZDO_SendMsgCBs
          CFI Conditional ??CrossCallReturnLabel_152
          CFI R6 load(1, XDATA, add(CFA_XSP16, literal(-18)))
          CFI VB load(1, XDATA, add(CFA_XSP16, literal(-17)))
          CFI V0 load(1, XDATA, add(CFA_XSP16, literal(-16)))
          CFI V1 load(1, XDATA, add(CFA_XSP16, literal(-15)))
          CFI V2 load(1, XDATA, add(CFA_XSP16, literal(-14)))
          CFI V3 load(1, XDATA, add(CFA_XSP16, literal(-13)))
          CFI V4 load(1, XDATA, add(CFA_XSP16, literal(-12)))
          CFI V5 load(1, XDATA, add(CFA_XSP16, literal(-11)))
          CFI V6 load(1, XDATA, add(CFA_XSP16, literal(-10)))
          CFI V7 load(1, XDATA, add(CFA_XSP16, literal(-9)))
          CFI V8 load(1, XDATA, add(CFA_XSP16, literal(-8)))
          CFI V9 load(1, XDATA, add(CFA_XSP16, literal(-7)))
          CFI R7 load(1, XDATA, add(CFA_XSP16, literal(-6)))
          CFI ?RET_LOW load(1, XDATA, add(CFA_XSP16, literal(-5)))
          CFI ?RET_HIGH load(1, XDATA, add(CFA_XSP16, literal(-4)))
          CFI ?BRET_EXT load(1, XDATA, add(CFA_XSP16, literal(-3)))
          CFI DPL0 load(1, XDATA, add(CFA_XSP16, literal(-2)))
          CFI DPH0 load(1, XDATA, add(CFA_XSP16, literal(-1)))
          CFI CFA_SP SP+-2
          CFI CFA_XSP16 add(XSP16, 18)
          CFI Block cfiCond54 Using cfiCommon0
          CFI (cfiCond54) Function ZDO_SendMsgCBs
          CFI (cfiCond54) Conditional ??CrossCallReturnLabel_153
          CFI (cfiCond54) R6 load(1, XDATA, add(CFA_XSP16, literal(-18)))
          CFI (cfiCond54) VB load(1, XDATA, add(CFA_XSP16, literal(-17)))
          CFI (cfiCond54) V0 load(1, XDATA, add(CFA_XSP16, literal(-16)))
          CFI (cfiCond54) V1 load(1, XDATA, add(CFA_XSP16, literal(-15)))
          CFI (cfiCond54) V2 load(1, XDATA, add(CFA_XSP16, literal(-14)))
          CFI (cfiCond54) V3 load(1, XDATA, add(CFA_XSP16, literal(-13)))
          CFI (cfiCond54) V4 load(1, XDATA, add(CFA_XSP16, literal(-12)))
          CFI (cfiCond54) V5 load(1, XDATA, add(CFA_XSP16, literal(-11)))
          CFI (cfiCond54) V6 load(1, XDATA, add(CFA_XSP16, literal(-10)))
          CFI (cfiCond54) V7 load(1, XDATA, add(CFA_XSP16, literal(-9)))
          CFI (cfiCond54) V8 load(1, XDATA, add(CFA_XSP16, literal(-8)))
          CFI (cfiCond54) V9 load(1, XDATA, add(CFA_XSP16, literal(-7)))
          CFI (cfiCond54) R7 load(1, XDATA, add(CFA_XSP16, literal(-6)))
          CFI (cfiCond54) ?RET_LOW load(1, XDATA, add(CFA_XSP16, literal(-5)))
          CFI (cfiCond54) ?RET_HIGH load(1, XDATA, add(CFA_XSP16, literal(-4)))
          CFI (cfiCond54) ?BRET_EXT load(1, XDATA, add(CFA_XSP16, literal(-3)))
          CFI (cfiCond54) DPL0 load(1, XDATA, add(CFA_XSP16, literal(-2)))
          CFI (cfiCond54) DPH0 load(1, XDATA, add(CFA_XSP16, literal(-1)))
          CFI (cfiCond54) CFA_SP SP+-2
          CFI (cfiCond54) CFA_XSP16 add(XSP16, 18)
          CFI Block cfiCond55 Using cfiCommon0
          CFI (cfiCond55) Function ZDP_NwkAddrReq
          CFI (cfiCond55) Conditional ??CrossCallReturnLabel_154
          CFI (cfiCond55) R6 load(1, XDATA, add(CFA_XSP16, literal(-12)))
          CFI (cfiCond55) VB load(1, XDATA, add(CFA_XSP16, literal(-11)))
          CFI (cfiCond55) V0 load(1, XDATA, add(CFA_XSP16, literal(-10)))
          CFI (cfiCond55) V1 load(1, XDATA, add(CFA_XSP16, literal(-9)))
          CFI (cfiCond55) V2 load(1, XDATA, add(CFA_XSP16, literal(-8)))
          CFI (cfiCond55) V3 load(1, XDATA, add(CFA_XSP16, literal(-7)))
          CFI (cfiCond55) R7 load(1, XDATA, add(CFA_XSP16, literal(-6)))
          CFI (cfiCond55) ?RET_LOW load(1, XDATA, add(CFA_XSP16, literal(-5)))
          CFI (cfiCond55) ?RET_HIGH load(1, XDATA, add(CFA_XSP16, literal(-4)))
          CFI (cfiCond55) ?BRET_EXT load(1, XDATA, add(CFA_XSP16, literal(-3)))
          CFI (cfiCond55) DPL0 load(1, XDATA, add(CFA_XSP16, literal(-2)))
          CFI (cfiCond55) DPH0 load(1, XDATA, add(CFA_XSP16, literal(-1)))
          CFI (cfiCond55) CFA_SP SP+-2
          CFI (cfiCond55) CFA_XSP16 add(XSP16, 21)
          CFI Block cfiCond56 Using cfiCommon0
          CFI (cfiCond56) Function zdpProcessAddrReq
          CFI (cfiCond56) Conditional ??CrossCallReturnLabel_155
          CFI (cfiCond56) R6 load(1, XDATA, add(CFA_XSP16, literal(-20)))
          CFI (cfiCond56) VB load(1, XDATA, add(CFA_XSP16, literal(-19)))
          CFI (cfiCond56) V0 load(1, XDATA, add(CFA_XSP16, literal(-18)))
          CFI (cfiCond56) V1 load(1, XDATA, add(CFA_XSP16, literal(-17)))
          CFI (cfiCond56) V2 load(1, XDATA, add(CFA_XSP16, literal(-16)))
          CFI (cfiCond56) V3 load(1, XDATA, add(CFA_XSP16, literal(-15)))
          CFI (cfiCond56) V4 load(1, XDATA, add(CFA_XSP16, literal(-14)))
          CFI (cfiCond56) V5 load(1, XDATA, add(CFA_XSP16, literal(-13)))
          CFI (cfiCond56) V6 load(1, XDATA, add(CFA_XSP16, literal(-12)))
          CFI (cfiCond56) V7 load(1, XDATA, add(CFA_XSP16, literal(-11)))
          CFI (cfiCond56) V8 load(1, XDATA, add(CFA_XSP16, literal(-10)))
          CFI (cfiCond56) V9 load(1, XDATA, add(CFA_XSP16, literal(-9)))
          CFI (cfiCond56) V10 load(1, XDATA, add(CFA_XSP16, literal(-8)))
          CFI (cfiCond56) V11 load(1, XDATA, add(CFA_XSP16, literal(-7)))
          CFI (cfiCond56) R7 load(1, XDATA, add(CFA_XSP16, literal(-6)))
          CFI (cfiCond56) ?RET_LOW load(1, XDATA, add(CFA_XSP16, literal(-5)))
          CFI (cfiCond56) ?RET_HIGH load(1, XDATA, add(CFA_XSP16, literal(-4)))
          CFI (cfiCond56) ?BRET_EXT load(1, XDATA, add(CFA_XSP16, literal(-3)))
          CFI (cfiCond56) DPL0 load(1, XDATA, add(CFA_XSP16, literal(-2)))
          CFI (cfiCond56) DPH0 load(1, XDATA, add(CFA_XSP16, literal(-1)))
          CFI (cfiCond56) CFA_SP SP+-2
          CFI (cfiCond56) CFA_XSP16 add(XSP16, 28)
          CFI Block cfiCond57 Using cfiCommon0
          CFI (cfiCond57) Function ZDP_EndDeviceBindReq
          CFI (cfiCond57) Conditional ??CrossCallReturnLabel_156
          CFI (cfiCond57) R6 load(1, XDATA, add(CFA_XSP16, literal(-18)))
          CFI (cfiCond57) VB load(1, XDATA, add(CFA_XSP16, literal(-17)))
          CFI (cfiCond57) V0 load(1, XDATA, add(CFA_XSP16, literal(-16)))
          CFI (cfiCond57) V1 load(1, XDATA, add(CFA_XSP16, literal(-15)))
          CFI (cfiCond57) V2 load(1, XDATA, add(CFA_XSP16, literal(-14)))
          CFI (cfiCond57) V3 load(1, XDATA, add(CFA_XSP16, literal(-13)))
          CFI (cfiCond57) V4 load(1, XDATA, add(CFA_XSP16, literal(-12)))
          CFI (cfiCond57) V5 load(1, XDATA, add(CFA_XSP16, literal(-11)))
          CFI (cfiCond57) V6 load(1, XDATA, add(CFA_XSP16, literal(-10)))
          CFI (cfiCond57) V7 load(1, XDATA, add(CFA_XSP16, literal(-9)))
          CFI (cfiCond57) V8 load(1, XDATA, add(CFA_XSP16, literal(-8)))
          CFI (cfiCond57) V9 load(1, XDATA, add(CFA_XSP16, literal(-7)))
          CFI (cfiCond57) R7 load(1, XDATA, add(CFA_XSP16, literal(-6)))
          CFI (cfiCond57) ?RET_LOW load(1, XDATA, add(CFA_XSP16, literal(-5)))
          CFI (cfiCond57) ?RET_HIGH load(1, XDATA, add(CFA_XSP16, literal(-4)))
          CFI (cfiCond57) ?BRET_EXT load(1, XDATA, add(CFA_XSP16, literal(-3)))
          CFI (cfiCond57) DPL0 load(1, XDATA, add(CFA_XSP16, literal(-2)))
          CFI (cfiCond57) DPH0 load(1, XDATA, add(CFA_XSP16, literal(-1)))
          CFI (cfiCond57) CFA_SP SP+-2
          CFI (cfiCond57) CFA_XSP16 add(XSP16, 18)
          CFI Block cfiPicker58 Using cfiCommon1
          CFI (cfiPicker58) NoFunction
          CFI (cfiPicker58) Picker
        MOVX      A,@DPTR
        MOV       ?V0,A
        INC       DPTR
        MOVX      A,@DPTR
        MOV       ?V1,A
        RET
          CFI EndBlock cfiCond53
          CFI EndBlock cfiCond54
          CFI EndBlock cfiCond55
          CFI EndBlock cfiCond56
          CFI EndBlock cfiCond57
          CFI EndBlock cfiPicker58
//  844 
//  845 /*********************************************************************
//  846  * @fn          ZDP_NodeDescMsg
//  847  *
//  848  * @brief       Builds and sends a Node Descriptor message, unicast to the
//  849  *              specified device.
//  850  *
//  851  * @param       inMsg - incoming message
//  852  * @param       nwkAddr - 16 bit network address for device
//  853  * @param       pNodeDesc - pointer to the node descriptor
//  854  *
//  855  * @return      afStatus_t
//  856  */

        RSEG BANKED_CODE:HUGECODE:NOROOT(0)
//  857 afStatus_t ZDP_NodeDescMsg( zdoIncomingMsg_t *inMsg,
ZDP_NodeDescMsg:
          CFI Block cfiBlock59 Using cfiCommon0
          CFI Function ZDP_NodeDescMsg
        CODE
//  858                            uint16 nwkAddr, NodeDescriptorFormat_t *pNodeDesc )
//  859 {
        FUNCALL ZDP_NodeDescMsg, fillAndSend
        LOCFRAME ISTACK, 0, STACK
        LOCFRAME PSTACK, 0, STACK
        LOCFRAME XSTACK, 12, STACK
        LOCFRAME IOVERLAY, 0, STATIC
        LOCFRAME DOVERLAY, 0, STATIC
        ARGFRAME ISTACK, 0, STACK
        ARGFRAME PSTACK, 0, STACK
        ARGFRAME XSTACK, 12, STACK
        ARGFRAME IOVERLAY, 0, STATIC
        ARGFRAME DOVERLAY, 0, STATIC
        REQUIRE ?V0
        REQUIRE ?V1
        MOV       A,#-0xa
        LCALL     ?BANKED_ENTER_XDATA
          CFI DPH0 load(1, XDATA, add(CFA_XSP16, literal(-1)))
          CFI DPL0 load(1, XDATA, add(CFA_XSP16, literal(-2)))
          CFI ?BRET_EXT load(1, XDATA, add(CFA_XSP16, literal(-3)))
          CFI ?RET_HIGH load(1, XDATA, add(CFA_XSP16, literal(-4)))
          CFI ?RET_LOW load(1, XDATA, add(CFA_XSP16, literal(-5)))
          CFI R7 load(1, XDATA, add(CFA_XSP16, literal(-6)))
          CFI V1 load(1, XDATA, add(CFA_XSP16, literal(-7)))
          CFI V0 load(1, XDATA, add(CFA_XSP16, literal(-8)))
          CFI VB load(1, XDATA, add(CFA_XSP16, literal(-9)))
          CFI R6 load(1, XDATA, add(CFA_XSP16, literal(-10)))
          CFI CFA_SP SP+0
          CFI CFA_XSP16 add(XSP16, 10)
        ; Saved register size: 10
        ; Auto size: 0
//  860   uint8 *pBuf = ZDP_TmpBuf;
        MOV       DPTR,#ZDP_TmpBuf
        MOVX      A,@DPTR
        MOV       R6,A
        INC       DPTR
        MOVX      A,@DPTR
        LCALL     ?Subroutine19 & 0xFFFF
//  861   byte len;
//  862 
//  863   len = 1 + 2 + 13;  // Status + nwkAddr + Node descriptor
//  864 
//  865   *pBuf++ = ZDP_SUCCESS;
//  866 
//  867   *pBuf++ = LO_UINT16( nwkAddr );
//  868   *pBuf++ = HI_UINT16( nwkAddr );
??CrossCallReturnLabel_20:
        LCALL     ?XSTACK_DISP0_8
        LCALL     ?Subroutine42 & 0xFFFF
//  869 
//  870   *pBuf++ = (byte)((pNodeDesc->ComplexDescAvail << 3) |
//  871                      (pNodeDesc->UserDescAvail << 4) |
//  872                      (pNodeDesc->LogicalType & 0x07));
??CrossCallReturnLabel_61:
        ANL       A,#0x1f
        MOV       DPL,R6
        MOV       DPH,R7
        LCALL     ?Subroutine27 & 0xFFFF
//  873 
//  874   *pBuf++ = (byte)((pNodeDesc->FrequencyBand << 3) | (pNodeDesc->APSFlags & 0x07));
??CrossCallReturnLabel_219:
        LCALL     ?Subroutine45 & 0xFFFF
??CrossCallReturnLabel_69:
        LCALL     ?Subroutine27 & 0xFFFF
//  875   *pBuf++ = pNodeDesc->CapabilityFlags;
??CrossCallReturnLabel_220:
        LCALL     ?Subroutine77 & 0xFFFF
??CrossCallReturnLabel_213:
        LCALL     ?Subroutine26 & 0xFFFF
//  876   *pBuf++ = pNodeDesc->ManufacturerCode[0];
??CrossCallReturnLabel_157:
        LCALL     ?Subroutine45 & 0xFFFF
??CrossCallReturnLabel_70:
        LCALL     ?Subroutine26 & 0xFFFF
//  877   *pBuf++ = pNodeDesc->ManufacturerCode[1];
??CrossCallReturnLabel_158:
        LCALL     ?Subroutine77 & 0xFFFF
??CrossCallReturnLabel_214:
        LCALL     ?Subroutine25 & 0xFFFF
//  878   *pBuf++ = pNodeDesc->MaxBufferSize;
??CrossCallReturnLabel_35:
        LCALL     ?Subroutine45 & 0xFFFF
??CrossCallReturnLabel_71:
        LCALL     ?Subroutine25 & 0xFFFF
//  879   *pBuf++ = pNodeDesc->MaxInTransferSize[0];
??CrossCallReturnLabel_36:
        INC       DPTR
        LCALL     ?Subroutine44 & 0xFFFF
??CrossCallReturnLabel_67:
        LCALL     ?Subroutine23 & 0xFFFF
//  880   *pBuf++ = pNodeDesc->MaxInTransferSize[1];
??CrossCallReturnLabel_30:
        LCALL     ?Subroutine44 & 0xFFFF
??CrossCallReturnLabel_68:
        INC       DPTR
        MOVX      @DPTR,A
//  881 
//  882   *pBuf++ = LO_UINT16( pNodeDesc->ServerMask );
        MOV       A,R0
        ADD       A,#0x8
        MOV       R4,A
        CLR       A
        ADDC      A,R1
        MOV       R5,A
        MOV       DPL,R4
        MOV       DPH,R5
        MOVX      A,@DPTR
        MOV       ?V0,A
        MOV       A,R6
        ADD       A,#0xb
        MOV       DPL,A
        CLR       A
        ADDC      A,R7
        MOV       DPH,A
        MOV       A,?V0
        LCALL     ??Subroutine102_0 & 0xFFFF
//  883   *pBuf++ = HI_UINT16( pNodeDesc->ServerMask );
??CrossCallReturnLabel_173:
        MOVX      A,@DPTR
        PUSH      A
          CFI CFA_SP SP+-1
        MOV       A,R6
        ADD       A,#0xc
        MOV       DPL,A
        CLR       A
        ADDC      A,R7
        MOV       DPH,A
        POP       A
          CFI CFA_SP SP+0
        LCALL     ?Subroutine23 & 0xFFFF
//  884   *pBuf++ = pNodeDesc->MaxOutTransferSize[0];
??CrossCallReturnLabel_31:
        INC       DPTR
        INC       DPTR
        INC       DPTR
        MOVX      A,@DPTR
        PUSH      A
          CFI CFA_SP SP+-1
        MOV       A,R6
        ADD       A,#0xd
        MOV       DPL,A
        CLR       A
        ADDC      A,R7
        MOV       DPH,A
        POP       A
          CFI CFA_SP SP+0
        MOVX      @DPTR,A
//  885   *pBuf++ = pNodeDesc->MaxOutTransferSize[1];
        MOV       A,R0
        ADD       A,#0xb
        MOV       DPL,A
        CLR       A
        ADDC      A,R1
        MOV       DPH,A
        MOVX      A,@DPTR
        PUSH      A
          CFI CFA_SP SP+-1
        MOV       A,R6
        ADD       A,#0xe
        MOV       DPL,A
        CLR       A
        ADDC      A,R7
        MOV       DPH,A
        POP       A
          CFI CFA_SP SP+0
        MOVX      @DPTR,A
//  886   *pBuf = pNodeDesc->DescriptorCapability;
        MOV       A,R0
        ADD       A,#0xc
        MOV       DPL,A
        CLR       A
        ADDC      A,R1
        MOV       DPH,A
        MOVX      A,@DPTR
        PUSH      A
          CFI CFA_SP SP+-1
        MOV       A,R6
        ADD       A,#0xf
        MOV       DPL,A
        CLR       A
        ADDC      A,R7
        MOV       DPH,A
        POP       A
          CFI CFA_SP SP+0
        MOVX      @DPTR,A
//  887 
//  888   return fillAndSend( &(inMsg->TransSeq), &(inMsg->srcAddr), Node_Desc_rsp, len );
        ; Setup parameters for call to function fillAndSend
        MOV       ?V0,#0x2
        MOV       ?V1,#-0x80
        MOV       R0,#?V0
        LCALL     ?PUSH_XSTACK_I_TWO
          CFI CFA_XSP16 add(XSP16, 12)
        MOV       R1,#0x10
        LCALL     ?Subroutine68 & 0xFFFF
??CrossCallReturnLabel_120:
        JNC       ??ZDP_NodeDescMsg_0
        INC       R3
??ZDP_NodeDescMsg_0:
        SJMP      ??Subroutine99_0
//  889 }
          CFI EndBlock cfiBlock59

        RSEG BANKED_CODE:HUGECODE:NOROOT(0)
?Subroutine44:
          CFI Block cfiCond60 Using cfiCommon0
          CFI Function ZDP_NodeDescMsg
          CFI Conditional ??CrossCallReturnLabel_67
          CFI R6 load(1, XDATA, add(CFA_XSP16, literal(-10)))
          CFI VB load(1, XDATA, add(CFA_XSP16, literal(-9)))
          CFI V0 load(1, XDATA, add(CFA_XSP16, literal(-8)))
          CFI V1 load(1, XDATA, add(CFA_XSP16, literal(-7)))
          CFI R7 load(1, XDATA, add(CFA_XSP16, literal(-6)))
          CFI ?RET_LOW load(1, XDATA, add(CFA_XSP16, literal(-5)))
          CFI ?RET_HIGH load(1, XDATA, add(CFA_XSP16, literal(-4)))
          CFI ?BRET_EXT load(1, XDATA, add(CFA_XSP16, literal(-3)))
          CFI DPL0 load(1, XDATA, add(CFA_XSP16, literal(-2)))
          CFI DPH0 load(1, XDATA, add(CFA_XSP16, literal(-1)))
          CFI CFA_SP SP+-2
          CFI CFA_XSP16 add(XSP16, 10)
          CFI Block cfiCond61 Using cfiCommon0
          CFI (cfiCond61) Function ZDP_NodeDescMsg
          CFI (cfiCond61) Conditional ??CrossCallReturnLabel_68
          CFI (cfiCond61) R6 load(1, XDATA, add(CFA_XSP16, literal(-10)))
          CFI (cfiCond61) VB load(1, XDATA, add(CFA_XSP16, literal(-9)))
          CFI (cfiCond61) V0 load(1, XDATA, add(CFA_XSP16, literal(-8)))
          CFI (cfiCond61) V1 load(1, XDATA, add(CFA_XSP16, literal(-7)))
          CFI (cfiCond61) R7 load(1, XDATA, add(CFA_XSP16, literal(-6)))
          CFI (cfiCond61) ?RET_LOW load(1, XDATA, add(CFA_XSP16, literal(-5)))
          CFI (cfiCond61) ?RET_HIGH load(1, XDATA, add(CFA_XSP16, literal(-4)))
          CFI (cfiCond61) ?BRET_EXT load(1, XDATA, add(CFA_XSP16, literal(-3)))
          CFI (cfiCond61) DPL0 load(1, XDATA, add(CFA_XSP16, literal(-2)))
          CFI (cfiCond61) DPH0 load(1, XDATA, add(CFA_XSP16, literal(-1)))
          CFI (cfiCond61) CFA_SP SP+-2
          CFI (cfiCond61) CFA_XSP16 add(XSP16, 10)
          CFI Block cfiPicker62 Using cfiCommon1
          CFI (cfiPicker62) NoFunction
          CFI (cfiPicker62) Picker
        LCALL     ??Subroutine111_0 & 0xFFFF
??CrossCallReturnLabel_211:
        INC       DPTR
        INC       DPTR
        INC       DPTR
        INC       DPTR
        INC       DPTR
        INC       DPTR
        INC       DPTR
        INC       DPTR
        INC       DPTR
        RET
          CFI EndBlock cfiCond60
          CFI EndBlock cfiCond61
          CFI EndBlock cfiPicker62

        RSEG BANKED_CODE:HUGECODE:NOROOT(0)
?Subroutine42:
          CFI Block cfiCond63 Using cfiCommon0
          CFI Function ZDP_UserDescSet
          CFI Conditional ??CrossCallReturnLabel_60
          CFI R6 load(1, XDATA, add(CFA_XSP16, literal(-15)))
          CFI VB load(1, XDATA, add(CFA_XSP16, literal(-14)))
          CFI V0 load(1, XDATA, add(CFA_XSP16, literal(-13)))
          CFI V1 load(1, XDATA, add(CFA_XSP16, literal(-12)))
          CFI V2 load(1, XDATA, add(CFA_XSP16, literal(-11)))
          CFI V3 load(1, XDATA, add(CFA_XSP16, literal(-10)))
          CFI V4 load(1, XDATA, add(CFA_XSP16, literal(-9)))
          CFI V5 load(1, XDATA, add(CFA_XSP16, literal(-8)))
          CFI V6 load(1, XDATA, add(CFA_XSP16, literal(-7)))
          CFI R7 load(1, XDATA, add(CFA_XSP16, literal(-6)))
          CFI ?RET_LOW load(1, XDATA, add(CFA_XSP16, literal(-5)))
          CFI ?RET_HIGH load(1, XDATA, add(CFA_XSP16, literal(-4)))
          CFI ?BRET_EXT load(1, XDATA, add(CFA_XSP16, literal(-3)))
          CFI DPL0 load(1, XDATA, add(CFA_XSP16, literal(-2)))
          CFI DPH0 load(1, XDATA, add(CFA_XSP16, literal(-1)))
          CFI CFA_SP SP+-2
          CFI CFA_XSP16 add(XSP16, 15)
          CFI Block cfiCond64 Using cfiCommon0
          CFI (cfiCond64) Function ZDP_NodeDescMsg
          CFI (cfiCond64) Conditional ??CrossCallReturnLabel_61
          CFI (cfiCond64) R6 load(1, XDATA, add(CFA_XSP16, literal(-10)))
          CFI (cfiCond64) VB load(1, XDATA, add(CFA_XSP16, literal(-9)))
          CFI (cfiCond64) V0 load(1, XDATA, add(CFA_XSP16, literal(-8)))
          CFI (cfiCond64) V1 load(1, XDATA, add(CFA_XSP16, literal(-7)))
          CFI (cfiCond64) R7 load(1, XDATA, add(CFA_XSP16, literal(-6)))
          CFI (cfiCond64) ?RET_LOW load(1, XDATA, add(CFA_XSP16, literal(-5)))
          CFI (cfiCond64) ?RET_HIGH load(1, XDATA, add(CFA_XSP16, literal(-4)))
          CFI (cfiCond64) ?BRET_EXT load(1, XDATA, add(CFA_XSP16, literal(-3)))
          CFI (cfiCond64) DPL0 load(1, XDATA, add(CFA_XSP16, literal(-2)))
          CFI (cfiCond64) DPH0 load(1, XDATA, add(CFA_XSP16, literal(-1)))
          CFI (cfiCond64) CFA_SP SP+-2
          CFI (cfiCond64) CFA_XSP16 add(XSP16, 10)
          CFI Block cfiCond65 Using cfiCommon0
          CFI (cfiCond65) Function ZDP_PowerDescMsg
          CFI (cfiCond65) Conditional ??CrossCallReturnLabel_62
          CFI (cfiCond65) R6 load(1, XDATA, add(CFA_XSP16, literal(-10)))
          CFI (cfiCond65) VB load(1, XDATA, add(CFA_XSP16, literal(-9)))
          CFI (cfiCond65) V0 load(1, XDATA, add(CFA_XSP16, literal(-8)))
          CFI (cfiCond65) V1 load(1, XDATA, add(CFA_XSP16, literal(-7)))
          CFI (cfiCond65) R7 load(1, XDATA, add(CFA_XSP16, literal(-6)))
          CFI (cfiCond65) ?RET_LOW load(1, XDATA, add(CFA_XSP16, literal(-5)))
          CFI (cfiCond65) ?RET_HIGH load(1, XDATA, add(CFA_XSP16, literal(-4)))
          CFI (cfiCond65) ?BRET_EXT load(1, XDATA, add(CFA_XSP16, literal(-3)))
          CFI (cfiCond65) DPL0 load(1, XDATA, add(CFA_XSP16, literal(-2)))
          CFI (cfiCond65) DPH0 load(1, XDATA, add(CFA_XSP16, literal(-1)))
          CFI (cfiCond65) CFA_SP SP+-2
          CFI (cfiCond65) CFA_XSP16 add(XSP16, 10)
          CFI Block cfiPicker66 Using cfiCommon1
          CFI (cfiPicker66) NoFunction
          CFI (cfiPicker66) Picker
        LCALL     ??Subroutine118_0 & 0xFFFF
??CrossCallReturnLabel_247:
        MOV       R1,A
        MOV       DPL,R0
        MOV       DPH,R1
        MOVX      A,@DPTR
        RET
          CFI EndBlock cfiCond63
          CFI EndBlock cfiCond64
          CFI EndBlock cfiCond65
          CFI EndBlock cfiPicker66

        RSEG BANKED_CODE:HUGECODE:NOROOT(0)
?Subroutine26:
          CFI Block cfiCond67 Using cfiCommon0
          CFI Function ZDP_NodeDescMsg
          CFI Conditional ??CrossCallReturnLabel_157
          CFI R6 load(1, XDATA, add(CFA_XSP16, literal(-10)))
          CFI VB load(1, XDATA, add(CFA_XSP16, literal(-9)))
          CFI V0 load(1, XDATA, add(CFA_XSP16, literal(-8)))
          CFI V1 load(1, XDATA, add(CFA_XSP16, literal(-7)))
          CFI R7 load(1, XDATA, add(CFA_XSP16, literal(-6)))
          CFI ?RET_LOW load(1, XDATA, add(CFA_XSP16, literal(-5)))
          CFI ?RET_HIGH load(1, XDATA, add(CFA_XSP16, literal(-4)))
          CFI ?BRET_EXT load(1, XDATA, add(CFA_XSP16, literal(-3)))
          CFI DPL0 load(1, XDATA, add(CFA_XSP16, literal(-2)))
          CFI DPH0 load(1, XDATA, add(CFA_XSP16, literal(-1)))
          CFI CFA_SP SP+-2
          CFI CFA_XSP16 add(XSP16, 10)
          CFI Block cfiCond68 Using cfiCommon0
          CFI (cfiCond68) Function ZDP_NodeDescMsg
          CFI (cfiCond68) Conditional ??CrossCallReturnLabel_158
          CFI (cfiCond68) R6 load(1, XDATA, add(CFA_XSP16, literal(-10)))
          CFI (cfiCond68) VB load(1, XDATA, add(CFA_XSP16, literal(-9)))
          CFI (cfiCond68) V0 load(1, XDATA, add(CFA_XSP16, literal(-8)))
          CFI (cfiCond68) V1 load(1, XDATA, add(CFA_XSP16, literal(-7)))
          CFI (cfiCond68) R7 load(1, XDATA, add(CFA_XSP16, literal(-6)))
          CFI (cfiCond68) ?RET_LOW load(1, XDATA, add(CFA_XSP16, literal(-5)))
          CFI (cfiCond68) ?RET_HIGH load(1, XDATA, add(CFA_XSP16, literal(-4)))
          CFI (cfiCond68) ?BRET_EXT load(1, XDATA, add(CFA_XSP16, literal(-3)))
          CFI (cfiCond68) DPL0 load(1, XDATA, add(CFA_XSP16, literal(-2)))
          CFI (cfiCond68) DPH0 load(1, XDATA, add(CFA_XSP16, literal(-1)))
          CFI (cfiCond68) CFA_SP SP+-2
          CFI (cfiCond68) CFA_XSP16 add(XSP16, 10)
          CFI Block cfiPicker69 Using cfiCommon1
          CFI (cfiPicker69) NoFunction
          CFI (cfiPicker69) Picker
        INC       DPTR
        INC       DPTR
        INC       DPTR
        INC       DPTR
        INC       DPTR
          CFI EndBlock cfiCond67
          CFI EndBlock cfiCond68
          CFI EndBlock cfiPicker69
        REQUIRE ??Subroutine98_0
        ; // Fall through to label ??Subroutine98_0

        RSEG BANKED_CODE:HUGECODE:NOROOT(0)
??Subroutine98_0:
          CFI Block cfiCond70 Using cfiCommon0
          CFI Function ZDO_RegisterForZDOMsg
          CFI Conditional ??CrossCallReturnLabel_159
          CFI R6 load(1, XDATA, add(CFA_XSP16, literal(-14)))
          CFI VB load(1, XDATA, add(CFA_XSP16, literal(-13)))
          CFI V0 load(1, XDATA, add(CFA_XSP16, literal(-12)))
          CFI V1 load(1, XDATA, add(CFA_XSP16, literal(-11)))
          CFI V2 load(1, XDATA, add(CFA_XSP16, literal(-10)))
          CFI V3 load(1, XDATA, add(CFA_XSP16, literal(-9)))
          CFI V4 load(1, XDATA, add(CFA_XSP16, literal(-8)))
          CFI V5 load(1, XDATA, add(CFA_XSP16, literal(-7)))
          CFI R7 load(1, XDATA, add(CFA_XSP16, literal(-6)))
          CFI ?RET_LOW load(1, XDATA, add(CFA_XSP16, literal(-5)))
          CFI ?RET_HIGH load(1, XDATA, add(CFA_XSP16, literal(-4)))
          CFI ?BRET_EXT load(1, XDATA, add(CFA_XSP16, literal(-3)))
          CFI DPL0 load(1, XDATA, add(CFA_XSP16, literal(-2)))
          CFI DPH0 load(1, XDATA, add(CFA_XSP16, literal(-1)))
          CFI CFA_SP SP+-2
          CFI CFA_XSP16 add(XSP16, 14)
          CFI Block cfiCond71 Using cfiCommon0
          CFI (cfiCond71) Function ZDP_NodeDescMsg
          CFI (cfiCond71) Conditional ??CrossCallReturnLabel_157
          CFI (cfiCond71) R6 load(1, XDATA, add(CFA_XSP16, literal(-10)))
          CFI (cfiCond71) VB load(1, XDATA, add(CFA_XSP16, literal(-9)))
          CFI (cfiCond71) V0 load(1, XDATA, add(CFA_XSP16, literal(-8)))
          CFI (cfiCond71) V1 load(1, XDATA, add(CFA_XSP16, literal(-7)))
          CFI (cfiCond71) R7 load(1, XDATA, add(CFA_XSP16, literal(-6)))
          CFI (cfiCond71) ?RET_LOW load(1, XDATA, add(CFA_XSP16, literal(-5)))
          CFI (cfiCond71) ?RET_HIGH load(1, XDATA, add(CFA_XSP16, literal(-4)))
          CFI (cfiCond71) ?BRET_EXT load(1, XDATA, add(CFA_XSP16, literal(-3)))
          CFI (cfiCond71) DPL0 load(1, XDATA, add(CFA_XSP16, literal(-2)))
          CFI (cfiCond71) DPH0 load(1, XDATA, add(CFA_XSP16, literal(-1)))
          CFI (cfiCond71) CFA_SP SP+-2
          CFI (cfiCond71) CFA_XSP16 add(XSP16, 10)
          CFI Block cfiCond72 Using cfiCommon0
          CFI (cfiCond72) Function ZDP_NodeDescMsg
          CFI (cfiCond72) Conditional ??CrossCallReturnLabel_158
          CFI (cfiCond72) R6 load(1, XDATA, add(CFA_XSP16, literal(-10)))
          CFI (cfiCond72) VB load(1, XDATA, add(CFA_XSP16, literal(-9)))
          CFI (cfiCond72) V0 load(1, XDATA, add(CFA_XSP16, literal(-8)))
          CFI (cfiCond72) V1 load(1, XDATA, add(CFA_XSP16, literal(-7)))
          CFI (cfiCond72) R7 load(1, XDATA, add(CFA_XSP16, literal(-6)))
          CFI (cfiCond72) ?RET_LOW load(1, XDATA, add(CFA_XSP16, literal(-5)))
          CFI (cfiCond72) ?RET_HIGH load(1, XDATA, add(CFA_XSP16, literal(-4)))
          CFI (cfiCond72) ?BRET_EXT load(1, XDATA, add(CFA_XSP16, literal(-3)))
          CFI (cfiCond72) DPL0 load(1, XDATA, add(CFA_XSP16, literal(-2)))
          CFI (cfiCond72) DPH0 load(1, XDATA, add(CFA_XSP16, literal(-1)))
          CFI (cfiCond72) CFA_SP SP+-2
          CFI (cfiCond72) CFA_XSP16 add(XSP16, 10)
          CFI Block cfiPicker73 Using cfiCommon1
          CFI (cfiPicker73) NoFunction
          CFI (cfiPicker73) Picker
        LCALL     ?Subroutine82 & 0xFFFF
??CrossCallReturnLabel_223:
        INC       DPTR
        INC       DPTR
        RET
          CFI EndBlock cfiCond70
          CFI EndBlock cfiCond71
          CFI EndBlock cfiCond72
          CFI EndBlock cfiPicker73

        RSEG BANKED_CODE:HUGECODE:NOROOT(0)
?Subroutine25:
          CFI Block cfiCond74 Using cfiCommon0
          CFI Function ZDP_NodeDescMsg
          CFI Conditional ??CrossCallReturnLabel_35
          CFI R6 load(1, XDATA, add(CFA_XSP16, literal(-10)))
          CFI VB load(1, XDATA, add(CFA_XSP16, literal(-9)))
          CFI V0 load(1, XDATA, add(CFA_XSP16, literal(-8)))
          CFI V1 load(1, XDATA, add(CFA_XSP16, literal(-7)))
          CFI R7 load(1, XDATA, add(CFA_XSP16, literal(-6)))
          CFI ?RET_LOW load(1, XDATA, add(CFA_XSP16, literal(-5)))
          CFI ?RET_HIGH load(1, XDATA, add(CFA_XSP16, literal(-4)))
          CFI ?BRET_EXT load(1, XDATA, add(CFA_XSP16, literal(-3)))
          CFI DPL0 load(1, XDATA, add(CFA_XSP16, literal(-2)))
          CFI DPH0 load(1, XDATA, add(CFA_XSP16, literal(-1)))
          CFI CFA_SP SP+-2
          CFI CFA_XSP16 add(XSP16, 10)
          CFI Block cfiCond75 Using cfiCommon0
          CFI (cfiCond75) Function ZDP_NodeDescMsg
          CFI (cfiCond75) Conditional ??CrossCallReturnLabel_36
          CFI (cfiCond75) R6 load(1, XDATA, add(CFA_XSP16, literal(-10)))
          CFI (cfiCond75) VB load(1, XDATA, add(CFA_XSP16, literal(-9)))
          CFI (cfiCond75) V0 load(1, XDATA, add(CFA_XSP16, literal(-8)))
          CFI (cfiCond75) V1 load(1, XDATA, add(CFA_XSP16, literal(-7)))
          CFI (cfiCond75) R7 load(1, XDATA, add(CFA_XSP16, literal(-6)))
          CFI (cfiCond75) ?RET_LOW load(1, XDATA, add(CFA_XSP16, literal(-5)))
          CFI (cfiCond75) ?RET_HIGH load(1, XDATA, add(CFA_XSP16, literal(-4)))
          CFI (cfiCond75) ?BRET_EXT load(1, XDATA, add(CFA_XSP16, literal(-3)))
          CFI (cfiCond75) DPL0 load(1, XDATA, add(CFA_XSP16, literal(-2)))
          CFI (cfiCond75) DPH0 load(1, XDATA, add(CFA_XSP16, literal(-1)))
          CFI (cfiCond75) CFA_SP SP+-2
          CFI (cfiCond75) CFA_XSP16 add(XSP16, 10)
          CFI Block cfiPicker76 Using cfiCommon1
          CFI (cfiPicker76) NoFunction
          CFI (cfiPicker76) Picker
        INC       DPTR
        INC       DPTR
        INC       DPTR
        INC       DPTR
        INC       DPTR
        INC       DPTR
        INC       DPTR
        LCALL     ?Subroutine81 & 0xFFFF
??CrossCallReturnLabel_137:
        RET
          CFI EndBlock cfiCond74
          CFI EndBlock cfiCond75
          CFI EndBlock cfiPicker76

        RSEG BANKED_CODE:HUGECODE:NOROOT(0)
?Subroutine81:
          CFI Block cfiCond77 Using cfiCommon0
          CFI Function ZDP_NodeDescMsg
          CFI Conditional ??CrossCallReturnLabel_137, ??CrossCallReturnLabel_35
          CFI R6 load(1, XDATA, add(CFA_XSP16, literal(-10)))
          CFI VB load(1, XDATA, add(CFA_XSP16, literal(-9)))
          CFI V0 load(1, XDATA, add(CFA_XSP16, literal(-8)))
          CFI V1 load(1, XDATA, add(CFA_XSP16, literal(-7)))
          CFI R7 load(1, XDATA, add(CFA_XSP16, literal(-6)))
          CFI ?RET_LOW load(1, XDATA, add(CFA_XSP16, literal(-5)))
          CFI ?RET_HIGH load(1, XDATA, add(CFA_XSP16, literal(-4)))
          CFI ?BRET_EXT load(1, XDATA, add(CFA_XSP16, literal(-3)))
          CFI DPL0 load(1, XDATA, add(CFA_XSP16, literal(-2)))
          CFI DPH0 load(1, XDATA, add(CFA_XSP16, literal(-1)))
          CFI CFA_SP SP+-4
          CFI CFA_XSP16 add(XSP16, 10)
          CFI Block cfiCond78 Using cfiCommon0
          CFI (cfiCond78) Function ZDP_NodeDescMsg
          CFI (cfiCond78) Conditional ??CrossCallReturnLabel_137, ??CrossCallReturnLabel_36
          CFI (cfiCond78) R6 load(1, XDATA, add(CFA_XSP16, literal(-10)))
          CFI (cfiCond78) VB load(1, XDATA, add(CFA_XSP16, literal(-9)))
          CFI (cfiCond78) V0 load(1, XDATA, add(CFA_XSP16, literal(-8)))
          CFI (cfiCond78) V1 load(1, XDATA, add(CFA_XSP16, literal(-7)))
          CFI (cfiCond78) R7 load(1, XDATA, add(CFA_XSP16, literal(-6)))
          CFI (cfiCond78) ?RET_LOW load(1, XDATA, add(CFA_XSP16, literal(-5)))
          CFI (cfiCond78) ?RET_HIGH load(1, XDATA, add(CFA_XSP16, literal(-4)))
          CFI (cfiCond78) ?BRET_EXT load(1, XDATA, add(CFA_XSP16, literal(-3)))
          CFI (cfiCond78) DPL0 load(1, XDATA, add(CFA_XSP16, literal(-2)))
          CFI (cfiCond78) DPH0 load(1, XDATA, add(CFA_XSP16, literal(-1)))
          CFI (cfiCond78) CFA_SP SP+-4
          CFI (cfiCond78) CFA_XSP16 add(XSP16, 10)
          CFI Block cfiCond79 Using cfiCommon0
          CFI (cfiCond79) Function ZDP_NodeDescMsg
          CFI (cfiCond79) Conditional ??CrossCallReturnLabel_138, ??CrossCallReturnLabel_30
          CFI (cfiCond79) R6 load(1, XDATA, add(CFA_XSP16, literal(-10)))
          CFI (cfiCond79) VB load(1, XDATA, add(CFA_XSP16, literal(-9)))
          CFI (cfiCond79) V0 load(1, XDATA, add(CFA_XSP16, literal(-8)))
          CFI (cfiCond79) V1 load(1, XDATA, add(CFA_XSP16, literal(-7)))
          CFI (cfiCond79) R7 load(1, XDATA, add(CFA_XSP16, literal(-6)))
          CFI (cfiCond79) ?RET_LOW load(1, XDATA, add(CFA_XSP16, literal(-5)))
          CFI (cfiCond79) ?RET_HIGH load(1, XDATA, add(CFA_XSP16, literal(-4)))
          CFI (cfiCond79) ?BRET_EXT load(1, XDATA, add(CFA_XSP16, literal(-3)))
          CFI (cfiCond79) DPL0 load(1, XDATA, add(CFA_XSP16, literal(-2)))
          CFI (cfiCond79) DPH0 load(1, XDATA, add(CFA_XSP16, literal(-1)))
          CFI (cfiCond79) CFA_SP SP+-4
          CFI (cfiCond79) CFA_XSP16 add(XSP16, 10)
          CFI Block cfiCond80 Using cfiCommon0
          CFI (cfiCond80) Function ZDP_NodeDescMsg
          CFI (cfiCond80) Conditional ??CrossCallReturnLabel_138, ??CrossCallReturnLabel_31
          CFI (cfiCond80) R6 load(1, XDATA, add(CFA_XSP16, literal(-10)))
          CFI (cfiCond80) VB load(1, XDATA, add(CFA_XSP16, literal(-9)))
          CFI (cfiCond80) V0 load(1, XDATA, add(CFA_XSP16, literal(-8)))
          CFI (cfiCond80) V1 load(1, XDATA, add(CFA_XSP16, literal(-7)))
          CFI (cfiCond80) R7 load(1, XDATA, add(CFA_XSP16, literal(-6)))
          CFI (cfiCond80) ?RET_LOW load(1, XDATA, add(CFA_XSP16, literal(-5)))
          CFI (cfiCond80) ?RET_HIGH load(1, XDATA, add(CFA_XSP16, literal(-4)))
          CFI (cfiCond80) ?BRET_EXT load(1, XDATA, add(CFA_XSP16, literal(-3)))
          CFI (cfiCond80) DPL0 load(1, XDATA, add(CFA_XSP16, literal(-2)))
          CFI (cfiCond80) DPH0 load(1, XDATA, add(CFA_XSP16, literal(-1)))
          CFI (cfiCond80) CFA_SP SP+-4
          CFI (cfiCond80) CFA_XSP16 add(XSP16, 10)
          CFI Block cfiPicker81 Using cfiCommon1
          CFI (cfiPicker81) NoFunction
          CFI (cfiPicker81) Picker
        LCALL     ?Subroutine89 & 0xFFFF
??CrossCallReturnLabel_226:
        INC       DPTR
        INC       DPTR
        INC       DPTR
        INC       DPTR
        INC       DPTR
        RET
          CFI EndBlock cfiCond77
          CFI EndBlock cfiCond78
          CFI EndBlock cfiCond79
          CFI EndBlock cfiCond80
          CFI EndBlock cfiPicker81

        RSEG BANKED_CODE:HUGECODE:NOROOT(0)
?Subroutine23:
          CFI Block cfiCond82 Using cfiCommon0
          CFI Function ZDP_NodeDescMsg
          CFI Conditional ??CrossCallReturnLabel_30
          CFI R6 load(1, XDATA, add(CFA_XSP16, literal(-10)))
          CFI VB load(1, XDATA, add(CFA_XSP16, literal(-9)))
          CFI V0 load(1, XDATA, add(CFA_XSP16, literal(-8)))
          CFI V1 load(1, XDATA, add(CFA_XSP16, literal(-7)))
          CFI R7 load(1, XDATA, add(CFA_XSP16, literal(-6)))
          CFI ?RET_LOW load(1, XDATA, add(CFA_XSP16, literal(-5)))
          CFI ?RET_HIGH load(1, XDATA, add(CFA_XSP16, literal(-4)))
          CFI ?BRET_EXT load(1, XDATA, add(CFA_XSP16, literal(-3)))
          CFI DPL0 load(1, XDATA, add(CFA_XSP16, literal(-2)))
          CFI DPH0 load(1, XDATA, add(CFA_XSP16, literal(-1)))
          CFI CFA_SP SP+-2
          CFI CFA_XSP16 add(XSP16, 10)
          CFI Block cfiCond83 Using cfiCommon0
          CFI (cfiCond83) Function ZDP_NodeDescMsg
          CFI (cfiCond83) Conditional ??CrossCallReturnLabel_31
          CFI (cfiCond83) R6 load(1, XDATA, add(CFA_XSP16, literal(-10)))
          CFI (cfiCond83) VB load(1, XDATA, add(CFA_XSP16, literal(-9)))
          CFI (cfiCond83) V0 load(1, XDATA, add(CFA_XSP16, literal(-8)))
          CFI (cfiCond83) V1 load(1, XDATA, add(CFA_XSP16, literal(-7)))
          CFI (cfiCond83) R7 load(1, XDATA, add(CFA_XSP16, literal(-6)))
          CFI (cfiCond83) ?RET_LOW load(1, XDATA, add(CFA_XSP16, literal(-5)))
          CFI (cfiCond83) ?RET_HIGH load(1, XDATA, add(CFA_XSP16, literal(-4)))
          CFI (cfiCond83) ?BRET_EXT load(1, XDATA, add(CFA_XSP16, literal(-3)))
          CFI (cfiCond83) DPL0 load(1, XDATA, add(CFA_XSP16, literal(-2)))
          CFI (cfiCond83) DPH0 load(1, XDATA, add(CFA_XSP16, literal(-1)))
          CFI (cfiCond83) CFA_SP SP+-2
          CFI (cfiCond83) CFA_XSP16 add(XSP16, 10)
          CFI Block cfiPicker84 Using cfiCommon1
          CFI (cfiPicker84) NoFunction
          CFI (cfiPicker84) Picker
        LCALL     ?Subroutine81 & 0xFFFF
??CrossCallReturnLabel_138:
        INC       DPTR
        INC       DPTR
        RET
          CFI EndBlock cfiCond82
          CFI EndBlock cfiCond83
          CFI EndBlock cfiPicker84

        RSEG BANKED_CODE:HUGECODE:NOROOT(0)
?Subroutine8:
          CFI Block cfiBlock85 Using cfiCommon0
          CFI NoFunction
          CFI CFA_SP SP+0
          CFI CFA_XSP16 add(XSP16, 12)
          CFI VB load(1, XDATA, add(CFA_XSP16, literal(-9)))
          CFI DPL0 load(1, XDATA, add(CFA_XSP16, literal(-2)))
          CFI DPH0 load(1, XDATA, add(CFA_XSP16, literal(-1)))
          CFI R6 load(1, XDATA, add(CFA_XSP16, literal(-10)))
          CFI R7 load(1, XDATA, add(CFA_XSP16, literal(-6)))
          CFI V0 load(1, XDATA, add(CFA_XSP16, literal(-8)))
          CFI V1 load(1, XDATA, add(CFA_XSP16, literal(-7)))
          CFI ?BRET_EXT load(1, XDATA, add(CFA_XSP16, literal(-3)))
          CFI ?RET_HIGH load(1, XDATA, add(CFA_XSP16, literal(-4)))
          CFI ?RET_LOW load(1, XDATA, add(CFA_XSP16, literal(-5)))
        MOV       A,R2
        MOV       R4,A
        MOV       A,R3
        MOV       R5,A
        MOV       R2,#ZDP_TransID & 0xff
        MOV       R3,#(ZDP_TransID >> 8) & 0xff
          CFI EndBlock cfiBlock85
        REQUIRE ??Subroutine99_0
        ; // Fall through to label ??Subroutine99_0

        RSEG BANKED_CODE:HUGECODE:NOROOT(0)
??Subroutine99_0:
          CFI Block cfiBlock86 Using cfiCommon0
          CFI NoFunction
          CFI CFA_SP SP+0
          CFI CFA_XSP16 add(XSP16, 12)
          CFI VB load(1, XDATA, add(CFA_XSP16, literal(-9)))
          CFI DPL0 load(1, XDATA, add(CFA_XSP16, literal(-2)))
          CFI DPH0 load(1, XDATA, add(CFA_XSP16, literal(-1)))
          CFI R6 load(1, XDATA, add(CFA_XSP16, literal(-10)))
          CFI R7 load(1, XDATA, add(CFA_XSP16, literal(-6)))
          CFI V0 load(1, XDATA, add(CFA_XSP16, literal(-8)))
          CFI V1 load(1, XDATA, add(CFA_XSP16, literal(-7)))
          CFI ?BRET_EXT load(1, XDATA, add(CFA_XSP16, literal(-3)))
          CFI ?RET_HIGH load(1, XDATA, add(CFA_XSP16, literal(-4)))
          CFI ?RET_LOW load(1, XDATA, add(CFA_XSP16, literal(-5)))
        LCALL     `??fillAndSend::?relay`; Banked call to: fillAndSend
        MOV       A,#0x2
        LJMP      ??Subroutine95_0 & 0xFFFF
          CFI EndBlock cfiBlock86
//  890 
//  891 /*********************************************************************
//  892  * @fn          ZDP_PowerDescMsg
//  893  *
//  894  * @brief       Builds and sends a Power Descriptor message, unicast to the
//  895  *              specified device.
//  896  *
//  897  * @param       inMsg - incoming message (request)
//  898  * @param       nwkAddr - 16 bit network address for device
//  899  * @param       pPowerDesc - pointer to the node descriptor
//  900  *
//  901  * @return      afStatus_t
//  902  */

        RSEG BANKED_CODE:HUGECODE:NOROOT(0)
//  903 afStatus_t ZDP_PowerDescMsg( zdoIncomingMsg_t *inMsg,
ZDP_PowerDescMsg:
          CFI Block cfiBlock87 Using cfiCommon0
          CFI Function ZDP_PowerDescMsg
        CODE
//  904                      uint16 nwkAddr, NodePowerDescriptorFormat_t *pPowerDesc )
//  905 {
        FUNCALL ZDP_PowerDescMsg, fillAndSend
        LOCFRAME ISTACK, 0, STACK
        LOCFRAME PSTACK, 0, STACK
        LOCFRAME XSTACK, 12, STACK
        LOCFRAME IOVERLAY, 0, STATIC
        LOCFRAME DOVERLAY, 0, STATIC
        ARGFRAME ISTACK, 0, STACK
        ARGFRAME PSTACK, 0, STACK
        ARGFRAME XSTACK, 12, STACK
        ARGFRAME IOVERLAY, 0, STATIC
        ARGFRAME DOVERLAY, 0, STATIC
        REQUIRE ?V0
        REQUIRE ?V1
        MOV       A,#-0xa
        LCALL     ?BANKED_ENTER_XDATA
          CFI DPH0 load(1, XDATA, add(CFA_XSP16, literal(-1)))
          CFI DPL0 load(1, XDATA, add(CFA_XSP16, literal(-2)))
          CFI ?BRET_EXT load(1, XDATA, add(CFA_XSP16, literal(-3)))
          CFI ?RET_HIGH load(1, XDATA, add(CFA_XSP16, literal(-4)))
          CFI ?RET_LOW load(1, XDATA, add(CFA_XSP16, literal(-5)))
          CFI R7 load(1, XDATA, add(CFA_XSP16, literal(-6)))
          CFI V1 load(1, XDATA, add(CFA_XSP16, literal(-7)))
          CFI V0 load(1, XDATA, add(CFA_XSP16, literal(-8)))
          CFI VB load(1, XDATA, add(CFA_XSP16, literal(-9)))
          CFI R6 load(1, XDATA, add(CFA_XSP16, literal(-10)))
          CFI CFA_SP SP+0
          CFI CFA_XSP16 add(XSP16, 10)
        ; Saved register size: 10
        ; Auto size: 0
//  906   uint8 *pBuf = ZDP_TmpBuf;
        LCALL     ?Subroutine56 & 0xFFFF
??CrossCallReturnLabel_163:
        MOV       R6,A
        MOV       A,R1
        LCALL     ?Subroutine19 & 0xFFFF
//  907   byte len = 1 + 2 + 2;  // Status + nwkAddr + Node Power descriptor.
//  908 
//  909   *pBuf++ = ZDP_SUCCESS;
//  910 
//  911   *pBuf++ = LO_UINT16( nwkAddr );
//  912   *pBuf++ = HI_UINT16( nwkAddr );
??CrossCallReturnLabel_21:
        LCALL     ?XSTACK_DISP0_8
        LCALL     ?Subroutine42 & 0xFFFF
//  913 
//  914   *pBuf++ = (byte)((pPowerDesc->AvailablePowerSources << 4)
//  915                     | (pPowerDesc->PowerMode & 0x0F));
??CrossCallReturnLabel_62:
        MOV       DPL,R6
        MOV       DPH,R7
        INC       DPTR
        LCALL     ?Subroutine32 & 0xFFFF
//  916   *pBuf++ = (byte)((pPowerDesc->CurrentPowerSourceLevel << 4)
//  917                     | (pPowerDesc->CurrentPowerSource & 0x0F));
??CrossCallReturnLabel_168:
        MOV       ?V0,A
        INC       DPTR
        MOVX      A,@DPTR
        MOV       ?V1,A
        ANL       A,#0xf
        MOV       R1,A
        MOV       A,#0xc
        MOV       R0,#?V0
        LCALL     ?US_SHR
        MOV       A,?V0
        SWAP      A
        ORL       A,R1
        MOV       DPL,R6
        MOV       DPH,R7
        INC       DPTR
        INC       DPTR
        INC       DPTR
        INC       DPTR
        MOVX      @DPTR,A
//  918 
//  919   return fillAndSend( &(inMsg->TransSeq), &(inMsg->srcAddr), Power_Desc_rsp, len );
        ; Setup parameters for call to function fillAndSend
        MOV       ?V0,#0x3
        MOV       ?V1,#-0x80
        MOV       R0,#?V0
        LCALL     ?PUSH_XSTACK_I_TWO
          CFI CFA_XSP16 add(XSP16, 12)
        MOV       R1,#0x5
        LCALL     ?Subroutine68 & 0xFFFF
??CrossCallReturnLabel_121:
        JNC       ??ZDP_PowerDescMsg_0
        INC       R3
??ZDP_PowerDescMsg_0:
        SJMP      ??Subroutine99_0
//  920 }
          CFI EndBlock cfiBlock87

        RSEG BANKED_CODE:HUGECODE:NOROOT(0)
?Subroutine68:
          CFI Block cfiCond88 Using cfiCommon0
          CFI Function ZDP_NodeDescMsg
          CFI Conditional ??CrossCallReturnLabel_120
          CFI R6 load(1, XDATA, add(CFA_XSP16, literal(-10)))
          CFI VB load(1, XDATA, add(CFA_XSP16, literal(-9)))
          CFI V0 load(1, XDATA, add(CFA_XSP16, literal(-8)))
          CFI V1 load(1, XDATA, add(CFA_XSP16, literal(-7)))
          CFI R7 load(1, XDATA, add(CFA_XSP16, literal(-6)))
          CFI ?RET_LOW load(1, XDATA, add(CFA_XSP16, literal(-5)))
          CFI ?RET_HIGH load(1, XDATA, add(CFA_XSP16, literal(-4)))
          CFI ?BRET_EXT load(1, XDATA, add(CFA_XSP16, literal(-3)))
          CFI DPL0 load(1, XDATA, add(CFA_XSP16, literal(-2)))
          CFI DPH0 load(1, XDATA, add(CFA_XSP16, literal(-1)))
          CFI CFA_SP SP+-2
          CFI CFA_XSP16 add(XSP16, 12)
          CFI Block cfiCond89 Using cfiCommon0
          CFI (cfiCond89) Function ZDP_PowerDescMsg
          CFI (cfiCond89) Conditional ??CrossCallReturnLabel_121
          CFI (cfiCond89) R6 load(1, XDATA, add(CFA_XSP16, literal(-10)))
          CFI (cfiCond89) VB load(1, XDATA, add(CFA_XSP16, literal(-9)))
          CFI (cfiCond89) V0 load(1, XDATA, add(CFA_XSP16, literal(-8)))
          CFI (cfiCond89) V1 load(1, XDATA, add(CFA_XSP16, literal(-7)))
          CFI (cfiCond89) R7 load(1, XDATA, add(CFA_XSP16, literal(-6)))
          CFI (cfiCond89) ?RET_LOW load(1, XDATA, add(CFA_XSP16, literal(-5)))
          CFI (cfiCond89) ?RET_HIGH load(1, XDATA, add(CFA_XSP16, literal(-4)))
          CFI (cfiCond89) ?BRET_EXT load(1, XDATA, add(CFA_XSP16, literal(-3)))
          CFI (cfiCond89) DPL0 load(1, XDATA, add(CFA_XSP16, literal(-2)))
          CFI (cfiCond89) DPH0 load(1, XDATA, add(CFA_XSP16, literal(-1)))
          CFI (cfiCond89) CFA_SP SP+-2
          CFI (cfiCond89) CFA_XSP16 add(XSP16, 12)
          CFI Block cfiPicker90 Using cfiCommon1
          CFI (cfiPicker90) NoFunction
          CFI (cfiPicker90) Picker
        MOV       A,R2
        ADD       A,#0x2
        MOV       R4,A
        CLR       A
        ADDC      A,R3
        MOV       R5,A
        MOV       A,R2
        ADD       A,#0xf
        MOV       R2,A
        RET
          CFI EndBlock cfiCond88
          CFI EndBlock cfiCond89
          CFI EndBlock cfiPicker90

        RSEG BANKED_CODE:HUGECODE:NOROOT(0)
?Subroutine56:
          CFI Block cfiCond91 Using cfiCommon0
          CFI Function ZDP_PowerDescMsg
          CFI Conditional ??CrossCallReturnLabel_163
          CFI R6 load(1, XDATA, add(CFA_XSP16, literal(-10)))
          CFI VB load(1, XDATA, add(CFA_XSP16, literal(-9)))
          CFI V0 load(1, XDATA, add(CFA_XSP16, literal(-8)))
          CFI V1 load(1, XDATA, add(CFA_XSP16, literal(-7)))
          CFI R7 load(1, XDATA, add(CFA_XSP16, literal(-6)))
          CFI ?RET_LOW load(1, XDATA, add(CFA_XSP16, literal(-5)))
          CFI ?RET_HIGH load(1, XDATA, add(CFA_XSP16, literal(-4)))
          CFI ?BRET_EXT load(1, XDATA, add(CFA_XSP16, literal(-3)))
          CFI DPL0 load(1, XDATA, add(CFA_XSP16, literal(-2)))
          CFI DPH0 load(1, XDATA, add(CFA_XSP16, literal(-1)))
          CFI CFA_SP SP+-2
          CFI CFA_XSP16 add(XSP16, 10)
          CFI Block cfiCond92 Using cfiCommon0
          CFI (cfiCond92) Function ZDP_ServerDiscRsp
          CFI (cfiCond92) Conditional ??CrossCallReturnLabel_164
          CFI (cfiCond92) R6 load(1, XDATA, add(CFA_XSP16, literal(-10)))
          CFI (cfiCond92) VB load(1, XDATA, add(CFA_XSP16, literal(-9)))
          CFI (cfiCond92) V0 load(1, XDATA, add(CFA_XSP16, literal(-8)))
          CFI (cfiCond92) V1 load(1, XDATA, add(CFA_XSP16, literal(-7)))
          CFI (cfiCond92) R7 load(1, XDATA, add(CFA_XSP16, literal(-6)))
          CFI (cfiCond92) ?RET_LOW load(1, XDATA, add(CFA_XSP16, literal(-5)))
          CFI (cfiCond92) ?RET_HIGH load(1, XDATA, add(CFA_XSP16, literal(-4)))
          CFI (cfiCond92) ?BRET_EXT load(1, XDATA, add(CFA_XSP16, literal(-3)))
          CFI (cfiCond92) DPL0 load(1, XDATA, add(CFA_XSP16, literal(-2)))
          CFI (cfiCond92) DPH0 load(1, XDATA, add(CFA_XSP16, literal(-1)))
          CFI (cfiCond92) CFA_SP SP+-2
          CFI (cfiCond92) CFA_XSP16 add(XSP16, 11)
          CFI Block cfiPicker93 Using cfiCommon1
          CFI (cfiPicker93) NoFunction
          CFI (cfiPicker93) Picker
        MOV       DPTR,#ZDP_TmpBuf
          CFI EndBlock cfiCond91
          CFI EndBlock cfiCond92
          CFI EndBlock cfiPicker93
        REQUIRE ??Subroutine100_0
        ; // Fall through to label ??Subroutine100_0

        RSEG BANKED_CODE:HUGECODE:NOROOT(0)
??Subroutine100_0:
          CFI Block cfiCond94 Using cfiCommon0
          CFI Function zdpProcessAddrReq
          CFI Conditional ??CrossCallReturnLabel_161
          CFI R6 load(1, XDATA, add(CFA_XSP16, literal(-20)))
          CFI VB load(1, XDATA, add(CFA_XSP16, literal(-19)))
          CFI V0 load(1, XDATA, add(CFA_XSP16, literal(-18)))
          CFI V1 load(1, XDATA, add(CFA_XSP16, literal(-17)))
          CFI V2 load(1, XDATA, add(CFA_XSP16, literal(-16)))
          CFI V3 load(1, XDATA, add(CFA_XSP16, literal(-15)))
          CFI V4 load(1, XDATA, add(CFA_XSP16, literal(-14)))
          CFI V5 load(1, XDATA, add(CFA_XSP16, literal(-13)))
          CFI V6 load(1, XDATA, add(CFA_XSP16, literal(-12)))
          CFI V7 load(1, XDATA, add(CFA_XSP16, literal(-11)))
          CFI V8 load(1, XDATA, add(CFA_XSP16, literal(-10)))
          CFI V9 load(1, XDATA, add(CFA_XSP16, literal(-9)))
          CFI V10 load(1, XDATA, add(CFA_XSP16, literal(-8)))
          CFI V11 load(1, XDATA, add(CFA_XSP16, literal(-7)))
          CFI R7 load(1, XDATA, add(CFA_XSP16, literal(-6)))
          CFI ?RET_LOW load(1, XDATA, add(CFA_XSP16, literal(-5)))
          CFI ?RET_HIGH load(1, XDATA, add(CFA_XSP16, literal(-4)))
          CFI ?BRET_EXT load(1, XDATA, add(CFA_XSP16, literal(-3)))
          CFI DPL0 load(1, XDATA, add(CFA_XSP16, literal(-2)))
          CFI DPH0 load(1, XDATA, add(CFA_XSP16, literal(-1)))
          CFI CFA_SP SP+-2
          CFI CFA_XSP16 add(XSP16, 28)
          CFI Block cfiCond95 Using cfiCommon0
          CFI (cfiCond95) Function zdpProcessAddrReq
          CFI (cfiCond95) Conditional ??CrossCallReturnLabel_162
          CFI (cfiCond95) R6 load(1, XDATA, add(CFA_XSP16, literal(-20)))
          CFI (cfiCond95) VB load(1, XDATA, add(CFA_XSP16, literal(-19)))
          CFI (cfiCond95) V0 load(1, XDATA, add(CFA_XSP16, literal(-18)))
          CFI (cfiCond95) V1 load(1, XDATA, add(CFA_XSP16, literal(-17)))
          CFI (cfiCond95) V2 load(1, XDATA, add(CFA_XSP16, literal(-16)))
          CFI (cfiCond95) V3 load(1, XDATA, add(CFA_XSP16, literal(-15)))
          CFI (cfiCond95) V4 load(1, XDATA, add(CFA_XSP16, literal(-14)))
          CFI (cfiCond95) V5 load(1, XDATA, add(CFA_XSP16, literal(-13)))
          CFI (cfiCond95) V6 load(1, XDATA, add(CFA_XSP16, literal(-12)))
          CFI (cfiCond95) V7 load(1, XDATA, add(CFA_XSP16, literal(-11)))
          CFI (cfiCond95) V8 load(1, XDATA, add(CFA_XSP16, literal(-10)))
          CFI (cfiCond95) V9 load(1, XDATA, add(CFA_XSP16, literal(-9)))
          CFI (cfiCond95) V10 load(1, XDATA, add(CFA_XSP16, literal(-8)))
          CFI (cfiCond95) V11 load(1, XDATA, add(CFA_XSP16, literal(-7)))
          CFI (cfiCond95) R7 load(1, XDATA, add(CFA_XSP16, literal(-6)))
          CFI (cfiCond95) ?RET_LOW load(1, XDATA, add(CFA_XSP16, literal(-5)))
          CFI (cfiCond95) ?RET_HIGH load(1, XDATA, add(CFA_XSP16, literal(-4)))
          CFI (cfiCond95) ?BRET_EXT load(1, XDATA, add(CFA_XSP16, literal(-3)))
          CFI (cfiCond95) DPL0 load(1, XDATA, add(CFA_XSP16, literal(-2)))
          CFI (cfiCond95) DPH0 load(1, XDATA, add(CFA_XSP16, literal(-1)))
          CFI (cfiCond95) CFA_SP SP+-2
          CFI (cfiCond95) CFA_XSP16 add(XSP16, 28)
          CFI Block cfiCond96 Using cfiCommon0
          CFI (cfiCond96) Function ZDO_RemoveRegisteredCB
          CFI (cfiCond96) Conditional ??CrossCallReturnLabel_160
          CFI (cfiCond96) R6 load(1, XDATA, add(CFA_XSP16, literal(-9)))
          CFI (cfiCond96) VB load(1, XDATA, add(CFA_XSP16, literal(-8)))
          CFI (cfiCond96) V0 load(1, XDATA, add(CFA_XSP16, literal(-7)))
          CFI (cfiCond96) R7 load(1, XDATA, add(CFA_XSP16, literal(-6)))
          CFI (cfiCond96) ?RET_LOW load(1, XDATA, add(CFA_XSP16, literal(-5)))
          CFI (cfiCond96) ?RET_HIGH load(1, XDATA, add(CFA_XSP16, literal(-4)))
          CFI (cfiCond96) ?BRET_EXT load(1, XDATA, add(CFA_XSP16, literal(-3)))
          CFI (cfiCond96) DPL0 load(1, XDATA, add(CFA_XSP16, literal(-2)))
          CFI (cfiCond96) DPH0 load(1, XDATA, add(CFA_XSP16, literal(-1)))
          CFI (cfiCond96) CFA_SP SP+-2
          CFI (cfiCond96) CFA_XSP16 add(XSP16, 9)
          CFI Block cfiCond97 Using cfiCommon0
          CFI (cfiCond97) Function ZDP_PowerDescMsg
          CFI (cfiCond97) Conditional ??CrossCallReturnLabel_163
          CFI (cfiCond97) R6 load(1, XDATA, add(CFA_XSP16, literal(-10)))
          CFI (cfiCond97) VB load(1, XDATA, add(CFA_XSP16, literal(-9)))
          CFI (cfiCond97) V0 load(1, XDATA, add(CFA_XSP16, literal(-8)))
          CFI (cfiCond97) V1 load(1, XDATA, add(CFA_XSP16, literal(-7)))
          CFI (cfiCond97) R7 load(1, XDATA, add(CFA_XSP16, literal(-6)))
          CFI (cfiCond97) ?RET_LOW load(1, XDATA, add(CFA_XSP16, literal(-5)))
          CFI (cfiCond97) ?RET_HIGH load(1, XDATA, add(CFA_XSP16, literal(-4)))
          CFI (cfiCond97) ?BRET_EXT load(1, XDATA, add(CFA_XSP16, literal(-3)))
          CFI (cfiCond97) DPL0 load(1, XDATA, add(CFA_XSP16, literal(-2)))
          CFI (cfiCond97) DPH0 load(1, XDATA, add(CFA_XSP16, literal(-1)))
          CFI (cfiCond97) CFA_SP SP+-2
          CFI (cfiCond97) CFA_XSP16 add(XSP16, 10)
          CFI Block cfiCond98 Using cfiCommon0
          CFI (cfiCond98) Function ZDP_ServerDiscRsp
          CFI (cfiCond98) Conditional ??CrossCallReturnLabel_164
          CFI (cfiCond98) R6 load(1, XDATA, add(CFA_XSP16, literal(-10)))
          CFI (cfiCond98) VB load(1, XDATA, add(CFA_XSP16, literal(-9)))
          CFI (cfiCond98) V0 load(1, XDATA, add(CFA_XSP16, literal(-8)))
          CFI (cfiCond98) V1 load(1, XDATA, add(CFA_XSP16, literal(-7)))
          CFI (cfiCond98) R7 load(1, XDATA, add(CFA_XSP16, literal(-6)))
          CFI (cfiCond98) ?RET_LOW load(1, XDATA, add(CFA_XSP16, literal(-5)))
          CFI (cfiCond98) ?RET_HIGH load(1, XDATA, add(CFA_XSP16, literal(-4)))
          CFI (cfiCond98) ?BRET_EXT load(1, XDATA, add(CFA_XSP16, literal(-3)))
          CFI (cfiCond98) DPL0 load(1, XDATA, add(CFA_XSP16, literal(-2)))
          CFI (cfiCond98) DPH0 load(1, XDATA, add(CFA_XSP16, literal(-1)))
          CFI (cfiCond98) CFA_SP SP+-2
          CFI (cfiCond98) CFA_XSP16 add(XSP16, 11)
          CFI Block cfiPicker99 Using cfiCommon1
          CFI (cfiPicker99) NoFunction
          CFI (cfiPicker99) Picker
        LCALL     ?Subroutine75 & 0xFFFF
??CrossCallReturnLabel_165:
        RET
          CFI EndBlock cfiCond94
          CFI EndBlock cfiCond95
          CFI EndBlock cfiCond96
          CFI EndBlock cfiCond97
          CFI EndBlock cfiCond98
          CFI EndBlock cfiPicker99

        RSEG BANKED_CODE:HUGECODE:NOROOT(0)
?Subroutine75:
          CFI Block cfiCond100 Using cfiCommon0
          CFI Function ZDP_PowerDescMsg
          CFI Conditional ??CrossCallReturnLabel_165, ??CrossCallReturnLabel_163
          CFI R6 load(1, XDATA, add(CFA_XSP16, literal(-10)))
          CFI VB load(1, XDATA, add(CFA_XSP16, literal(-9)))
          CFI V0 load(1, XDATA, add(CFA_XSP16, literal(-8)))
          CFI V1 load(1, XDATA, add(CFA_XSP16, literal(-7)))
          CFI R7 load(1, XDATA, add(CFA_XSP16, literal(-6)))
          CFI ?RET_LOW load(1, XDATA, add(CFA_XSP16, literal(-5)))
          CFI ?RET_HIGH load(1, XDATA, add(CFA_XSP16, literal(-4)))
          CFI ?BRET_EXT load(1, XDATA, add(CFA_XSP16, literal(-3)))
          CFI DPL0 load(1, XDATA, add(CFA_XSP16, literal(-2)))
          CFI DPH0 load(1, XDATA, add(CFA_XSP16, literal(-1)))
          CFI CFA_SP SP+-4
          CFI CFA_XSP16 add(XSP16, 10)
          CFI Block cfiCond101 Using cfiCommon0
          CFI (cfiCond101) Function ZDP_ServerDiscRsp
          CFI (cfiCond101) Conditional ??CrossCallReturnLabel_165, ??CrossCallReturnLabel_164
          CFI (cfiCond101) R6 load(1, XDATA, add(CFA_XSP16, literal(-10)))
          CFI (cfiCond101) VB load(1, XDATA, add(CFA_XSP16, literal(-9)))
          CFI (cfiCond101) V0 load(1, XDATA, add(CFA_XSP16, literal(-8)))
          CFI (cfiCond101) V1 load(1, XDATA, add(CFA_XSP16, literal(-7)))
          CFI (cfiCond101) R7 load(1, XDATA, add(CFA_XSP16, literal(-6)))
          CFI (cfiCond101) ?RET_LOW load(1, XDATA, add(CFA_XSP16, literal(-5)))
          CFI (cfiCond101) ?RET_HIGH load(1, XDATA, add(CFA_XSP16, literal(-4)))
          CFI (cfiCond101) ?BRET_EXT load(1, XDATA, add(CFA_XSP16, literal(-3)))
          CFI (cfiCond101) DPL0 load(1, XDATA, add(CFA_XSP16, literal(-2)))
          CFI (cfiCond101) DPH0 load(1, XDATA, add(CFA_XSP16, literal(-1)))
          CFI (cfiCond101) CFA_SP SP+-4
          CFI (cfiCond101) CFA_XSP16 add(XSP16, 11)
          CFI Block cfiCond102 Using cfiCommon0
          CFI (cfiCond102) Function zdpProcessAddrReq
          CFI (cfiCond102) Conditional ??CrossCallReturnLabel_165, ??CrossCallReturnLabel_161
          CFI (cfiCond102) R6 load(1, XDATA, add(CFA_XSP16, literal(-20)))
          CFI (cfiCond102) VB load(1, XDATA, add(CFA_XSP16, literal(-19)))
          CFI (cfiCond102) V0 load(1, XDATA, add(CFA_XSP16, literal(-18)))
          CFI (cfiCond102) V1 load(1, XDATA, add(CFA_XSP16, literal(-17)))
          CFI (cfiCond102) V2 load(1, XDATA, add(CFA_XSP16, literal(-16)))
          CFI (cfiCond102) V3 load(1, XDATA, add(CFA_XSP16, literal(-15)))
          CFI (cfiCond102) V4 load(1, XDATA, add(CFA_XSP16, literal(-14)))
          CFI (cfiCond102) V5 load(1, XDATA, add(CFA_XSP16, literal(-13)))
          CFI (cfiCond102) V6 load(1, XDATA, add(CFA_XSP16, literal(-12)))
          CFI (cfiCond102) V7 load(1, XDATA, add(CFA_XSP16, literal(-11)))
          CFI (cfiCond102) V8 load(1, XDATA, add(CFA_XSP16, literal(-10)))
          CFI (cfiCond102) V9 load(1, XDATA, add(CFA_XSP16, literal(-9)))
          CFI (cfiCond102) V10 load(1, XDATA, add(CFA_XSP16, literal(-8)))
          CFI (cfiCond102) V11 load(1, XDATA, add(CFA_XSP16, literal(-7)))
          CFI (cfiCond102) R7 load(1, XDATA, add(CFA_XSP16, literal(-6)))
          CFI (cfiCond102) ?RET_LOW load(1, XDATA, add(CFA_XSP16, literal(-5)))
          CFI (cfiCond102) ?RET_HIGH load(1, XDATA, add(CFA_XSP16, literal(-4)))
          CFI (cfiCond102) ?BRET_EXT load(1, XDATA, add(CFA_XSP16, literal(-3)))
          CFI (cfiCond102) DPL0 load(1, XDATA, add(CFA_XSP16, literal(-2)))
          CFI (cfiCond102) DPH0 load(1, XDATA, add(CFA_XSP16, literal(-1)))
          CFI (cfiCond102) CFA_SP SP+-4
          CFI (cfiCond102) CFA_XSP16 add(XSP16, 28)
          CFI Block cfiCond103 Using cfiCommon0
          CFI (cfiCond103) Function zdpProcessAddrReq
          CFI (cfiCond103) Conditional ??CrossCallReturnLabel_165, ??CrossCallReturnLabel_162
          CFI (cfiCond103) R6 load(1, XDATA, add(CFA_XSP16, literal(-20)))
          CFI (cfiCond103) VB load(1, XDATA, add(CFA_XSP16, literal(-19)))
          CFI (cfiCond103) V0 load(1, XDATA, add(CFA_XSP16, literal(-18)))
          CFI (cfiCond103) V1 load(1, XDATA, add(CFA_XSP16, literal(-17)))
          CFI (cfiCond103) V2 load(1, XDATA, add(CFA_XSP16, literal(-16)))
          CFI (cfiCond103) V3 load(1, XDATA, add(CFA_XSP16, literal(-15)))
          CFI (cfiCond103) V4 load(1, XDATA, add(CFA_XSP16, literal(-14)))
          CFI (cfiCond103) V5 load(1, XDATA, add(CFA_XSP16, literal(-13)))
          CFI (cfiCond103) V6 load(1, XDATA, add(CFA_XSP16, literal(-12)))
          CFI (cfiCond103) V7 load(1, XDATA, add(CFA_XSP16, literal(-11)))
          CFI (cfiCond103) V8 load(1, XDATA, add(CFA_XSP16, literal(-10)))
          CFI (cfiCond103) V9 load(1, XDATA, add(CFA_XSP16, literal(-9)))
          CFI (cfiCond103) V10 load(1, XDATA, add(CFA_XSP16, literal(-8)))
          CFI (cfiCond103) V11 load(1, XDATA, add(CFA_XSP16, literal(-7)))
          CFI (cfiCond103) R7 load(1, XDATA, add(CFA_XSP16, literal(-6)))
          CFI (cfiCond103) ?RET_LOW load(1, XDATA, add(CFA_XSP16, literal(-5)))
          CFI (cfiCond103) ?RET_HIGH load(1, XDATA, add(CFA_XSP16, literal(-4)))
          CFI (cfiCond103) ?BRET_EXT load(1, XDATA, add(CFA_XSP16, literal(-3)))
          CFI (cfiCond103) DPL0 load(1, XDATA, add(CFA_XSP16, literal(-2)))
          CFI (cfiCond103) DPH0 load(1, XDATA, add(CFA_XSP16, literal(-1)))
          CFI (cfiCond103) CFA_SP SP+-4
          CFI (cfiCond103) CFA_XSP16 add(XSP16, 28)
          CFI Block cfiCond104 Using cfiCommon0
          CFI (cfiCond104) Function ZDO_RemoveRegisteredCB
          CFI (cfiCond104) Conditional ??CrossCallReturnLabel_165, ??CrossCallReturnLabel_160
          CFI (cfiCond104) R6 load(1, XDATA, add(CFA_XSP16, literal(-9)))
          CFI (cfiCond104) VB load(1, XDATA, add(CFA_XSP16, literal(-8)))
          CFI (cfiCond104) V0 load(1, XDATA, add(CFA_XSP16, literal(-7)))
          CFI (cfiCond104) R7 load(1, XDATA, add(CFA_XSP16, literal(-6)))
          CFI (cfiCond104) ?RET_LOW load(1, XDATA, add(CFA_XSP16, literal(-5)))
          CFI (cfiCond104) ?RET_HIGH load(1, XDATA, add(CFA_XSP16, literal(-4)))
          CFI (cfiCond104) ?BRET_EXT load(1, XDATA, add(CFA_XSP16, literal(-3)))
          CFI (cfiCond104) DPL0 load(1, XDATA, add(CFA_XSP16, literal(-2)))
          CFI (cfiCond104) DPH0 load(1, XDATA, add(CFA_XSP16, literal(-1)))
          CFI (cfiCond104) CFA_SP SP+-4
          CFI (cfiCond104) CFA_XSP16 add(XSP16, 9)
          CFI Block cfiCond105 Using cfiCommon0
          CFI (cfiCond105) Function ZDP_EPRsp
          CFI (cfiCond105) Conditional ??CrossCallReturnLabel_167, ??CrossCallReturnLabel_96
          CFI (cfiCond105) R6 load(1, XDATA, add(CFA_XSP16, literal(-15)))
          CFI (cfiCond105) VB load(1, XDATA, add(CFA_XSP16, literal(-14)))
          CFI (cfiCond105) V0 load(1, XDATA, add(CFA_XSP16, literal(-13)))
          CFI (cfiCond105) V1 load(1, XDATA, add(CFA_XSP16, literal(-12)))
          CFI (cfiCond105) V2 load(1, XDATA, add(CFA_XSP16, literal(-11)))
          CFI (cfiCond105) V3 load(1, XDATA, add(CFA_XSP16, literal(-10)))
          CFI (cfiCond105) V4 load(1, XDATA, add(CFA_XSP16, literal(-9)))
          CFI (cfiCond105) V5 load(1, XDATA, add(CFA_XSP16, literal(-8)))
          CFI (cfiCond105) V6 load(1, XDATA, add(CFA_XSP16, literal(-7)))
          CFI (cfiCond105) R7 load(1, XDATA, add(CFA_XSP16, literal(-6)))
          CFI (cfiCond105) ?RET_LOW load(1, XDATA, add(CFA_XSP16, literal(-5)))
          CFI (cfiCond105) ?RET_HIGH load(1, XDATA, add(CFA_XSP16, literal(-4)))
          CFI (cfiCond105) ?BRET_EXT load(1, XDATA, add(CFA_XSP16, literal(-3)))
          CFI (cfiCond105) DPL0 load(1, XDATA, add(CFA_XSP16, literal(-2)))
          CFI (cfiCond105) DPH0 load(1, XDATA, add(CFA_XSP16, literal(-1)))
          CFI (cfiCond105) CFA_SP SP+-4
          CFI (cfiCond105) CFA_XSP16 add(XSP16, 16)
          CFI Block cfiCond106 Using cfiCommon0
          CFI (cfiCond106) Function ZDP_EndDeviceBindReq
          CFI (cfiCond106) Conditional ??CrossCallReturnLabel_167, ??CrossCallReturnLabel_97
          CFI (cfiCond106) R6 load(1, XDATA, add(CFA_XSP16, literal(-18)))
          CFI (cfiCond106) VB load(1, XDATA, add(CFA_XSP16, literal(-17)))
          CFI (cfiCond106) V0 load(1, XDATA, add(CFA_XSP16, literal(-16)))
          CFI (cfiCond106) V1 load(1, XDATA, add(CFA_XSP16, literal(-15)))
          CFI (cfiCond106) V2 load(1, XDATA, add(CFA_XSP16, literal(-14)))
          CFI (cfiCond106) V3 load(1, XDATA, add(CFA_XSP16, literal(-13)))
          CFI (cfiCond106) V4 load(1, XDATA, add(CFA_XSP16, literal(-12)))
          CFI (cfiCond106) V5 load(1, XDATA, add(CFA_XSP16, literal(-11)))
          CFI (cfiCond106) V6 load(1, XDATA, add(CFA_XSP16, literal(-10)))
          CFI (cfiCond106) V7 load(1, XDATA, add(CFA_XSP16, literal(-9)))
          CFI (cfiCond106) V8 load(1, XDATA, add(CFA_XSP16, literal(-8)))
          CFI (cfiCond106) V9 load(1, XDATA, add(CFA_XSP16, literal(-7)))
          CFI (cfiCond106) R7 load(1, XDATA, add(CFA_XSP16, literal(-6)))
          CFI (cfiCond106) ?RET_LOW load(1, XDATA, add(CFA_XSP16, literal(-5)))
          CFI (cfiCond106) ?RET_HIGH load(1, XDATA, add(CFA_XSP16, literal(-4)))
          CFI (cfiCond106) ?BRET_EXT load(1, XDATA, add(CFA_XSP16, literal(-3)))
          CFI (cfiCond106) DPL0 load(1, XDATA, add(CFA_XSP16, literal(-2)))
          CFI (cfiCond106) DPH0 load(1, XDATA, add(CFA_XSP16, literal(-1)))
          CFI (cfiCond106) CFA_SP SP+-4
          CFI (cfiCond106) CFA_XSP16 add(XSP16, 18)
          CFI Block cfiCond107 Using cfiCommon0
          CFI (cfiCond107) Function ZDP_ServerDiscRsp
          CFI (cfiCond107) Conditional ??CrossCallReturnLabel_166, ??CrossCallReturnLabel_90
          CFI (cfiCond107) R6 load(1, XDATA, add(CFA_XSP16, literal(-10)))
          CFI (cfiCond107) VB load(1, XDATA, add(CFA_XSP16, literal(-9)))
          CFI (cfiCond107) V0 load(1, XDATA, add(CFA_XSP16, literal(-8)))
          CFI (cfiCond107) V1 load(1, XDATA, add(CFA_XSP16, literal(-7)))
          CFI (cfiCond107) R7 load(1, XDATA, add(CFA_XSP16, literal(-6)))
          CFI (cfiCond107) ?RET_LOW load(1, XDATA, add(CFA_XSP16, literal(-5)))
          CFI (cfiCond107) ?RET_HIGH load(1, XDATA, add(CFA_XSP16, literal(-4)))
          CFI (cfiCond107) ?BRET_EXT load(1, XDATA, add(CFA_XSP16, literal(-3)))
          CFI (cfiCond107) DPL0 load(1, XDATA, add(CFA_XSP16, literal(-2)))
          CFI (cfiCond107) DPH0 load(1, XDATA, add(CFA_XSP16, literal(-1)))
          CFI (cfiCond107) CFA_SP SP+-4
          CFI (cfiCond107) CFA_XSP16 add(XSP16, 11)
          CFI Block cfiCond108 Using cfiCommon0
          CFI (cfiCond108) Function ZDP_MgmtNwkUpdateReq
          CFI (cfiCond108) Conditional ??CrossCallReturnLabel_166, ??CrossCallReturnLabel_91
          CFI (cfiCond108) R6 load(1, XDATA, add(CFA_XSP16, literal(-14)))
          CFI (cfiCond108) VB load(1, XDATA, add(CFA_XSP16, literal(-13)))
          CFI (cfiCond108) V0 load(1, XDATA, add(CFA_XSP16, literal(-12)))
          CFI (cfiCond108) V1 load(1, XDATA, add(CFA_XSP16, literal(-11)))
          CFI (cfiCond108) V2 load(1, XDATA, add(CFA_XSP16, literal(-10)))
          CFI (cfiCond108) V3 load(1, XDATA, add(CFA_XSP16, literal(-9)))
          CFI (cfiCond108) V4 load(1, XDATA, add(CFA_XSP16, literal(-8)))
          CFI (cfiCond108) V5 load(1, XDATA, add(CFA_XSP16, literal(-7)))
          CFI (cfiCond108) R7 load(1, XDATA, add(CFA_XSP16, literal(-6)))
          CFI (cfiCond108) ?RET_LOW load(1, XDATA, add(CFA_XSP16, literal(-5)))
          CFI (cfiCond108) ?RET_HIGH load(1, XDATA, add(CFA_XSP16, literal(-4)))
          CFI (cfiCond108) ?BRET_EXT load(1, XDATA, add(CFA_XSP16, literal(-3)))
          CFI (cfiCond108) DPL0 load(1, XDATA, add(CFA_XSP16, literal(-2)))
          CFI (cfiCond108) DPH0 load(1, XDATA, add(CFA_XSP16, literal(-1)))
          CFI (cfiCond108) CFA_SP SP+-4
          CFI (cfiCond108) CFA_XSP16 add(XSP16, 14)
          CFI Block cfiPicker109 Using cfiCommon1
          CFI (cfiPicker109) NoFunction
          CFI (cfiPicker109) Picker
        MOVX      A,@DPTR
        MOV       R0,A
        INC       DPTR
        MOVX      A,@DPTR
        MOV       R1,A
        MOV       A,R0
        RET
          CFI EndBlock cfiCond100
          CFI EndBlock cfiCond101
          CFI EndBlock cfiCond102
          CFI EndBlock cfiCond103
          CFI EndBlock cfiCond104
          CFI EndBlock cfiCond105
          CFI EndBlock cfiCond106
          CFI EndBlock cfiCond107
          CFI EndBlock cfiCond108
          CFI EndBlock cfiPicker109

        RSEG BANKED_CODE:HUGECODE:NOROOT(0)
?Subroutine32:
          CFI Block cfiCond110 Using cfiCommon0
          CFI Function ZDP_PowerDescMsg
          CFI Conditional ??CrossCallReturnLabel_168
          CFI R6 load(1, XDATA, add(CFA_XSP16, literal(-10)))
          CFI VB load(1, XDATA, add(CFA_XSP16, literal(-9)))
          CFI V0 load(1, XDATA, add(CFA_XSP16, literal(-8)))
          CFI V1 load(1, XDATA, add(CFA_XSP16, literal(-7)))
          CFI R7 load(1, XDATA, add(CFA_XSP16, literal(-6)))
          CFI ?RET_LOW load(1, XDATA, add(CFA_XSP16, literal(-5)))
          CFI ?RET_HIGH load(1, XDATA, add(CFA_XSP16, literal(-4)))
          CFI ?BRET_EXT load(1, XDATA, add(CFA_XSP16, literal(-3)))
          CFI DPL0 load(1, XDATA, add(CFA_XSP16, literal(-2)))
          CFI DPH0 load(1, XDATA, add(CFA_XSP16, literal(-1)))
          CFI CFA_SP SP+-2
          CFI CFA_XSP16 add(XSP16, 10)
          CFI Block cfiCond111 Using cfiCommon0
          CFI (cfiCond111) Function ZDP_UserDescRsp
          CFI (cfiCond111) Conditional ??CrossCallReturnLabel_169
          CFI (cfiCond111) R6 load(1, XDATA, add(CFA_XSP16, literal(-18)))
          CFI (cfiCond111) VB load(1, XDATA, add(CFA_XSP16, literal(-17)))
          CFI (cfiCond111) V0 load(1, XDATA, add(CFA_XSP16, literal(-16)))
          CFI (cfiCond111) V1 load(1, XDATA, add(CFA_XSP16, literal(-15)))
          CFI (cfiCond111) V2 load(1, XDATA, add(CFA_XSP16, literal(-14)))
          CFI (cfiCond111) V3 load(1, XDATA, add(CFA_XSP16, literal(-13)))
          CFI (cfiCond111) V4 load(1, XDATA, add(CFA_XSP16, literal(-12)))
          CFI (cfiCond111) V5 load(1, XDATA, add(CFA_XSP16, literal(-11)))
          CFI (cfiCond111) V6 load(1, XDATA, add(CFA_XSP16, literal(-10)))
          CFI (cfiCond111) V7 load(1, XDATA, add(CFA_XSP16, literal(-9)))
          CFI (cfiCond111) V8 load(1, XDATA, add(CFA_XSP16, literal(-8)))
          CFI (cfiCond111) V9 load(1, XDATA, add(CFA_XSP16, literal(-7)))
          CFI (cfiCond111) R7 load(1, XDATA, add(CFA_XSP16, literal(-6)))
          CFI (cfiCond111) ?RET_LOW load(1, XDATA, add(CFA_XSP16, literal(-5)))
          CFI (cfiCond111) ?RET_HIGH load(1, XDATA, add(CFA_XSP16, literal(-4)))
          CFI (cfiCond111) ?BRET_EXT load(1, XDATA, add(CFA_XSP16, literal(-3)))
          CFI (cfiCond111) DPL0 load(1, XDATA, add(CFA_XSP16, literal(-2)))
          CFI (cfiCond111) DPH0 load(1, XDATA, add(CFA_XSP16, literal(-1)))
          CFI (cfiCond111) CFA_SP SP+-2
          CFI (cfiCond111) CFA_XSP16 add(XSP16, 19)
          CFI Block cfiPicker112 Using cfiCommon1
          CFI (cfiPicker112) NoFunction
          CFI (cfiPicker112) Picker
        INC       DPTR
        INC       DPTR
          CFI EndBlock cfiCond110
          CFI EndBlock cfiCond111
          CFI EndBlock cfiPicker112
        REQUIRE ??Subroutine101_0
        ; // Fall through to label ??Subroutine101_0

        RSEG BANKED_CODE:HUGECODE:NOROOT(0)
??Subroutine101_0:
          CFI Block cfiCond113 Using cfiCommon0
          CFI Function ZDP_IncomingData
          CFI Conditional ??CrossCallReturnLabel_170
          CFI R6 load(1, XDATA, add(CFA_XSP16, literal(-10)))
          CFI VB load(1, XDATA, add(CFA_XSP16, literal(-9)))
          CFI V0 load(1, XDATA, add(CFA_XSP16, literal(-8)))
          CFI V1 load(1, XDATA, add(CFA_XSP16, literal(-7)))
          CFI R7 load(1, XDATA, add(CFA_XSP16, literal(-6)))
          CFI ?RET_LOW load(1, XDATA, add(CFA_XSP16, literal(-5)))
          CFI ?RET_HIGH load(1, XDATA, add(CFA_XSP16, literal(-4)))
          CFI ?BRET_EXT load(1, XDATA, add(CFA_XSP16, literal(-3)))
          CFI DPL0 load(1, XDATA, add(CFA_XSP16, literal(-2)))
          CFI DPH0 load(1, XDATA, add(CFA_XSP16, literal(-1)))
          CFI CFA_SP SP+-2
          CFI CFA_XSP16 add(XSP16, 33)
          CFI Block cfiCond114 Using cfiCommon0
          CFI (cfiCond114) Function ZDP_PowerDescMsg
          CFI (cfiCond114) Conditional ??CrossCallReturnLabel_168
          CFI (cfiCond114) R6 load(1, XDATA, add(CFA_XSP16, literal(-10)))
          CFI (cfiCond114) VB load(1, XDATA, add(CFA_XSP16, literal(-9)))
          CFI (cfiCond114) V0 load(1, XDATA, add(CFA_XSP16, literal(-8)))
          CFI (cfiCond114) V1 load(1, XDATA, add(CFA_XSP16, literal(-7)))
          CFI (cfiCond114) R7 load(1, XDATA, add(CFA_XSP16, literal(-6)))
          CFI (cfiCond114) ?RET_LOW load(1, XDATA, add(CFA_XSP16, literal(-5)))
          CFI (cfiCond114) ?RET_HIGH load(1, XDATA, add(CFA_XSP16, literal(-4)))
          CFI (cfiCond114) ?BRET_EXT load(1, XDATA, add(CFA_XSP16, literal(-3)))
          CFI (cfiCond114) DPL0 load(1, XDATA, add(CFA_XSP16, literal(-2)))
          CFI (cfiCond114) DPH0 load(1, XDATA, add(CFA_XSP16, literal(-1)))
          CFI (cfiCond114) CFA_SP SP+-2
          CFI (cfiCond114) CFA_XSP16 add(XSP16, 10)
          CFI Block cfiCond115 Using cfiCommon0
          CFI (cfiCond115) Function ZDP_UserDescRsp
          CFI (cfiCond115) Conditional ??CrossCallReturnLabel_169
          CFI (cfiCond115) R6 load(1, XDATA, add(CFA_XSP16, literal(-18)))
          CFI (cfiCond115) VB load(1, XDATA, add(CFA_XSP16, literal(-17)))
          CFI (cfiCond115) V0 load(1, XDATA, add(CFA_XSP16, literal(-16)))
          CFI (cfiCond115) V1 load(1, XDATA, add(CFA_XSP16, literal(-15)))
          CFI (cfiCond115) V2 load(1, XDATA, add(CFA_XSP16, literal(-14)))
          CFI (cfiCond115) V3 load(1, XDATA, add(CFA_XSP16, literal(-13)))
          CFI (cfiCond115) V4 load(1, XDATA, add(CFA_XSP16, literal(-12)))
          CFI (cfiCond115) V5 load(1, XDATA, add(CFA_XSP16, literal(-11)))
          CFI (cfiCond115) V6 load(1, XDATA, add(CFA_XSP16, literal(-10)))
          CFI (cfiCond115) V7 load(1, XDATA, add(CFA_XSP16, literal(-9)))
          CFI (cfiCond115) V8 load(1, XDATA, add(CFA_XSP16, literal(-8)))
          CFI (cfiCond115) V9 load(1, XDATA, add(CFA_XSP16, literal(-7)))
          CFI (cfiCond115) R7 load(1, XDATA, add(CFA_XSP16, literal(-6)))
          CFI (cfiCond115) ?RET_LOW load(1, XDATA, add(CFA_XSP16, literal(-5)))
          CFI (cfiCond115) ?RET_HIGH load(1, XDATA, add(CFA_XSP16, literal(-4)))
          CFI (cfiCond115) ?BRET_EXT load(1, XDATA, add(CFA_XSP16, literal(-3)))
          CFI (cfiCond115) DPL0 load(1, XDATA, add(CFA_XSP16, literal(-2)))
          CFI (cfiCond115) DPH0 load(1, XDATA, add(CFA_XSP16, literal(-1)))
          CFI (cfiCond115) CFA_SP SP+-2
          CFI (cfiCond115) CFA_XSP16 add(XSP16, 19)
          CFI Block cfiPicker116 Using cfiCommon1
          CFI (cfiPicker116) NoFunction
          CFI (cfiPicker116) Picker
        LCALL     ?Subroutine89 & 0xFFFF
??CrossCallReturnLabel_227:
        MOVX      A,@DPTR
        RET
          CFI EndBlock cfiCond113
          CFI EndBlock cfiCond114
          CFI EndBlock cfiCond115
          CFI EndBlock cfiPicker116

        RSEG BANKED_CODE:HUGECODE:NOROOT(0)
?Subroutine19:
          CFI Block cfiCond117 Using cfiCommon0
          CFI Function ZDP_NodeDescMsg
          CFI Conditional ??CrossCallReturnLabel_20
          CFI R6 load(1, XDATA, add(CFA_XSP16, literal(-10)))
          CFI VB load(1, XDATA, add(CFA_XSP16, literal(-9)))
          CFI V0 load(1, XDATA, add(CFA_XSP16, literal(-8)))
          CFI V1 load(1, XDATA, add(CFA_XSP16, literal(-7)))
          CFI R7 load(1, XDATA, add(CFA_XSP16, literal(-6)))
          CFI ?RET_LOW load(1, XDATA, add(CFA_XSP16, literal(-5)))
          CFI ?RET_HIGH load(1, XDATA, add(CFA_XSP16, literal(-4)))
          CFI ?BRET_EXT load(1, XDATA, add(CFA_XSP16, literal(-3)))
          CFI DPL0 load(1, XDATA, add(CFA_XSP16, literal(-2)))
          CFI DPH0 load(1, XDATA, add(CFA_XSP16, literal(-1)))
          CFI CFA_SP SP+-2
          CFI CFA_XSP16 add(XSP16, 10)
          CFI Block cfiCond118 Using cfiCommon0
          CFI (cfiCond118) Function ZDP_PowerDescMsg
          CFI (cfiCond118) Conditional ??CrossCallReturnLabel_21
          CFI (cfiCond118) R6 load(1, XDATA, add(CFA_XSP16, literal(-10)))
          CFI (cfiCond118) VB load(1, XDATA, add(CFA_XSP16, literal(-9)))
          CFI (cfiCond118) V0 load(1, XDATA, add(CFA_XSP16, literal(-8)))
          CFI (cfiCond118) V1 load(1, XDATA, add(CFA_XSP16, literal(-7)))
          CFI (cfiCond118) R7 load(1, XDATA, add(CFA_XSP16, literal(-6)))
          CFI (cfiCond118) ?RET_LOW load(1, XDATA, add(CFA_XSP16, literal(-5)))
          CFI (cfiCond118) ?RET_HIGH load(1, XDATA, add(CFA_XSP16, literal(-4)))
          CFI (cfiCond118) ?BRET_EXT load(1, XDATA, add(CFA_XSP16, literal(-3)))
          CFI (cfiCond118) DPL0 load(1, XDATA, add(CFA_XSP16, literal(-2)))
          CFI (cfiCond118) DPH0 load(1, XDATA, add(CFA_XSP16, literal(-1)))
          CFI (cfiCond118) CFA_SP SP+-2
          CFI (cfiCond118) CFA_XSP16 add(XSP16, 10)
          CFI Block cfiPicker119 Using cfiCommon1
          CFI (cfiPicker119) NoFunction
          CFI (cfiPicker119) Picker
        MOV       R7,A
        MOV       DPL,R6
        MOV       DPH,R7
        CLR       A
        MOVX      @DPTR,A
        MOV       A,R4
        INC       DPTR
        MOVX      @DPTR,A
        MOV       A,R5
        MOV       DPL,R6
        MOV       DPH,R7
        INC       DPTR
        INC       DPTR
        MOVX      @DPTR,A
        MOV       A,#0xa
        RET
          CFI EndBlock cfiCond117
          CFI EndBlock cfiCond118
          CFI EndBlock cfiPicker119
//  921 
//  922 /*********************************************************************
//  923  * @fn          ZDP_SimpleDescMsg
//  924  *
//  925  * @brief       Builds and sends a Simple Descriptor message, unicast to the
//  926  *              specified device.
//  927  *
//  928  * @param       inMsg - incoming message (request)
//  929  * @param       Status - message status (ZDP_SUCCESS or other)
//  930  * @param       pSimpleDesc - pointer to the node descriptor
//  931  *
//  932  * @return      afStatus_t
//  933  */

        RSEG BANKED_CODE:HUGECODE:NOROOT(0)
//  934 afStatus_t ZDP_SimpleDescMsg( zdoIncomingMsg_t *inMsg, byte Status,
ZDP_SimpleDescMsg:
          CFI Block cfiBlock120 Using cfiCommon0
          CFI Function ZDP_SimpleDescMsg
        CODE
//  935                               SimpleDescriptionFormat_t *pSimpleDesc )
//  936 {
        FUNCALL ZDP_SimpleDescMsg, fillAndSend
        LOCFRAME ISTACK, 0, STACK
        LOCFRAME PSTACK, 0, STACK
        LOCFRAME XSTACK, 22, STACK
        LOCFRAME IOVERLAY, 0, STATIC
        LOCFRAME DOVERLAY, 0, STATIC
        ARGFRAME ISTACK, 0, STACK
        ARGFRAME PSTACK, 0, STACK
        ARGFRAME XSTACK, 22, STACK
        ARGFRAME IOVERLAY, 0, STATIC
        ARGFRAME DOVERLAY, 0, STATIC
        REQUIRE ?V0
        REQUIRE ?V1
        REQUIRE ?V2
        REQUIRE ?V3
        REQUIRE ?V4
        REQUIRE ?V5
        REQUIRE ?V6
        REQUIRE ?V7
        REQUIRE ?V8
        REQUIRE ?V9
        REQUIRE ?V10
        REQUIRE ?V11
        MOV       A,#-0x14
        LCALL     ?BANKED_ENTER_XDATA
          CFI DPH0 load(1, XDATA, add(CFA_XSP16, literal(-1)))
          CFI DPL0 load(1, XDATA, add(CFA_XSP16, literal(-2)))
          CFI ?BRET_EXT load(1, XDATA, add(CFA_XSP16, literal(-3)))
          CFI ?RET_HIGH load(1, XDATA, add(CFA_XSP16, literal(-4)))
          CFI ?RET_LOW load(1, XDATA, add(CFA_XSP16, literal(-5)))
          CFI R7 load(1, XDATA, add(CFA_XSP16, literal(-6)))
          CFI V11 load(1, XDATA, add(CFA_XSP16, literal(-7)))
          CFI V10 load(1, XDATA, add(CFA_XSP16, literal(-8)))
          CFI V9 load(1, XDATA, add(CFA_XSP16, literal(-9)))
          CFI V8 load(1, XDATA, add(CFA_XSP16, literal(-10)))
          CFI V7 load(1, XDATA, add(CFA_XSP16, literal(-11)))
          CFI V6 load(1, XDATA, add(CFA_XSP16, literal(-12)))
          CFI V5 load(1, XDATA, add(CFA_XSP16, literal(-13)))
          CFI V4 load(1, XDATA, add(CFA_XSP16, literal(-14)))
          CFI V3 load(1, XDATA, add(CFA_XSP16, literal(-15)))
          CFI V2 load(1, XDATA, add(CFA_XSP16, literal(-16)))
          CFI V1 load(1, XDATA, add(CFA_XSP16, literal(-17)))
          CFI V0 load(1, XDATA, add(CFA_XSP16, literal(-18)))
          CFI VB load(1, XDATA, add(CFA_XSP16, literal(-19)))
          CFI R6 load(1, XDATA, add(CFA_XSP16, literal(-20)))
          CFI CFA_SP SP+0
          CFI CFA_XSP16 add(XSP16, 20)
        ; Saved register size: 20
        ; Auto size: 0
        MOV       ?V0,R2
        MOV       ?V1,R3
        MOV       A,R1
        MOV       R6,A
//  937   uint8 *pBuf = ZDP_TmpBuf;
        LCALL     ??Subroutine116_0 & 0xFFFF
//  938   uint8 i, len;
//  939 
//  940   if ( Status == ZDP_SUCCESS && pSimpleDesc )
??CrossCallReturnLabel_245:
        MOV       A,R4
        ADD       A,#0x9
        MOV       ?V4,A
        CLR       A
        ADDC      A,R5
        MOV       ?V5,A
        MOV       A,R4
        ADD       A,#0x6
        MOV       ?V6,A
        CLR       A
        ADDC      A,R5
        MOV       ?V7,A
        MOV       A,R6
        JNZ       ??ZDP_SimpleDescMsg_0
        MOV       A,R4
        ORL       A,R5
        JZ        ??ZDP_SimpleDescMsg_0
//  941   {
//  942     // Status + NWKAddrOfInterest + desc length + empty simple descriptor.
//  943     len = 1 + 2 + 1 + 8;
//  944     len += (pSimpleDesc->AppNumInClusters + pSimpleDesc->AppNumOutClusters) * sizeof ( uint16 );
        MOV       DPL,?V4
        MOV       DPH,?V5
        MOVX      A,@DPTR
        MOV       R2,A
        MOV       DPL,?V6
        MOV       DPH,?V7
        MOVX      A,@DPTR
        ADD       A,R2
        CLR       C
        RLC       A
        ADD       A,#0xc
        MOV       R2,A
//  945   }
//  946   else
//  947   {
//  948     len = 1 + 2 + 1; // Status + desc length
//  949   }
//  950   if ( len >= ZDP_BUF_SZ-1 )
        CLR       C
        SUBB      A,#0x4f
        JC        ??ZDP_SimpleDescMsg_1
//  951   {
//  952     return afStatus_MEM_FAIL;
        MOV       R1,#0x10
        LJMP      ??ZDP_SimpleDescMsg_2 & 0xFFFF
//  953   }
??ZDP_SimpleDescMsg_0:
        MOV       R2,#0x4
//  954 
//  955   *pBuf++ = Status;
??ZDP_SimpleDescMsg_1:
        MOV       A,R6
        MOV       DPL,R0
        MOV       DPH,R1
        MOVX      @DPTR,A
//  956   
//  957   //From spec 2.4.3.1.5 The NWKAddrOfInterest field shall match 
//  958   //that specified in the original Simple_Desc_req command
//  959   *pBuf++ = inMsg->asdu[0];  
        MOV       A,?V0
        ADD       A,#0x13
        MOV       ?V2,A
        CLR       A
        ADDC      A,?V1
        MOV       ?V3,A
        MOV       DPL,?V2
        MOV       DPH,A
        MOVX      A,@DPTR
        MOV       R3,A
        INC       DPTR
        MOVX      A,@DPTR
        MOV       DPH,A
        MOV       DPL,R3
        LCALL     ??Subroutine109_0 & 0xFFFF
??CrossCallReturnLabel_200:
        INC       DPTR
        LCALL     ?Subroutine38 & 0xFFFF
//  960   *pBuf++ = inMsg->asdu[1];
??CrossCallReturnLabel_56:
        MOV       R3,A
        INC       DPTR
        MOVX      A,@DPTR
        MOV       DPH,A
        MOV       DPL,R3
        INC       DPTR
        LCALL     ?Subroutine61 & 0xFFFF
??CrossCallReturnLabel_106:
        MOVX      @DPTR,A
//  961 
//  962   if ( len > 4 )
        MOV       A,R0
        ADD       A,#0x3
        MOV       DPL,A
        CLR       A
        ADDC      A,R1
        MOV       DPH,A
        MOV       A,R2
        CLR       C
        SUBB      A,#0x5
        JNC       $+5
        LJMP      ??ZDP_SimpleDescMsg_3 & 0xFFFF
//  963   {
//  964     *pBuf++ = len - 4;   // Simple descriptor length
        MOV       A,#-0x4
        ADD       A,R2
        MOVX      @DPTR,A
//  965 
//  966     *pBuf++ = pSimpleDesc->EndPoint;
        MOV       DPL,R4
        MOV       DPH,R5
        LCALL     ?Subroutine61 & 0xFFFF
??CrossCallReturnLabel_107:
        LCALL     ?Subroutine31 & 0xFFFF
//  967     *pBuf++ = LO_UINT16( pSimpleDesc->AppProfId );
??CrossCallReturnLabel_171:
        MOV       ?V2,DPL
        MOV       ?V3,DPH
        LCALL     ??Subroutine109_0 & 0xFFFF
??CrossCallReturnLabel_201:
        LCALL     ?Subroutine12 & 0xFFFF
//  968     *pBuf++ = HI_UINT16( pSimpleDesc->AppProfId );
??CrossCallReturnLabel_4:
        MOVX      @DPTR,A
//  969     *pBuf++ = LO_UINT16( pSimpleDesc->AppDeviceId );
        MOV       A,R4
        ADD       A,#0x3
        MOV       ?V2,A
        CLR       A
        ADDC      A,R5
        MOV       ?V3,A
        MOV       DPL,?V2
        MOV       DPH,A
        LCALL     ?Subroutine61 & 0xFFFF
??CrossCallReturnLabel_108:
        LCALL     ?Subroutine12 & 0xFFFF
//  970     *pBuf++ = HI_UINT16( pSimpleDesc->AppDeviceId );
??CrossCallReturnLabel_5:
        LCALL     ?Subroutine31 & 0xFFFF
//  971 
//  972     *pBuf++ = (byte)(pSimpleDesc->AppDevVer & 0x0F);
??CrossCallReturnLabel_172:
        INC       DPTR
        INC       DPTR
        INC       DPTR
        INC       DPTR
        MOVX      A,@DPTR
        ANL       A,#0xf
        MOV       DPL,R0
        MOV       DPH,R1
        INC       DPTR
        INC       DPTR
        INC       DPTR
        INC       DPTR
        INC       DPTR
        INC       DPTR
        INC       DPTR
        INC       DPTR
        INC       DPTR
        MOVX      @DPTR,A
//  973 
//  974     *pBuf++ = pSimpleDesc->AppNumInClusters;
        MOV       DPL,?V6
        MOV       DPH,?V7
        LCALL     ?Subroutine54 & 0xFFFF
??CrossCallReturnLabel_94:
        INC       DPTR
        INC       DPTR
        INC       DPTR
        INC       DPTR
        INC       DPTR
        MOVX      @DPTR,A
        MOV       A,R0
        ADD       A,#0xb
        MOV       R0,A
        JNC       ??ZDP_SimpleDescMsg_4
        INC       R1
//  975     if ( pSimpleDesc->AppNumInClusters )
??ZDP_SimpleDescMsg_4:
        MOV       DPL,?V6
        MOV       DPH,?V7
        MOVX      A,@DPTR
        JZ        ??ZDP_SimpleDescMsg_5
//  976     {
//  977       for (i=0; i<pSimpleDesc->AppNumInClusters; ++i)
        MOV       R3,#0x0
        MOV       A,R4
        ADD       A,#0x7
        MOV       ?V2,A
        CLR       A
        ADDC      A,R5
        MOV       ?V8,?V2
        MOV       ?V9,A
        SJMP      ??ZDP_SimpleDescMsg_6
//  978       {
//  979         *pBuf++ = LO_UINT16( pSimpleDesc->pAppInClusterList[i] );
??ZDP_SimpleDescMsg_7:
        MOV       A,R3
        LCALL     ?Subroutine87 & 0xFFFF
//  980         *pBuf++ = HI_UINT16( pSimpleDesc->pAppInClusterList[i] );
//  981       }
??CrossCallReturnLabel_147:
        MOV       DPL,?V8
        MOV       DPH,?V9
        MOVX      A,@DPTR
        ADD       A,?V2
        MOV       R7,A
        INC       DPTR
        MOVX      A,@DPTR
        ADDC      A,?V3
        LCALL     ?Subroutine62 & 0xFFFF
??CrossCallReturnLabel_204:
        LCALL     ?Subroutine37 & 0xFFFF
??CrossCallReturnLabel_55:
        ADD       A,?V2
        MOV       R7,A
        INC       DPTR
        MOVX      A,@DPTR
        ADDC      A,?V3
        LCALL     ?Subroutine51 & 0xFFFF
??CrossCallReturnLabel_88:
        JNC       ??ZDP_SimpleDescMsg_8
        INC       R1
??ZDP_SimpleDescMsg_8:
        INC       R3
??ZDP_SimpleDescMsg_6:
        MOV       DPL,?V6
        MOV       DPH,?V7
        MOVX      A,@DPTR
        MOV       R7,A
        MOV       A,R3
        CLR       C
        SUBB      A,R7
        JC        ??ZDP_SimpleDescMsg_7
//  982     }
//  983 
//  984     *pBuf++ = pSimpleDesc->AppNumOutClusters;
??ZDP_SimpleDescMsg_5:
        MOV       DPL,?V4
        MOV       DPH,?V5
        LCALL     ?Subroutine58 & 0xFFFF
??CrossCallReturnLabel_98:
        INC       DPTR
        MOV       R0,DPL
        MOV       R1,DPH
//  985     if ( pSimpleDesc->AppNumOutClusters )
        MOV       DPL,?V4
        MOV       DPH,?V5
        MOVX      A,@DPTR
        JZ        ??ZDP_SimpleDescMsg_9
//  986     {
//  987       for (i=0; i<pSimpleDesc->AppNumOutClusters; ++i)
        MOV       R3,#0x0
        MOV       A,R4
        ADD       A,#0xa
        MOV       R4,A
        JNC       ??ZDP_SimpleDescMsg_10
        INC       R5
??ZDP_SimpleDescMsg_10:
        MOV       ?V2,R4
        MOV       ?V3,R5
??ZDP_SimpleDescMsg_11:
        MOV       DPL,?V4
        MOV       DPH,?V5
        MOVX      A,@DPTR
        MOV       R4,A
        MOV       A,R3
        CLR       C
        SUBB      A,R4
        JNC       ??ZDP_SimpleDescMsg_9
//  988       {
//  989         *pBuf++ = LO_UINT16( pSimpleDesc->pAppOutClusterList[i] );
        MOV       A,R3
        ADD       A,0xE0 /* A   */
        MOV       R4,A
        CLR       A
        RLC       A
        MOV       R5,A
        MOV       DPL,?V2
        MOV       DPH,?V3
        MOVX      A,@DPTR
        ADD       A,R4
        MOV       R7,A
        INC       DPTR
        MOVX      A,@DPTR
        ADDC      A,R5
        LCALL     ?Subroutine62 & 0xFFFF
//  990         *pBuf++ = HI_UINT16( pSimpleDesc->pAppOutClusterList[i] );
//  991       }
??CrossCallReturnLabel_205:
        LCALL     ?Subroutine38 & 0xFFFF
??CrossCallReturnLabel_57:
        ADD       A,R4
        MOV       R7,A
        INC       DPTR
        MOVX      A,@DPTR
        ADDC      A,R5
        LCALL     ?Subroutine51 & 0xFFFF
??CrossCallReturnLabel_89:
        JNC       ??ZDP_SimpleDescMsg_12
        INC       R1
??ZDP_SimpleDescMsg_12:
        INC       R3
        SJMP      ??ZDP_SimpleDescMsg_11
//  992     }
//  993   }
//  994 
//  995   else
//  996   {
//  997     *pBuf = 0; // Description Length = 0;
??ZDP_SimpleDescMsg_3:
        CLR       A
        MOVX      @DPTR,A
//  998   }
//  999 
// 1000   return fillAndSend( &(inMsg->TransSeq), &(inMsg->srcAddr), Simple_Desc_rsp, len );
??ZDP_SimpleDescMsg_9:
        ; Setup parameters for call to function fillAndSend
        MOV       ?V2,#0x4
        MOV       ?V3,#-0x80
        MOV       R0,#?V2
        LCALL     ?PUSH_XSTACK_I_TWO
          CFI CFA_XSP16 add(XSP16, 22)
        MOV       A,R2
        MOV       R1,A
        MOV       A,?V0
        ADD       A,#0x2
        MOV       R4,A
        CLR       A
        ADDC      A,?V1
        MOV       R5,A
        MOV       A,?V0
        ADD       A,#0xf
        MOV       R2,A
        CLR       A
        ADDC      A,?V1
        MOV       R3,A
        LCALL     `??fillAndSend::?relay`; Banked call to: fillAndSend
        MOV       A,#0x2
        LCALL     ?DEALLOC_XSTACK8
          CFI CFA_XSP16 add(XSP16, 20)
??ZDP_SimpleDescMsg_2:
        LJMP      ??Subroutine96_0 & 0xFFFF
// 1001 }
          CFI EndBlock cfiBlock120

        RSEG BANKED_CODE:HUGECODE:NOROOT(0)
?Subroutine87:
          CFI Block cfiCond121 Using cfiCommon0
          CFI Function ZDP_MatchDescReq
          CFI Conditional ??CrossCallReturnLabel_148, ??CrossCallReturnLabel_2
          CFI R6 load(1, XDATA, add(CFA_XSP16, literal(-14)))
          CFI VB load(1, XDATA, add(CFA_XSP16, literal(-13)))
          CFI V0 load(1, XDATA, add(CFA_XSP16, literal(-12)))
          CFI V1 load(1, XDATA, add(CFA_XSP16, literal(-11)))
          CFI V2 load(1, XDATA, add(CFA_XSP16, literal(-10)))
          CFI V3 load(1, XDATA, add(CFA_XSP16, literal(-9)))
          CFI V4 load(1, XDATA, add(CFA_XSP16, literal(-8)))
          CFI V5 load(1, XDATA, add(CFA_XSP16, literal(-7)))
          CFI R7 load(1, XDATA, add(CFA_XSP16, literal(-6)))
          CFI ?RET_LOW load(1, XDATA, add(CFA_XSP16, literal(-5)))
          CFI ?RET_HIGH load(1, XDATA, add(CFA_XSP16, literal(-4)))
          CFI ?BRET_EXT load(1, XDATA, add(CFA_XSP16, literal(-3)))
          CFI DPL0 load(1, XDATA, add(CFA_XSP16, literal(-2)))
          CFI DPH0 load(1, XDATA, add(CFA_XSP16, literal(-1)))
          CFI CFA_SP SP+-4
          CFI CFA_XSP16 add(XSP16, 14)
          CFI Block cfiCond122 Using cfiCommon0
          CFI (cfiCond122) Function ZDP_MatchDescReq
          CFI (cfiCond122) Conditional ??CrossCallReturnLabel_148, ??CrossCallReturnLabel_3
          CFI (cfiCond122) R6 load(1, XDATA, add(CFA_XSP16, literal(-14)))
          CFI (cfiCond122) VB load(1, XDATA, add(CFA_XSP16, literal(-13)))
          CFI (cfiCond122) V0 load(1, XDATA, add(CFA_XSP16, literal(-12)))
          CFI (cfiCond122) V1 load(1, XDATA, add(CFA_XSP16, literal(-11)))
          CFI (cfiCond122) V2 load(1, XDATA, add(CFA_XSP16, literal(-10)))
          CFI (cfiCond122) V3 load(1, XDATA, add(CFA_XSP16, literal(-9)))
          CFI (cfiCond122) V4 load(1, XDATA, add(CFA_XSP16, literal(-8)))
          CFI (cfiCond122) V5 load(1, XDATA, add(CFA_XSP16, literal(-7)))
          CFI (cfiCond122) R7 load(1, XDATA, add(CFA_XSP16, literal(-6)))
          CFI (cfiCond122) ?RET_LOW load(1, XDATA, add(CFA_XSP16, literal(-5)))
          CFI (cfiCond122) ?RET_HIGH load(1, XDATA, add(CFA_XSP16, literal(-4)))
          CFI (cfiCond122) ?BRET_EXT load(1, XDATA, add(CFA_XSP16, literal(-3)))
          CFI (cfiCond122) DPL0 load(1, XDATA, add(CFA_XSP16, literal(-2)))
          CFI (cfiCond122) DPH0 load(1, XDATA, add(CFA_XSP16, literal(-1)))
          CFI (cfiCond122) CFA_SP SP+-4
          CFI (cfiCond122) CFA_XSP16 add(XSP16, 14)
          CFI Block cfiCond123 Using cfiCommon0
          CFI (cfiCond123) Function ZDP_SimpleDescMsg
          CFI (cfiCond123) Conditional ??CrossCallReturnLabel_147
          CFI (cfiCond123) R6 load(1, XDATA, add(CFA_XSP16, literal(-20)))
          CFI (cfiCond123) VB load(1, XDATA, add(CFA_XSP16, literal(-19)))
          CFI (cfiCond123) V0 load(1, XDATA, add(CFA_XSP16, literal(-18)))
          CFI (cfiCond123) V1 load(1, XDATA, add(CFA_XSP16, literal(-17)))
          CFI (cfiCond123) V2 load(1, XDATA, add(CFA_XSP16, literal(-16)))
          CFI (cfiCond123) V3 load(1, XDATA, add(CFA_XSP16, literal(-15)))
          CFI (cfiCond123) V4 load(1, XDATA, add(CFA_XSP16, literal(-14)))
          CFI (cfiCond123) V5 load(1, XDATA, add(CFA_XSP16, literal(-13)))
          CFI (cfiCond123) V6 load(1, XDATA, add(CFA_XSP16, literal(-12)))
          CFI (cfiCond123) V7 load(1, XDATA, add(CFA_XSP16, literal(-11)))
          CFI (cfiCond123) V8 load(1, XDATA, add(CFA_XSP16, literal(-10)))
          CFI (cfiCond123) V9 load(1, XDATA, add(CFA_XSP16, literal(-9)))
          CFI (cfiCond123) V10 load(1, XDATA, add(CFA_XSP16, literal(-8)))
          CFI (cfiCond123) V11 load(1, XDATA, add(CFA_XSP16, literal(-7)))
          CFI (cfiCond123) R7 load(1, XDATA, add(CFA_XSP16, literal(-6)))
          CFI (cfiCond123) ?RET_LOW load(1, XDATA, add(CFA_XSP16, literal(-5)))
          CFI (cfiCond123) ?RET_HIGH load(1, XDATA, add(CFA_XSP16, literal(-4)))
          CFI (cfiCond123) ?BRET_EXT load(1, XDATA, add(CFA_XSP16, literal(-3)))
          CFI (cfiCond123) DPL0 load(1, XDATA, add(CFA_XSP16, literal(-2)))
          CFI (cfiCond123) DPH0 load(1, XDATA, add(CFA_XSP16, literal(-1)))
          CFI (cfiCond123) CFA_SP SP+-2
          CFI (cfiCond123) CFA_XSP16 add(XSP16, 20)
          CFI Block cfiPicker124 Using cfiCommon1
          CFI (cfiPicker124) NoFunction
          CFI (cfiPicker124) Picker
        ADD       A,0xE0 /* A   */
        MOV       ?V2,A
        CLR       A
        RLC       A
        MOV       ?V3,A
        RET
          CFI EndBlock cfiCond121
          CFI EndBlock cfiCond122
          CFI EndBlock cfiCond123
          CFI EndBlock cfiPicker124

        RSEG BANKED_CODE:HUGECODE:NOROOT(0)
?Subroutine61:
          CFI Block cfiCond125 Using cfiCommon0
          CFI Function ZDP_SimpleDescMsg
          CFI Conditional ??CrossCallReturnLabel_106
          CFI R6 load(1, XDATA, add(CFA_XSP16, literal(-20)))
          CFI VB load(1, XDATA, add(CFA_XSP16, literal(-19)))
          CFI V0 load(1, XDATA, add(CFA_XSP16, literal(-18)))
          CFI V1 load(1, XDATA, add(CFA_XSP16, literal(-17)))
          CFI V2 load(1, XDATA, add(CFA_XSP16, literal(-16)))
          CFI V3 load(1, XDATA, add(CFA_XSP16, literal(-15)))
          CFI V4 load(1, XDATA, add(CFA_XSP16, literal(-14)))
          CFI V5 load(1, XDATA, add(CFA_XSP16, literal(-13)))
          CFI V6 load(1, XDATA, add(CFA_XSP16, literal(-12)))
          CFI V7 load(1, XDATA, add(CFA_XSP16, literal(-11)))
          CFI V8 load(1, XDATA, add(CFA_XSP16, literal(-10)))
          CFI V9 load(1, XDATA, add(CFA_XSP16, literal(-9)))
          CFI V10 load(1, XDATA, add(CFA_XSP16, literal(-8)))
          CFI V11 load(1, XDATA, add(CFA_XSP16, literal(-7)))
          CFI R7 load(1, XDATA, add(CFA_XSP16, literal(-6)))
          CFI ?RET_LOW load(1, XDATA, add(CFA_XSP16, literal(-5)))
          CFI ?RET_HIGH load(1, XDATA, add(CFA_XSP16, literal(-4)))
          CFI ?BRET_EXT load(1, XDATA, add(CFA_XSP16, literal(-3)))
          CFI DPL0 load(1, XDATA, add(CFA_XSP16, literal(-2)))
          CFI DPH0 load(1, XDATA, add(CFA_XSP16, literal(-1)))
          CFI CFA_SP SP+-2
          CFI CFA_XSP16 add(XSP16, 20)
          CFI Block cfiCond126 Using cfiCommon0
          CFI (cfiCond126) Function ZDP_SimpleDescMsg
          CFI (cfiCond126) Conditional ??CrossCallReturnLabel_107
          CFI (cfiCond126) R6 load(1, XDATA, add(CFA_XSP16, literal(-20)))
          CFI (cfiCond126) VB load(1, XDATA, add(CFA_XSP16, literal(-19)))
          CFI (cfiCond126) V0 load(1, XDATA, add(CFA_XSP16, literal(-18)))
          CFI (cfiCond126) V1 load(1, XDATA, add(CFA_XSP16, literal(-17)))
          CFI (cfiCond126) V2 load(1, XDATA, add(CFA_XSP16, literal(-16)))
          CFI (cfiCond126) V3 load(1, XDATA, add(CFA_XSP16, literal(-15)))
          CFI (cfiCond126) V4 load(1, XDATA, add(CFA_XSP16, literal(-14)))
          CFI (cfiCond126) V5 load(1, XDATA, add(CFA_XSP16, literal(-13)))
          CFI (cfiCond126) V6 load(1, XDATA, add(CFA_XSP16, literal(-12)))
          CFI (cfiCond126) V7 load(1, XDATA, add(CFA_XSP16, literal(-11)))
          CFI (cfiCond126) V8 load(1, XDATA, add(CFA_XSP16, literal(-10)))
          CFI (cfiCond126) V9 load(1, XDATA, add(CFA_XSP16, literal(-9)))
          CFI (cfiCond126) V10 load(1, XDATA, add(CFA_XSP16, literal(-8)))
          CFI (cfiCond126) V11 load(1, XDATA, add(CFA_XSP16, literal(-7)))
          CFI (cfiCond126) R7 load(1, XDATA, add(CFA_XSP16, literal(-6)))
          CFI (cfiCond126) ?RET_LOW load(1, XDATA, add(CFA_XSP16, literal(-5)))
          CFI (cfiCond126) ?RET_HIGH load(1, XDATA, add(CFA_XSP16, literal(-4)))
          CFI (cfiCond126) ?BRET_EXT load(1, XDATA, add(CFA_XSP16, literal(-3)))
          CFI (cfiCond126) DPL0 load(1, XDATA, add(CFA_XSP16, literal(-2)))
          CFI (cfiCond126) DPH0 load(1, XDATA, add(CFA_XSP16, literal(-1)))
          CFI (cfiCond126) CFA_SP SP+-2
          CFI (cfiCond126) CFA_XSP16 add(XSP16, 20)
          CFI Block cfiCond127 Using cfiCommon0
          CFI (cfiCond127) Function ZDP_SimpleDescMsg
          CFI (cfiCond127) Conditional ??CrossCallReturnLabel_108
          CFI (cfiCond127) R6 load(1, XDATA, add(CFA_XSP16, literal(-20)))
          CFI (cfiCond127) VB load(1, XDATA, add(CFA_XSP16, literal(-19)))
          CFI (cfiCond127) V0 load(1, XDATA, add(CFA_XSP16, literal(-18)))
          CFI (cfiCond127) V1 load(1, XDATA, add(CFA_XSP16, literal(-17)))
          CFI (cfiCond127) V2 load(1, XDATA, add(CFA_XSP16, literal(-16)))
          CFI (cfiCond127) V3 load(1, XDATA, add(CFA_XSP16, literal(-15)))
          CFI (cfiCond127) V4 load(1, XDATA, add(CFA_XSP16, literal(-14)))
          CFI (cfiCond127) V5 load(1, XDATA, add(CFA_XSP16, literal(-13)))
          CFI (cfiCond127) V6 load(1, XDATA, add(CFA_XSP16, literal(-12)))
          CFI (cfiCond127) V7 load(1, XDATA, add(CFA_XSP16, literal(-11)))
          CFI (cfiCond127) V8 load(1, XDATA, add(CFA_XSP16, literal(-10)))
          CFI (cfiCond127) V9 load(1, XDATA, add(CFA_XSP16, literal(-9)))
          CFI (cfiCond127) V10 load(1, XDATA, add(CFA_XSP16, literal(-8)))
          CFI (cfiCond127) V11 load(1, XDATA, add(CFA_XSP16, literal(-7)))
          CFI (cfiCond127) R7 load(1, XDATA, add(CFA_XSP16, literal(-6)))
          CFI (cfiCond127) ?RET_LOW load(1, XDATA, add(CFA_XSP16, literal(-5)))
          CFI (cfiCond127) ?RET_HIGH load(1, XDATA, add(CFA_XSP16, literal(-4)))
          CFI (cfiCond127) ?BRET_EXT load(1, XDATA, add(CFA_XSP16, literal(-3)))
          CFI (cfiCond127) DPL0 load(1, XDATA, add(CFA_XSP16, literal(-2)))
          CFI (cfiCond127) DPH0 load(1, XDATA, add(CFA_XSP16, literal(-1)))
          CFI (cfiCond127) CFA_SP SP+-2
          CFI (cfiCond127) CFA_XSP16 add(XSP16, 20)
          CFI Block cfiPicker128 Using cfiCommon1
          CFI (cfiPicker128) NoFunction
          CFI (cfiPicker128) Picker
        LCALL     ??Subroutine110_0 & 0xFFFF
??CrossCallReturnLabel_207:
        INC       DPTR
        INC       DPTR
        RET
          CFI EndBlock cfiCond125
          CFI EndBlock cfiCond126
          CFI EndBlock cfiCond127
          CFI EndBlock cfiPicker128

        RSEG BANKED_CODE:HUGECODE:NOROOT(0)
?Subroutine51:
          CFI Block cfiCond129 Using cfiCommon0
          CFI Function ZDP_SimpleDescMsg
          CFI Conditional ??CrossCallReturnLabel_88
          CFI R6 load(1, XDATA, add(CFA_XSP16, literal(-20)))
          CFI VB load(1, XDATA, add(CFA_XSP16, literal(-19)))
          CFI V0 load(1, XDATA, add(CFA_XSP16, literal(-18)))
          CFI V1 load(1, XDATA, add(CFA_XSP16, literal(-17)))
          CFI V2 load(1, XDATA, add(CFA_XSP16, literal(-16)))
          CFI V3 load(1, XDATA, add(CFA_XSP16, literal(-15)))
          CFI V4 load(1, XDATA, add(CFA_XSP16, literal(-14)))
          CFI V5 load(1, XDATA, add(CFA_XSP16, literal(-13)))
          CFI V6 load(1, XDATA, add(CFA_XSP16, literal(-12)))
          CFI V7 load(1, XDATA, add(CFA_XSP16, literal(-11)))
          CFI V8 load(1, XDATA, add(CFA_XSP16, literal(-10)))
          CFI V9 load(1, XDATA, add(CFA_XSP16, literal(-9)))
          CFI V10 load(1, XDATA, add(CFA_XSP16, literal(-8)))
          CFI V11 load(1, XDATA, add(CFA_XSP16, literal(-7)))
          CFI R7 load(1, XDATA, add(CFA_XSP16, literal(-6)))
          CFI ?RET_LOW load(1, XDATA, add(CFA_XSP16, literal(-5)))
          CFI ?RET_HIGH load(1, XDATA, add(CFA_XSP16, literal(-4)))
          CFI ?BRET_EXT load(1, XDATA, add(CFA_XSP16, literal(-3)))
          CFI DPL0 load(1, XDATA, add(CFA_XSP16, literal(-2)))
          CFI DPH0 load(1, XDATA, add(CFA_XSP16, literal(-1)))
          CFI CFA_SP SP+-2
          CFI CFA_XSP16 add(XSP16, 20)
          CFI Block cfiCond130 Using cfiCommon0
          CFI (cfiCond130) Function ZDP_SimpleDescMsg
          CFI (cfiCond130) Conditional ??CrossCallReturnLabel_89
          CFI (cfiCond130) R6 load(1, XDATA, add(CFA_XSP16, literal(-20)))
          CFI (cfiCond130) VB load(1, XDATA, add(CFA_XSP16, literal(-19)))
          CFI (cfiCond130) V0 load(1, XDATA, add(CFA_XSP16, literal(-18)))
          CFI (cfiCond130) V1 load(1, XDATA, add(CFA_XSP16, literal(-17)))
          CFI (cfiCond130) V2 load(1, XDATA, add(CFA_XSP16, literal(-16)))
          CFI (cfiCond130) V3 load(1, XDATA, add(CFA_XSP16, literal(-15)))
          CFI (cfiCond130) V4 load(1, XDATA, add(CFA_XSP16, literal(-14)))
          CFI (cfiCond130) V5 load(1, XDATA, add(CFA_XSP16, literal(-13)))
          CFI (cfiCond130) V6 load(1, XDATA, add(CFA_XSP16, literal(-12)))
          CFI (cfiCond130) V7 load(1, XDATA, add(CFA_XSP16, literal(-11)))
          CFI (cfiCond130) V8 load(1, XDATA, add(CFA_XSP16, literal(-10)))
          CFI (cfiCond130) V9 load(1, XDATA, add(CFA_XSP16, literal(-9)))
          CFI (cfiCond130) V10 load(1, XDATA, add(CFA_XSP16, literal(-8)))
          CFI (cfiCond130) V11 load(1, XDATA, add(CFA_XSP16, literal(-7)))
          CFI (cfiCond130) R7 load(1, XDATA, add(CFA_XSP16, literal(-6)))
          CFI (cfiCond130) ?RET_LOW load(1, XDATA, add(CFA_XSP16, literal(-5)))
          CFI (cfiCond130) ?RET_HIGH load(1, XDATA, add(CFA_XSP16, literal(-4)))
          CFI (cfiCond130) ?BRET_EXT load(1, XDATA, add(CFA_XSP16, literal(-3)))
          CFI (cfiCond130) DPL0 load(1, XDATA, add(CFA_XSP16, literal(-2)))
          CFI (cfiCond130) DPH0 load(1, XDATA, add(CFA_XSP16, literal(-1)))
          CFI (cfiCond130) CFA_SP SP+-2
          CFI (cfiCond130) CFA_XSP16 add(XSP16, 20)
          CFI Block cfiPicker131 Using cfiCommon1
          CFI (cfiPicker131) NoFunction
          CFI (cfiPicker131) Picker
        MOV       DPL,R7
        MOV       DPH,A
        LCALL     ?Subroutine71 & 0xFFFF
??CrossCallReturnLabel_128:
        RET
          CFI EndBlock cfiCond129
          CFI EndBlock cfiCond130
          CFI EndBlock cfiPicker131

        RSEG BANKED_CODE:HUGECODE:NOROOT(0)
?Subroutine71:
          CFI Block cfiCond132 Using cfiCommon0
          CFI Function ZDP_MatchDescReq
          CFI Conditional ??CrossCallReturnLabel_127, ??CrossCallReturnLabel_2
          CFI R6 load(1, XDATA, add(CFA_XSP16, literal(-14)))
          CFI VB load(1, XDATA, add(CFA_XSP16, literal(-13)))
          CFI V0 load(1, XDATA, add(CFA_XSP16, literal(-12)))
          CFI V1 load(1, XDATA, add(CFA_XSP16, literal(-11)))
          CFI V2 load(1, XDATA, add(CFA_XSP16, literal(-10)))
          CFI V3 load(1, XDATA, add(CFA_XSP16, literal(-9)))
          CFI V4 load(1, XDATA, add(CFA_XSP16, literal(-8)))
          CFI V5 load(1, XDATA, add(CFA_XSP16, literal(-7)))
          CFI R7 load(1, XDATA, add(CFA_XSP16, literal(-6)))
          CFI ?RET_LOW load(1, XDATA, add(CFA_XSP16, literal(-5)))
          CFI ?RET_HIGH load(1, XDATA, add(CFA_XSP16, literal(-4)))
          CFI ?BRET_EXT load(1, XDATA, add(CFA_XSP16, literal(-3)))
          CFI DPL0 load(1, XDATA, add(CFA_XSP16, literal(-2)))
          CFI DPH0 load(1, XDATA, add(CFA_XSP16, literal(-1)))
          CFI CFA_SP SP+-4
          CFI CFA_XSP16 add(XSP16, 14)
          CFI Block cfiCond133 Using cfiCommon0
          CFI (cfiCond133) Function ZDP_MatchDescReq
          CFI (cfiCond133) Conditional ??CrossCallReturnLabel_127, ??CrossCallReturnLabel_3
          CFI (cfiCond133) R6 load(1, XDATA, add(CFA_XSP16, literal(-14)))
          CFI (cfiCond133) VB load(1, XDATA, add(CFA_XSP16, literal(-13)))
          CFI (cfiCond133) V0 load(1, XDATA, add(CFA_XSP16, literal(-12)))
          CFI (cfiCond133) V1 load(1, XDATA, add(CFA_XSP16, literal(-11)))
          CFI (cfiCond133) V2 load(1, XDATA, add(CFA_XSP16, literal(-10)))
          CFI (cfiCond133) V3 load(1, XDATA, add(CFA_XSP16, literal(-9)))
          CFI (cfiCond133) V4 load(1, XDATA, add(CFA_XSP16, literal(-8)))
          CFI (cfiCond133) V5 load(1, XDATA, add(CFA_XSP16, literal(-7)))
          CFI (cfiCond133) R7 load(1, XDATA, add(CFA_XSP16, literal(-6)))
          CFI (cfiCond133) ?RET_LOW load(1, XDATA, add(CFA_XSP16, literal(-5)))
          CFI (cfiCond133) ?RET_HIGH load(1, XDATA, add(CFA_XSP16, literal(-4)))
          CFI (cfiCond133) ?BRET_EXT load(1, XDATA, add(CFA_XSP16, literal(-3)))
          CFI (cfiCond133) DPL0 load(1, XDATA, add(CFA_XSP16, literal(-2)))
          CFI (cfiCond133) DPH0 load(1, XDATA, add(CFA_XSP16, literal(-1)))
          CFI (cfiCond133) CFA_SP SP+-4
          CFI (cfiCond133) CFA_XSP16 add(XSP16, 14)
          CFI Block cfiCond134 Using cfiCommon0
          CFI (cfiCond134) Function ZDP_SimpleDescMsg
          CFI (cfiCond134) Conditional ??CrossCallReturnLabel_128, ??CrossCallReturnLabel_88
          CFI (cfiCond134) R6 load(1, XDATA, add(CFA_XSP16, literal(-20)))
          CFI (cfiCond134) VB load(1, XDATA, add(CFA_XSP16, literal(-19)))
          CFI (cfiCond134) V0 load(1, XDATA, add(CFA_XSP16, literal(-18)))
          CFI (cfiCond134) V1 load(1, XDATA, add(CFA_XSP16, literal(-17)))
          CFI (cfiCond134) V2 load(1, XDATA, add(CFA_XSP16, literal(-16)))
          CFI (cfiCond134) V3 load(1, XDATA, add(CFA_XSP16, literal(-15)))
          CFI (cfiCond134) V4 load(1, XDATA, add(CFA_XSP16, literal(-14)))
          CFI (cfiCond134) V5 load(1, XDATA, add(CFA_XSP16, literal(-13)))
          CFI (cfiCond134) V6 load(1, XDATA, add(CFA_XSP16, literal(-12)))
          CFI (cfiCond134) V7 load(1, XDATA, add(CFA_XSP16, literal(-11)))
          CFI (cfiCond134) V8 load(1, XDATA, add(CFA_XSP16, literal(-10)))
          CFI (cfiCond134) V9 load(1, XDATA, add(CFA_XSP16, literal(-9)))
          CFI (cfiCond134) V10 load(1, XDATA, add(CFA_XSP16, literal(-8)))
          CFI (cfiCond134) V11 load(1, XDATA, add(CFA_XSP16, literal(-7)))
          CFI (cfiCond134) R7 load(1, XDATA, add(CFA_XSP16, literal(-6)))
          CFI (cfiCond134) ?RET_LOW load(1, XDATA, add(CFA_XSP16, literal(-5)))
          CFI (cfiCond134) ?RET_HIGH load(1, XDATA, add(CFA_XSP16, literal(-4)))
          CFI (cfiCond134) ?BRET_EXT load(1, XDATA, add(CFA_XSP16, literal(-3)))
          CFI (cfiCond134) DPL0 load(1, XDATA, add(CFA_XSP16, literal(-2)))
          CFI (cfiCond134) DPH0 load(1, XDATA, add(CFA_XSP16, literal(-1)))
          CFI (cfiCond134) CFA_SP SP+-4
          CFI (cfiCond134) CFA_XSP16 add(XSP16, 20)
          CFI Block cfiCond135 Using cfiCommon0
          CFI (cfiCond135) Function ZDP_SimpleDescMsg
          CFI (cfiCond135) Conditional ??CrossCallReturnLabel_128, ??CrossCallReturnLabel_89
          CFI (cfiCond135) R6 load(1, XDATA, add(CFA_XSP16, literal(-20)))
          CFI (cfiCond135) VB load(1, XDATA, add(CFA_XSP16, literal(-19)))
          CFI (cfiCond135) V0 load(1, XDATA, add(CFA_XSP16, literal(-18)))
          CFI (cfiCond135) V1 load(1, XDATA, add(CFA_XSP16, literal(-17)))
          CFI (cfiCond135) V2 load(1, XDATA, add(CFA_XSP16, literal(-16)))
          CFI (cfiCond135) V3 load(1, XDATA, add(CFA_XSP16, literal(-15)))
          CFI (cfiCond135) V4 load(1, XDATA, add(CFA_XSP16, literal(-14)))
          CFI (cfiCond135) V5 load(1, XDATA, add(CFA_XSP16, literal(-13)))
          CFI (cfiCond135) V6 load(1, XDATA, add(CFA_XSP16, literal(-12)))
          CFI (cfiCond135) V7 load(1, XDATA, add(CFA_XSP16, literal(-11)))
          CFI (cfiCond135) V8 load(1, XDATA, add(CFA_XSP16, literal(-10)))
          CFI (cfiCond135) V9 load(1, XDATA, add(CFA_XSP16, literal(-9)))
          CFI (cfiCond135) V10 load(1, XDATA, add(CFA_XSP16, literal(-8)))
          CFI (cfiCond135) V11 load(1, XDATA, add(CFA_XSP16, literal(-7)))
          CFI (cfiCond135) R7 load(1, XDATA, add(CFA_XSP16, literal(-6)))
          CFI (cfiCond135) ?RET_LOW load(1, XDATA, add(CFA_XSP16, literal(-5)))
          CFI (cfiCond135) ?RET_HIGH load(1, XDATA, add(CFA_XSP16, literal(-4)))
          CFI (cfiCond135) ?BRET_EXT load(1, XDATA, add(CFA_XSP16, literal(-3)))
          CFI (cfiCond135) DPL0 load(1, XDATA, add(CFA_XSP16, literal(-2)))
          CFI (cfiCond135) DPH0 load(1, XDATA, add(CFA_XSP16, literal(-1)))
          CFI (cfiCond135) CFA_SP SP+-4
          CFI (cfiCond135) CFA_XSP16 add(XSP16, 20)
          CFI Block cfiPicker136 Using cfiCommon1
          CFI (cfiPicker136) NoFunction
          CFI (cfiPicker136) Picker
        INC       DPTR
        MOVX      A,@DPTR
        MOV       DPL,R0
        MOV       DPH,R1
        INC       DPTR
        MOVX      @DPTR,A
        MOV       A,R0
        ADD       A,#0x2
        MOV       R0,A
        RET
          CFI EndBlock cfiCond132
          CFI EndBlock cfiCond133
          CFI EndBlock cfiCond134
          CFI EndBlock cfiCond135
          CFI EndBlock cfiPicker136

        RSEG BANKED_CODE:HUGECODE:NOROOT(0)
?Subroutine38:
          CFI Block cfiCond137 Using cfiCommon0
          CFI Function ZDP_SimpleDescMsg
          CFI Conditional ??CrossCallReturnLabel_56
          CFI R6 load(1, XDATA, add(CFA_XSP16, literal(-20)))
          CFI VB load(1, XDATA, add(CFA_XSP16, literal(-19)))
          CFI V0 load(1, XDATA, add(CFA_XSP16, literal(-18)))
          CFI V1 load(1, XDATA, add(CFA_XSP16, literal(-17)))
          CFI V2 load(1, XDATA, add(CFA_XSP16, literal(-16)))
          CFI V3 load(1, XDATA, add(CFA_XSP16, literal(-15)))
          CFI V4 load(1, XDATA, add(CFA_XSP16, literal(-14)))
          CFI V5 load(1, XDATA, add(CFA_XSP16, literal(-13)))
          CFI V6 load(1, XDATA, add(CFA_XSP16, literal(-12)))
          CFI V7 load(1, XDATA, add(CFA_XSP16, literal(-11)))
          CFI V8 load(1, XDATA, add(CFA_XSP16, literal(-10)))
          CFI V9 load(1, XDATA, add(CFA_XSP16, literal(-9)))
          CFI V10 load(1, XDATA, add(CFA_XSP16, literal(-8)))
          CFI V11 load(1, XDATA, add(CFA_XSP16, literal(-7)))
          CFI R7 load(1, XDATA, add(CFA_XSP16, literal(-6)))
          CFI ?RET_LOW load(1, XDATA, add(CFA_XSP16, literal(-5)))
          CFI ?RET_HIGH load(1, XDATA, add(CFA_XSP16, literal(-4)))
          CFI ?BRET_EXT load(1, XDATA, add(CFA_XSP16, literal(-3)))
          CFI DPL0 load(1, XDATA, add(CFA_XSP16, literal(-2)))
          CFI DPH0 load(1, XDATA, add(CFA_XSP16, literal(-1)))
          CFI CFA_SP SP+-2
          CFI CFA_XSP16 add(XSP16, 20)
          CFI Block cfiCond138 Using cfiCommon0
          CFI (cfiCond138) Function ZDP_SimpleDescMsg
          CFI (cfiCond138) Conditional ??CrossCallReturnLabel_57
          CFI (cfiCond138) R6 load(1, XDATA, add(CFA_XSP16, literal(-20)))
          CFI (cfiCond138) VB load(1, XDATA, add(CFA_XSP16, literal(-19)))
          CFI (cfiCond138) V0 load(1, XDATA, add(CFA_XSP16, literal(-18)))
          CFI (cfiCond138) V1 load(1, XDATA, add(CFA_XSP16, literal(-17)))
          CFI (cfiCond138) V2 load(1, XDATA, add(CFA_XSP16, literal(-16)))
          CFI (cfiCond138) V3 load(1, XDATA, add(CFA_XSP16, literal(-15)))
          CFI (cfiCond138) V4 load(1, XDATA, add(CFA_XSP16, literal(-14)))
          CFI (cfiCond138) V5 load(1, XDATA, add(CFA_XSP16, literal(-13)))
          CFI (cfiCond138) V6 load(1, XDATA, add(CFA_XSP16, literal(-12)))
          CFI (cfiCond138) V7 load(1, XDATA, add(CFA_XSP16, literal(-11)))
          CFI (cfiCond138) V8 load(1, XDATA, add(CFA_XSP16, literal(-10)))
          CFI (cfiCond138) V9 load(1, XDATA, add(CFA_XSP16, literal(-9)))
          CFI (cfiCond138) V10 load(1, XDATA, add(CFA_XSP16, literal(-8)))
          CFI (cfiCond138) V11 load(1, XDATA, add(CFA_XSP16, literal(-7)))
          CFI (cfiCond138) R7 load(1, XDATA, add(CFA_XSP16, literal(-6)))
          CFI (cfiCond138) ?RET_LOW load(1, XDATA, add(CFA_XSP16, literal(-5)))
          CFI (cfiCond138) ?RET_HIGH load(1, XDATA, add(CFA_XSP16, literal(-4)))
          CFI (cfiCond138) ?BRET_EXT load(1, XDATA, add(CFA_XSP16, literal(-3)))
          CFI (cfiCond138) DPL0 load(1, XDATA, add(CFA_XSP16, literal(-2)))
          CFI (cfiCond138) DPH0 load(1, XDATA, add(CFA_XSP16, literal(-1)))
          CFI (cfiCond138) CFA_SP SP+-2
          CFI (cfiCond138) CFA_XSP16 add(XSP16, 20)
          CFI Block cfiPicker139 Using cfiCommon1
          CFI (cfiPicker139) NoFunction
          CFI (cfiPicker139) Picker
        LCALL     ?Subroutine88 & 0xFFFF
??CrossCallReturnLabel_150:
        MOVX      A,@DPTR
        RET
          CFI EndBlock cfiCond137
          CFI EndBlock cfiCond138
          CFI EndBlock cfiPicker139

        RSEG BANKED_CODE:HUGECODE:NOROOT(0)
?Subroutine88:
          CFI Block cfiCond140 Using cfiCommon0
          CFI Function ZDP_MatchDescReq
          CFI Conditional ??CrossCallReturnLabel_149, ??CrossCallReturnLabel_2
          CFI R6 load(1, XDATA, add(CFA_XSP16, literal(-14)))
          CFI VB load(1, XDATA, add(CFA_XSP16, literal(-13)))
          CFI V0 load(1, XDATA, add(CFA_XSP16, literal(-12)))
          CFI V1 load(1, XDATA, add(CFA_XSP16, literal(-11)))
          CFI V2 load(1, XDATA, add(CFA_XSP16, literal(-10)))
          CFI V3 load(1, XDATA, add(CFA_XSP16, literal(-9)))
          CFI V4 load(1, XDATA, add(CFA_XSP16, literal(-8)))
          CFI V5 load(1, XDATA, add(CFA_XSP16, literal(-7)))
          CFI R7 load(1, XDATA, add(CFA_XSP16, literal(-6)))
          CFI ?RET_LOW load(1, XDATA, add(CFA_XSP16, literal(-5)))
          CFI ?RET_HIGH load(1, XDATA, add(CFA_XSP16, literal(-4)))
          CFI ?BRET_EXT load(1, XDATA, add(CFA_XSP16, literal(-3)))
          CFI DPL0 load(1, XDATA, add(CFA_XSP16, literal(-2)))
          CFI DPH0 load(1, XDATA, add(CFA_XSP16, literal(-1)))
          CFI CFA_SP SP+-4
          CFI CFA_XSP16 add(XSP16, 14)
          CFI Block cfiCond141 Using cfiCommon0
          CFI (cfiCond141) Function ZDP_MatchDescReq
          CFI (cfiCond141) Conditional ??CrossCallReturnLabel_149, ??CrossCallReturnLabel_3
          CFI (cfiCond141) R6 load(1, XDATA, add(CFA_XSP16, literal(-14)))
          CFI (cfiCond141) VB load(1, XDATA, add(CFA_XSP16, literal(-13)))
          CFI (cfiCond141) V0 load(1, XDATA, add(CFA_XSP16, literal(-12)))
          CFI (cfiCond141) V1 load(1, XDATA, add(CFA_XSP16, literal(-11)))
          CFI (cfiCond141) V2 load(1, XDATA, add(CFA_XSP16, literal(-10)))
          CFI (cfiCond141) V3 load(1, XDATA, add(CFA_XSP16, literal(-9)))
          CFI (cfiCond141) V4 load(1, XDATA, add(CFA_XSP16, literal(-8)))
          CFI (cfiCond141) V5 load(1, XDATA, add(CFA_XSP16, literal(-7)))
          CFI (cfiCond141) R7 load(1, XDATA, add(CFA_XSP16, literal(-6)))
          CFI (cfiCond141) ?RET_LOW load(1, XDATA, add(CFA_XSP16, literal(-5)))
          CFI (cfiCond141) ?RET_HIGH load(1, XDATA, add(CFA_XSP16, literal(-4)))
          CFI (cfiCond141) ?BRET_EXT load(1, XDATA, add(CFA_XSP16, literal(-3)))
          CFI (cfiCond141) DPL0 load(1, XDATA, add(CFA_XSP16, literal(-2)))
          CFI (cfiCond141) DPH0 load(1, XDATA, add(CFA_XSP16, literal(-1)))
          CFI (cfiCond141) CFA_SP SP+-4
          CFI (cfiCond141) CFA_XSP16 add(XSP16, 14)
          CFI Block cfiCond142 Using cfiCommon0
          CFI (cfiCond142) Function ZDP_SimpleDescMsg
          CFI (cfiCond142) Conditional ??CrossCallReturnLabel_150, ??CrossCallReturnLabel_56
          CFI (cfiCond142) R6 load(1, XDATA, add(CFA_XSP16, literal(-20)))
          CFI (cfiCond142) VB load(1, XDATA, add(CFA_XSP16, literal(-19)))
          CFI (cfiCond142) V0 load(1, XDATA, add(CFA_XSP16, literal(-18)))
          CFI (cfiCond142) V1 load(1, XDATA, add(CFA_XSP16, literal(-17)))
          CFI (cfiCond142) V2 load(1, XDATA, add(CFA_XSP16, literal(-16)))
          CFI (cfiCond142) V3 load(1, XDATA, add(CFA_XSP16, literal(-15)))
          CFI (cfiCond142) V4 load(1, XDATA, add(CFA_XSP16, literal(-14)))
          CFI (cfiCond142) V5 load(1, XDATA, add(CFA_XSP16, literal(-13)))
          CFI (cfiCond142) V6 load(1, XDATA, add(CFA_XSP16, literal(-12)))
          CFI (cfiCond142) V7 load(1, XDATA, add(CFA_XSP16, literal(-11)))
          CFI (cfiCond142) V8 load(1, XDATA, add(CFA_XSP16, literal(-10)))
          CFI (cfiCond142) V9 load(1, XDATA, add(CFA_XSP16, literal(-9)))
          CFI (cfiCond142) V10 load(1, XDATA, add(CFA_XSP16, literal(-8)))
          CFI (cfiCond142) V11 load(1, XDATA, add(CFA_XSP16, literal(-7)))
          CFI (cfiCond142) R7 load(1, XDATA, add(CFA_XSP16, literal(-6)))
          CFI (cfiCond142) ?RET_LOW load(1, XDATA, add(CFA_XSP16, literal(-5)))
          CFI (cfiCond142) ?RET_HIGH load(1, XDATA, add(CFA_XSP16, literal(-4)))
          CFI (cfiCond142) ?BRET_EXT load(1, XDATA, add(CFA_XSP16, literal(-3)))
          CFI (cfiCond142) DPL0 load(1, XDATA, add(CFA_XSP16, literal(-2)))
          CFI (cfiCond142) DPH0 load(1, XDATA, add(CFA_XSP16, literal(-1)))
          CFI (cfiCond142) CFA_SP SP+-4
          CFI (cfiCond142) CFA_XSP16 add(XSP16, 20)
          CFI Block cfiCond143 Using cfiCommon0
          CFI (cfiCond143) Function ZDP_SimpleDescMsg
          CFI (cfiCond143) Conditional ??CrossCallReturnLabel_150, ??CrossCallReturnLabel_57
          CFI (cfiCond143) R6 load(1, XDATA, add(CFA_XSP16, literal(-20)))
          CFI (cfiCond143) VB load(1, XDATA, add(CFA_XSP16, literal(-19)))
          CFI (cfiCond143) V0 load(1, XDATA, add(CFA_XSP16, literal(-18)))
          CFI (cfiCond143) V1 load(1, XDATA, add(CFA_XSP16, literal(-17)))
          CFI (cfiCond143) V2 load(1, XDATA, add(CFA_XSP16, literal(-16)))
          CFI (cfiCond143) V3 load(1, XDATA, add(CFA_XSP16, literal(-15)))
          CFI (cfiCond143) V4 load(1, XDATA, add(CFA_XSP16, literal(-14)))
          CFI (cfiCond143) V5 load(1, XDATA, add(CFA_XSP16, literal(-13)))
          CFI (cfiCond143) V6 load(1, XDATA, add(CFA_XSP16, literal(-12)))
          CFI (cfiCond143) V7 load(1, XDATA, add(CFA_XSP16, literal(-11)))
          CFI (cfiCond143) V8 load(1, XDATA, add(CFA_XSP16, literal(-10)))
          CFI (cfiCond143) V9 load(1, XDATA, add(CFA_XSP16, literal(-9)))
          CFI (cfiCond143) V10 load(1, XDATA, add(CFA_XSP16, literal(-8)))
          CFI (cfiCond143) V11 load(1, XDATA, add(CFA_XSP16, literal(-7)))
          CFI (cfiCond143) R7 load(1, XDATA, add(CFA_XSP16, literal(-6)))
          CFI (cfiCond143) ?RET_LOW load(1, XDATA, add(CFA_XSP16, literal(-5)))
          CFI (cfiCond143) ?RET_HIGH load(1, XDATA, add(CFA_XSP16, literal(-4)))
          CFI (cfiCond143) ?BRET_EXT load(1, XDATA, add(CFA_XSP16, literal(-3)))
          CFI (cfiCond143) DPL0 load(1, XDATA, add(CFA_XSP16, literal(-2)))
          CFI (cfiCond143) DPH0 load(1, XDATA, add(CFA_XSP16, literal(-1)))
          CFI (cfiCond143) CFA_SP SP+-4
          CFI (cfiCond143) CFA_XSP16 add(XSP16, 20)
          CFI Block cfiCond144 Using cfiCommon0
          CFI (cfiCond144) Function ZDP_SimpleDescMsg
          CFI (cfiCond144) Conditional ??CrossCallReturnLabel_151, ??CrossCallReturnLabel_141, ??CrossCallReturnLabel_4
          CFI (cfiCond144) R6 load(1, XDATA, add(CFA_XSP16, literal(-20)))
          CFI (cfiCond144) VB load(1, XDATA, add(CFA_XSP16, literal(-19)))
          CFI (cfiCond144) V0 load(1, XDATA, add(CFA_XSP16, literal(-18)))
          CFI (cfiCond144) V1 load(1, XDATA, add(CFA_XSP16, literal(-17)))
          CFI (cfiCond144) V2 load(1, XDATA, add(CFA_XSP16, literal(-16)))
          CFI (cfiCond144) V3 load(1, XDATA, add(CFA_XSP16, literal(-15)))
          CFI (cfiCond144) V4 load(1, XDATA, add(CFA_XSP16, literal(-14)))
          CFI (cfiCond144) V5 load(1, XDATA, add(CFA_XSP16, literal(-13)))
          CFI (cfiCond144) V6 load(1, XDATA, add(CFA_XSP16, literal(-12)))
          CFI (cfiCond144) V7 load(1, XDATA, add(CFA_XSP16, literal(-11)))
          CFI (cfiCond144) V8 load(1, XDATA, add(CFA_XSP16, literal(-10)))
          CFI (cfiCond144) V9 load(1, XDATA, add(CFA_XSP16, literal(-9)))
          CFI (cfiCond144) V10 load(1, XDATA, add(CFA_XSP16, literal(-8)))
          CFI (cfiCond144) V11 load(1, XDATA, add(CFA_XSP16, literal(-7)))
          CFI (cfiCond144) R7 load(1, XDATA, add(CFA_XSP16, literal(-6)))
          CFI (cfiCond144) ?RET_LOW load(1, XDATA, add(CFA_XSP16, literal(-5)))
          CFI (cfiCond144) ?RET_HIGH load(1, XDATA, add(CFA_XSP16, literal(-4)))
          CFI (cfiCond144) ?BRET_EXT load(1, XDATA, add(CFA_XSP16, literal(-3)))
          CFI (cfiCond144) DPL0 load(1, XDATA, add(CFA_XSP16, literal(-2)))
          CFI (cfiCond144) DPH0 load(1, XDATA, add(CFA_XSP16, literal(-1)))
          CFI (cfiCond144) CFA_SP SP+-6
          CFI (cfiCond144) CFA_XSP16 add(XSP16, 20)
          CFI Block cfiCond145 Using cfiCommon0
          CFI (cfiCond145) Function ZDP_SimpleDescMsg
          CFI (cfiCond145) Conditional ??CrossCallReturnLabel_151, ??CrossCallReturnLabel_141, ??CrossCallReturnLabel_5
          CFI (cfiCond145) R6 load(1, XDATA, add(CFA_XSP16, literal(-20)))
          CFI (cfiCond145) VB load(1, XDATA, add(CFA_XSP16, literal(-19)))
          CFI (cfiCond145) V0 load(1, XDATA, add(CFA_XSP16, literal(-18)))
          CFI (cfiCond145) V1 load(1, XDATA, add(CFA_XSP16, literal(-17)))
          CFI (cfiCond145) V2 load(1, XDATA, add(CFA_XSP16, literal(-16)))
          CFI (cfiCond145) V3 load(1, XDATA, add(CFA_XSP16, literal(-15)))
          CFI (cfiCond145) V4 load(1, XDATA, add(CFA_XSP16, literal(-14)))
          CFI (cfiCond145) V5 load(1, XDATA, add(CFA_XSP16, literal(-13)))
          CFI (cfiCond145) V6 load(1, XDATA, add(CFA_XSP16, literal(-12)))
          CFI (cfiCond145) V7 load(1, XDATA, add(CFA_XSP16, literal(-11)))
          CFI (cfiCond145) V8 load(1, XDATA, add(CFA_XSP16, literal(-10)))
          CFI (cfiCond145) V9 load(1, XDATA, add(CFA_XSP16, literal(-9)))
          CFI (cfiCond145) V10 load(1, XDATA, add(CFA_XSP16, literal(-8)))
          CFI (cfiCond145) V11 load(1, XDATA, add(CFA_XSP16, literal(-7)))
          CFI (cfiCond145) R7 load(1, XDATA, add(CFA_XSP16, literal(-6)))
          CFI (cfiCond145) ?RET_LOW load(1, XDATA, add(CFA_XSP16, literal(-5)))
          CFI (cfiCond145) ?RET_HIGH load(1, XDATA, add(CFA_XSP16, literal(-4)))
          CFI (cfiCond145) ?BRET_EXT load(1, XDATA, add(CFA_XSP16, literal(-3)))
          CFI (cfiCond145) DPL0 load(1, XDATA, add(CFA_XSP16, literal(-2)))
          CFI (cfiCond145) DPH0 load(1, XDATA, add(CFA_XSP16, literal(-1)))
          CFI (cfiCond145) CFA_SP SP+-6
          CFI (cfiCond145) CFA_XSP16 add(XSP16, 20)
          CFI Block cfiCond146 Using cfiCommon0
          CFI (cfiCond146) Function ZDP_UserDescSet
          CFI (cfiCond146) Conditional ??CrossCallReturnLabel_151, ??CrossCallReturnLabel_142, ??CrossCallReturnLabel_44
          CFI (cfiCond146) R6 load(1, XDATA, add(CFA_XSP16, literal(-15)))
          CFI (cfiCond146) VB load(1, XDATA, add(CFA_XSP16, literal(-14)))
          CFI (cfiCond146) V0 load(1, XDATA, add(CFA_XSP16, literal(-13)))
          CFI (cfiCond146) V1 load(1, XDATA, add(CFA_XSP16, literal(-12)))
          CFI (cfiCond146) V2 load(1, XDATA, add(CFA_XSP16, literal(-11)))
          CFI (cfiCond146) V3 load(1, XDATA, add(CFA_XSP16, literal(-10)))
          CFI (cfiCond146) V4 load(1, XDATA, add(CFA_XSP16, literal(-9)))
          CFI (cfiCond146) V5 load(1, XDATA, add(CFA_XSP16, literal(-8)))
          CFI (cfiCond146) V6 load(1, XDATA, add(CFA_XSP16, literal(-7)))
          CFI (cfiCond146) R7 load(1, XDATA, add(CFA_XSP16, literal(-6)))
          CFI (cfiCond146) ?RET_LOW load(1, XDATA, add(CFA_XSP16, literal(-5)))
          CFI (cfiCond146) ?RET_HIGH load(1, XDATA, add(CFA_XSP16, literal(-4)))
          CFI (cfiCond146) ?BRET_EXT load(1, XDATA, add(CFA_XSP16, literal(-3)))
          CFI (cfiCond146) DPL0 load(1, XDATA, add(CFA_XSP16, literal(-2)))
          CFI (cfiCond146) DPH0 load(1, XDATA, add(CFA_XSP16, literal(-1)))
          CFI (cfiCond146) CFA_SP SP+-6
          CFI (cfiCond146) CFA_XSP16 add(XSP16, 15)
          CFI Block cfiCond147 Using cfiCommon0
          CFI (cfiCond147) Function ZDP_MgmtNwkDiscRsp
          CFI (cfiCond147) Conditional ??CrossCallReturnLabel_151, ??CrossCallReturnLabel_142, ??CrossCallReturnLabel_45
          CFI (cfiCond147) R6 load(1, XDATA, add(CFA_XSP16, literal(-22)))
          CFI (cfiCond147) VB load(1, XDATA, add(CFA_XSP16, literal(-21)))
          CFI (cfiCond147) V0 load(1, XDATA, add(CFA_XSP16, literal(-20)))
          CFI (cfiCond147) V1 load(1, XDATA, add(CFA_XSP16, literal(-19)))
          CFI (cfiCond147) V2 load(1, XDATA, add(CFA_XSP16, literal(-18)))
          CFI (cfiCond147) V3 load(1, XDATA, add(CFA_XSP16, literal(-17)))
          CFI (cfiCond147) V4 load(1, XDATA, add(CFA_XSP16, literal(-16)))
          CFI (cfiCond147) V5 load(1, XDATA, add(CFA_XSP16, literal(-15)))
          CFI (cfiCond147) V6 load(1, XDATA, add(CFA_XSP16, literal(-14)))
          CFI (cfiCond147) V7 load(1, XDATA, add(CFA_XSP16, literal(-13)))
          CFI (cfiCond147) V8 load(1, XDATA, add(CFA_XSP16, literal(-12)))
          CFI (cfiCond147) V9 load(1, XDATA, add(CFA_XSP16, literal(-11)))
          CFI (cfiCond147) V10 load(1, XDATA, add(CFA_XSP16, literal(-10)))
          CFI (cfiCond147) V11 load(1, XDATA, add(CFA_XSP16, literal(-9)))
          CFI (cfiCond147) V12 load(1, XDATA, add(CFA_XSP16, literal(-8)))
          CFI (cfiCond147) V13 load(1, XDATA, add(CFA_XSP16, literal(-7)))
          CFI (cfiCond147) R7 load(1, XDATA, add(CFA_XSP16, literal(-6)))
          CFI (cfiCond147) ?RET_LOW load(1, XDATA, add(CFA_XSP16, literal(-5)))
          CFI (cfiCond147) ?RET_HIGH load(1, XDATA, add(CFA_XSP16, literal(-4)))
          CFI (cfiCond147) ?BRET_EXT load(1, XDATA, add(CFA_XSP16, literal(-3)))
          CFI (cfiCond147) DPL0 load(1, XDATA, add(CFA_XSP16, literal(-2)))
          CFI (cfiCond147) DPH0 load(1, XDATA, add(CFA_XSP16, literal(-1)))
          CFI (cfiCond147) CFA_SP SP+-6
          CFI (cfiCond147) CFA_XSP16 add(XSP16, 23)
          CFI Block cfiPicker148 Using cfiCommon1
          CFI (cfiPicker148) NoFunction
          CFI (cfiPicker148) Picker
        MOVX      @DPTR,A
        MOV       DPL,?V2
        MOV       DPH,?V3
        RET
          CFI EndBlock cfiCond140
          CFI EndBlock cfiCond141
          CFI EndBlock cfiCond142
          CFI EndBlock cfiCond143
          CFI EndBlock cfiCond144
          CFI EndBlock cfiCond145
          CFI EndBlock cfiCond146
          CFI EndBlock cfiCond147
          CFI EndBlock cfiPicker148

        RSEG BANKED_CODE:HUGECODE:NOROOT(0)
?Subroutine37:
          CFI Block cfiCond149 Using cfiCommon0
          CFI Function zdpProcessAddrReq
          CFI Conditional ??CrossCallReturnLabel_54
          CFI R6 load(1, XDATA, add(CFA_XSP16, literal(-20)))
          CFI VB load(1, XDATA, add(CFA_XSP16, literal(-19)))
          CFI V0 load(1, XDATA, add(CFA_XSP16, literal(-18)))
          CFI V1 load(1, XDATA, add(CFA_XSP16, literal(-17)))
          CFI V2 load(1, XDATA, add(CFA_XSP16, literal(-16)))
          CFI V3 load(1, XDATA, add(CFA_XSP16, literal(-15)))
          CFI V4 load(1, XDATA, add(CFA_XSP16, literal(-14)))
          CFI V5 load(1, XDATA, add(CFA_XSP16, literal(-13)))
          CFI V6 load(1, XDATA, add(CFA_XSP16, literal(-12)))
          CFI V7 load(1, XDATA, add(CFA_XSP16, literal(-11)))
          CFI V8 load(1, XDATA, add(CFA_XSP16, literal(-10)))
          CFI V9 load(1, XDATA, add(CFA_XSP16, literal(-9)))
          CFI V10 load(1, XDATA, add(CFA_XSP16, literal(-8)))
          CFI V11 load(1, XDATA, add(CFA_XSP16, literal(-7)))
          CFI R7 load(1, XDATA, add(CFA_XSP16, literal(-6)))
          CFI ?RET_LOW load(1, XDATA, add(CFA_XSP16, literal(-5)))
          CFI ?RET_HIGH load(1, XDATA, add(CFA_XSP16, literal(-4)))
          CFI ?BRET_EXT load(1, XDATA, add(CFA_XSP16, literal(-3)))
          CFI DPL0 load(1, XDATA, add(CFA_XSP16, literal(-2)))
          CFI DPH0 load(1, XDATA, add(CFA_XSP16, literal(-1)))
          CFI CFA_SP SP+-2
          CFI CFA_XSP16 add(XSP16, 28)
          CFI Block cfiCond150 Using cfiCommon0
          CFI (cfiCond150) Function ZDP_SimpleDescMsg
          CFI (cfiCond150) Conditional ??CrossCallReturnLabel_55
          CFI (cfiCond150) R6 load(1, XDATA, add(CFA_XSP16, literal(-20)))
          CFI (cfiCond150) VB load(1, XDATA, add(CFA_XSP16, literal(-19)))
          CFI (cfiCond150) V0 load(1, XDATA, add(CFA_XSP16, literal(-18)))
          CFI (cfiCond150) V1 load(1, XDATA, add(CFA_XSP16, literal(-17)))
          CFI (cfiCond150) V2 load(1, XDATA, add(CFA_XSP16, literal(-16)))
          CFI (cfiCond150) V3 load(1, XDATA, add(CFA_XSP16, literal(-15)))
          CFI (cfiCond150) V4 load(1, XDATA, add(CFA_XSP16, literal(-14)))
          CFI (cfiCond150) V5 load(1, XDATA, add(CFA_XSP16, literal(-13)))
          CFI (cfiCond150) V6 load(1, XDATA, add(CFA_XSP16, literal(-12)))
          CFI (cfiCond150) V7 load(1, XDATA, add(CFA_XSP16, literal(-11)))
          CFI (cfiCond150) V8 load(1, XDATA, add(CFA_XSP16, literal(-10)))
          CFI (cfiCond150) V9 load(1, XDATA, add(CFA_XSP16, literal(-9)))
          CFI (cfiCond150) V10 load(1, XDATA, add(CFA_XSP16, literal(-8)))
          CFI (cfiCond150) V11 load(1, XDATA, add(CFA_XSP16, literal(-7)))
          CFI (cfiCond150) R7 load(1, XDATA, add(CFA_XSP16, literal(-6)))
          CFI (cfiCond150) ?RET_LOW load(1, XDATA, add(CFA_XSP16, literal(-5)))
          CFI (cfiCond150) ?RET_HIGH load(1, XDATA, add(CFA_XSP16, literal(-4)))
          CFI (cfiCond150) ?BRET_EXT load(1, XDATA, add(CFA_XSP16, literal(-3)))
          CFI (cfiCond150) DPL0 load(1, XDATA, add(CFA_XSP16, literal(-2)))
          CFI (cfiCond150) DPH0 load(1, XDATA, add(CFA_XSP16, literal(-1)))
          CFI (cfiCond150) CFA_SP SP+-2
          CFI (cfiCond150) CFA_XSP16 add(XSP16, 20)
          CFI Block cfiPicker151 Using cfiCommon1
          CFI (cfiPicker151) NoFunction
          CFI (cfiPicker151) Picker
        MOVX      @DPTR,A
        ; Setup parameters for call to function fillAndSend
        MOV       DPL,?V8
        MOV       DPH,?V9
        MOVX      A,@DPTR
        RET
          CFI EndBlock cfiCond149
          CFI EndBlock cfiCond150
          CFI EndBlock cfiPicker151

        RSEG BANKED_CODE:HUGECODE:NOROOT(0)
?Subroutine31:
          CFI Block cfiCond152 Using cfiCommon0
          CFI Function ZDP_SimpleDescMsg
          CFI Conditional ??CrossCallReturnLabel_171
          CFI R6 load(1, XDATA, add(CFA_XSP16, literal(-20)))
          CFI VB load(1, XDATA, add(CFA_XSP16, literal(-19)))
          CFI V0 load(1, XDATA, add(CFA_XSP16, literal(-18)))
          CFI V1 load(1, XDATA, add(CFA_XSP16, literal(-17)))
          CFI V2 load(1, XDATA, add(CFA_XSP16, literal(-16)))
          CFI V3 load(1, XDATA, add(CFA_XSP16, literal(-15)))
          CFI V4 load(1, XDATA, add(CFA_XSP16, literal(-14)))
          CFI V5 load(1, XDATA, add(CFA_XSP16, literal(-13)))
          CFI V6 load(1, XDATA, add(CFA_XSP16, literal(-12)))
          CFI V7 load(1, XDATA, add(CFA_XSP16, literal(-11)))
          CFI V8 load(1, XDATA, add(CFA_XSP16, literal(-10)))
          CFI V9 load(1, XDATA, add(CFA_XSP16, literal(-9)))
          CFI V10 load(1, XDATA, add(CFA_XSP16, literal(-8)))
          CFI V11 load(1, XDATA, add(CFA_XSP16, literal(-7)))
          CFI R7 load(1, XDATA, add(CFA_XSP16, literal(-6)))
          CFI ?RET_LOW load(1, XDATA, add(CFA_XSP16, literal(-5)))
          CFI ?RET_HIGH load(1, XDATA, add(CFA_XSP16, literal(-4)))
          CFI ?BRET_EXT load(1, XDATA, add(CFA_XSP16, literal(-3)))
          CFI DPL0 load(1, XDATA, add(CFA_XSP16, literal(-2)))
          CFI DPH0 load(1, XDATA, add(CFA_XSP16, literal(-1)))
          CFI CFA_SP SP+-2
          CFI CFA_XSP16 add(XSP16, 20)
          CFI Block cfiCond153 Using cfiCommon0
          CFI (cfiCond153) Function ZDP_SimpleDescMsg
          CFI (cfiCond153) Conditional ??CrossCallReturnLabel_172
          CFI (cfiCond153) R6 load(1, XDATA, add(CFA_XSP16, literal(-20)))
          CFI (cfiCond153) VB load(1, XDATA, add(CFA_XSP16, literal(-19)))
          CFI (cfiCond153) V0 load(1, XDATA, add(CFA_XSP16, literal(-18)))
          CFI (cfiCond153) V1 load(1, XDATA, add(CFA_XSP16, literal(-17)))
          CFI (cfiCond153) V2 load(1, XDATA, add(CFA_XSP16, literal(-16)))
          CFI (cfiCond153) V3 load(1, XDATA, add(CFA_XSP16, literal(-15)))
          CFI (cfiCond153) V4 load(1, XDATA, add(CFA_XSP16, literal(-14)))
          CFI (cfiCond153) V5 load(1, XDATA, add(CFA_XSP16, literal(-13)))
          CFI (cfiCond153) V6 load(1, XDATA, add(CFA_XSP16, literal(-12)))
          CFI (cfiCond153) V7 load(1, XDATA, add(CFA_XSP16, literal(-11)))
          CFI (cfiCond153) V8 load(1, XDATA, add(CFA_XSP16, literal(-10)))
          CFI (cfiCond153) V9 load(1, XDATA, add(CFA_XSP16, literal(-9)))
          CFI (cfiCond153) V10 load(1, XDATA, add(CFA_XSP16, literal(-8)))
          CFI (cfiCond153) V11 load(1, XDATA, add(CFA_XSP16, literal(-7)))
          CFI (cfiCond153) R7 load(1, XDATA, add(CFA_XSP16, literal(-6)))
          CFI (cfiCond153) ?RET_LOW load(1, XDATA, add(CFA_XSP16, literal(-5)))
          CFI (cfiCond153) ?RET_HIGH load(1, XDATA, add(CFA_XSP16, literal(-4)))
          CFI (cfiCond153) ?BRET_EXT load(1, XDATA, add(CFA_XSP16, literal(-3)))
          CFI (cfiCond153) DPL0 load(1, XDATA, add(CFA_XSP16, literal(-2)))
          CFI (cfiCond153) DPH0 load(1, XDATA, add(CFA_XSP16, literal(-1)))
          CFI (cfiCond153) CFA_SP SP+-2
          CFI (cfiCond153) CFA_XSP16 add(XSP16, 20)
          CFI Block cfiPicker154 Using cfiCommon1
          CFI (cfiPicker154) NoFunction
          CFI (cfiPicker154) Picker
        INC       DPTR
        INC       DPTR
          CFI EndBlock cfiCond152
          CFI EndBlock cfiCond153
          CFI EndBlock cfiPicker154
        REQUIRE ??Subroutine102_0
        ; // Fall through to label ??Subroutine102_0

        RSEG BANKED_CODE:HUGECODE:NOROOT(0)
??Subroutine102_0:
          CFI Block cfiCond155 Using cfiCommon0
          CFI Function ZDP_NodeDescMsg
          CFI Conditional ??CrossCallReturnLabel_173
          CFI R6 load(1, XDATA, add(CFA_XSP16, literal(-10)))
          CFI VB load(1, XDATA, add(CFA_XSP16, literal(-9)))
          CFI V0 load(1, XDATA, add(CFA_XSP16, literal(-8)))
          CFI V1 load(1, XDATA, add(CFA_XSP16, literal(-7)))
          CFI R7 load(1, XDATA, add(CFA_XSP16, literal(-6)))
          CFI ?RET_LOW load(1, XDATA, add(CFA_XSP16, literal(-5)))
          CFI ?RET_HIGH load(1, XDATA, add(CFA_XSP16, literal(-4)))
          CFI ?BRET_EXT load(1, XDATA, add(CFA_XSP16, literal(-3)))
          CFI DPL0 load(1, XDATA, add(CFA_XSP16, literal(-2)))
          CFI DPH0 load(1, XDATA, add(CFA_XSP16, literal(-1)))
          CFI CFA_SP SP+-2
          CFI CFA_XSP16 add(XSP16, 10)
          CFI Block cfiCond156 Using cfiCommon0
          CFI (cfiCond156) Function ZDP_SimpleDescMsg
          CFI (cfiCond156) Conditional ??CrossCallReturnLabel_171
          CFI (cfiCond156) R6 load(1, XDATA, add(CFA_XSP16, literal(-20)))
          CFI (cfiCond156) VB load(1, XDATA, add(CFA_XSP16, literal(-19)))
          CFI (cfiCond156) V0 load(1, XDATA, add(CFA_XSP16, literal(-18)))
          CFI (cfiCond156) V1 load(1, XDATA, add(CFA_XSP16, literal(-17)))
          CFI (cfiCond156) V2 load(1, XDATA, add(CFA_XSP16, literal(-16)))
          CFI (cfiCond156) V3 load(1, XDATA, add(CFA_XSP16, literal(-15)))
          CFI (cfiCond156) V4 load(1, XDATA, add(CFA_XSP16, literal(-14)))
          CFI (cfiCond156) V5 load(1, XDATA, add(CFA_XSP16, literal(-13)))
          CFI (cfiCond156) V6 load(1, XDATA, add(CFA_XSP16, literal(-12)))
          CFI (cfiCond156) V7 load(1, XDATA, add(CFA_XSP16, literal(-11)))
          CFI (cfiCond156) V8 load(1, XDATA, add(CFA_XSP16, literal(-10)))
          CFI (cfiCond156) V9 load(1, XDATA, add(CFA_XSP16, literal(-9)))
          CFI (cfiCond156) V10 load(1, XDATA, add(CFA_XSP16, literal(-8)))
          CFI (cfiCond156) V11 load(1, XDATA, add(CFA_XSP16, literal(-7)))
          CFI (cfiCond156) R7 load(1, XDATA, add(CFA_XSP16, literal(-6)))
          CFI (cfiCond156) ?RET_LOW load(1, XDATA, add(CFA_XSP16, literal(-5)))
          CFI (cfiCond156) ?RET_HIGH load(1, XDATA, add(CFA_XSP16, literal(-4)))
          CFI (cfiCond156) ?BRET_EXT load(1, XDATA, add(CFA_XSP16, literal(-3)))
          CFI (cfiCond156) DPL0 load(1, XDATA, add(CFA_XSP16, literal(-2)))
          CFI (cfiCond156) DPH0 load(1, XDATA, add(CFA_XSP16, literal(-1)))
          CFI (cfiCond156) CFA_SP SP+-2
          CFI (cfiCond156) CFA_XSP16 add(XSP16, 20)
          CFI Block cfiCond157 Using cfiCommon0
          CFI (cfiCond157) Function ZDP_SimpleDescMsg
          CFI (cfiCond157) Conditional ??CrossCallReturnLabel_172
          CFI (cfiCond157) R6 load(1, XDATA, add(CFA_XSP16, literal(-20)))
          CFI (cfiCond157) VB load(1, XDATA, add(CFA_XSP16, literal(-19)))
          CFI (cfiCond157) V0 load(1, XDATA, add(CFA_XSP16, literal(-18)))
          CFI (cfiCond157) V1 load(1, XDATA, add(CFA_XSP16, literal(-17)))
          CFI (cfiCond157) V2 load(1, XDATA, add(CFA_XSP16, literal(-16)))
          CFI (cfiCond157) V3 load(1, XDATA, add(CFA_XSP16, literal(-15)))
          CFI (cfiCond157) V4 load(1, XDATA, add(CFA_XSP16, literal(-14)))
          CFI (cfiCond157) V5 load(1, XDATA, add(CFA_XSP16, literal(-13)))
          CFI (cfiCond157) V6 load(1, XDATA, add(CFA_XSP16, literal(-12)))
          CFI (cfiCond157) V7 load(1, XDATA, add(CFA_XSP16, literal(-11)))
          CFI (cfiCond157) V8 load(1, XDATA, add(CFA_XSP16, literal(-10)))
          CFI (cfiCond157) V9 load(1, XDATA, add(CFA_XSP16, literal(-9)))
          CFI (cfiCond157) V10 load(1, XDATA, add(CFA_XSP16, literal(-8)))
          CFI (cfiCond157) V11 load(1, XDATA, add(CFA_XSP16, literal(-7)))
          CFI (cfiCond157) R7 load(1, XDATA, add(CFA_XSP16, literal(-6)))
          CFI (cfiCond157) ?RET_LOW load(1, XDATA, add(CFA_XSP16, literal(-5)))
          CFI (cfiCond157) ?RET_HIGH load(1, XDATA, add(CFA_XSP16, literal(-4)))
          CFI (cfiCond157) ?BRET_EXT load(1, XDATA, add(CFA_XSP16, literal(-3)))
          CFI (cfiCond157) DPL0 load(1, XDATA, add(CFA_XSP16, literal(-2)))
          CFI (cfiCond157) DPH0 load(1, XDATA, add(CFA_XSP16, literal(-1)))
          CFI (cfiCond157) CFA_SP SP+-2
          CFI (cfiCond157) CFA_XSP16 add(XSP16, 20)
          CFI Block cfiPicker158 Using cfiCommon1
          CFI (cfiPicker158) NoFunction
          CFI (cfiPicker158) Picker
        MOVX      @DPTR,A
        MOV       DPL,R4
        MOV       DPH,R5
        INC       DPTR
        RET
          CFI EndBlock cfiCond155
          CFI EndBlock cfiCond156
          CFI EndBlock cfiCond157
          CFI EndBlock cfiPicker158

        RSEG BANKED_CODE:HUGECODE:NOROOT(0)
?Subroutine12:
          CFI Block cfiCond159 Using cfiCommon0
          CFI Function ZDP_SimpleDescMsg
          CFI Conditional ??CrossCallReturnLabel_4
          CFI R6 load(1, XDATA, add(CFA_XSP16, literal(-20)))
          CFI VB load(1, XDATA, add(CFA_XSP16, literal(-19)))
          CFI V0 load(1, XDATA, add(CFA_XSP16, literal(-18)))
          CFI V1 load(1, XDATA, add(CFA_XSP16, literal(-17)))
          CFI V2 load(1, XDATA, add(CFA_XSP16, literal(-16)))
          CFI V3 load(1, XDATA, add(CFA_XSP16, literal(-15)))
          CFI V4 load(1, XDATA, add(CFA_XSP16, literal(-14)))
          CFI V5 load(1, XDATA, add(CFA_XSP16, literal(-13)))
          CFI V6 load(1, XDATA, add(CFA_XSP16, literal(-12)))
          CFI V7 load(1, XDATA, add(CFA_XSP16, literal(-11)))
          CFI V8 load(1, XDATA, add(CFA_XSP16, literal(-10)))
          CFI V9 load(1, XDATA, add(CFA_XSP16, literal(-9)))
          CFI V10 load(1, XDATA, add(CFA_XSP16, literal(-8)))
          CFI V11 load(1, XDATA, add(CFA_XSP16, literal(-7)))
          CFI R7 load(1, XDATA, add(CFA_XSP16, literal(-6)))
          CFI ?RET_LOW load(1, XDATA, add(CFA_XSP16, literal(-5)))
          CFI ?RET_HIGH load(1, XDATA, add(CFA_XSP16, literal(-4)))
          CFI ?BRET_EXT load(1, XDATA, add(CFA_XSP16, literal(-3)))
          CFI DPL0 load(1, XDATA, add(CFA_XSP16, literal(-2)))
          CFI DPH0 load(1, XDATA, add(CFA_XSP16, literal(-1)))
          CFI CFA_SP SP+-2
          CFI CFA_XSP16 add(XSP16, 20)
          CFI Block cfiCond160 Using cfiCommon0
          CFI (cfiCond160) Function ZDP_SimpleDescMsg
          CFI (cfiCond160) Conditional ??CrossCallReturnLabel_5
          CFI (cfiCond160) R6 load(1, XDATA, add(CFA_XSP16, literal(-20)))
          CFI (cfiCond160) VB load(1, XDATA, add(CFA_XSP16, literal(-19)))
          CFI (cfiCond160) V0 load(1, XDATA, add(CFA_XSP16, literal(-18)))
          CFI (cfiCond160) V1 load(1, XDATA, add(CFA_XSP16, literal(-17)))
          CFI (cfiCond160) V2 load(1, XDATA, add(CFA_XSP16, literal(-16)))
          CFI (cfiCond160) V3 load(1, XDATA, add(CFA_XSP16, literal(-15)))
          CFI (cfiCond160) V4 load(1, XDATA, add(CFA_XSP16, literal(-14)))
          CFI (cfiCond160) V5 load(1, XDATA, add(CFA_XSP16, literal(-13)))
          CFI (cfiCond160) V6 load(1, XDATA, add(CFA_XSP16, literal(-12)))
          CFI (cfiCond160) V7 load(1, XDATA, add(CFA_XSP16, literal(-11)))
          CFI (cfiCond160) V8 load(1, XDATA, add(CFA_XSP16, literal(-10)))
          CFI (cfiCond160) V9 load(1, XDATA, add(CFA_XSP16, literal(-9)))
          CFI (cfiCond160) V10 load(1, XDATA, add(CFA_XSP16, literal(-8)))
          CFI (cfiCond160) V11 load(1, XDATA, add(CFA_XSP16, literal(-7)))
          CFI (cfiCond160) R7 load(1, XDATA, add(CFA_XSP16, literal(-6)))
          CFI (cfiCond160) ?RET_LOW load(1, XDATA, add(CFA_XSP16, literal(-5)))
          CFI (cfiCond160) ?RET_HIGH load(1, XDATA, add(CFA_XSP16, literal(-4)))
          CFI (cfiCond160) ?BRET_EXT load(1, XDATA, add(CFA_XSP16, literal(-3)))
          CFI (cfiCond160) DPL0 load(1, XDATA, add(CFA_XSP16, literal(-2)))
          CFI (cfiCond160) DPH0 load(1, XDATA, add(CFA_XSP16, literal(-1)))
          CFI (cfiCond160) CFA_SP SP+-2
          CFI (cfiCond160) CFA_XSP16 add(XSP16, 20)
          CFI Block cfiPicker161 Using cfiCommon1
          CFI (cfiPicker161) NoFunction
          CFI (cfiPicker161) Picker
        INC       DPTR
        INC       DPTR
        INC       DPTR
        INC       DPTR
        INC       DPTR
        LCALL     ?Subroutine84 & 0xFFFF
??CrossCallReturnLabel_141:
        LCALL     ?Subroutine73 & 0xFFFF
??CrossCallReturnLabel_131:
        INC       DPTR
        RET
          CFI EndBlock cfiCond159
          CFI EndBlock cfiCond160
          CFI EndBlock cfiPicker161
// 1002 
// 1003 /*********************************************************************
// 1004  * @fn          ZDP_EPRsp
// 1005  *
// 1006  * @brief       This builds and send an endpoint list. Used in
// 1007  *              Active_EP_rsp and Match_Desc_Rsp
// 1008  *              message.  This function sends unicast message to the
// 1009  *              requesting device.
// 1010  *
// 1011  * @param       MsgType - either Active_EP_rsp or Match_Desc_Rsp
// 1012  * @param       dstAddr - destination address
// 1013  * @param       Status - message status (ZDP_SUCCESS or other)
// 1014  * @param       nwkAddr - Device's short address that this response describes
// 1015  * @param       Count - number of endpoint/interfaces in list
// 1016  * @param       pEPIntfList - Array of Endpoint/Interfaces
// 1017  * @param       SecurityEnable - Security Options
// 1018  *
// 1019  * @return      afStatus_t
// 1020  */

        RSEG BANKED_CODE:HUGECODE:NOROOT(0)
// 1021 afStatus_t ZDP_EPRsp( uint16 MsgType, byte TransSeq, zAddrType_t *dstAddr,
ZDP_EPRsp:
          CFI Block cfiBlock162 Using cfiCommon0
          CFI Function ZDP_EPRsp
        CODE
// 1022                         byte Status, uint16 nwkAddr, byte Count,
// 1023                         uint8 *pEPList,
// 1024                         byte SecurityEnable )
// 1025 {
        FUNCALL ZDP_EPRsp, osal_memcpy
        LOCFRAME ISTACK, 0, STACK
        LOCFRAME PSTACK, 0, STACK
        LOCFRAME XSTACK, 19, STACK
        LOCFRAME IOVERLAY, 0, STATIC
        LOCFRAME DOVERLAY, 0, STATIC
        ARGFRAME ISTACK, 0, STACK
        ARGFRAME PSTACK, 0, STACK
        ARGFRAME XSTACK, 19, STACK
        ARGFRAME IOVERLAY, 0, STATIC
        ARGFRAME DOVERLAY, 0, STATIC
        FUNCALL ZDP_EPRsp, fillAndSend
        LOCFRAME ISTACK, 0, STACK
        LOCFRAME PSTACK, 0, STACK
        LOCFRAME XSTACK, 18, STACK
        LOCFRAME IOVERLAY, 0, STATIC
        LOCFRAME DOVERLAY, 0, STATIC
        ARGFRAME ISTACK, 0, STACK
        ARGFRAME PSTACK, 0, STACK
        ARGFRAME XSTACK, 18, STACK
        ARGFRAME IOVERLAY, 0, STATIC
        ARGFRAME DOVERLAY, 0, STATIC
        REQUIRE ?V0
        REQUIRE ?V1
        REQUIRE ?V2
        REQUIRE ?V3
        REQUIRE ?V4
        REQUIRE ?V5
        REQUIRE ?V6
        MOV       A,#-0xf
        LCALL     ?BANKED_ENTER_XDATA
          CFI DPH0 load(1, XDATA, add(CFA_XSP16, literal(-1)))
          CFI DPL0 load(1, XDATA, add(CFA_XSP16, literal(-2)))
          CFI ?BRET_EXT load(1, XDATA, add(CFA_XSP16, literal(-3)))
          CFI ?RET_HIGH load(1, XDATA, add(CFA_XSP16, literal(-4)))
          CFI ?RET_LOW load(1, XDATA, add(CFA_XSP16, literal(-5)))
          CFI R7 load(1, XDATA, add(CFA_XSP16, literal(-6)))
          CFI V6 load(1, XDATA, add(CFA_XSP16, literal(-7)))
          CFI V5 load(1, XDATA, add(CFA_XSP16, literal(-8)))
          CFI V4 load(1, XDATA, add(CFA_XSP16, literal(-9)))
          CFI V3 load(1, XDATA, add(CFA_XSP16, literal(-10)))
          CFI V2 load(1, XDATA, add(CFA_XSP16, literal(-11)))
          CFI V1 load(1, XDATA, add(CFA_XSP16, literal(-12)))
          CFI V0 load(1, XDATA, add(CFA_XSP16, literal(-13)))
          CFI VB load(1, XDATA, add(CFA_XSP16, literal(-14)))
          CFI R6 load(1, XDATA, add(CFA_XSP16, literal(-15)))
          CFI CFA_SP SP+0
          CFI CFA_XSP16 add(XSP16, 15)
        ; Saved register size: 15
        ; Auto size: 1
        MOV       A,#-0x1
        LCALL     ?ALLOC_XSTACK8
          CFI CFA_XSP16 add(XSP16, 16)
        MOV       A,R1
        MOV       DPL,?XSP + 0
        MOV       DPH,?XSP + 1
        MOVX      @DPTR,A
        MOV       ?V2,R2
        MOV       ?V3,R3
        MOV       A,R4
        MOV       R6,A
        MOV       A,R5
        MOV       R7,A
// 1026   uint8 *pBuf = ZDP_TmpBuf;
        MOV       DPTR,#ZDP_TmpBuf
        LCALL     ?Subroutine55 & 0xFFFF
// 1027   byte len = 1 + 2 + 1;  // Status + nwkAddr + endpoint/interface count.
??CrossCallReturnLabel_96:
        MOV       ?V0,#0x4
// 1028   byte txOptions;
// 1029 
// 1030   (void)SecurityEnable;  // Intentionally unreferenced parameter
// 1031 
// 1032   if ( MsgType == Match_Desc_rsp )
        MOV       A,#0x6
        XRL       A,?V2
        JNZ       ??ZDP_EPRsp_0
        MOV       A,#-0x80
        XRL       A,?V3
??ZDP_EPRsp_0:
        JNZ       ??ZDP_EPRsp_1
// 1033     txOptions = AF_MSG_ACK_REQUEST;
        MOV       ?V1,#0x10
        SJMP      ??ZDP_EPRsp_2
// 1034   else
// 1035     txOptions = 0;
??ZDP_EPRsp_1:
        MOV       ?V1,#0x0
// 1036 
// 1037     *pBuf++ = Status;
??ZDP_EPRsp_2:
        MOV       A,#0x10
        LCALL     ?XSTACK_DISP0_8
        LCALL     ?Subroutine59 & 0xFFFF
??CrossCallReturnLabel_101:
        MOV       A,#0x11
        LCALL     ?XSTACK_DISP0_8
        LCALL     ?Subroutine15 & 0xFFFF
// 1038   *pBuf++ = LO_UINT16( nwkAddr );
// 1039   *pBuf++ = HI_UINT16( nwkAddr );
??CrossCallReturnLabel_10:
        MOV       A,#0x13
        LCALL     ?XSTACK_DISP0_8
        MOVX      A,@DPTR
        MOV       R1,A
// 1040 
// 1041   *pBuf++ = Count;   // Endpoint/Interface count
        MOV       DPL,R2
        MOV       DPH,R3
        INC       DPTR
        INC       DPTR
        INC       DPTR
        MOVX      @DPTR,A
// 1042 
// 1043   if ( Count )
        JZ        ??ZDP_EPRsp_3
// 1044   {
// 1045     len += Count;
        MOV       A,#0x4
        ADD       A,R1
        MOV       ?V0,A
// 1046     osal_memcpy( pBuf, pEPList, Count );
        ; Setup parameters for call to function osal_memcpy
        MOV       A,#0x14
        LCALL     ?XSTACK_DISP0_8
        LCALL     ?Subroutine47 & 0xFFFF
// 1047   }
??CrossCallReturnLabel_74:
        LCALL     ?PUSH_XSTACK_I_THREE
          CFI CFA_XSP16 add(XSP16, 19)
        MOV       A,R1
        MOV       R4,A
        MOV       R5,#0x0
        MOV       A,R2
        ADD       A,#0x4
        MOV       R2,A
        JNC       ??ZDP_EPRsp_4
        INC       R3
??ZDP_EPRsp_4:
        LCALL     `??osal_memcpy::?relay`; Banked call to: osal_memcpy
        MOV       A,#0x3
        LCALL     ?DEALLOC_XSTACK8
          CFI CFA_XSP16 add(XSP16, 16)
// 1048 
// 1049   FillAndSendTxOptions( &TransSeq, dstAddr, MsgType, len, txOptions );
??ZDP_EPRsp_3:
        MOV       A,?V1
        MOV       DPTR,#ZDP_TxOptions
        MOVX      @DPTR,A
        ; Setup parameters for call to function fillAndSend
        MOV       R0,#?V2
        LCALL     ?PUSH_XSTACK_I_TWO
          CFI CFA_XSP16 add(XSP16, 18)
        MOV       R1,?V0
        MOV       A,R6
        MOV       R4,A
        MOV       A,R7
        MOV       R5,A
        MOV       A,#0x2
        LCALL     ?XSTACK_DISP101_8
        LCALL     `??fillAndSend::?relay`; Banked call to: fillAndSend
        MOV       A,#0x2
        LCALL     ?DEALLOC_XSTACK8
          CFI CFA_XSP16 add(XSP16, 16)
        MOV       A,R1
        MOV       R1,A
        MOV       DPTR,#ZDP_TxOptions
        CLR       A
        MOVX      @DPTR,A
        INC       A
        LJMP      ?Subroutine3 & 0xFFFF
// 1050 }
          CFI EndBlock cfiBlock162
// 1051 
// 1052 /*********************************************************************
// 1053  * @fn          ZDP_UserDescRsp
// 1054  *
// 1055  * @brief       Build and send the User Decriptor Response.
// 1056  *
// 1057  *
// 1058  * @param       dstAddr - destination address
// 1059  * @param       nwkAddrOfInterest -
// 1060  * @param       userDesc -
// 1061  * @param       SecurityEnable - Security Options
// 1062  *
// 1063  * @return      ZStatus_t
// 1064  */

        RSEG BANKED_CODE:HUGECODE:NOROOT(0)
// 1065 ZStatus_t ZDP_UserDescRsp( byte TransSeq, zAddrType_t *dstAddr,
ZDP_UserDescRsp:
          CFI Block cfiBlock163 Using cfiCommon0
          CFI Function ZDP_UserDescRsp
        CODE
// 1066                 uint16 nwkAddrOfInterest, UserDescriptorFormat_t *userDesc,
// 1067                 byte SecurityEnable )
// 1068 {
        FUNCALL ZDP_UserDescRsp, osal_memcpy
        LOCFRAME ISTACK, 0, STACK
        LOCFRAME PSTACK, 0, STACK
        LOCFRAME XSTACK, 22, STACK
        LOCFRAME IOVERLAY, 0, STATIC
        LOCFRAME DOVERLAY, 0, STATIC
        ARGFRAME ISTACK, 0, STACK
        ARGFRAME PSTACK, 0, STACK
        ARGFRAME XSTACK, 22, STACK
        ARGFRAME IOVERLAY, 0, STATIC
        ARGFRAME DOVERLAY, 0, STATIC
        FUNCALL ZDP_UserDescRsp, fillAndSend
        LOCFRAME ISTACK, 0, STACK
        LOCFRAME PSTACK, 0, STACK
        LOCFRAME XSTACK, 21, STACK
        LOCFRAME IOVERLAY, 0, STATIC
        LOCFRAME DOVERLAY, 0, STATIC
        ARGFRAME ISTACK, 0, STACK
        ARGFRAME PSTACK, 0, STACK
        ARGFRAME XSTACK, 21, STACK
        ARGFRAME IOVERLAY, 0, STATIC
        ARGFRAME DOVERLAY, 0, STATIC
        REQUIRE ?V0
        REQUIRE ?V1
        REQUIRE ?V2
        REQUIRE ?V4
        REQUIRE ?V5
        REQUIRE ?V6
        REQUIRE ?V8
        REQUIRE ?V9
        MOV       A,#-0x12
        LCALL     ?BANKED_ENTER_XDATA
          CFI DPH0 load(1, XDATA, add(CFA_XSP16, literal(-1)))
          CFI DPL0 load(1, XDATA, add(CFA_XSP16, literal(-2)))
          CFI ?BRET_EXT load(1, XDATA, add(CFA_XSP16, literal(-3)))
          CFI ?RET_HIGH load(1, XDATA, add(CFA_XSP16, literal(-4)))
          CFI ?RET_LOW load(1, XDATA, add(CFA_XSP16, literal(-5)))
          CFI R7 load(1, XDATA, add(CFA_XSP16, literal(-6)))
          CFI V9 load(1, XDATA, add(CFA_XSP16, literal(-7)))
          CFI V8 load(1, XDATA, add(CFA_XSP16, literal(-8)))
          CFI V7 load(1, XDATA, add(CFA_XSP16, literal(-9)))
          CFI V6 load(1, XDATA, add(CFA_XSP16, literal(-10)))
          CFI V5 load(1, XDATA, add(CFA_XSP16, literal(-11)))
          CFI V4 load(1, XDATA, add(CFA_XSP16, literal(-12)))
          CFI V3 load(1, XDATA, add(CFA_XSP16, literal(-13)))
          CFI V2 load(1, XDATA, add(CFA_XSP16, literal(-14)))
          CFI V1 load(1, XDATA, add(CFA_XSP16, literal(-15)))
          CFI V0 load(1, XDATA, add(CFA_XSP16, literal(-16)))
          CFI VB load(1, XDATA, add(CFA_XSP16, literal(-17)))
          CFI R6 load(1, XDATA, add(CFA_XSP16, literal(-18)))
          CFI CFA_SP SP+0
          CFI CFA_XSP16 add(XSP16, 18)
        ; Saved register size: 18
        ; Auto size: 1
        MOV       A,#-0x1
        LCALL     ?ALLOC_XSTACK8
          CFI CFA_XSP16 add(XSP16, 19)
        MOV       A,R1
        MOV       DPL,?XSP + 0
        MOV       DPH,?XSP + 1
        MOVX      @DPTR,A
        LCALL     ?Subroutine57 & 0xFFFF
// 1069   uint8 *pBuf = ZDP_TmpBuf;
??CrossCallReturnLabel_231:
        MOV       ?V0,R0
        MOV       ?V1,R1
        MOV       A,#0x13
        LCALL     ?XSTACK_DISP0_8
        LCALL     ??Subroutine117_0 & 0xFFFF
??CrossCallReturnLabel_234:
        MOV       ?V8,R0
        MOV       ?V9,R1
// 1070   byte len = 1 + 2 + 1;  // Status + nwkAddr + descriptor length.
// 1071 
// 1072   (void)SecurityEnable;  // Intentionally unreferenced parameter
// 1073 
// 1074   len += userDesc->len;
        MOV       DPL,R0
        MOV       DPH,A
        MOVX      A,@DPTR
        ADD       A,#0x4
        MOV       ?V2,A
// 1075 
// 1076   *pBuf++ = ZSUCCESS;
        MOV       DPL,?V0
        MOV       DPH,?V1
        CLR       A
        MOVX      @DPTR,A
// 1077 
// 1078   *pBuf++ = LO_UINT16( nwkAddrOfInterest );
        MOV       A,R4
        INC       DPTR
        MOVX      @DPTR,A
// 1079   *pBuf++ = HI_UINT16( nwkAddrOfInterest );
        MOV       A,R5
        MOV       DPL,?V0
        MOV       DPH,?V1
        LCALL     ?Subroutine32 & 0xFFFF
// 1080 
// 1081   *pBuf++ = userDesc->len;
??CrossCallReturnLabel_169:
        MOV       DPL,?V0
        MOV       DPH,?V1
        INC       DPTR
        INC       DPTR
        INC       DPTR
        LCALL     ?Subroutine10 & 0xFFFF
// 1082   osal_memcpy( pBuf, userDesc->desc, userDesc->len );
??CrossCallReturnLabel_1:
        LCALL     ?PUSH_XSTACK_I_THREE
          CFI CFA_XSP16 add(XSP16, 22)
        MOV       DPL,?V8
        MOV       DPH,?V9
        MOVX      A,@DPTR
        MOV       R4,A
        MOV       R5,#0x0
        MOV       A,?V0
        ADD       A,#0x4
        MOV       R2,A
        CLR       A
        ADDC      A,?V1
        MOV       R3,A
        LCALL     `??osal_memcpy::?relay`; Banked call to: osal_memcpy
        MOV       A,#0x3
        LCALL     ?DEALLOC_XSTACK8
          CFI CFA_XSP16 add(XSP16, 19)
// 1083 
// 1084   return (ZStatus_t)fillAndSend( &TransSeq, dstAddr, User_Desc_rsp, len );
        ; Setup parameters for call to function fillAndSend
        MOV       ?V0,#0x11
        MOV       ?V1,#-0x80
        MOV       R0,#?V0
        LCALL     ?PUSH_XSTACK_I_TWO
          CFI CFA_XSP16 add(XSP16, 21)
        MOV       R1,?V2
        MOV       A,R6
        MOV       R4,A
        MOV       A,R7
        MOV       R5,A
        MOV       A,#0x2
        LCALL     ?XSTACK_DISP101_8
        LCALL     `??fillAndSend::?relay`; Banked call to: fillAndSend
        MOV       A,#0x2
        LCALL     ?DEALLOC_XSTACK8
          CFI CFA_XSP16 add(XSP16, 19)
        LJMP      ?Subroutine6 & 0xFFFF
// 1085 }
          CFI EndBlock cfiBlock163

        RSEG BANKED_CODE:HUGECODE:NOROOT(0)
?Subroutine10:
          CFI Block cfiCond164 Using cfiCommon0
          CFI Function ZDP_UserDescSet
          CFI Conditional ??CrossCallReturnLabel_0
          CFI R6 load(1, XDATA, add(CFA_XSP16, literal(-15)))
          CFI VB load(1, XDATA, add(CFA_XSP16, literal(-14)))
          CFI V0 load(1, XDATA, add(CFA_XSP16, literal(-13)))
          CFI V1 load(1, XDATA, add(CFA_XSP16, literal(-12)))
          CFI V2 load(1, XDATA, add(CFA_XSP16, literal(-11)))
          CFI V3 load(1, XDATA, add(CFA_XSP16, literal(-10)))
          CFI V4 load(1, XDATA, add(CFA_XSP16, literal(-9)))
          CFI V5 load(1, XDATA, add(CFA_XSP16, literal(-8)))
          CFI V6 load(1, XDATA, add(CFA_XSP16, literal(-7)))
          CFI R7 load(1, XDATA, add(CFA_XSP16, literal(-6)))
          CFI ?RET_LOW load(1, XDATA, add(CFA_XSP16, literal(-5)))
          CFI ?RET_HIGH load(1, XDATA, add(CFA_XSP16, literal(-4)))
          CFI ?BRET_EXT load(1, XDATA, add(CFA_XSP16, literal(-3)))
          CFI DPL0 load(1, XDATA, add(CFA_XSP16, literal(-2)))
          CFI DPH0 load(1, XDATA, add(CFA_XSP16, literal(-1)))
          CFI CFA_SP SP+-2
          CFI CFA_XSP16 add(XSP16, 15)
          CFI Block cfiCond165 Using cfiCommon0
          CFI (cfiCond165) Function ZDP_UserDescRsp
          CFI (cfiCond165) Conditional ??CrossCallReturnLabel_1
          CFI (cfiCond165) R6 load(1, XDATA, add(CFA_XSP16, literal(-18)))
          CFI (cfiCond165) VB load(1, XDATA, add(CFA_XSP16, literal(-17)))
          CFI (cfiCond165) V0 load(1, XDATA, add(CFA_XSP16, literal(-16)))
          CFI (cfiCond165) V1 load(1, XDATA, add(CFA_XSP16, literal(-15)))
          CFI (cfiCond165) V2 load(1, XDATA, add(CFA_XSP16, literal(-14)))
          CFI (cfiCond165) V3 load(1, XDATA, add(CFA_XSP16, literal(-13)))
          CFI (cfiCond165) V4 load(1, XDATA, add(CFA_XSP16, literal(-12)))
          CFI (cfiCond165) V5 load(1, XDATA, add(CFA_XSP16, literal(-11)))
          CFI (cfiCond165) V6 load(1, XDATA, add(CFA_XSP16, literal(-10)))
          CFI (cfiCond165) V7 load(1, XDATA, add(CFA_XSP16, literal(-9)))
          CFI (cfiCond165) V8 load(1, XDATA, add(CFA_XSP16, literal(-8)))
          CFI (cfiCond165) V9 load(1, XDATA, add(CFA_XSP16, literal(-7)))
          CFI (cfiCond165) R7 load(1, XDATA, add(CFA_XSP16, literal(-6)))
          CFI (cfiCond165) ?RET_LOW load(1, XDATA, add(CFA_XSP16, literal(-5)))
          CFI (cfiCond165) ?RET_HIGH load(1, XDATA, add(CFA_XSP16, literal(-4)))
          CFI (cfiCond165) ?BRET_EXT load(1, XDATA, add(CFA_XSP16, literal(-3)))
          CFI (cfiCond165) DPL0 load(1, XDATA, add(CFA_XSP16, literal(-2)))
          CFI (cfiCond165) DPH0 load(1, XDATA, add(CFA_XSP16, literal(-1)))
          CFI (cfiCond165) CFA_SP SP+-2
          CFI (cfiCond165) CFA_XSP16 add(XSP16, 19)
          CFI Block cfiPicker166 Using cfiCommon1
          CFI (cfiPicker166) NoFunction
          CFI (cfiPicker166) Picker
        LCALL     ?Subroutine82 & 0xFFFF
??CrossCallReturnLabel_224:
        MOV       R1,DPL
        MOV       R2,DPH
        MOV       ?V4,R1
        MOV       ?V5,R2
        MOV       ?V6,#0x0
        MOV       R0,#?V4
        RET
          CFI EndBlock cfiCond164
          CFI EndBlock cfiCond165
          CFI EndBlock cfiPicker166
// 1086 
// 1087 /*********************************************************************
// 1088  * @fn          ZDP_ServerDiscRsp
// 1089  *
// 1090  * @brief       Build and send the Server_Discovery_rsp response.
// 1091  *
// 1092  * @param       transID - Transaction sequence number of request.
// 1093  * @param       dstAddr - Network Destination Address.
// 1094  * @param       status - Status of response to request.
// 1095  * @param       aoi - Network Address of Interest of request.
// 1096  * @param       serverMask - Bit map of service(s) being sought.
// 1097  * @param       SecurityEnable - Security Options
// 1098  *
// 1099  * @return      ZStatus_t
// 1100  */

        RSEG BANKED_CODE:HUGECODE:NOROOT(0)
// 1101 ZStatus_t ZDP_ServerDiscRsp( byte transID, zAddrType_t *dstAddr, byte status,
ZDP_ServerDiscRsp:
          CFI Block cfiBlock167 Using cfiCommon0
          CFI Function ZDP_ServerDiscRsp
        CODE
// 1102                            uint16 aoi, uint16 serverMask, byte SecurityEnable )
// 1103 {
        FUNCALL ZDP_ServerDiscRsp, fillAndSend
        LOCFRAME ISTACK, 0, STACK
        LOCFRAME PSTACK, 0, STACK
        LOCFRAME XSTACK, 13, STACK
        LOCFRAME IOVERLAY, 0, STATIC
        LOCFRAME DOVERLAY, 0, STATIC
        ARGFRAME ISTACK, 0, STACK
        ARGFRAME PSTACK, 0, STACK
        ARGFRAME XSTACK, 13, STACK
        ARGFRAME IOVERLAY, 0, STATIC
        ARGFRAME DOVERLAY, 0, STATIC
        REQUIRE ?V0
        REQUIRE ?V1
        MOV       A,#-0xa
        LCALL     ?BANKED_ENTER_XDATA
          CFI DPH0 load(1, XDATA, add(CFA_XSP16, literal(-1)))
          CFI DPL0 load(1, XDATA, add(CFA_XSP16, literal(-2)))
          CFI ?BRET_EXT load(1, XDATA, add(CFA_XSP16, literal(-3)))
          CFI ?RET_HIGH load(1, XDATA, add(CFA_XSP16, literal(-4)))
          CFI ?RET_LOW load(1, XDATA, add(CFA_XSP16, literal(-5)))
          CFI R7 load(1, XDATA, add(CFA_XSP16, literal(-6)))
          CFI V1 load(1, XDATA, add(CFA_XSP16, literal(-7)))
          CFI V0 load(1, XDATA, add(CFA_XSP16, literal(-8)))
          CFI VB load(1, XDATA, add(CFA_XSP16, literal(-9)))
          CFI R6 load(1, XDATA, add(CFA_XSP16, literal(-10)))
          CFI CFA_SP SP+0
          CFI CFA_XSP16 add(XSP16, 10)
        ; Saved register size: 10
        ; Auto size: 1
        MOV       A,#-0x1
        LCALL     ?ALLOC_XSTACK8
          CFI CFA_XSP16 add(XSP16, 11)
        MOV       A,R1
        MOV       DPL,?XSP + 0
        MOV       DPH,?XSP + 1
        MOVX      @DPTR,A
        MOV       A,R4
        MOV       R6,A
// 1104   const byte len = 1  + 2;  // status + aoi + mask.
// 1105   uint8 *pBuf = ZDP_TmpBuf;
        LCALL     ?Subroutine56 & 0xFFFF
??CrossCallReturnLabel_164:
        MOV       R4,A
        MOV       A,R1
        MOV       R5,A
// 1106   ZStatus_t stat;
// 1107 
// 1108   // Intentionally unreferenced parameters
// 1109   (void)aoi;
// 1110   (void)SecurityEnable;
// 1111 
// 1112   *pBuf++ = status;
        MOV       A,R6
        MOV       DPL,R4
        MOV       DPH,R5
        MOVX      @DPTR,A
        MOV       A,#0xd
        LCALL     ?XSTACK_DISP0_8
        LCALL     ?Subroutine52 & 0xFFFF
// 1113 
// 1114   *pBuf++ = LO_UINT16( serverMask );
??CrossCallReturnLabel_90:
        INC       DPTR
        MOVX      @DPTR,A
// 1115   *pBuf++ = HI_UINT16( serverMask );
        MOV       A,R1
        MOV       DPL,R4
        MOV       DPH,R5
        INC       DPTR
        INC       DPTR
        MOVX      @DPTR,A
// 1116 
// 1117   ZDP_TxOptions = AF_MSG_ACK_REQUEST;
        MOV       DPTR,#ZDP_TxOptions
        MOV       A,#0x10
        MOVX      @DPTR,A
// 1118   stat = fillAndSend( &transID, dstAddr, Server_Discovery_rsp, len );
        ; Setup parameters for call to function fillAndSend
        MOV       ?V0,#0x15
        MOV       ?V1,#-0x80
        MOV       R0,#?V0
        LCALL     ?PUSH_XSTACK_I_TWO
          CFI CFA_XSP16 add(XSP16, 13)
        MOV       R1,#0x3
        MOV       A,R2
        MOV       R4,A
        MOV       A,R3
        MOV       R5,A
        MOV       A,#0x2
        LCALL     ?XSTACK_DISP101_8
        LCALL     `??fillAndSend::?relay`; Banked call to: fillAndSend
        MOV       A,#0x2
        LCALL     ?DEALLOC_XSTACK8
          CFI CFA_XSP16 add(XSP16, 11)
        MOV       A,R1
        MOV       R1,A
// 1119   ZDP_TxOptions = AF_TX_OPTIONS_NONE;
        MOV       DPTR,#ZDP_TxOptions
        CLR       A
        MOVX      @DPTR,A
// 1120 
// 1121   return ( stat );
        INC       A
        LJMP      ??Subroutine95_0 & 0xFFFF
// 1122 }
          CFI EndBlock cfiBlock167
// 1123 
// 1124 /*********************************************************************
// 1125  * @fn          ZDP_GenericRsp
// 1126  *
// 1127  * @brief       Sends a response message with only the parameter status
// 1128  *              byte and the addr of interest for data.
// 1129  *              This function sends unicast message to the
// 1130  *              requesting device.
// 1131  *
// 1132  * @param       dstAddr - destination address
// 1133  * @param       status  - generic status for response
// 1134  * @param       aoi     - address of interest
// 1135  * @param       dstAddr - destination address
// 1136  * @param       rspId   - response cluster ID
// 1137  * @param       SecurityEnable - Security Options
// 1138  *
// 1139  * @return      afStatus_t
// 1140  */

        RSEG BANKED_CODE:HUGECODE:NOROOT(0)
// 1141 afStatus_t ZDP_GenericRsp( byte TransSeq, zAddrType_t *dstAddr,
ZDP_GenericRsp:
          CFI Block cfiBlock168 Using cfiCommon0
          CFI Function ZDP_GenericRsp
        CODE
// 1142                      byte status, uint16 aoi, uint16 rspID, byte SecurityEnable )
// 1143 {
        FUNCALL ZDP_GenericRsp, fillAndSend
        LOCFRAME ISTACK, 0, STACK
        LOCFRAME PSTACK, 0, STACK
        LOCFRAME XSTACK, 12, STACK
        LOCFRAME IOVERLAY, 0, STATIC
        LOCFRAME DOVERLAY, 0, STATIC
        ARGFRAME ISTACK, 0, STACK
        ARGFRAME PSTACK, 0, STACK
        ARGFRAME XSTACK, 12, STACK
        ARGFRAME IOVERLAY, 0, STATIC
        ARGFRAME DOVERLAY, 0, STATIC
        MOV       A,#-0x9
        LCALL     ?BANKED_ENTER_XDATA
          CFI DPH0 load(1, XDATA, add(CFA_XSP16, literal(-1)))
          CFI DPL0 load(1, XDATA, add(CFA_XSP16, literal(-2)))
          CFI ?BRET_EXT load(1, XDATA, add(CFA_XSP16, literal(-3)))
          CFI ?RET_HIGH load(1, XDATA, add(CFA_XSP16, literal(-4)))
          CFI ?RET_LOW load(1, XDATA, add(CFA_XSP16, literal(-5)))
          CFI R7 load(1, XDATA, add(CFA_XSP16, literal(-6)))
          CFI V0 load(1, XDATA, add(CFA_XSP16, literal(-7)))
          CFI VB load(1, XDATA, add(CFA_XSP16, literal(-8)))
          CFI R6 load(1, XDATA, add(CFA_XSP16, literal(-9)))
          CFI CFA_SP SP+0
          CFI CFA_XSP16 add(XSP16, 9)
        ; Saved register size: 9
        ; Auto size: 1
        MOV       A,#-0x1
        LCALL     ?ALLOC_XSTACK8
          CFI CFA_XSP16 add(XSP16, 10)
        MOV       A,R1
        MOV       DPL,?XSP + 0
        MOV       DPH,?XSP + 1
        MOVX      @DPTR,A
// 1144   uint8 len;
// 1145 
// 1146   (void)SecurityEnable;  // Intentionally unreferenced parameter
// 1147 
// 1148   ZDP_TmpBuf[0] = status;
        LCALL     ?Subroutine46 & 0xFFFF
??CrossCallReturnLabel_176:
        MOV       A,R4
        MOVX      @DPTR,A
        MOV       A,#0xa
        LCALL     ?XSTACK_DISP0_8
        LCALL     ??Subroutine117_0 & 0xFFFF
// 1149   ZDP_TmpBuf[1] = LO_UINT16( aoi );
??CrossCallReturnLabel_235:
        MOV       DPTR,#ZDP_TmpBuf
        MOVX      A,@DPTR
        MOV       R4,A
        INC       DPTR
        MOVX      A,@DPTR
        MOV       DPH,A
        MOV       DPL,R4
        INC       DPTR
        MOV       A,R0
        LCALL     ?Subroutine13 & 0xFFFF
// 1150   ZDP_TmpBuf[2] = HI_UINT16( aoi );
// 1151 
// 1152   // Length byte
// 1153   ZDP_TmpBuf[3] = 0;
??CrossCallReturnLabel_7:
        LCALL     ?Subroutine46 & 0xFFFF
??CrossCallReturnLabel_177:
        INC       DPTR
        INC       DPTR
        INC       DPTR
        CLR       A
        MOVX      @DPTR,A
// 1154   len = 4;
// 1155 
// 1156   return fillAndSend( &TransSeq, dstAddr, rspID, len );
        ; Setup parameters for call to function fillAndSend
        MOV       A,#0xc
        LCALL     ?XSTACK_DISP0_8
        LCALL     ?PUSH_XSTACK8_X_TWO
          CFI CFA_XSP16 add(XSP16, 12)
        MOV       R1,#0x4
        MOV       A,R2
        MOV       R4,A
        MOV       A,R3
        MOV       R5,A
        MOV       A,#0x2
        LCALL     ?XSTACK_DISP101_8
        LCALL     `??fillAndSend::?relay`; Banked call to: fillAndSend
        MOV       A,#0x2
        LCALL     ?DEALLOC_XSTACK8
          CFI CFA_XSP16 add(XSP16, 10)
        MOV       A,#0x1
        LCALL     ?DEALLOC_XSTACK8
          CFI EndBlock cfiBlock168
        REQUIRE ?Subroutine7
        ; // Fall through to label ?Subroutine7
// 1157 }

        RSEG BANKED_CODE:HUGECODE:NOROOT(0)
?Subroutine7:
          CFI Block cfiBlock169 Using cfiCommon0
          CFI NoFunction
          CFI CFA_SP SP+0
          CFI CFA_XSP16 add(XSP16, 9)
          CFI VB load(1, XDATA, add(CFA_XSP16, literal(-8)))
          CFI DPL0 load(1, XDATA, add(CFA_XSP16, literal(-2)))
          CFI DPH0 load(1, XDATA, add(CFA_XSP16, literal(-1)))
          CFI R6 load(1, XDATA, add(CFA_XSP16, literal(-9)))
          CFI R7 load(1, XDATA, add(CFA_XSP16, literal(-6)))
          CFI V0 load(1, XDATA, add(CFA_XSP16, literal(-7)))
          CFI ?BRET_EXT load(1, XDATA, add(CFA_XSP16, literal(-3)))
          CFI ?RET_HIGH load(1, XDATA, add(CFA_XSP16, literal(-4)))
          CFI ?RET_LOW load(1, XDATA, add(CFA_XSP16, literal(-5)))
        MOV       R7,#0x1
        LJMP      ?BANKED_LEAVE_XDATA
          CFI EndBlock cfiBlock169

        RSEG BANKED_CODE:HUGECODE:NOROOT(0)
?Subroutine46:
          CFI Block cfiCond170 Using cfiCommon0
          CFI Function ZDP_DeviceAnnce
          CFI Conditional ??CrossCallReturnLabel_175
          CFI R6 load(1, XDATA, add(CFA_XSP16, literal(-10)))
          CFI VB load(1, XDATA, add(CFA_XSP16, literal(-9)))
          CFI V0 load(1, XDATA, add(CFA_XSP16, literal(-8)))
          CFI V1 load(1, XDATA, add(CFA_XSP16, literal(-7)))
          CFI R7 load(1, XDATA, add(CFA_XSP16, literal(-6)))
          CFI ?RET_LOW load(1, XDATA, add(CFA_XSP16, literal(-5)))
          CFI ?RET_HIGH load(1, XDATA, add(CFA_XSP16, literal(-4)))
          CFI ?BRET_EXT load(1, XDATA, add(CFA_XSP16, literal(-3)))
          CFI DPL0 load(1, XDATA, add(CFA_XSP16, literal(-2)))
          CFI DPH0 load(1, XDATA, add(CFA_XSP16, literal(-1)))
          CFI CFA_SP SP+-2
          CFI CFA_XSP16 add(XSP16, 19)
          CFI Block cfiCond171 Using cfiCommon0
          CFI (cfiCond171) Function ZDP_GenericRsp
          CFI (cfiCond171) Conditional ??CrossCallReturnLabel_176
          CFI (cfiCond171) R6 load(1, XDATA, add(CFA_XSP16, literal(-9)))
          CFI (cfiCond171) VB load(1, XDATA, add(CFA_XSP16, literal(-8)))
          CFI (cfiCond171) V0 load(1, XDATA, add(CFA_XSP16, literal(-7)))
          CFI (cfiCond171) R7 load(1, XDATA, add(CFA_XSP16, literal(-6)))
          CFI (cfiCond171) ?RET_LOW load(1, XDATA, add(CFA_XSP16, literal(-5)))
          CFI (cfiCond171) ?RET_HIGH load(1, XDATA, add(CFA_XSP16, literal(-4)))
          CFI (cfiCond171) ?BRET_EXT load(1, XDATA, add(CFA_XSP16, literal(-3)))
          CFI (cfiCond171) DPL0 load(1, XDATA, add(CFA_XSP16, literal(-2)))
          CFI (cfiCond171) DPH0 load(1, XDATA, add(CFA_XSP16, literal(-1)))
          CFI (cfiCond171) CFA_SP SP+-2
          CFI (cfiCond171) CFA_XSP16 add(XSP16, 10)
          CFI Block cfiCond172 Using cfiCommon0
          CFI (cfiCond172) Function ZDP_GenericRsp
          CFI (cfiCond172) Conditional ??CrossCallReturnLabel_177
          CFI (cfiCond172) R6 load(1, XDATA, add(CFA_XSP16, literal(-9)))
          CFI (cfiCond172) VB load(1, XDATA, add(CFA_XSP16, literal(-8)))
          CFI (cfiCond172) V0 load(1, XDATA, add(CFA_XSP16, literal(-7)))
          CFI (cfiCond172) R7 load(1, XDATA, add(CFA_XSP16, literal(-6)))
          CFI (cfiCond172) ?RET_LOW load(1, XDATA, add(CFA_XSP16, literal(-5)))
          CFI (cfiCond172) ?RET_HIGH load(1, XDATA, add(CFA_XSP16, literal(-4)))
          CFI (cfiCond172) ?BRET_EXT load(1, XDATA, add(CFA_XSP16, literal(-3)))
          CFI (cfiCond172) DPL0 load(1, XDATA, add(CFA_XSP16, literal(-2)))
          CFI (cfiCond172) DPH0 load(1, XDATA, add(CFA_XSP16, literal(-1)))
          CFI (cfiCond172) CFA_SP SP+-2
          CFI (cfiCond172) CFA_XSP16 add(XSP16, 10)
          CFI Block cfiCond173 Using cfiCommon0
          CFI (cfiCond173) Function ZDP_MgmtPermitJoinReq
          CFI (cfiCond173) Conditional ??CrossCallReturnLabel_178
          CFI (cfiCond173) R6 load(1, XDATA, add(CFA_XSP16, literal(-12)))
          CFI (cfiCond173) VB load(1, XDATA, add(CFA_XSP16, literal(-11)))
          CFI (cfiCond173) V0 load(1, XDATA, add(CFA_XSP16, literal(-10)))
          CFI (cfiCond173) V1 load(1, XDATA, add(CFA_XSP16, literal(-9)))
          CFI (cfiCond173) V2 load(1, XDATA, add(CFA_XSP16, literal(-8)))
          CFI (cfiCond173) V3 load(1, XDATA, add(CFA_XSP16, literal(-7)))
          CFI (cfiCond173) R7 load(1, XDATA, add(CFA_XSP16, literal(-6)))
          CFI (cfiCond173) ?RET_LOW load(1, XDATA, add(CFA_XSP16, literal(-5)))
          CFI (cfiCond173) ?RET_HIGH load(1, XDATA, add(CFA_XSP16, literal(-4)))
          CFI (cfiCond173) ?BRET_EXT load(1, XDATA, add(CFA_XSP16, literal(-3)))
          CFI (cfiCond173) DPL0 load(1, XDATA, add(CFA_XSP16, literal(-2)))
          CFI (cfiCond173) DPH0 load(1, XDATA, add(CFA_XSP16, literal(-1)))
          CFI (cfiCond173) CFA_SP SP+-2
          CFI (cfiCond173) CFA_XSP16 add(XSP16, 21)
          CFI Block cfiCond174 Using cfiCommon0
          CFI (cfiCond174) Function ZDP_MgmtLqiRsp
          CFI (cfiCond174) Conditional ??CrossCallReturnLabel_179
          CFI (cfiCond174) R6 load(1, XDATA, add(CFA_XSP16, literal(-21)))
          CFI (cfiCond174) VB load(1, XDATA, add(CFA_XSP16, literal(-20)))
          CFI (cfiCond174) V0 load(1, XDATA, add(CFA_XSP16, literal(-19)))
          CFI (cfiCond174) V1 load(1, XDATA, add(CFA_XSP16, literal(-18)))
          CFI (cfiCond174) V2 load(1, XDATA, add(CFA_XSP16, literal(-17)))
          CFI (cfiCond174) V3 load(1, XDATA, add(CFA_XSP16, literal(-16)))
          CFI (cfiCond174) V4 load(1, XDATA, add(CFA_XSP16, literal(-15)))
          CFI (cfiCond174) V5 load(1, XDATA, add(CFA_XSP16, literal(-14)))
          CFI (cfiCond174) V6 load(1, XDATA, add(CFA_XSP16, literal(-13)))
          CFI (cfiCond174) V7 load(1, XDATA, add(CFA_XSP16, literal(-12)))
          CFI (cfiCond174) V8 load(1, XDATA, add(CFA_XSP16, literal(-11)))
          CFI (cfiCond174) V9 load(1, XDATA, add(CFA_XSP16, literal(-10)))
          CFI (cfiCond174) V10 load(1, XDATA, add(CFA_XSP16, literal(-9)))
          CFI (cfiCond174) V11 load(1, XDATA, add(CFA_XSP16, literal(-8)))
          CFI (cfiCond174) V12 load(1, XDATA, add(CFA_XSP16, literal(-7)))
          CFI (cfiCond174) R7 load(1, XDATA, add(CFA_XSP16, literal(-6)))
          CFI (cfiCond174) ?RET_LOW load(1, XDATA, add(CFA_XSP16, literal(-5)))
          CFI (cfiCond174) ?RET_HIGH load(1, XDATA, add(CFA_XSP16, literal(-4)))
          CFI (cfiCond174) ?BRET_EXT load(1, XDATA, add(CFA_XSP16, literal(-3)))
          CFI (cfiCond174) DPL0 load(1, XDATA, add(CFA_XSP16, literal(-2)))
          CFI (cfiCond174) DPH0 load(1, XDATA, add(CFA_XSP16, literal(-1)))
          CFI (cfiCond174) CFA_SP SP+-2
          CFI (cfiCond174) CFA_XSP16 add(XSP16, 22)
          CFI Block cfiPicker175 Using cfiCommon1
          CFI (cfiPicker175) NoFunction
          CFI (cfiPicker175) Picker
        MOV       DPTR,#ZDP_TmpBuf
        MOVX      A,@DPTR
          CFI EndBlock cfiCond170
          CFI EndBlock cfiCond171
          CFI EndBlock cfiCond172
          CFI EndBlock cfiCond173
          CFI EndBlock cfiCond174
          CFI EndBlock cfiPicker175
        REQUIRE ??Subroutine103_0
        ; // Fall through to label ??Subroutine103_0

        RSEG BANKED_CODE:HUGECODE:NOROOT(0)
??Subroutine103_0:
          CFI Block cfiCond176 Using cfiCommon0
          CFI Function ZDP_IncomingData
          CFI Conditional ??CrossCallReturnLabel_174
          CFI R6 load(1, XDATA, add(CFA_XSP16, literal(-10)))
          CFI VB load(1, XDATA, add(CFA_XSP16, literal(-9)))
          CFI V0 load(1, XDATA, add(CFA_XSP16, literal(-8)))
          CFI V1 load(1, XDATA, add(CFA_XSP16, literal(-7)))
          CFI R7 load(1, XDATA, add(CFA_XSP16, literal(-6)))
          CFI ?RET_LOW load(1, XDATA, add(CFA_XSP16, literal(-5)))
          CFI ?RET_HIGH load(1, XDATA, add(CFA_XSP16, literal(-4)))
          CFI ?BRET_EXT load(1, XDATA, add(CFA_XSP16, literal(-3)))
          CFI DPL0 load(1, XDATA, add(CFA_XSP16, literal(-2)))
          CFI DPH0 load(1, XDATA, add(CFA_XSP16, literal(-1)))
          CFI CFA_SP SP+-2
          CFI CFA_XSP16 add(XSP16, 33)
          CFI Block cfiCond177 Using cfiCommon0
          CFI (cfiCond177) Function ZDP_DeviceAnnce
          CFI (cfiCond177) Conditional ??CrossCallReturnLabel_175
          CFI (cfiCond177) R6 load(1, XDATA, add(CFA_XSP16, literal(-10)))
          CFI (cfiCond177) VB load(1, XDATA, add(CFA_XSP16, literal(-9)))
          CFI (cfiCond177) V0 load(1, XDATA, add(CFA_XSP16, literal(-8)))
          CFI (cfiCond177) V1 load(1, XDATA, add(CFA_XSP16, literal(-7)))
          CFI (cfiCond177) R7 load(1, XDATA, add(CFA_XSP16, literal(-6)))
          CFI (cfiCond177) ?RET_LOW load(1, XDATA, add(CFA_XSP16, literal(-5)))
          CFI (cfiCond177) ?RET_HIGH load(1, XDATA, add(CFA_XSP16, literal(-4)))
          CFI (cfiCond177) ?BRET_EXT load(1, XDATA, add(CFA_XSP16, literal(-3)))
          CFI (cfiCond177) DPL0 load(1, XDATA, add(CFA_XSP16, literal(-2)))
          CFI (cfiCond177) DPH0 load(1, XDATA, add(CFA_XSP16, literal(-1)))
          CFI (cfiCond177) CFA_SP SP+-2
          CFI (cfiCond177) CFA_XSP16 add(XSP16, 19)
          CFI Block cfiCond178 Using cfiCommon0
          CFI (cfiCond178) Function ZDP_GenericRsp
          CFI (cfiCond178) Conditional ??CrossCallReturnLabel_176
          CFI (cfiCond178) R6 load(1, XDATA, add(CFA_XSP16, literal(-9)))
          CFI (cfiCond178) VB load(1, XDATA, add(CFA_XSP16, literal(-8)))
          CFI (cfiCond178) V0 load(1, XDATA, add(CFA_XSP16, literal(-7)))
          CFI (cfiCond178) R7 load(1, XDATA, add(CFA_XSP16, literal(-6)))
          CFI (cfiCond178) ?RET_LOW load(1, XDATA, add(CFA_XSP16, literal(-5)))
          CFI (cfiCond178) ?RET_HIGH load(1, XDATA, add(CFA_XSP16, literal(-4)))
          CFI (cfiCond178) ?BRET_EXT load(1, XDATA, add(CFA_XSP16, literal(-3)))
          CFI (cfiCond178) DPL0 load(1, XDATA, add(CFA_XSP16, literal(-2)))
          CFI (cfiCond178) DPH0 load(1, XDATA, add(CFA_XSP16, literal(-1)))
          CFI (cfiCond178) CFA_SP SP+-2
          CFI (cfiCond178) CFA_XSP16 add(XSP16, 10)
          CFI Block cfiCond179 Using cfiCommon0
          CFI (cfiCond179) Function ZDP_GenericRsp
          CFI (cfiCond179) Conditional ??CrossCallReturnLabel_177
          CFI (cfiCond179) R6 load(1, XDATA, add(CFA_XSP16, literal(-9)))
          CFI (cfiCond179) VB load(1, XDATA, add(CFA_XSP16, literal(-8)))
          CFI (cfiCond179) V0 load(1, XDATA, add(CFA_XSP16, literal(-7)))
          CFI (cfiCond179) R7 load(1, XDATA, add(CFA_XSP16, literal(-6)))
          CFI (cfiCond179) ?RET_LOW load(1, XDATA, add(CFA_XSP16, literal(-5)))
          CFI (cfiCond179) ?RET_HIGH load(1, XDATA, add(CFA_XSP16, literal(-4)))
          CFI (cfiCond179) ?BRET_EXT load(1, XDATA, add(CFA_XSP16, literal(-3)))
          CFI (cfiCond179) DPL0 load(1, XDATA, add(CFA_XSP16, literal(-2)))
          CFI (cfiCond179) DPH0 load(1, XDATA, add(CFA_XSP16, literal(-1)))
          CFI (cfiCond179) CFA_SP SP+-2
          CFI (cfiCond179) CFA_XSP16 add(XSP16, 10)
          CFI Block cfiCond180 Using cfiCommon0
          CFI (cfiCond180) Function ZDP_MgmtPermitJoinReq
          CFI (cfiCond180) Conditional ??CrossCallReturnLabel_178
          CFI (cfiCond180) R6 load(1, XDATA, add(CFA_XSP16, literal(-12)))
          CFI (cfiCond180) VB load(1, XDATA, add(CFA_XSP16, literal(-11)))
          CFI (cfiCond180) V0 load(1, XDATA, add(CFA_XSP16, literal(-10)))
          CFI (cfiCond180) V1 load(1, XDATA, add(CFA_XSP16, literal(-9)))
          CFI (cfiCond180) V2 load(1, XDATA, add(CFA_XSP16, literal(-8)))
          CFI (cfiCond180) V3 load(1, XDATA, add(CFA_XSP16, literal(-7)))
          CFI (cfiCond180) R7 load(1, XDATA, add(CFA_XSP16, literal(-6)))
          CFI (cfiCond180) ?RET_LOW load(1, XDATA, add(CFA_XSP16, literal(-5)))
          CFI (cfiCond180) ?RET_HIGH load(1, XDATA, add(CFA_XSP16, literal(-4)))
          CFI (cfiCond180) ?BRET_EXT load(1, XDATA, add(CFA_XSP16, literal(-3)))
          CFI (cfiCond180) DPL0 load(1, XDATA, add(CFA_XSP16, literal(-2)))
          CFI (cfiCond180) DPH0 load(1, XDATA, add(CFA_XSP16, literal(-1)))
          CFI (cfiCond180) CFA_SP SP+-2
          CFI (cfiCond180) CFA_XSP16 add(XSP16, 21)
          CFI Block cfiCond181 Using cfiCommon0
          CFI (cfiCond181) Function ZDP_MgmtLqiRsp
          CFI (cfiCond181) Conditional ??CrossCallReturnLabel_179
          CFI (cfiCond181) R6 load(1, XDATA, add(CFA_XSP16, literal(-21)))
          CFI (cfiCond181) VB load(1, XDATA, add(CFA_XSP16, literal(-20)))
          CFI (cfiCond181) V0 load(1, XDATA, add(CFA_XSP16, literal(-19)))
          CFI (cfiCond181) V1 load(1, XDATA, add(CFA_XSP16, literal(-18)))
          CFI (cfiCond181) V2 load(1, XDATA, add(CFA_XSP16, literal(-17)))
          CFI (cfiCond181) V3 load(1, XDATA, add(CFA_XSP16, literal(-16)))
          CFI (cfiCond181) V4 load(1, XDATA, add(CFA_XSP16, literal(-15)))
          CFI (cfiCond181) V5 load(1, XDATA, add(CFA_XSP16, literal(-14)))
          CFI (cfiCond181) V6 load(1, XDATA, add(CFA_XSP16, literal(-13)))
          CFI (cfiCond181) V7 load(1, XDATA, add(CFA_XSP16, literal(-12)))
          CFI (cfiCond181) V8 load(1, XDATA, add(CFA_XSP16, literal(-11)))
          CFI (cfiCond181) V9 load(1, XDATA, add(CFA_XSP16, literal(-10)))
          CFI (cfiCond181) V10 load(1, XDATA, add(CFA_XSP16, literal(-9)))
          CFI (cfiCond181) V11 load(1, XDATA, add(CFA_XSP16, literal(-8)))
          CFI (cfiCond181) V12 load(1, XDATA, add(CFA_XSP16, literal(-7)))
          CFI (cfiCond181) R7 load(1, XDATA, add(CFA_XSP16, literal(-6)))
          CFI (cfiCond181) ?RET_LOW load(1, XDATA, add(CFA_XSP16, literal(-5)))
          CFI (cfiCond181) ?RET_HIGH load(1, XDATA, add(CFA_XSP16, literal(-4)))
          CFI (cfiCond181) ?BRET_EXT load(1, XDATA, add(CFA_XSP16, literal(-3)))
          CFI (cfiCond181) DPL0 load(1, XDATA, add(CFA_XSP16, literal(-2)))
          CFI (cfiCond181) DPH0 load(1, XDATA, add(CFA_XSP16, literal(-1)))
          CFI (cfiCond181) CFA_SP SP+-2
          CFI (cfiCond181) CFA_XSP16 add(XSP16, 22)
          CFI Block cfiPicker182 Using cfiCommon1
          CFI (cfiPicker182) NoFunction
          CFI (cfiPicker182) Picker
        MOV       R0,A
        INC       DPTR
        MOVX      A,@DPTR
        MOV       DPH,A
        MOV       DPL,R0
        RET
          CFI EndBlock cfiCond176
          CFI EndBlock cfiCond177
          CFI EndBlock cfiCond178
          CFI EndBlock cfiCond179
          CFI EndBlock cfiCond180
          CFI EndBlock cfiCond181
          CFI EndBlock cfiPicker182

        RSEG BANKED_CODE:HUGECODE:NOROOT(0)
?Subroutine13:
          CFI Block cfiCond183 Using cfiCommon0
          CFI Function ZDP_SimpleDescReq
          CFI Conditional ??CrossCallReturnLabel_6
          CFI R6 load(1, XDATA, add(CFA_XSP16, literal(-10)))
          CFI VB load(1, XDATA, add(CFA_XSP16, literal(-9)))
          CFI V0 load(1, XDATA, add(CFA_XSP16, literal(-8)))
          CFI V1 load(1, XDATA, add(CFA_XSP16, literal(-7)))
          CFI R7 load(1, XDATA, add(CFA_XSP16, literal(-6)))
          CFI ?RET_LOW load(1, XDATA, add(CFA_XSP16, literal(-5)))
          CFI ?RET_HIGH load(1, XDATA, add(CFA_XSP16, literal(-4)))
          CFI ?BRET_EXT load(1, XDATA, add(CFA_XSP16, literal(-3)))
          CFI DPL0 load(1, XDATA, add(CFA_XSP16, literal(-2)))
          CFI DPH0 load(1, XDATA, add(CFA_XSP16, literal(-1)))
          CFI CFA_SP SP+-2
          CFI CFA_XSP16 add(XSP16, 10)
          CFI Block cfiCond184 Using cfiCommon0
          CFI (cfiCond184) Function ZDP_GenericRsp
          CFI (cfiCond184) Conditional ??CrossCallReturnLabel_7
          CFI (cfiCond184) R6 load(1, XDATA, add(CFA_XSP16, literal(-9)))
          CFI (cfiCond184) VB load(1, XDATA, add(CFA_XSP16, literal(-8)))
          CFI (cfiCond184) V0 load(1, XDATA, add(CFA_XSP16, literal(-7)))
          CFI (cfiCond184) R7 load(1, XDATA, add(CFA_XSP16, literal(-6)))
          CFI (cfiCond184) ?RET_LOW load(1, XDATA, add(CFA_XSP16, literal(-5)))
          CFI (cfiCond184) ?RET_HIGH load(1, XDATA, add(CFA_XSP16, literal(-4)))
          CFI (cfiCond184) ?BRET_EXT load(1, XDATA, add(CFA_XSP16, literal(-3)))
          CFI (cfiCond184) DPL0 load(1, XDATA, add(CFA_XSP16, literal(-2)))
          CFI (cfiCond184) DPH0 load(1, XDATA, add(CFA_XSP16, literal(-1)))
          CFI (cfiCond184) CFA_SP SP+-2
          CFI (cfiCond184) CFA_XSP16 add(XSP16, 10)
          CFI Block cfiPicker185 Using cfiCommon1
          CFI (cfiPicker185) NoFunction
          CFI (cfiPicker185) Picker
        LCALL     ?Subroutine70 & 0xFFFF
??CrossCallReturnLabel_125:
        INC       DPTR
        MOV       A,R1
        MOVX      @DPTR,A
        RET
          CFI EndBlock cfiCond183
          CFI EndBlock cfiCond184
          CFI EndBlock cfiPicker185
// 1158 
// 1159 /*********************************************************************
// 1160  * Binding
// 1161  */
// 1162 /*********************************************************************
// 1163  * @fn          ZDP_EndDeviceBindReq
// 1164  *
// 1165  * @brief       This builds and sends a End_Device_Bind_req message.
// 1166  *              This function sends a unicast message.
// 1167  *
// 1168  * @param       dstAddr - destination address
// 1169  * @param       LocalCoordinator - short address of local coordinator
// 1170  * @param       epIntf - Endpoint/Interface of Simple Desc
// 1171  * @param       ProfileID - Profile ID
// 1172  *
// 1173  *   The Input cluster list is the opposite of what you would think.
// 1174  *   This is the output cluster list of this device
// 1175  * @param       NumInClusters - number of input clusters
// 1176  * @param       InClusterList - input cluster ID list
// 1177  *
// 1178  *   The Output cluster list is the opposite of what you would think.
// 1179  *   This is the input cluster list of this device
// 1180  * @param       NumOutClusters - number of output clusters
// 1181  * @param       OutClusterList - output cluster ID list
// 1182  *
// 1183  * @param       SecurityEnable - Security Options
// 1184  *
// 1185  * @return      afStatus_t
// 1186  */

        RSEG BANKED_CODE:HUGECODE:NOROOT(0)
// 1187 afStatus_t ZDP_EndDeviceBindReq( zAddrType_t *dstAddr,
ZDP_EndDeviceBindReq:
          CFI Block cfiBlock186 Using cfiCommon0
          CFI Function ZDP_EndDeviceBindReq
        CODE
// 1188                                  uint16 LocalCoordinator,
// 1189                                  byte endPoint,
// 1190                                  uint16 ProfileID,
// 1191                                  byte NumInClusters, cId_t *InClusterList,
// 1192                                  byte NumOutClusters, cId_t *OutClusterList,
// 1193                                  byte SecurityEnable )
// 1194 {
        FUNCALL ZDP_EndDeviceBindReq, NLME_GetShortAddr
        LOCFRAME ISTACK, 0, STACK
        LOCFRAME PSTACK, 0, STACK
        LOCFRAME XSTACK, 18, STACK
        LOCFRAME IOVERLAY, 0, STATIC
        LOCFRAME DOVERLAY, 0, STATIC
        ARGFRAME ISTACK, 0, STACK
        ARGFRAME PSTACK, 0, STACK
        ARGFRAME XSTACK, 18, STACK
        ARGFRAME IOVERLAY, 0, STATIC
        ARGFRAME DOVERLAY, 0, STATIC
        FUNCALL ZDP_EndDeviceBindReq, NLME_GetExtAddr
        LOCFRAME ISTACK, 0, STACK
        LOCFRAME PSTACK, 0, STACK
        LOCFRAME XSTACK, 18, STACK
        LOCFRAME IOVERLAY, 0, STATIC
        LOCFRAME DOVERLAY, 0, STATIC
        ARGFRAME ISTACK, 0, STACK
        ARGFRAME PSTACK, 0, STACK
        ARGFRAME XSTACK, 18, STACK
        ARGFRAME IOVERLAY, 0, STATIC
        ARGFRAME DOVERLAY, 0, STATIC
        FUNCALL ZDP_EndDeviceBindReq, sAddrExtCpy
        LOCFRAME ISTACK, 0, STACK
        LOCFRAME PSTACK, 0, STACK
        LOCFRAME XSTACK, 18, STACK
        LOCFRAME IOVERLAY, 0, STATIC
        LOCFRAME DOVERLAY, 0, STATIC
        ARGFRAME ISTACK, 0, STACK
        ARGFRAME PSTACK, 0, STACK
        ARGFRAME XSTACK, 18, STACK
        ARGFRAME IOVERLAY, 0, STATIC
        ARGFRAME DOVERLAY, 0, STATIC
        FUNCALL ZDP_EndDeviceBindReq, fillAndSend
        LOCFRAME ISTACK, 0, STACK
        LOCFRAME PSTACK, 0, STACK
        LOCFRAME XSTACK, 20, STACK
        LOCFRAME IOVERLAY, 0, STATIC
        LOCFRAME DOVERLAY, 0, STATIC
        ARGFRAME ISTACK, 0, STACK
        ARGFRAME PSTACK, 0, STACK
        ARGFRAME XSTACK, 20, STACK
        ARGFRAME IOVERLAY, 0, STATIC
        ARGFRAME DOVERLAY, 0, STATIC
        REQUIRE ?V0
        REQUIRE ?V1
        REQUIRE ?V2
        REQUIRE ?V3
        REQUIRE ?V4
        REQUIRE ?V5
        REQUIRE ?V6
        REQUIRE ?V7
        REQUIRE ?V8
        REQUIRE ?V9
        MOV       A,#-0x12
        LCALL     ?BANKED_ENTER_XDATA
          CFI DPH0 load(1, XDATA, add(CFA_XSP16, literal(-1)))
          CFI DPL0 load(1, XDATA, add(CFA_XSP16, literal(-2)))
          CFI ?BRET_EXT load(1, XDATA, add(CFA_XSP16, literal(-3)))
          CFI ?RET_HIGH load(1, XDATA, add(CFA_XSP16, literal(-4)))
          CFI ?RET_LOW load(1, XDATA, add(CFA_XSP16, literal(-5)))
          CFI R7 load(1, XDATA, add(CFA_XSP16, literal(-6)))
          CFI V9 load(1, XDATA, add(CFA_XSP16, literal(-7)))
          CFI V8 load(1, XDATA, add(CFA_XSP16, literal(-8)))
          CFI V7 load(1, XDATA, add(CFA_XSP16, literal(-9)))
          CFI V6 load(1, XDATA, add(CFA_XSP16, literal(-10)))
          CFI V5 load(1, XDATA, add(CFA_XSP16, literal(-11)))
          CFI V4 load(1, XDATA, add(CFA_XSP16, literal(-12)))
          CFI V3 load(1, XDATA, add(CFA_XSP16, literal(-13)))
          CFI V2 load(1, XDATA, add(CFA_XSP16, literal(-14)))
          CFI V1 load(1, XDATA, add(CFA_XSP16, literal(-15)))
          CFI V0 load(1, XDATA, add(CFA_XSP16, literal(-16)))
          CFI VB load(1, XDATA, add(CFA_XSP16, literal(-17)))
          CFI R6 load(1, XDATA, add(CFA_XSP16, literal(-18)))
          CFI CFA_SP SP+0
          CFI CFA_XSP16 add(XSP16, 18)
        ; Saved register size: 18
        ; Auto size: 0
        MOV       ?V6,R2
        MOV       ?V7,R3
        MOV       ?V4,R4
        MOV       ?V5,R5
        MOV       ?V3,R1
// 1195   uint8 *pBuf = ZDP_TmpBuf;
        LCALL     ?Subroutine41 & 0xFFFF
??CrossCallReturnLabel_156:
        MOV       A,#0x14
        LCALL     ?XSTACK_DISP0_8
        MOVX      A,@DPTR
        MOV       ?V2,A
        MOV       A,#0x17
        LCALL     ?XSTACK_DISP0_8
        MOVX      A,@DPTR
        MOV       R7,A
// 1196   uint8 i, len;
// 1197   uint8 *ieeeAddr;
// 1198 
// 1199   (void)SecurityEnable;  // Intentionally unreferenced parameter
// 1200 
// 1201   // LocalCoordinator + SrcExtAddr + ep + ProfileID +  NumInClusters + NumOutClusters.
// 1202   len = 2 + Z_EXTADDR_LEN + 1 + 2 + 1 + 1;
// 1203   len += (NumInClusters + NumOutClusters) * sizeof ( uint16 );
        MOV       A,?V2
        ADD       A,R7
        CLR       C
        RLC       A
        ADD       A,#0xf
        MOV       R6,A
// 1204 
// 1205   if ( len >= ZDP_BUF_SZ-1 )
        CLR       C
        SUBB      A,#0x4f
        JC        ??ZDP_EndDeviceBindReq_0
// 1206   {
// 1207     return afStatus_MEM_FAIL;
        MOV       R1,#0x10
        LJMP      ??ZDP_EndDeviceBindReq_1 & 0xFFFF
// 1208   }
// 1209 
// 1210   if ( LocalCoordinator != NLME_GetShortAddr() )
??ZDP_EndDeviceBindReq_0:
        ; Setup parameters for call to function NLME_GetShortAddr
        LCALL     `??NLME_GetShortAddr::?relay`; Banked call to: NLME_GetShortAddr
        MOV       A,R2
        XRL       A,?V4
        JNZ       ??ZDP_EndDeviceBindReq_2
        MOV       A,R3
        XRL       A,?V5
??ZDP_EndDeviceBindReq_2:
        JZ        ??ZDP_EndDeviceBindReq_3
// 1211   {
// 1212     return afStatus_INVALID_PARAMETER;
        MOV       R1,#0x2
        LJMP      ??ZDP_EndDeviceBindReq_1 & 0xFFFF
// 1213   }
// 1214 
// 1215   *pBuf++ = LO_UINT16( LocalCoordinator );
??ZDP_EndDeviceBindReq_3:
        MOV       DPL,?V0
        MOV       DPH,?V1
        MOV       A,?V4
        MOVX      @DPTR,A
// 1216   *pBuf++ = HI_UINT16( LocalCoordinator );
        MOV       A,?V5
        INC       DPTR
        MOVX      @DPTR,A
// 1217 
// 1218   ieeeAddr = NLME_GetExtAddr();
        ; Setup parameters for call to function NLME_GetExtAddr
        LCALL     `??NLME_GetExtAddr::?relay`; Banked call to: NLME_GetExtAddr
        MOV       ?V4,R2
        MOV       ?V5,R3
        MOV       R4,?V4
        MOV       R5,?V5
// 1219   pBuf = osal_cpyExtAddr( pBuf, ieeeAddr );
        ; Setup parameters for call to function sAddrExtCpy
        MOV       A,?V0
        ADD       A,#0x2
        MOV       R2,A
        CLR       A
        ADDC      A,?V1
        MOV       R3,A
        LCALL     `??sAddrExtCpy::?relay`; Banked call to: sAddrExtCpy
// 1220 
// 1221   *pBuf++ = endPoint;
        MOV       DPL,R2
        MOV       DPH,R3
        MOV       A,?V3
        MOVX      @DPTR,A
        MOV       A,#0x12
        LCALL     ?XSTACK_DISP0_8
        LCALL     ?Subroutine15 & 0xFFFF
// 1222 
// 1223   *pBuf++ = LO_UINT16( ProfileID );   // Profile ID
// 1224   *pBuf++ = HI_UINT16( ProfileID );
// 1225 
// 1226   *pBuf++ = NumInClusters; // Input cluster list
??CrossCallReturnLabel_11:
        MOV       DPL,R2
        MOV       DPH,R3
        INC       DPTR
        INC       DPTR
        INC       DPTR
        MOV       A,?V2
        MOVX      @DPTR,A
        MOV       A,R2
        ADD       A,#0x4
        MOV       ?V0,A
        CLR       A
        ADDC      A,R3
        MOV       ?V1,A
// 1227   for ( i = 0; i < NumInClusters; ++i )
        MOV       R4,#0x0
        MOV       A,#0x15
        LCALL     ?XSTACK_DISP0_8
        LCALL     ?Subroutine55 & 0xFFFF
??CrossCallReturnLabel_97:
        SJMP      ??ZDP_EndDeviceBindReq_4
// 1228   {
// 1229     *pBuf++ = LO_UINT16(InClusterList[i]);
??ZDP_EndDeviceBindReq_5:
        MOV       A,R4
        ADD       A,0xE0 /* A   */
        MOV       ?V4,A
        CLR       A
        RLC       A
        MOV       ?V5,A
        MOV       A,R2
        ADD       A,?V4
        MOV       ?V4,A
        MOV       A,R3
        ADDC      A,?V5
        MOV       ?V5,A
        MOV       DPL,?V4
        MOV       DPH,A
        LCALL     ?Subroutine63 & 0xFFFF
// 1230     *pBuf++ = HI_UINT16(InClusterList[i]);
??CrossCallReturnLabel_109:
        MOV       DPL,?V4
        MOV       DPH,?V5
        INC       DPTR
        LCALL     ?Subroutine58 & 0xFFFF
// 1231   }
??CrossCallReturnLabel_99:
        MOV       A,?V0
        ADD       A,#0x2
        MOV       ?V0,A
        JNC       ??ZDP_EndDeviceBindReq_6
        INC       ?V1
??ZDP_EndDeviceBindReq_6:
        INC       R4
??ZDP_EndDeviceBindReq_4:
        MOV       DPL,?V0
        MOV       DPH,?V1
        INC       DPTR
        MOV       R0,DPL
        MOV       R1,DPH
        MOV       A,R4
        CLR       C
        SUBB      A,?V2
        JC        ??ZDP_EndDeviceBindReq_5
// 1232 
// 1233   *pBuf++ = NumOutClusters; // Output cluster list
        MOV       A,R7
        MOV       DPL,?V0
        MOV       DPH,?V1
        MOVX      @DPTR,A
        MOV       ?V0,R0
        MOV       ?V1,R1
// 1234   for ( i = 0; i < NumOutClusters; ++i )
        MOV       R4,#0x0
        MOV       A,#0x18
        LCALL     ?XSTACK_DISP0_8
        LCALL     ??Subroutine117_0 & 0xFFFF
??CrossCallReturnLabel_236:
        SJMP      ??ZDP_EndDeviceBindReq_7
// 1235   {
// 1236     *pBuf++ = LO_UINT16(OutClusterList[i]);
??ZDP_EndDeviceBindReq_8:
        MOV       A,R4
        ADD       A,0xE0 /* A   */
        MOV       R2,A
        CLR       A
        RLC       A
        MOV       R3,A
        MOV       A,R0
        ADD       A,R2
        MOV       R2,A
        MOV       A,R1
        ADDC      A,R3
        MOV       R3,A
        MOV       DPL,R2
        MOV       DPH,R3
        LCALL     ?Subroutine63 & 0xFFFF
// 1237     *pBuf++ = HI_UINT16(OutClusterList[i]);
??CrossCallReturnLabel_110:
        MOV       DPL,R2
        MOV       DPH,R3
        INC       DPTR
        LCALL     ?Subroutine64 & 0xFFFF
// 1238   }
??CrossCallReturnLabel_111:
        MOVX      @DPTR,A
        MOV       A,?V0
        ADD       A,#0x2
        MOV       ?V0,A
        JNC       ??ZDP_EndDeviceBindReq_9
        INC       ?V1
??ZDP_EndDeviceBindReq_9:
        INC       R4
??ZDP_EndDeviceBindReq_7:
        MOV       A,R4
        CLR       C
        SUBB      A,R7
        JC        ??ZDP_EndDeviceBindReq_8
// 1239 
// 1240   return fillAndSend( &ZDP_TransID, dstAddr, End_Device_Bind_req, len );
        ; Setup parameters for call to function fillAndSend
        MOV       ?V0,#0x20
        MOV       ?V1,#0x0
        MOV       R0,#?V0
        LCALL     ?PUSH_XSTACK_I_TWO
          CFI CFA_XSP16 add(XSP16, 20)
        MOV       A,R6
        MOV       R1,A
        MOV       R4,?V6
        MOV       R5,?V7
        MOV       R2,#ZDP_TransID & 0xff
        MOV       R3,#(ZDP_TransID >> 8) & 0xff
        LCALL     `??fillAndSend::?relay`; Banked call to: fillAndSend
        MOV       A,#0x2
        LCALL     ?DEALLOC_XSTACK8
          CFI CFA_XSP16 add(XSP16, 18)
??ZDP_EndDeviceBindReq_1:
        SJMP      ??Subroutine104_0
// 1241 }
          CFI EndBlock cfiBlock186

        RSEG BANKED_CODE:HUGECODE:NOROOT(0)
?Subroutine63:
          CFI Block cfiCond187 Using cfiCommon0
          CFI Function ZDP_EndDeviceBindReq
          CFI Conditional ??CrossCallReturnLabel_109
          CFI R6 load(1, XDATA, add(CFA_XSP16, literal(-18)))
          CFI VB load(1, XDATA, add(CFA_XSP16, literal(-17)))
          CFI V0 load(1, XDATA, add(CFA_XSP16, literal(-16)))
          CFI V1 load(1, XDATA, add(CFA_XSP16, literal(-15)))
          CFI V2 load(1, XDATA, add(CFA_XSP16, literal(-14)))
          CFI V3 load(1, XDATA, add(CFA_XSP16, literal(-13)))
          CFI V4 load(1, XDATA, add(CFA_XSP16, literal(-12)))
          CFI V5 load(1, XDATA, add(CFA_XSP16, literal(-11)))
          CFI V6 load(1, XDATA, add(CFA_XSP16, literal(-10)))
          CFI V7 load(1, XDATA, add(CFA_XSP16, literal(-9)))
          CFI V8 load(1, XDATA, add(CFA_XSP16, literal(-8)))
          CFI V9 load(1, XDATA, add(CFA_XSP16, literal(-7)))
          CFI R7 load(1, XDATA, add(CFA_XSP16, literal(-6)))
          CFI ?RET_LOW load(1, XDATA, add(CFA_XSP16, literal(-5)))
          CFI ?RET_HIGH load(1, XDATA, add(CFA_XSP16, literal(-4)))
          CFI ?BRET_EXT load(1, XDATA, add(CFA_XSP16, literal(-3)))
          CFI DPL0 load(1, XDATA, add(CFA_XSP16, literal(-2)))
          CFI DPH0 load(1, XDATA, add(CFA_XSP16, literal(-1)))
          CFI CFA_SP SP+-2
          CFI CFA_XSP16 add(XSP16, 18)
          CFI Block cfiCond188 Using cfiCommon0
          CFI (cfiCond188) Function ZDP_EndDeviceBindReq
          CFI (cfiCond188) Conditional ??CrossCallReturnLabel_110
          CFI (cfiCond188) R6 load(1, XDATA, add(CFA_XSP16, literal(-18)))
          CFI (cfiCond188) VB load(1, XDATA, add(CFA_XSP16, literal(-17)))
          CFI (cfiCond188) V0 load(1, XDATA, add(CFA_XSP16, literal(-16)))
          CFI (cfiCond188) V1 load(1, XDATA, add(CFA_XSP16, literal(-15)))
          CFI (cfiCond188) V2 load(1, XDATA, add(CFA_XSP16, literal(-14)))
          CFI (cfiCond188) V3 load(1, XDATA, add(CFA_XSP16, literal(-13)))
          CFI (cfiCond188) V4 load(1, XDATA, add(CFA_XSP16, literal(-12)))
          CFI (cfiCond188) V5 load(1, XDATA, add(CFA_XSP16, literal(-11)))
          CFI (cfiCond188) V6 load(1, XDATA, add(CFA_XSP16, literal(-10)))
          CFI (cfiCond188) V7 load(1, XDATA, add(CFA_XSP16, literal(-9)))
          CFI (cfiCond188) V8 load(1, XDATA, add(CFA_XSP16, literal(-8)))
          CFI (cfiCond188) V9 load(1, XDATA, add(CFA_XSP16, literal(-7)))
          CFI (cfiCond188) R7 load(1, XDATA, add(CFA_XSP16, literal(-6)))
          CFI (cfiCond188) ?RET_LOW load(1, XDATA, add(CFA_XSP16, literal(-5)))
          CFI (cfiCond188) ?RET_HIGH load(1, XDATA, add(CFA_XSP16, literal(-4)))
          CFI (cfiCond188) ?BRET_EXT load(1, XDATA, add(CFA_XSP16, literal(-3)))
          CFI (cfiCond188) DPL0 load(1, XDATA, add(CFA_XSP16, literal(-2)))
          CFI (cfiCond188) DPH0 load(1, XDATA, add(CFA_XSP16, literal(-1)))
          CFI (cfiCond188) CFA_SP SP+-2
          CFI (cfiCond188) CFA_XSP16 add(XSP16, 18)
          CFI Block cfiPicker189 Using cfiCommon1
          CFI (cfiPicker189) NoFunction
          CFI (cfiPicker189) Picker
        MOVX      A,@DPTR
        MOV       DPL,?V0
        MOV       DPH,?V1
        MOVX      @DPTR,A
        RET
          CFI EndBlock cfiCond187
          CFI EndBlock cfiCond188
          CFI EndBlock cfiPicker189

        RSEG BANKED_CODE:HUGECODE:NOROOT(0)
?Subroutine58:
          CFI Block cfiCond190 Using cfiCommon0
          CFI Function ZDP_SimpleDescMsg
          CFI Conditional ??CrossCallReturnLabel_98
          CFI R6 load(1, XDATA, add(CFA_XSP16, literal(-20)))
          CFI VB load(1, XDATA, add(CFA_XSP16, literal(-19)))
          CFI V0 load(1, XDATA, add(CFA_XSP16, literal(-18)))
          CFI V1 load(1, XDATA, add(CFA_XSP16, literal(-17)))
          CFI V2 load(1, XDATA, add(CFA_XSP16, literal(-16)))
          CFI V3 load(1, XDATA, add(CFA_XSP16, literal(-15)))
          CFI V4 load(1, XDATA, add(CFA_XSP16, literal(-14)))
          CFI V5 load(1, XDATA, add(CFA_XSP16, literal(-13)))
          CFI V6 load(1, XDATA, add(CFA_XSP16, literal(-12)))
          CFI V7 load(1, XDATA, add(CFA_XSP16, literal(-11)))
          CFI V8 load(1, XDATA, add(CFA_XSP16, literal(-10)))
          CFI V9 load(1, XDATA, add(CFA_XSP16, literal(-9)))
          CFI V10 load(1, XDATA, add(CFA_XSP16, literal(-8)))
          CFI V11 load(1, XDATA, add(CFA_XSP16, literal(-7)))
          CFI R7 load(1, XDATA, add(CFA_XSP16, literal(-6)))
          CFI ?RET_LOW load(1, XDATA, add(CFA_XSP16, literal(-5)))
          CFI ?RET_HIGH load(1, XDATA, add(CFA_XSP16, literal(-4)))
          CFI ?BRET_EXT load(1, XDATA, add(CFA_XSP16, literal(-3)))
          CFI DPL0 load(1, XDATA, add(CFA_XSP16, literal(-2)))
          CFI DPH0 load(1, XDATA, add(CFA_XSP16, literal(-1)))
          CFI CFA_SP SP+-2
          CFI CFA_XSP16 add(XSP16, 20)
          CFI Block cfiCond191 Using cfiCommon0
          CFI (cfiCond191) Function ZDP_EndDeviceBindReq
          CFI (cfiCond191) Conditional ??CrossCallReturnLabel_99
          CFI (cfiCond191) R6 load(1, XDATA, add(CFA_XSP16, literal(-18)))
          CFI (cfiCond191) VB load(1, XDATA, add(CFA_XSP16, literal(-17)))
          CFI (cfiCond191) V0 load(1, XDATA, add(CFA_XSP16, literal(-16)))
          CFI (cfiCond191) V1 load(1, XDATA, add(CFA_XSP16, literal(-15)))
          CFI (cfiCond191) V2 load(1, XDATA, add(CFA_XSP16, literal(-14)))
          CFI (cfiCond191) V3 load(1, XDATA, add(CFA_XSP16, literal(-13)))
          CFI (cfiCond191) V4 load(1, XDATA, add(CFA_XSP16, literal(-12)))
          CFI (cfiCond191) V5 load(1, XDATA, add(CFA_XSP16, literal(-11)))
          CFI (cfiCond191) V6 load(1, XDATA, add(CFA_XSP16, literal(-10)))
          CFI (cfiCond191) V7 load(1, XDATA, add(CFA_XSP16, literal(-9)))
          CFI (cfiCond191) V8 load(1, XDATA, add(CFA_XSP16, literal(-8)))
          CFI (cfiCond191) V9 load(1, XDATA, add(CFA_XSP16, literal(-7)))
          CFI (cfiCond191) R7 load(1, XDATA, add(CFA_XSP16, literal(-6)))
          CFI (cfiCond191) ?RET_LOW load(1, XDATA, add(CFA_XSP16, literal(-5)))
          CFI (cfiCond191) ?RET_HIGH load(1, XDATA, add(CFA_XSP16, literal(-4)))
          CFI (cfiCond191) ?BRET_EXT load(1, XDATA, add(CFA_XSP16, literal(-3)))
          CFI (cfiCond191) DPL0 load(1, XDATA, add(CFA_XSP16, literal(-2)))
          CFI (cfiCond191) DPH0 load(1, XDATA, add(CFA_XSP16, literal(-1)))
          CFI (cfiCond191) CFA_SP SP+-2
          CFI (cfiCond191) CFA_XSP16 add(XSP16, 18)
          CFI Block cfiCond192 Using cfiCommon0
          CFI (cfiCond192) Function ZDP_MgmtLqiRsp
          CFI (cfiCond192) Conditional ??CrossCallReturnLabel_100
          CFI (cfiCond192) R6 load(1, XDATA, add(CFA_XSP16, literal(-21)))
          CFI (cfiCond192) VB load(1, XDATA, add(CFA_XSP16, literal(-20)))
          CFI (cfiCond192) V0 load(1, XDATA, add(CFA_XSP16, literal(-19)))
          CFI (cfiCond192) V1 load(1, XDATA, add(CFA_XSP16, literal(-18)))
          CFI (cfiCond192) V2 load(1, XDATA, add(CFA_XSP16, literal(-17)))
          CFI (cfiCond192) V3 load(1, XDATA, add(CFA_XSP16, literal(-16)))
          CFI (cfiCond192) V4 load(1, XDATA, add(CFA_XSP16, literal(-15)))
          CFI (cfiCond192) V5 load(1, XDATA, add(CFA_XSP16, literal(-14)))
          CFI (cfiCond192) V6 load(1, XDATA, add(CFA_XSP16, literal(-13)))
          CFI (cfiCond192) V7 load(1, XDATA, add(CFA_XSP16, literal(-12)))
          CFI (cfiCond192) V8 load(1, XDATA, add(CFA_XSP16, literal(-11)))
          CFI (cfiCond192) V9 load(1, XDATA, add(CFA_XSP16, literal(-10)))
          CFI (cfiCond192) V10 load(1, XDATA, add(CFA_XSP16, literal(-9)))
          CFI (cfiCond192) V11 load(1, XDATA, add(CFA_XSP16, literal(-8)))
          CFI (cfiCond192) V12 load(1, XDATA, add(CFA_XSP16, literal(-7)))
          CFI (cfiCond192) R7 load(1, XDATA, add(CFA_XSP16, literal(-6)))
          CFI (cfiCond192) ?RET_LOW load(1, XDATA, add(CFA_XSP16, literal(-5)))
          CFI (cfiCond192) ?RET_HIGH load(1, XDATA, add(CFA_XSP16, literal(-4)))
          CFI (cfiCond192) ?BRET_EXT load(1, XDATA, add(CFA_XSP16, literal(-3)))
          CFI (cfiCond192) DPL0 load(1, XDATA, add(CFA_XSP16, literal(-2)))
          CFI (cfiCond192) DPH0 load(1, XDATA, add(CFA_XSP16, literal(-1)))
          CFI (cfiCond192) CFA_SP SP+-2
          CFI (cfiCond192) CFA_XSP16 add(XSP16, 22)
          CFI Block cfiPicker193 Using cfiCommon1
          CFI (cfiPicker193) NoFunction
          CFI (cfiPicker193) Picker
        LCALL     ??Subroutine110_0 & 0xFFFF
??CrossCallReturnLabel_206:
        MOVX      @DPTR,A
        RET
          CFI EndBlock cfiCond190
          CFI EndBlock cfiCond191
          CFI EndBlock cfiCond192
          CFI EndBlock cfiPicker193

        RSEG BANKED_CODE:HUGECODE:NOROOT(0)
?Subroutine55:
          CFI Block cfiCond194 Using cfiCommon0
          CFI Function ZDP_EPRsp
          CFI Conditional ??CrossCallReturnLabel_96
          CFI R6 load(1, XDATA, add(CFA_XSP16, literal(-15)))
          CFI VB load(1, XDATA, add(CFA_XSP16, literal(-14)))
          CFI V0 load(1, XDATA, add(CFA_XSP16, literal(-13)))
          CFI V1 load(1, XDATA, add(CFA_XSP16, literal(-12)))
          CFI V2 load(1, XDATA, add(CFA_XSP16, literal(-11)))
          CFI V3 load(1, XDATA, add(CFA_XSP16, literal(-10)))
          CFI V4 load(1, XDATA, add(CFA_XSP16, literal(-9)))
          CFI V5 load(1, XDATA, add(CFA_XSP16, literal(-8)))
          CFI V6 load(1, XDATA, add(CFA_XSP16, literal(-7)))
          CFI R7 load(1, XDATA, add(CFA_XSP16, literal(-6)))
          CFI ?RET_LOW load(1, XDATA, add(CFA_XSP16, literal(-5)))
          CFI ?RET_HIGH load(1, XDATA, add(CFA_XSP16, literal(-4)))
          CFI ?BRET_EXT load(1, XDATA, add(CFA_XSP16, literal(-3)))
          CFI DPL0 load(1, XDATA, add(CFA_XSP16, literal(-2)))
          CFI DPH0 load(1, XDATA, add(CFA_XSP16, literal(-1)))
          CFI CFA_SP SP+-2
          CFI CFA_XSP16 add(XSP16, 16)
          CFI Block cfiCond195 Using cfiCommon0
          CFI (cfiCond195) Function ZDP_EndDeviceBindReq
          CFI (cfiCond195) Conditional ??CrossCallReturnLabel_97
          CFI (cfiCond195) R6 load(1, XDATA, add(CFA_XSP16, literal(-18)))
          CFI (cfiCond195) VB load(1, XDATA, add(CFA_XSP16, literal(-17)))
          CFI (cfiCond195) V0 load(1, XDATA, add(CFA_XSP16, literal(-16)))
          CFI (cfiCond195) V1 load(1, XDATA, add(CFA_XSP16, literal(-15)))
          CFI (cfiCond195) V2 load(1, XDATA, add(CFA_XSP16, literal(-14)))
          CFI (cfiCond195) V3 load(1, XDATA, add(CFA_XSP16, literal(-13)))
          CFI (cfiCond195) V4 load(1, XDATA, add(CFA_XSP16, literal(-12)))
          CFI (cfiCond195) V5 load(1, XDATA, add(CFA_XSP16, literal(-11)))
          CFI (cfiCond195) V6 load(1, XDATA, add(CFA_XSP16, literal(-10)))
          CFI (cfiCond195) V7 load(1, XDATA, add(CFA_XSP16, literal(-9)))
          CFI (cfiCond195) V8 load(1, XDATA, add(CFA_XSP16, literal(-8)))
          CFI (cfiCond195) V9 load(1, XDATA, add(CFA_XSP16, literal(-7)))
          CFI (cfiCond195) R7 load(1, XDATA, add(CFA_XSP16, literal(-6)))
          CFI (cfiCond195) ?RET_LOW load(1, XDATA, add(CFA_XSP16, literal(-5)))
          CFI (cfiCond195) ?RET_HIGH load(1, XDATA, add(CFA_XSP16, literal(-4)))
          CFI (cfiCond195) ?BRET_EXT load(1, XDATA, add(CFA_XSP16, literal(-3)))
          CFI (cfiCond195) DPL0 load(1, XDATA, add(CFA_XSP16, literal(-2)))
          CFI (cfiCond195) DPH0 load(1, XDATA, add(CFA_XSP16, literal(-1)))
          CFI (cfiCond195) CFA_SP SP+-2
          CFI (cfiCond195) CFA_XSP16 add(XSP16, 18)
          CFI Block cfiPicker196 Using cfiCommon1
          CFI (cfiPicker196) NoFunction
          CFI (cfiPicker196) Picker
        LCALL     ?Subroutine75 & 0xFFFF
??CrossCallReturnLabel_167:
        MOV       R2,A
        MOV       A,R1
        MOV       R3,A
        RET
          CFI EndBlock cfiCond194
          CFI EndBlock cfiCond195
          CFI EndBlock cfiPicker196

        RSEG BANKED_CODE:HUGECODE:NOROOT(0)
?Subroutine15:
          CFI Block cfiCond197 Using cfiCommon0
          CFI Function ZDP_EPRsp
          CFI Conditional ??CrossCallReturnLabel_10
          CFI R6 load(1, XDATA, add(CFA_XSP16, literal(-15)))
          CFI VB load(1, XDATA, add(CFA_XSP16, literal(-14)))
          CFI V0 load(1, XDATA, add(CFA_XSP16, literal(-13)))
          CFI V1 load(1, XDATA, add(CFA_XSP16, literal(-12)))
          CFI V2 load(1, XDATA, add(CFA_XSP16, literal(-11)))
          CFI V3 load(1, XDATA, add(CFA_XSP16, literal(-10)))
          CFI V4 load(1, XDATA, add(CFA_XSP16, literal(-9)))
          CFI V5 load(1, XDATA, add(CFA_XSP16, literal(-8)))
          CFI V6 load(1, XDATA, add(CFA_XSP16, literal(-7)))
          CFI R7 load(1, XDATA, add(CFA_XSP16, literal(-6)))
          CFI ?RET_LOW load(1, XDATA, add(CFA_XSP16, literal(-5)))
          CFI ?RET_HIGH load(1, XDATA, add(CFA_XSP16, literal(-4)))
          CFI ?BRET_EXT load(1, XDATA, add(CFA_XSP16, literal(-3)))
          CFI DPL0 load(1, XDATA, add(CFA_XSP16, literal(-2)))
          CFI DPH0 load(1, XDATA, add(CFA_XSP16, literal(-1)))
          CFI CFA_SP SP+-2
          CFI CFA_XSP16 add(XSP16, 16)
          CFI Block cfiCond198 Using cfiCommon0
          CFI (cfiCond198) Function ZDP_EndDeviceBindReq
          CFI (cfiCond198) Conditional ??CrossCallReturnLabel_11
          CFI (cfiCond198) R6 load(1, XDATA, add(CFA_XSP16, literal(-18)))
          CFI (cfiCond198) VB load(1, XDATA, add(CFA_XSP16, literal(-17)))
          CFI (cfiCond198) V0 load(1, XDATA, add(CFA_XSP16, literal(-16)))
          CFI (cfiCond198) V1 load(1, XDATA, add(CFA_XSP16, literal(-15)))
          CFI (cfiCond198) V2 load(1, XDATA, add(CFA_XSP16, literal(-14)))
          CFI (cfiCond198) V3 load(1, XDATA, add(CFA_XSP16, literal(-13)))
          CFI (cfiCond198) V4 load(1, XDATA, add(CFA_XSP16, literal(-12)))
          CFI (cfiCond198) V5 load(1, XDATA, add(CFA_XSP16, literal(-11)))
          CFI (cfiCond198) V6 load(1, XDATA, add(CFA_XSP16, literal(-10)))
          CFI (cfiCond198) V7 load(1, XDATA, add(CFA_XSP16, literal(-9)))
          CFI (cfiCond198) V8 load(1, XDATA, add(CFA_XSP16, literal(-8)))
          CFI (cfiCond198) V9 load(1, XDATA, add(CFA_XSP16, literal(-7)))
          CFI (cfiCond198) R7 load(1, XDATA, add(CFA_XSP16, literal(-6)))
          CFI (cfiCond198) ?RET_LOW load(1, XDATA, add(CFA_XSP16, literal(-5)))
          CFI (cfiCond198) ?RET_HIGH load(1, XDATA, add(CFA_XSP16, literal(-4)))
          CFI (cfiCond198) ?BRET_EXT load(1, XDATA, add(CFA_XSP16, literal(-3)))
          CFI (cfiCond198) DPL0 load(1, XDATA, add(CFA_XSP16, literal(-2)))
          CFI (cfiCond198) DPH0 load(1, XDATA, add(CFA_XSP16, literal(-1)))
          CFI (cfiCond198) CFA_SP SP+-2
          CFI (cfiCond198) CFA_XSP16 add(XSP16, 18)
          CFI Block cfiCond199 Using cfiCommon0
          CFI (cfiCond199) Function ZDP_BindUnbindReq
          CFI (cfiCond199) Conditional ??CrossCallReturnLabel_12
          CFI (cfiCond199) R6 load(1, XDATA, add(CFA_XSP16, literal(-18)))
          CFI (cfiCond199) VB load(1, XDATA, add(CFA_XSP16, literal(-17)))
          CFI (cfiCond199) V0 load(1, XDATA, add(CFA_XSP16, literal(-16)))
          CFI (cfiCond199) V1 load(1, XDATA, add(CFA_XSP16, literal(-15)))
          CFI (cfiCond199) V2 load(1, XDATA, add(CFA_XSP16, literal(-14)))
          CFI (cfiCond199) V3 load(1, XDATA, add(CFA_XSP16, literal(-13)))
          CFI (cfiCond199) V4 load(1, XDATA, add(CFA_XSP16, literal(-12)))
          CFI (cfiCond199) V5 load(1, XDATA, add(CFA_XSP16, literal(-11)))
          CFI (cfiCond199) V6 load(1, XDATA, add(CFA_XSP16, literal(-10)))
          CFI (cfiCond199) V7 load(1, XDATA, add(CFA_XSP16, literal(-9)))
          CFI (cfiCond199) V8 load(1, XDATA, add(CFA_XSP16, literal(-8)))
          CFI (cfiCond199) V9 load(1, XDATA, add(CFA_XSP16, literal(-7)))
          CFI (cfiCond199) R7 load(1, XDATA, add(CFA_XSP16, literal(-6)))
          CFI (cfiCond199) ?RET_LOW load(1, XDATA, add(CFA_XSP16, literal(-5)))
          CFI (cfiCond199) ?RET_HIGH load(1, XDATA, add(CFA_XSP16, literal(-4)))
          CFI (cfiCond199) ?BRET_EXT load(1, XDATA, add(CFA_XSP16, literal(-3)))
          CFI (cfiCond199) DPL0 load(1, XDATA, add(CFA_XSP16, literal(-2)))
          CFI (cfiCond199) DPH0 load(1, XDATA, add(CFA_XSP16, literal(-1)))
          CFI (cfiCond199) CFA_SP SP+-2
          CFI (cfiCond199) CFA_XSP16 add(XSP16, 18)
          CFI Block cfiPicker200 Using cfiCommon1
          CFI (cfiPicker200) NoFunction
          CFI (cfiPicker200) Picker
        LCALL     ?Subroutine72 & 0xFFFF
??CrossCallReturnLabel_129:
        INC       DPTR
        LCALL     ?Subroutine85 & 0xFFFF
??CrossCallReturnLabel_143:
        MOVX      @DPTR,A
        RET
          CFI EndBlock cfiCond197
          CFI EndBlock cfiCond198
          CFI EndBlock cfiCond199
          CFI EndBlock cfiPicker200

        RSEG BANKED_CODE:HUGECODE:NOROOT(0)
?Subroutine6:
          CFI Block cfiBlock201 Using cfiCommon0
          CFI NoFunction
          CFI CFA_SP SP+0
          CFI CFA_XSP16 add(XSP16, 19)
          CFI VB load(1, XDATA, add(CFA_XSP16, literal(-17)))
          CFI DPL0 load(1, XDATA, add(CFA_XSP16, literal(-2)))
          CFI DPH0 load(1, XDATA, add(CFA_XSP16, literal(-1)))
          CFI R6 load(1, XDATA, add(CFA_XSP16, literal(-18)))
          CFI R7 load(1, XDATA, add(CFA_XSP16, literal(-6)))
          CFI V0 load(1, XDATA, add(CFA_XSP16, literal(-16)))
          CFI V1 load(1, XDATA, add(CFA_XSP16, literal(-15)))
          CFI V2 load(1, XDATA, add(CFA_XSP16, literal(-14)))
          CFI V3 load(1, XDATA, add(CFA_XSP16, literal(-13)))
          CFI V4 load(1, XDATA, add(CFA_XSP16, literal(-12)))
          CFI V5 load(1, XDATA, add(CFA_XSP16, literal(-11)))
          CFI V6 load(1, XDATA, add(CFA_XSP16, literal(-10)))
          CFI V7 load(1, XDATA, add(CFA_XSP16, literal(-9)))
          CFI V8 load(1, XDATA, add(CFA_XSP16, literal(-8)))
          CFI V9 load(1, XDATA, add(CFA_XSP16, literal(-7)))
          CFI ?BRET_EXT load(1, XDATA, add(CFA_XSP16, literal(-3)))
          CFI ?RET_HIGH load(1, XDATA, add(CFA_XSP16, literal(-4)))
          CFI ?RET_LOW load(1, XDATA, add(CFA_XSP16, literal(-5)))
        MOV       A,#0x1
        LCALL     ?DEALLOC_XSTACK8
          CFI EndBlock cfiBlock201
        REQUIRE ??Subroutine104_0
        ; // Fall through to label ??Subroutine104_0

        RSEG BANKED_CODE:HUGECODE:NOROOT(0)
??Subroutine104_0:
          CFI Block cfiBlock202 Using cfiCommon0
          CFI NoFunction
          CFI CFA_SP SP+0
          CFI CFA_XSP16 add(XSP16, 18)
          CFI VB load(1, XDATA, add(CFA_XSP16, literal(-17)))
          CFI DPL0 load(1, XDATA, add(CFA_XSP16, literal(-2)))
          CFI DPH0 load(1, XDATA, add(CFA_XSP16, literal(-1)))
          CFI R6 load(1, XDATA, add(CFA_XSP16, literal(-18)))
          CFI R7 load(1, XDATA, add(CFA_XSP16, literal(-6)))
          CFI V0 load(1, XDATA, add(CFA_XSP16, literal(-16)))
          CFI V1 load(1, XDATA, add(CFA_XSP16, literal(-15)))
          CFI V2 load(1, XDATA, add(CFA_XSP16, literal(-14)))
          CFI V3 load(1, XDATA, add(CFA_XSP16, literal(-13)))
          CFI V4 load(1, XDATA, add(CFA_XSP16, literal(-12)))
          CFI V5 load(1, XDATA, add(CFA_XSP16, literal(-11)))
          CFI V6 load(1, XDATA, add(CFA_XSP16, literal(-10)))
          CFI V7 load(1, XDATA, add(CFA_XSP16, literal(-9)))
          CFI V8 load(1, XDATA, add(CFA_XSP16, literal(-8)))
          CFI V9 load(1, XDATA, add(CFA_XSP16, literal(-7)))
          CFI ?BRET_EXT load(1, XDATA, add(CFA_XSP16, literal(-3)))
          CFI ?RET_HIGH load(1, XDATA, add(CFA_XSP16, literal(-4)))
          CFI ?RET_LOW load(1, XDATA, add(CFA_XSP16, literal(-5)))
        MOV       R7,#0xa
        LJMP      ?BANKED_LEAVE_XDATA
          CFI EndBlock cfiBlock202
// 1242 
// 1243 /*********************************************************************
// 1244  * @fn          ZDP_BindUnbindReq
// 1245  *
// 1246  * @brief       This builds and send a Bind_req or Unbind_req message
// 1247  *              Depending on the ClusterID. This function
// 1248  *              sends a unicast message to the local coordinator.
// 1249  *
// 1250  * @param       BindOrUnbind - either Bind_req or Unbind_req
// 1251  * @param       dstAddr - destination address of the message
// 1252  * @param       SourceAddr - source 64 bit address of the binding
// 1253  * @param       SrcEPIntf - Source endpoint/interface
// 1254  * @param       ClusterID - Binding cluster ID
// 1255  * @param       DestinationAddr - destination 64 bit addr of binding
// 1256  * @param       DstEPIntf - destination endpoint/interface
// 1257  * @param       SecurityEnable - Security Options
// 1258  *
// 1259  * @return      afStatus_t
// 1260  */

        RSEG BANKED_CODE:HUGECODE:NOROOT(0)
// 1261 afStatus_t ZDP_BindUnbindReq( uint16 BindOrUnbind, zAddrType_t *dstAddr,
ZDP_BindUnbindReq:
          CFI Block cfiBlock203 Using cfiCommon0
          CFI Function ZDP_BindUnbindReq
        CODE
// 1262                               uint8 *SourceAddr, byte SrcEndPoint,
// 1263                               cId_t ClusterID,
// 1264                               zAddrType_t *destinationAddr, byte DstEndPoint,
// 1265                               byte SecurityEnable )
// 1266 {
        FUNCALL ZDP_BindUnbindReq, sAddrExtCpy
        LOCFRAME ISTACK, 0, STACK
        LOCFRAME PSTACK, 0, STACK
        LOCFRAME XSTACK, 18, STACK
        LOCFRAME IOVERLAY, 0, STATIC
        LOCFRAME DOVERLAY, 0, STATIC
        ARGFRAME ISTACK, 0, STACK
        ARGFRAME PSTACK, 0, STACK
        ARGFRAME XSTACK, 18, STACK
        ARGFRAME IOVERLAY, 0, STATIC
        ARGFRAME DOVERLAY, 0, STATIC
        FUNCALL ZDP_BindUnbindReq, sAddrExtCpy
        LOCFRAME ISTACK, 1, STACK
        LOCFRAME PSTACK, 0, STACK
        LOCFRAME XSTACK, 18, STACK
        LOCFRAME IOVERLAY, 0, STATIC
        LOCFRAME DOVERLAY, 0, STATIC
        ARGFRAME ISTACK, 1, STACK
        ARGFRAME PSTACK, 0, STACK
        ARGFRAME XSTACK, 18, STACK
        ARGFRAME IOVERLAY, 0, STATIC
        ARGFRAME DOVERLAY, 0, STATIC
        FUNCALL ZDP_BindUnbindReq, fillAndSend
        LOCFRAME ISTACK, 0, STACK
        LOCFRAME PSTACK, 0, STACK
        LOCFRAME XSTACK, 20, STACK
        LOCFRAME IOVERLAY, 0, STATIC
        LOCFRAME DOVERLAY, 0, STATIC
        ARGFRAME ISTACK, 0, STACK
        ARGFRAME PSTACK, 0, STACK
        ARGFRAME XSTACK, 20, STACK
        ARGFRAME IOVERLAY, 0, STATIC
        ARGFRAME DOVERLAY, 0, STATIC
        REQUIRE ?V0
        REQUIRE ?V1
        REQUIRE ?V2
        REQUIRE ?V3
        REQUIRE ?V4
        REQUIRE ?V5
        REQUIRE ?V6
        REQUIRE ?V7
        REQUIRE ?V8
        REQUIRE ?V9
        MOV       A,#-0x12
        LCALL     ?BANKED_ENTER_XDATA
          CFI DPH0 load(1, XDATA, add(CFA_XSP16, literal(-1)))
          CFI DPL0 load(1, XDATA, add(CFA_XSP16, literal(-2)))
          CFI ?BRET_EXT load(1, XDATA, add(CFA_XSP16, literal(-3)))
          CFI ?RET_HIGH load(1, XDATA, add(CFA_XSP16, literal(-4)))
          CFI ?RET_LOW load(1, XDATA, add(CFA_XSP16, literal(-5)))
          CFI R7 load(1, XDATA, add(CFA_XSP16, literal(-6)))
          CFI V9 load(1, XDATA, add(CFA_XSP16, literal(-7)))
          CFI V8 load(1, XDATA, add(CFA_XSP16, literal(-8)))
          CFI V7 load(1, XDATA, add(CFA_XSP16, literal(-9)))
          CFI V6 load(1, XDATA, add(CFA_XSP16, literal(-10)))
          CFI V5 load(1, XDATA, add(CFA_XSP16, literal(-11)))
          CFI V4 load(1, XDATA, add(CFA_XSP16, literal(-12)))
          CFI V3 load(1, XDATA, add(CFA_XSP16, literal(-13)))
          CFI V2 load(1, XDATA, add(CFA_XSP16, literal(-14)))
          CFI V1 load(1, XDATA, add(CFA_XSP16, literal(-15)))
          CFI V0 load(1, XDATA, add(CFA_XSP16, literal(-16)))
          CFI VB load(1, XDATA, add(CFA_XSP16, literal(-17)))
          CFI R6 load(1, XDATA, add(CFA_XSP16, literal(-18)))
          CFI CFA_SP SP+0
          CFI CFA_XSP16 add(XSP16, 18)
        ; Saved register size: 18
        ; Auto size: 0
        MOV       ?V6,R2
        MOV       ?V7,R3
        MOV       ?V4,R4
        MOV       ?V5,R5
        MOV       ?V3,R1
// 1267   uint8 *pBuf = ZDP_TmpBuf;
        LCALL     ??Subroutine106_0 & 0xFFFF
// 1268   byte len;
// 1269 
// 1270   (void)SecurityEnable;  // Intentionally unreferenced parameter
// 1271 
// 1272   // SourceAddr + SrcEPIntf + ClusterID +  addrMode.
// 1273   len = Z_EXTADDR_LEN + 1 + sizeof( cId_t ) + sizeof( uint8 );
??CrossCallReturnLabel_197:
        MOV       ?V2,#0xc
        MOV       A,#0x16
        LCALL     ?XSTACK_DISP0_8
        LCALL     ?Subroutine50 & 0xFFFF
// 1274   if ( destinationAddr->addrMode == Addr64Bit )
??CrossCallReturnLabel_84:
        MOV       A,R6
        ADD       A,#0x8
        MOV       ?V0,A
        CLR       A
        ADDC      A,R7
        MOV       ?V1,A
        MOV       DPL,?V0
        MOV       DPH,A
        MOVX      A,@DPTR
        MOV       R0,A
        MOV       A,#0x3
        XRL       A,R0
        JNZ       ??ZDP_BindUnbindReq_0
// 1275     len += Z_EXTADDR_LEN + 1;     // +1 for DstEPIntf
        MOV       ?V2,#0x15
        SJMP      ??ZDP_BindUnbindReq_1
// 1276   else if ( destinationAddr->addrMode == AddrGroup )
??ZDP_BindUnbindReq_0:
        MOV       A,#0x1
        XRL       A,R0
        JNZ       ??ZDP_BindUnbindReq_1
// 1277     len += sizeof ( uint16 );
        MOV       ?V2,#0xe
// 1278 
// 1279   pBuf = osal_cpyExtAddr( pBuf, SourceAddr );
??ZDP_BindUnbindReq_1:
        ; Setup parameters for call to function sAddrExtCpy
        MOV       A,#0x12
        LCALL     ?XSTACK_DISP0_8
        LCALL     ?Subroutine49 & 0xFFFF
??CrossCallReturnLabel_81:
        LCALL     `??sAddrExtCpy::?relay`; Banked call to: sAddrExtCpy
// 1280   *pBuf++ = SrcEndPoint;
        MOV       DPL,R2
        MOV       DPH,R3
        MOV       A,?V3
        MOVX      @DPTR,A
        MOV       A,#0x14
        LCALL     ?XSTACK_DISP0_8
        LCALL     ?Subroutine15 & 0xFFFF
// 1281 
// 1282   *pBuf++ = LO_UINT16( ClusterID );
// 1283 
// 1284   *pBuf++ = HI_UINT16( ClusterID );
// 1285   *pBuf++ = destinationAddr->addrMode;
??CrossCallReturnLabel_12:
        MOV       DPL,?V0
        MOV       DPH,?V1
        LCALL     ?Subroutine29 & 0xFFFF
??CrossCallReturnLabel_217:
        JNC       ??ZDP_BindUnbindReq_2
        INC       R3
// 1286   if ( destinationAddr->addrMode == Addr64Bit )
??ZDP_BindUnbindReq_2:
        MOV       DPL,?V0
        MOV       DPH,?V1
        MOVX      A,@DPTR
        MOV       R0,A
        MOV       A,#0x3
        XRL       A,R0
        JNZ       ??ZDP_BindUnbindReq_3
// 1287   {
// 1288     pBuf = osal_cpyExtAddr( pBuf, destinationAddr->addr.extAddr );
// 1289     *pBuf = DstEndPoint;
        MOV       A,#0x18
        LCALL     ?XSTACK_DISP0_8
        MOVX      A,@DPTR
        PUSH      A
          CFI CFA_SP SP+-1
        ; Setup parameters for call to function sAddrExtCpy
        MOV       A,R6
        MOV       R4,A
        MOV       A,R7
        MOV       R5,A
        LCALL     `??sAddrExtCpy::?relay`; Banked call to: sAddrExtCpy
        MOV       DPL,R2
        MOV       DPH,R3
        POP       A
          CFI CFA_SP SP+0
        SJMP      ??ZDP_BindUnbindReq_4
// 1290   }
// 1291   else if ( destinationAddr->addrMode == AddrGroup )
??ZDP_BindUnbindReq_3:
        MOV       A,#0x1
        XRL       A,R0
        JNZ       ??ZDP_BindUnbindReq_5
// 1292   {
// 1293     *pBuf++ = LO_UINT16( destinationAddr->addr.shortAddr );
        MOV       DPL,R6
        MOV       DPH,R7
        LCALL     ?Subroutine59 & 0xFFFF
// 1294     *pBuf++ = HI_UINT16( destinationAddr->addr.shortAddr );
??CrossCallReturnLabel_102:
        MOV       DPL,R6
        MOV       DPH,R7
        LCALL     ?Subroutine66 & 0xFFFF
// 1295   }
??CrossCallReturnLabel_183:
        INC       DPTR
??ZDP_BindUnbindReq_4:
        MOVX      @DPTR,A
// 1296 
// 1297   FillAndSendTxOptions( &ZDP_TransID, dstAddr, BindOrUnbind, len, AF_MSG_ACK_REQUEST );
??ZDP_BindUnbindReq_5:
        MOV       DPTR,#ZDP_TxOptions
        MOV       A,#0x10
        MOVX      @DPTR,A
        ; Setup parameters for call to function fillAndSend
        MOV       R0,#?V6
        LCALL     ?PUSH_XSTACK_I_TWO
          CFI CFA_XSP16 add(XSP16, 20)
        MOV       R1,?V2
        MOV       R4,?V4
        MOV       R5,?V5
        MOV       R2,#ZDP_TransID & 0xff
        MOV       R3,#(ZDP_TransID >> 8) & 0xff
        LCALL     `??fillAndSend::?relay`; Banked call to: fillAndSend
        MOV       A,#0x2
        LCALL     ?DEALLOC_XSTACK8
          CFI CFA_XSP16 add(XSP16, 18)
        MOV       A,R1
        MOV       R1,A
        MOV       DPTR,#ZDP_TxOptions
        CLR       A
        MOVX      @DPTR,A
        LJMP      ??Subroutine104_0 & 0xFFFF
// 1298 }
          CFI EndBlock cfiBlock203

        RSEG BANKED_CODE:HUGECODE:NOROOT(0)
?Subroutine66:
          CFI Block cfiCond204 Using cfiCommon0
          CFI Function ZDP_BindUnbindReq
          CFI Conditional ??CrossCallReturnLabel_183
          CFI R6 load(1, XDATA, add(CFA_XSP16, literal(-18)))
          CFI VB load(1, XDATA, add(CFA_XSP16, literal(-17)))
          CFI V0 load(1, XDATA, add(CFA_XSP16, literal(-16)))
          CFI V1 load(1, XDATA, add(CFA_XSP16, literal(-15)))
          CFI V2 load(1, XDATA, add(CFA_XSP16, literal(-14)))
          CFI V3 load(1, XDATA, add(CFA_XSP16, literal(-13)))
          CFI V4 load(1, XDATA, add(CFA_XSP16, literal(-12)))
          CFI V5 load(1, XDATA, add(CFA_XSP16, literal(-11)))
          CFI V6 load(1, XDATA, add(CFA_XSP16, literal(-10)))
          CFI V7 load(1, XDATA, add(CFA_XSP16, literal(-9)))
          CFI V8 load(1, XDATA, add(CFA_XSP16, literal(-8)))
          CFI V9 load(1, XDATA, add(CFA_XSP16, literal(-7)))
          CFI R7 load(1, XDATA, add(CFA_XSP16, literal(-6)))
          CFI ?RET_LOW load(1, XDATA, add(CFA_XSP16, literal(-5)))
          CFI ?RET_HIGH load(1, XDATA, add(CFA_XSP16, literal(-4)))
          CFI ?BRET_EXT load(1, XDATA, add(CFA_XSP16, literal(-3)))
          CFI DPL0 load(1, XDATA, add(CFA_XSP16, literal(-2)))
          CFI DPH0 load(1, XDATA, add(CFA_XSP16, literal(-1)))
          CFI CFA_SP SP+-2
          CFI CFA_XSP16 add(XSP16, 18)
          CFI Block cfiCond205 Using cfiCommon0
          CFI (cfiCond205) Function ZDP_MgmtBindRsp
          CFI (cfiCond205) Conditional ??CrossCallReturnLabel_184
          CFI (cfiCond205) R6 load(1, XDATA, add(CFA_XSP16, literal(-22)))
          CFI (cfiCond205) VB load(1, XDATA, add(CFA_XSP16, literal(-21)))
          CFI (cfiCond205) V0 load(1, XDATA, add(CFA_XSP16, literal(-20)))
          CFI (cfiCond205) V1 load(1, XDATA, add(CFA_XSP16, literal(-19)))
          CFI (cfiCond205) V2 load(1, XDATA, add(CFA_XSP16, literal(-18)))
          CFI (cfiCond205) V3 load(1, XDATA, add(CFA_XSP16, literal(-17)))
          CFI (cfiCond205) V4 load(1, XDATA, add(CFA_XSP16, literal(-16)))
          CFI (cfiCond205) V5 load(1, XDATA, add(CFA_XSP16, literal(-15)))
          CFI (cfiCond205) V6 load(1, XDATA, add(CFA_XSP16, literal(-14)))
          CFI (cfiCond205) V7 load(1, XDATA, add(CFA_XSP16, literal(-13)))
          CFI (cfiCond205) V8 load(1, XDATA, add(CFA_XSP16, literal(-12)))
          CFI (cfiCond205) V9 load(1, XDATA, add(CFA_XSP16, literal(-11)))
          CFI (cfiCond205) V10 load(1, XDATA, add(CFA_XSP16, literal(-10)))
          CFI (cfiCond205) V11 load(1, XDATA, add(CFA_XSP16, literal(-9)))
          CFI (cfiCond205) V12 load(1, XDATA, add(CFA_XSP16, literal(-8)))
          CFI (cfiCond205) V13 load(1, XDATA, add(CFA_XSP16, literal(-7)))
          CFI (cfiCond205) R7 load(1, XDATA, add(CFA_XSP16, literal(-6)))
          CFI (cfiCond205) ?RET_LOW load(1, XDATA, add(CFA_XSP16, literal(-5)))
          CFI (cfiCond205) ?RET_HIGH load(1, XDATA, add(CFA_XSP16, literal(-4)))
          CFI (cfiCond205) ?BRET_EXT load(1, XDATA, add(CFA_XSP16, literal(-3)))
          CFI (cfiCond205) DPL0 load(1, XDATA, add(CFA_XSP16, literal(-2)))
          CFI (cfiCond205) DPH0 load(1, XDATA, add(CFA_XSP16, literal(-1)))
          CFI (cfiCond205) CFA_SP SP+-2
          CFI (cfiCond205) CFA_XSP16 add(XSP16, 23)
          CFI Block cfiPicker206 Using cfiCommon1
          CFI (cfiPicker206) NoFunction
          CFI (cfiPicker206) Picker
        INC       DPTR
          CFI EndBlock cfiCond204
          CFI EndBlock cfiCond205
          CFI EndBlock cfiPicker206
        REQUIRE ??Subroutine105_0
        ; // Fall through to label ??Subroutine105_0

        RSEG BANKED_CODE:HUGECODE:NOROOT(0)
??Subroutine105_0:
          CFI Block cfiCond207 Using cfiCommon0
          CFI Function ZDP_MgmtBindRsp
          CFI Conditional ??CrossCallReturnLabel_180
          CFI R6 load(1, XDATA, add(CFA_XSP16, literal(-22)))
          CFI VB load(1, XDATA, add(CFA_XSP16, literal(-21)))
          CFI V0 load(1, XDATA, add(CFA_XSP16, literal(-20)))
          CFI V1 load(1, XDATA, add(CFA_XSP16, literal(-19)))
          CFI V2 load(1, XDATA, add(CFA_XSP16, literal(-18)))
          CFI V3 load(1, XDATA, add(CFA_XSP16, literal(-17)))
          CFI V4 load(1, XDATA, add(CFA_XSP16, literal(-16)))
          CFI V5 load(1, XDATA, add(CFA_XSP16, literal(-15)))
          CFI V6 load(1, XDATA, add(CFA_XSP16, literal(-14)))
          CFI V7 load(1, XDATA, add(CFA_XSP16, literal(-13)))
          CFI V8 load(1, XDATA, add(CFA_XSP16, literal(-12)))
          CFI V9 load(1, XDATA, add(CFA_XSP16, literal(-11)))
          CFI V10 load(1, XDATA, add(CFA_XSP16, literal(-10)))
          CFI V11 load(1, XDATA, add(CFA_XSP16, literal(-9)))
          CFI V12 load(1, XDATA, add(CFA_XSP16, literal(-8)))
          CFI V13 load(1, XDATA, add(CFA_XSP16, literal(-7)))
          CFI R7 load(1, XDATA, add(CFA_XSP16, literal(-6)))
          CFI ?RET_LOW load(1, XDATA, add(CFA_XSP16, literal(-5)))
          CFI ?RET_HIGH load(1, XDATA, add(CFA_XSP16, literal(-4)))
          CFI ?BRET_EXT load(1, XDATA, add(CFA_XSP16, literal(-3)))
          CFI DPL0 load(1, XDATA, add(CFA_XSP16, literal(-2)))
          CFI DPH0 load(1, XDATA, add(CFA_XSP16, literal(-1)))
          CFI CFA_SP SP+-2
          CFI CFA_XSP16 add(XSP16, 23)
          CFI Block cfiCond208 Using cfiCommon0
          CFI (cfiCond208) Function ZDP_MgmtBindRsp
          CFI (cfiCond208) Conditional ??CrossCallReturnLabel_181
          CFI (cfiCond208) R6 load(1, XDATA, add(CFA_XSP16, literal(-22)))
          CFI (cfiCond208) VB load(1, XDATA, add(CFA_XSP16, literal(-21)))
          CFI (cfiCond208) V0 load(1, XDATA, add(CFA_XSP16, literal(-20)))
          CFI (cfiCond208) V1 load(1, XDATA, add(CFA_XSP16, literal(-19)))
          CFI (cfiCond208) V2 load(1, XDATA, add(CFA_XSP16, literal(-18)))
          CFI (cfiCond208) V3 load(1, XDATA, add(CFA_XSP16, literal(-17)))
          CFI (cfiCond208) V4 load(1, XDATA, add(CFA_XSP16, literal(-16)))
          CFI (cfiCond208) V5 load(1, XDATA, add(CFA_XSP16, literal(-15)))
          CFI (cfiCond208) V6 load(1, XDATA, add(CFA_XSP16, literal(-14)))
          CFI (cfiCond208) V7 load(1, XDATA, add(CFA_XSP16, literal(-13)))
          CFI (cfiCond208) V8 load(1, XDATA, add(CFA_XSP16, literal(-12)))
          CFI (cfiCond208) V9 load(1, XDATA, add(CFA_XSP16, literal(-11)))
          CFI (cfiCond208) V10 load(1, XDATA, add(CFA_XSP16, literal(-10)))
          CFI (cfiCond208) V11 load(1, XDATA, add(CFA_XSP16, literal(-9)))
          CFI (cfiCond208) V12 load(1, XDATA, add(CFA_XSP16, literal(-8)))
          CFI (cfiCond208) V13 load(1, XDATA, add(CFA_XSP16, literal(-7)))
          CFI (cfiCond208) R7 load(1, XDATA, add(CFA_XSP16, literal(-6)))
          CFI (cfiCond208) ?RET_LOW load(1, XDATA, add(CFA_XSP16, literal(-5)))
          CFI (cfiCond208) ?RET_HIGH load(1, XDATA, add(CFA_XSP16, literal(-4)))
          CFI (cfiCond208) ?BRET_EXT load(1, XDATA, add(CFA_XSP16, literal(-3)))
          CFI (cfiCond208) DPL0 load(1, XDATA, add(CFA_XSP16, literal(-2)))
          CFI (cfiCond208) DPH0 load(1, XDATA, add(CFA_XSP16, literal(-1)))
          CFI (cfiCond208) CFA_SP SP+-2
          CFI (cfiCond208) CFA_XSP16 add(XSP16, 23)
          CFI Block cfiCond209 Using cfiCommon0
          CFI (cfiCond209) Function ZDP_MgmtBindRsp
          CFI (cfiCond209) Conditional ??CrossCallReturnLabel_182
          CFI (cfiCond209) R6 load(1, XDATA, add(CFA_XSP16, literal(-22)))
          CFI (cfiCond209) VB load(1, XDATA, add(CFA_XSP16, literal(-21)))
          CFI (cfiCond209) V0 load(1, XDATA, add(CFA_XSP16, literal(-20)))
          CFI (cfiCond209) V1 load(1, XDATA, add(CFA_XSP16, literal(-19)))
          CFI (cfiCond209) V2 load(1, XDATA, add(CFA_XSP16, literal(-18)))
          CFI (cfiCond209) V3 load(1, XDATA, add(CFA_XSP16, literal(-17)))
          CFI (cfiCond209) V4 load(1, XDATA, add(CFA_XSP16, literal(-16)))
          CFI (cfiCond209) V5 load(1, XDATA, add(CFA_XSP16, literal(-15)))
          CFI (cfiCond209) V6 load(1, XDATA, add(CFA_XSP16, literal(-14)))
          CFI (cfiCond209) V7 load(1, XDATA, add(CFA_XSP16, literal(-13)))
          CFI (cfiCond209) V8 load(1, XDATA, add(CFA_XSP16, literal(-12)))
          CFI (cfiCond209) V9 load(1, XDATA, add(CFA_XSP16, literal(-11)))
          CFI (cfiCond209) V10 load(1, XDATA, add(CFA_XSP16, literal(-10)))
          CFI (cfiCond209) V11 load(1, XDATA, add(CFA_XSP16, literal(-9)))
          CFI (cfiCond209) V12 load(1, XDATA, add(CFA_XSP16, literal(-8)))
          CFI (cfiCond209) V13 load(1, XDATA, add(CFA_XSP16, literal(-7)))
          CFI (cfiCond209) R7 load(1, XDATA, add(CFA_XSP16, literal(-6)))
          CFI (cfiCond209) ?RET_LOW load(1, XDATA, add(CFA_XSP16, literal(-5)))
          CFI (cfiCond209) ?RET_HIGH load(1, XDATA, add(CFA_XSP16, literal(-4)))
          CFI (cfiCond209) ?BRET_EXT load(1, XDATA, add(CFA_XSP16, literal(-3)))
          CFI (cfiCond209) DPL0 load(1, XDATA, add(CFA_XSP16, literal(-2)))
          CFI (cfiCond209) DPH0 load(1, XDATA, add(CFA_XSP16, literal(-1)))
          CFI (cfiCond209) CFA_SP SP+-2
          CFI (cfiCond209) CFA_XSP16 add(XSP16, 23)
          CFI Block cfiCond210 Using cfiCommon0
          CFI (cfiCond210) Function ZDP_BindUnbindReq
          CFI (cfiCond210) Conditional ??CrossCallReturnLabel_183
          CFI (cfiCond210) R6 load(1, XDATA, add(CFA_XSP16, literal(-18)))
          CFI (cfiCond210) VB load(1, XDATA, add(CFA_XSP16, literal(-17)))
          CFI (cfiCond210) V0 load(1, XDATA, add(CFA_XSP16, literal(-16)))
          CFI (cfiCond210) V1 load(1, XDATA, add(CFA_XSP16, literal(-15)))
          CFI (cfiCond210) V2 load(1, XDATA, add(CFA_XSP16, literal(-14)))
          CFI (cfiCond210) V3 load(1, XDATA, add(CFA_XSP16, literal(-13)))
          CFI (cfiCond210) V4 load(1, XDATA, add(CFA_XSP16, literal(-12)))
          CFI (cfiCond210) V5 load(1, XDATA, add(CFA_XSP16, literal(-11)))
          CFI (cfiCond210) V6 load(1, XDATA, add(CFA_XSP16, literal(-10)))
          CFI (cfiCond210) V7 load(1, XDATA, add(CFA_XSP16, literal(-9)))
          CFI (cfiCond210) V8 load(1, XDATA, add(CFA_XSP16, literal(-8)))
          CFI (cfiCond210) V9 load(1, XDATA, add(CFA_XSP16, literal(-7)))
          CFI (cfiCond210) R7 load(1, XDATA, add(CFA_XSP16, literal(-6)))
          CFI (cfiCond210) ?RET_LOW load(1, XDATA, add(CFA_XSP16, literal(-5)))
          CFI (cfiCond210) ?RET_HIGH load(1, XDATA, add(CFA_XSP16, literal(-4)))
          CFI (cfiCond210) ?BRET_EXT load(1, XDATA, add(CFA_XSP16, literal(-3)))
          CFI (cfiCond210) DPL0 load(1, XDATA, add(CFA_XSP16, literal(-2)))
          CFI (cfiCond210) DPH0 load(1, XDATA, add(CFA_XSP16, literal(-1)))
          CFI (cfiCond210) CFA_SP SP+-2
          CFI (cfiCond210) CFA_XSP16 add(XSP16, 18)
          CFI Block cfiCond211 Using cfiCommon0
          CFI (cfiCond211) Function ZDP_MgmtBindRsp
          CFI (cfiCond211) Conditional ??CrossCallReturnLabel_184
          CFI (cfiCond211) R6 load(1, XDATA, add(CFA_XSP16, literal(-22)))
          CFI (cfiCond211) VB load(1, XDATA, add(CFA_XSP16, literal(-21)))
          CFI (cfiCond211) V0 load(1, XDATA, add(CFA_XSP16, literal(-20)))
          CFI (cfiCond211) V1 load(1, XDATA, add(CFA_XSP16, literal(-19)))
          CFI (cfiCond211) V2 load(1, XDATA, add(CFA_XSP16, literal(-18)))
          CFI (cfiCond211) V3 load(1, XDATA, add(CFA_XSP16, literal(-17)))
          CFI (cfiCond211) V4 load(1, XDATA, add(CFA_XSP16, literal(-16)))
          CFI (cfiCond211) V5 load(1, XDATA, add(CFA_XSP16, literal(-15)))
          CFI (cfiCond211) V6 load(1, XDATA, add(CFA_XSP16, literal(-14)))
          CFI (cfiCond211) V7 load(1, XDATA, add(CFA_XSP16, literal(-13)))
          CFI (cfiCond211) V8 load(1, XDATA, add(CFA_XSP16, literal(-12)))
          CFI (cfiCond211) V9 load(1, XDATA, add(CFA_XSP16, literal(-11)))
          CFI (cfiCond211) V10 load(1, XDATA, add(CFA_XSP16, literal(-10)))
          CFI (cfiCond211) V11 load(1, XDATA, add(CFA_XSP16, literal(-9)))
          CFI (cfiCond211) V12 load(1, XDATA, add(CFA_XSP16, literal(-8)))
          CFI (cfiCond211) V13 load(1, XDATA, add(CFA_XSP16, literal(-7)))
          CFI (cfiCond211) R7 load(1, XDATA, add(CFA_XSP16, literal(-6)))
          CFI (cfiCond211) ?RET_LOW load(1, XDATA, add(CFA_XSP16, literal(-5)))
          CFI (cfiCond211) ?RET_HIGH load(1, XDATA, add(CFA_XSP16, literal(-4)))
          CFI (cfiCond211) ?BRET_EXT load(1, XDATA, add(CFA_XSP16, literal(-3)))
          CFI (cfiCond211) DPL0 load(1, XDATA, add(CFA_XSP16, literal(-2)))
          CFI (cfiCond211) DPH0 load(1, XDATA, add(CFA_XSP16, literal(-1)))
          CFI (cfiCond211) CFA_SP SP+-2
          CFI (cfiCond211) CFA_XSP16 add(XSP16, 23)
          CFI Block cfiPicker212 Using cfiCommon1
          CFI (cfiPicker212) NoFunction
          CFI (cfiPicker212) Picker
        LCALL     ?Subroutine79 & 0xFFFF
??CrossCallReturnLabel_189:
        RET
          CFI EndBlock cfiCond207
          CFI EndBlock cfiCond208
          CFI EndBlock cfiCond209
          CFI EndBlock cfiCond210
          CFI EndBlock cfiCond211
          CFI EndBlock cfiPicker212

        RSEG BANKED_CODE:HUGECODE:NOROOT(0)
?Subroutine79:
          CFI Block cfiCond213 Using cfiCommon0
          CFI Function ZDP_BindUnbindReq
          CFI Conditional ??CrossCallReturnLabel_189, ??CrossCallReturnLabel_183
          CFI R6 load(1, XDATA, add(CFA_XSP16, literal(-18)))
          CFI VB load(1, XDATA, add(CFA_XSP16, literal(-17)))
          CFI V0 load(1, XDATA, add(CFA_XSP16, literal(-16)))
          CFI V1 load(1, XDATA, add(CFA_XSP16, literal(-15)))
          CFI V2 load(1, XDATA, add(CFA_XSP16, literal(-14)))
          CFI V3 load(1, XDATA, add(CFA_XSP16, literal(-13)))
          CFI V4 load(1, XDATA, add(CFA_XSP16, literal(-12)))
          CFI V5 load(1, XDATA, add(CFA_XSP16, literal(-11)))
          CFI V6 load(1, XDATA, add(CFA_XSP16, literal(-10)))
          CFI V7 load(1, XDATA, add(CFA_XSP16, literal(-9)))
          CFI V8 load(1, XDATA, add(CFA_XSP16, literal(-8)))
          CFI V9 load(1, XDATA, add(CFA_XSP16, literal(-7)))
          CFI R7 load(1, XDATA, add(CFA_XSP16, literal(-6)))
          CFI ?RET_LOW load(1, XDATA, add(CFA_XSP16, literal(-5)))
          CFI ?RET_HIGH load(1, XDATA, add(CFA_XSP16, literal(-4)))
          CFI ?BRET_EXT load(1, XDATA, add(CFA_XSP16, literal(-3)))
          CFI DPL0 load(1, XDATA, add(CFA_XSP16, literal(-2)))
          CFI DPH0 load(1, XDATA, add(CFA_XSP16, literal(-1)))
          CFI CFA_SP SP+-4
          CFI CFA_XSP16 add(XSP16, 18)
          CFI Block cfiCond214 Using cfiCommon0
          CFI (cfiCond214) Function ZDP_MgmtBindRsp
          CFI (cfiCond214) Conditional ??CrossCallReturnLabel_189, ??CrossCallReturnLabel_184
          CFI (cfiCond214) R6 load(1, XDATA, add(CFA_XSP16, literal(-22)))
          CFI (cfiCond214) VB load(1, XDATA, add(CFA_XSP16, literal(-21)))
          CFI (cfiCond214) V0 load(1, XDATA, add(CFA_XSP16, literal(-20)))
          CFI (cfiCond214) V1 load(1, XDATA, add(CFA_XSP16, literal(-19)))
          CFI (cfiCond214) V2 load(1, XDATA, add(CFA_XSP16, literal(-18)))
          CFI (cfiCond214) V3 load(1, XDATA, add(CFA_XSP16, literal(-17)))
          CFI (cfiCond214) V4 load(1, XDATA, add(CFA_XSP16, literal(-16)))
          CFI (cfiCond214) V5 load(1, XDATA, add(CFA_XSP16, literal(-15)))
          CFI (cfiCond214) V6 load(1, XDATA, add(CFA_XSP16, literal(-14)))
          CFI (cfiCond214) V7 load(1, XDATA, add(CFA_XSP16, literal(-13)))
          CFI (cfiCond214) V8 load(1, XDATA, add(CFA_XSP16, literal(-12)))
          CFI (cfiCond214) V9 load(1, XDATA, add(CFA_XSP16, literal(-11)))
          CFI (cfiCond214) V10 load(1, XDATA, add(CFA_XSP16, literal(-10)))
          CFI (cfiCond214) V11 load(1, XDATA, add(CFA_XSP16, literal(-9)))
          CFI (cfiCond214) V12 load(1, XDATA, add(CFA_XSP16, literal(-8)))
          CFI (cfiCond214) V13 load(1, XDATA, add(CFA_XSP16, literal(-7)))
          CFI (cfiCond214) R7 load(1, XDATA, add(CFA_XSP16, literal(-6)))
          CFI (cfiCond214) ?RET_LOW load(1, XDATA, add(CFA_XSP16, literal(-5)))
          CFI (cfiCond214) ?RET_HIGH load(1, XDATA, add(CFA_XSP16, literal(-4)))
          CFI (cfiCond214) ?BRET_EXT load(1, XDATA, add(CFA_XSP16, literal(-3)))
          CFI (cfiCond214) DPL0 load(1, XDATA, add(CFA_XSP16, literal(-2)))
          CFI (cfiCond214) DPH0 load(1, XDATA, add(CFA_XSP16, literal(-1)))
          CFI (cfiCond214) CFA_SP SP+-4
          CFI (cfiCond214) CFA_XSP16 add(XSP16, 23)
          CFI Block cfiCond215 Using cfiCommon0
          CFI (cfiCond215) Function ZDP_MgmtBindRsp
          CFI (cfiCond215) Conditional ??CrossCallReturnLabel_189, ??CrossCallReturnLabel_180
          CFI (cfiCond215) R6 load(1, XDATA, add(CFA_XSP16, literal(-22)))
          CFI (cfiCond215) VB load(1, XDATA, add(CFA_XSP16, literal(-21)))
          CFI (cfiCond215) V0 load(1, XDATA, add(CFA_XSP16, literal(-20)))
          CFI (cfiCond215) V1 load(1, XDATA, add(CFA_XSP16, literal(-19)))
          CFI (cfiCond215) V2 load(1, XDATA, add(CFA_XSP16, literal(-18)))
          CFI (cfiCond215) V3 load(1, XDATA, add(CFA_XSP16, literal(-17)))
          CFI (cfiCond215) V4 load(1, XDATA, add(CFA_XSP16, literal(-16)))
          CFI (cfiCond215) V5 load(1, XDATA, add(CFA_XSP16, literal(-15)))
          CFI (cfiCond215) V6 load(1, XDATA, add(CFA_XSP16, literal(-14)))
          CFI (cfiCond215) V7 load(1, XDATA, add(CFA_XSP16, literal(-13)))
          CFI (cfiCond215) V8 load(1, XDATA, add(CFA_XSP16, literal(-12)))
          CFI (cfiCond215) V9 load(1, XDATA, add(CFA_XSP16, literal(-11)))
          CFI (cfiCond215) V10 load(1, XDATA, add(CFA_XSP16, literal(-10)))
          CFI (cfiCond215) V11 load(1, XDATA, add(CFA_XSP16, literal(-9)))
          CFI (cfiCond215) V12 load(1, XDATA, add(CFA_XSP16, literal(-8)))
          CFI (cfiCond215) V13 load(1, XDATA, add(CFA_XSP16, literal(-7)))
          CFI (cfiCond215) R7 load(1, XDATA, add(CFA_XSP16, literal(-6)))
          CFI (cfiCond215) ?RET_LOW load(1, XDATA, add(CFA_XSP16, literal(-5)))
          CFI (cfiCond215) ?RET_HIGH load(1, XDATA, add(CFA_XSP16, literal(-4)))
          CFI (cfiCond215) ?BRET_EXT load(1, XDATA, add(CFA_XSP16, literal(-3)))
          CFI (cfiCond215) DPL0 load(1, XDATA, add(CFA_XSP16, literal(-2)))
          CFI (cfiCond215) DPH0 load(1, XDATA, add(CFA_XSP16, literal(-1)))
          CFI (cfiCond215) CFA_SP SP+-4
          CFI (cfiCond215) CFA_XSP16 add(XSP16, 23)
          CFI Block cfiCond216 Using cfiCommon0
          CFI (cfiCond216) Function ZDP_MgmtBindRsp
          CFI (cfiCond216) Conditional ??CrossCallReturnLabel_189, ??CrossCallReturnLabel_181
          CFI (cfiCond216) R6 load(1, XDATA, add(CFA_XSP16, literal(-22)))
          CFI (cfiCond216) VB load(1, XDATA, add(CFA_XSP16, literal(-21)))
          CFI (cfiCond216) V0 load(1, XDATA, add(CFA_XSP16, literal(-20)))
          CFI (cfiCond216) V1 load(1, XDATA, add(CFA_XSP16, literal(-19)))
          CFI (cfiCond216) V2 load(1, XDATA, add(CFA_XSP16, literal(-18)))
          CFI (cfiCond216) V3 load(1, XDATA, add(CFA_XSP16, literal(-17)))
          CFI (cfiCond216) V4 load(1, XDATA, add(CFA_XSP16, literal(-16)))
          CFI (cfiCond216) V5 load(1, XDATA, add(CFA_XSP16, literal(-15)))
          CFI (cfiCond216) V6 load(1, XDATA, add(CFA_XSP16, literal(-14)))
          CFI (cfiCond216) V7 load(1, XDATA, add(CFA_XSP16, literal(-13)))
          CFI (cfiCond216) V8 load(1, XDATA, add(CFA_XSP16, literal(-12)))
          CFI (cfiCond216) V9 load(1, XDATA, add(CFA_XSP16, literal(-11)))
          CFI (cfiCond216) V10 load(1, XDATA, add(CFA_XSP16, literal(-10)))
          CFI (cfiCond216) V11 load(1, XDATA, add(CFA_XSP16, literal(-9)))
          CFI (cfiCond216) V12 load(1, XDATA, add(CFA_XSP16, literal(-8)))
          CFI (cfiCond216) V13 load(1, XDATA, add(CFA_XSP16, literal(-7)))
          CFI (cfiCond216) R7 load(1, XDATA, add(CFA_XSP16, literal(-6)))
          CFI (cfiCond216) ?RET_LOW load(1, XDATA, add(CFA_XSP16, literal(-5)))
          CFI (cfiCond216) ?RET_HIGH load(1, XDATA, add(CFA_XSP16, literal(-4)))
          CFI (cfiCond216) ?BRET_EXT load(1, XDATA, add(CFA_XSP16, literal(-3)))
          CFI (cfiCond216) DPL0 load(1, XDATA, add(CFA_XSP16, literal(-2)))
          CFI (cfiCond216) DPH0 load(1, XDATA, add(CFA_XSP16, literal(-1)))
          CFI (cfiCond216) CFA_SP SP+-4
          CFI (cfiCond216) CFA_XSP16 add(XSP16, 23)
          CFI Block cfiCond217 Using cfiCommon0
          CFI (cfiCond217) Function ZDP_MgmtBindRsp
          CFI (cfiCond217) Conditional ??CrossCallReturnLabel_189, ??CrossCallReturnLabel_182
          CFI (cfiCond217) R6 load(1, XDATA, add(CFA_XSP16, literal(-22)))
          CFI (cfiCond217) VB load(1, XDATA, add(CFA_XSP16, literal(-21)))
          CFI (cfiCond217) V0 load(1, XDATA, add(CFA_XSP16, literal(-20)))
          CFI (cfiCond217) V1 load(1, XDATA, add(CFA_XSP16, literal(-19)))
          CFI (cfiCond217) V2 load(1, XDATA, add(CFA_XSP16, literal(-18)))
          CFI (cfiCond217) V3 load(1, XDATA, add(CFA_XSP16, literal(-17)))
          CFI (cfiCond217) V4 load(1, XDATA, add(CFA_XSP16, literal(-16)))
          CFI (cfiCond217) V5 load(1, XDATA, add(CFA_XSP16, literal(-15)))
          CFI (cfiCond217) V6 load(1, XDATA, add(CFA_XSP16, literal(-14)))
          CFI (cfiCond217) V7 load(1, XDATA, add(CFA_XSP16, literal(-13)))
          CFI (cfiCond217) V8 load(1, XDATA, add(CFA_XSP16, literal(-12)))
          CFI (cfiCond217) V9 load(1, XDATA, add(CFA_XSP16, literal(-11)))
          CFI (cfiCond217) V10 load(1, XDATA, add(CFA_XSP16, literal(-10)))
          CFI (cfiCond217) V11 load(1, XDATA, add(CFA_XSP16, literal(-9)))
          CFI (cfiCond217) V12 load(1, XDATA, add(CFA_XSP16, literal(-8)))
          CFI (cfiCond217) V13 load(1, XDATA, add(CFA_XSP16, literal(-7)))
          CFI (cfiCond217) R7 load(1, XDATA, add(CFA_XSP16, literal(-6)))
          CFI (cfiCond217) ?RET_LOW load(1, XDATA, add(CFA_XSP16, literal(-5)))
          CFI (cfiCond217) ?RET_HIGH load(1, XDATA, add(CFA_XSP16, literal(-4)))
          CFI (cfiCond217) ?BRET_EXT load(1, XDATA, add(CFA_XSP16, literal(-3)))
          CFI (cfiCond217) DPL0 load(1, XDATA, add(CFA_XSP16, literal(-2)))
          CFI (cfiCond217) DPH0 load(1, XDATA, add(CFA_XSP16, literal(-1)))
          CFI (cfiCond217) CFA_SP SP+-4
          CFI (cfiCond217) CFA_XSP16 add(XSP16, 23)
          CFI Block cfiCond218 Using cfiCommon0
          CFI (cfiCond218) Function ZDP_EPRsp
          CFI (cfiCond218) Conditional ??CrossCallReturnLabel_188, ??CrossCallReturnLabel_101
          CFI (cfiCond218) R6 load(1, XDATA, add(CFA_XSP16, literal(-15)))
          CFI (cfiCond218) VB load(1, XDATA, add(CFA_XSP16, literal(-14)))
          CFI (cfiCond218) V0 load(1, XDATA, add(CFA_XSP16, literal(-13)))
          CFI (cfiCond218) V1 load(1, XDATA, add(CFA_XSP16, literal(-12)))
          CFI (cfiCond218) V2 load(1, XDATA, add(CFA_XSP16, literal(-11)))
          CFI (cfiCond218) V3 load(1, XDATA, add(CFA_XSP16, literal(-10)))
          CFI (cfiCond218) V4 load(1, XDATA, add(CFA_XSP16, literal(-9)))
          CFI (cfiCond218) V5 load(1, XDATA, add(CFA_XSP16, literal(-8)))
          CFI (cfiCond218) V6 load(1, XDATA, add(CFA_XSP16, literal(-7)))
          CFI (cfiCond218) R7 load(1, XDATA, add(CFA_XSP16, literal(-6)))
          CFI (cfiCond218) ?RET_LOW load(1, XDATA, add(CFA_XSP16, literal(-5)))
          CFI (cfiCond218) ?RET_HIGH load(1, XDATA, add(CFA_XSP16, literal(-4)))
          CFI (cfiCond218) ?BRET_EXT load(1, XDATA, add(CFA_XSP16, literal(-3)))
          CFI (cfiCond218) DPL0 load(1, XDATA, add(CFA_XSP16, literal(-2)))
          CFI (cfiCond218) DPH0 load(1, XDATA, add(CFA_XSP16, literal(-1)))
          CFI (cfiCond218) CFA_SP SP+-4
          CFI (cfiCond218) CFA_XSP16 add(XSP16, 16)
          CFI Block cfiCond219 Using cfiCommon0
          CFI (cfiCond219) Function ZDP_BindUnbindReq
          CFI (cfiCond219) Conditional ??CrossCallReturnLabel_188, ??CrossCallReturnLabel_102
          CFI (cfiCond219) R6 load(1, XDATA, add(CFA_XSP16, literal(-18)))
          CFI (cfiCond219) VB load(1, XDATA, add(CFA_XSP16, literal(-17)))
          CFI (cfiCond219) V0 load(1, XDATA, add(CFA_XSP16, literal(-16)))
          CFI (cfiCond219) V1 load(1, XDATA, add(CFA_XSP16, literal(-15)))
          CFI (cfiCond219) V2 load(1, XDATA, add(CFA_XSP16, literal(-14)))
          CFI (cfiCond219) V3 load(1, XDATA, add(CFA_XSP16, literal(-13)))
          CFI (cfiCond219) V4 load(1, XDATA, add(CFA_XSP16, literal(-12)))
          CFI (cfiCond219) V5 load(1, XDATA, add(CFA_XSP16, literal(-11)))
          CFI (cfiCond219) V6 load(1, XDATA, add(CFA_XSP16, literal(-10)))
          CFI (cfiCond219) V7 load(1, XDATA, add(CFA_XSP16, literal(-9)))
          CFI (cfiCond219) V8 load(1, XDATA, add(CFA_XSP16, literal(-8)))
          CFI (cfiCond219) V9 load(1, XDATA, add(CFA_XSP16, literal(-7)))
          CFI (cfiCond219) R7 load(1, XDATA, add(CFA_XSP16, literal(-6)))
          CFI (cfiCond219) ?RET_LOW load(1, XDATA, add(CFA_XSP16, literal(-5)))
          CFI (cfiCond219) ?RET_HIGH load(1, XDATA, add(CFA_XSP16, literal(-4)))
          CFI (cfiCond219) ?BRET_EXT load(1, XDATA, add(CFA_XSP16, literal(-3)))
          CFI (cfiCond219) DPL0 load(1, XDATA, add(CFA_XSP16, literal(-2)))
          CFI (cfiCond219) DPH0 load(1, XDATA, add(CFA_XSP16, literal(-1)))
          CFI (cfiCond219) CFA_SP SP+-4
          CFI (cfiCond219) CFA_XSP16 add(XSP16, 18)
          CFI Block cfiCond220 Using cfiCommon0
          CFI (cfiCond220) Function ZDP_MgmtLqiRsp
          CFI (cfiCond220) Conditional ??CrossCallReturnLabel_188, ??CrossCallReturnLabel_103
          CFI (cfiCond220) R6 load(1, XDATA, add(CFA_XSP16, literal(-21)))
          CFI (cfiCond220) VB load(1, XDATA, add(CFA_XSP16, literal(-20)))
          CFI (cfiCond220) V0 load(1, XDATA, add(CFA_XSP16, literal(-19)))
          CFI (cfiCond220) V1 load(1, XDATA, add(CFA_XSP16, literal(-18)))
          CFI (cfiCond220) V2 load(1, XDATA, add(CFA_XSP16, literal(-17)))
          CFI (cfiCond220) V3 load(1, XDATA, add(CFA_XSP16, literal(-16)))
          CFI (cfiCond220) V4 load(1, XDATA, add(CFA_XSP16, literal(-15)))
          CFI (cfiCond220) V5 load(1, XDATA, add(CFA_XSP16, literal(-14)))
          CFI (cfiCond220) V6 load(1, XDATA, add(CFA_XSP16, literal(-13)))
          CFI (cfiCond220) V7 load(1, XDATA, add(CFA_XSP16, literal(-12)))
          CFI (cfiCond220) V8 load(1, XDATA, add(CFA_XSP16, literal(-11)))
          CFI (cfiCond220) V9 load(1, XDATA, add(CFA_XSP16, literal(-10)))
          CFI (cfiCond220) V10 load(1, XDATA, add(CFA_XSP16, literal(-9)))
          CFI (cfiCond220) V11 load(1, XDATA, add(CFA_XSP16, literal(-8)))
          CFI (cfiCond220) V12 load(1, XDATA, add(CFA_XSP16, literal(-7)))
          CFI (cfiCond220) R7 load(1, XDATA, add(CFA_XSP16, literal(-6)))
          CFI (cfiCond220) ?RET_LOW load(1, XDATA, add(CFA_XSP16, literal(-5)))
          CFI (cfiCond220) ?RET_HIGH load(1, XDATA, add(CFA_XSP16, literal(-4)))
          CFI (cfiCond220) ?BRET_EXT load(1, XDATA, add(CFA_XSP16, literal(-3)))
          CFI (cfiCond220) DPL0 load(1, XDATA, add(CFA_XSP16, literal(-2)))
          CFI (cfiCond220) DPH0 load(1, XDATA, add(CFA_XSP16, literal(-1)))
          CFI (cfiCond220) CFA_SP SP+-4
          CFI (cfiCond220) CFA_XSP16 add(XSP16, 22)
          CFI Block cfiCond221 Using cfiCommon0
          CFI (cfiCond221) Function ZDP_MgmtRtgRsp
          CFI (cfiCond221) Conditional ??CrossCallReturnLabel_187, ??CrossCallReturnLabel_58
          CFI (cfiCond221) R6 load(1, XDATA, add(CFA_XSP16, literal(-20)))
          CFI (cfiCond221) VB load(1, XDATA, add(CFA_XSP16, literal(-19)))
          CFI (cfiCond221) V0 load(1, XDATA, add(CFA_XSP16, literal(-18)))
          CFI (cfiCond221) V1 load(1, XDATA, add(CFA_XSP16, literal(-17)))
          CFI (cfiCond221) V2 load(1, XDATA, add(CFA_XSP16, literal(-16)))
          CFI (cfiCond221) V3 load(1, XDATA, add(CFA_XSP16, literal(-15)))
          CFI (cfiCond221) V4 load(1, XDATA, add(CFA_XSP16, literal(-14)))
          CFI (cfiCond221) V5 load(1, XDATA, add(CFA_XSP16, literal(-13)))
          CFI (cfiCond221) V6 load(1, XDATA, add(CFA_XSP16, literal(-12)))
          CFI (cfiCond221) V7 load(1, XDATA, add(CFA_XSP16, literal(-11)))
          CFI (cfiCond221) V8 load(1, XDATA, add(CFA_XSP16, literal(-10)))
          CFI (cfiCond221) V9 load(1, XDATA, add(CFA_XSP16, literal(-9)))
          CFI (cfiCond221) V10 load(1, XDATA, add(CFA_XSP16, literal(-8)))
          CFI (cfiCond221) V11 load(1, XDATA, add(CFA_XSP16, literal(-7)))
          CFI (cfiCond221) R7 load(1, XDATA, add(CFA_XSP16, literal(-6)))
          CFI (cfiCond221) ?RET_LOW load(1, XDATA, add(CFA_XSP16, literal(-5)))
          CFI (cfiCond221) ?RET_HIGH load(1, XDATA, add(CFA_XSP16, literal(-4)))
          CFI (cfiCond221) ?BRET_EXT load(1, XDATA, add(CFA_XSP16, literal(-3)))
          CFI (cfiCond221) DPL0 load(1, XDATA, add(CFA_XSP16, literal(-2)))
          CFI (cfiCond221) DPH0 load(1, XDATA, add(CFA_XSP16, literal(-1)))
          CFI (cfiCond221) CFA_SP SP+-4
          CFI (cfiCond221) CFA_XSP16 add(XSP16, 21)
          CFI Block cfiCond222 Using cfiCommon0
          CFI (cfiCond222) Function ZDP_MgmtBindRsp
          CFI (cfiCond222) Conditional ??CrossCallReturnLabel_187, ??CrossCallReturnLabel_59
          CFI (cfiCond222) R6 load(1, XDATA, add(CFA_XSP16, literal(-22)))
          CFI (cfiCond222) VB load(1, XDATA, add(CFA_XSP16, literal(-21)))
          CFI (cfiCond222) V0 load(1, XDATA, add(CFA_XSP16, literal(-20)))
          CFI (cfiCond222) V1 load(1, XDATA, add(CFA_XSP16, literal(-19)))
          CFI (cfiCond222) V2 load(1, XDATA, add(CFA_XSP16, literal(-18)))
          CFI (cfiCond222) V3 load(1, XDATA, add(CFA_XSP16, literal(-17)))
          CFI (cfiCond222) V4 load(1, XDATA, add(CFA_XSP16, literal(-16)))
          CFI (cfiCond222) V5 load(1, XDATA, add(CFA_XSP16, literal(-15)))
          CFI (cfiCond222) V6 load(1, XDATA, add(CFA_XSP16, literal(-14)))
          CFI (cfiCond222) V7 load(1, XDATA, add(CFA_XSP16, literal(-13)))
          CFI (cfiCond222) V8 load(1, XDATA, add(CFA_XSP16, literal(-12)))
          CFI (cfiCond222) V9 load(1, XDATA, add(CFA_XSP16, literal(-11)))
          CFI (cfiCond222) V10 load(1, XDATA, add(CFA_XSP16, literal(-10)))
          CFI (cfiCond222) V11 load(1, XDATA, add(CFA_XSP16, literal(-9)))
          CFI (cfiCond222) V12 load(1, XDATA, add(CFA_XSP16, literal(-8)))
          CFI (cfiCond222) V13 load(1, XDATA, add(CFA_XSP16, literal(-7)))
          CFI (cfiCond222) R7 load(1, XDATA, add(CFA_XSP16, literal(-6)))
          CFI (cfiCond222) ?RET_LOW load(1, XDATA, add(CFA_XSP16, literal(-5)))
          CFI (cfiCond222) ?RET_HIGH load(1, XDATA, add(CFA_XSP16, literal(-4)))
          CFI (cfiCond222) ?BRET_EXT load(1, XDATA, add(CFA_XSP16, literal(-3)))
          CFI (cfiCond222) DPL0 load(1, XDATA, add(CFA_XSP16, literal(-2)))
          CFI (cfiCond222) DPH0 load(1, XDATA, add(CFA_XSP16, literal(-1)))
          CFI (cfiCond222) CFA_SP SP+-4
          CFI (cfiCond222) CFA_XSP16 add(XSP16, 23)
          CFI Block cfiCond223 Using cfiCommon0
          CFI (cfiCond223) Function ZDP_MgmtRtgRsp
          CFI (cfiCond223) Conditional ??CrossCallReturnLabel_185, ??CrossCallReturnLabel_8
          CFI (cfiCond223) R6 load(1, XDATA, add(CFA_XSP16, literal(-20)))
          CFI (cfiCond223) VB load(1, XDATA, add(CFA_XSP16, literal(-19)))
          CFI (cfiCond223) V0 load(1, XDATA, add(CFA_XSP16, literal(-18)))
          CFI (cfiCond223) V1 load(1, XDATA, add(CFA_XSP16, literal(-17)))
          CFI (cfiCond223) V2 load(1, XDATA, add(CFA_XSP16, literal(-16)))
          CFI (cfiCond223) V3 load(1, XDATA, add(CFA_XSP16, literal(-15)))
          CFI (cfiCond223) V4 load(1, XDATA, add(CFA_XSP16, literal(-14)))
          CFI (cfiCond223) V5 load(1, XDATA, add(CFA_XSP16, literal(-13)))
          CFI (cfiCond223) V6 load(1, XDATA, add(CFA_XSP16, literal(-12)))
          CFI (cfiCond223) V7 load(1, XDATA, add(CFA_XSP16, literal(-11)))
          CFI (cfiCond223) V8 load(1, XDATA, add(CFA_XSP16, literal(-10)))
          CFI (cfiCond223) V9 load(1, XDATA, add(CFA_XSP16, literal(-9)))
          CFI (cfiCond223) V10 load(1, XDATA, add(CFA_XSP16, literal(-8)))
          CFI (cfiCond223) V11 load(1, XDATA, add(CFA_XSP16, literal(-7)))
          CFI (cfiCond223) R7 load(1, XDATA, add(CFA_XSP16, literal(-6)))
          CFI (cfiCond223) ?RET_LOW load(1, XDATA, add(CFA_XSP16, literal(-5)))
          CFI (cfiCond223) ?RET_HIGH load(1, XDATA, add(CFA_XSP16, literal(-4)))
          CFI (cfiCond223) ?BRET_EXT load(1, XDATA, add(CFA_XSP16, literal(-3)))
          CFI (cfiCond223) DPL0 load(1, XDATA, add(CFA_XSP16, literal(-2)))
          CFI (cfiCond223) DPH0 load(1, XDATA, add(CFA_XSP16, literal(-1)))
          CFI (cfiCond223) CFA_SP SP+-4
          CFI (cfiCond223) CFA_XSP16 add(XSP16, 21)
          CFI Block cfiCond224 Using cfiCommon0
          CFI (cfiCond224) Function ZDP_MgmtBindRsp
          CFI (cfiCond224) Conditional ??CrossCallReturnLabel_185, ??CrossCallReturnLabel_9
          CFI (cfiCond224) R6 load(1, XDATA, add(CFA_XSP16, literal(-22)))
          CFI (cfiCond224) VB load(1, XDATA, add(CFA_XSP16, literal(-21)))
          CFI (cfiCond224) V0 load(1, XDATA, add(CFA_XSP16, literal(-20)))
          CFI (cfiCond224) V1 load(1, XDATA, add(CFA_XSP16, literal(-19)))
          CFI (cfiCond224) V2 load(1, XDATA, add(CFA_XSP16, literal(-18)))
          CFI (cfiCond224) V3 load(1, XDATA, add(CFA_XSP16, literal(-17)))
          CFI (cfiCond224) V4 load(1, XDATA, add(CFA_XSP16, literal(-16)))
          CFI (cfiCond224) V5 load(1, XDATA, add(CFA_XSP16, literal(-15)))
          CFI (cfiCond224) V6 load(1, XDATA, add(CFA_XSP16, literal(-14)))
          CFI (cfiCond224) V7 load(1, XDATA, add(CFA_XSP16, literal(-13)))
          CFI (cfiCond224) V8 load(1, XDATA, add(CFA_XSP16, literal(-12)))
          CFI (cfiCond224) V9 load(1, XDATA, add(CFA_XSP16, literal(-11)))
          CFI (cfiCond224) V10 load(1, XDATA, add(CFA_XSP16, literal(-10)))
          CFI (cfiCond224) V11 load(1, XDATA, add(CFA_XSP16, literal(-9)))
          CFI (cfiCond224) V12 load(1, XDATA, add(CFA_XSP16, literal(-8)))
          CFI (cfiCond224) V13 load(1, XDATA, add(CFA_XSP16, literal(-7)))
          CFI (cfiCond224) R7 load(1, XDATA, add(CFA_XSP16, literal(-6)))
          CFI (cfiCond224) ?RET_LOW load(1, XDATA, add(CFA_XSP16, literal(-5)))
          CFI (cfiCond224) ?RET_HIGH load(1, XDATA, add(CFA_XSP16, literal(-4)))
          CFI (cfiCond224) ?BRET_EXT load(1, XDATA, add(CFA_XSP16, literal(-3)))
          CFI (cfiCond224) DPL0 load(1, XDATA, add(CFA_XSP16, literal(-2)))
          CFI (cfiCond224) DPH0 load(1, XDATA, add(CFA_XSP16, literal(-1)))
          CFI (cfiCond224) CFA_SP SP+-4
          CFI (cfiCond224) CFA_XSP16 add(XSP16, 23)
          CFI Block cfiCond225 Using cfiCommon0
          CFI (cfiCond225) Function ZDP_MgmtRtgRsp
          CFI (cfiCond225) Conditional ??CrossCallReturnLabel_186, ??CrossCallReturnLabel_8
          CFI (cfiCond225) R6 load(1, XDATA, add(CFA_XSP16, literal(-20)))
          CFI (cfiCond225) VB load(1, XDATA, add(CFA_XSP16, literal(-19)))
          CFI (cfiCond225) V0 load(1, XDATA, add(CFA_XSP16, literal(-18)))
          CFI (cfiCond225) V1 load(1, XDATA, add(CFA_XSP16, literal(-17)))
          CFI (cfiCond225) V2 load(1, XDATA, add(CFA_XSP16, literal(-16)))
          CFI (cfiCond225) V3 load(1, XDATA, add(CFA_XSP16, literal(-15)))
          CFI (cfiCond225) V4 load(1, XDATA, add(CFA_XSP16, literal(-14)))
          CFI (cfiCond225) V5 load(1, XDATA, add(CFA_XSP16, literal(-13)))
          CFI (cfiCond225) V6 load(1, XDATA, add(CFA_XSP16, literal(-12)))
          CFI (cfiCond225) V7 load(1, XDATA, add(CFA_XSP16, literal(-11)))
          CFI (cfiCond225) V8 load(1, XDATA, add(CFA_XSP16, literal(-10)))
          CFI (cfiCond225) V9 load(1, XDATA, add(CFA_XSP16, literal(-9)))
          CFI (cfiCond225) V10 load(1, XDATA, add(CFA_XSP16, literal(-8)))
          CFI (cfiCond225) V11 load(1, XDATA, add(CFA_XSP16, literal(-7)))
          CFI (cfiCond225) R7 load(1, XDATA, add(CFA_XSP16, literal(-6)))
          CFI (cfiCond225) ?RET_LOW load(1, XDATA, add(CFA_XSP16, literal(-5)))
          CFI (cfiCond225) ?RET_HIGH load(1, XDATA, add(CFA_XSP16, literal(-4)))
          CFI (cfiCond225) ?BRET_EXT load(1, XDATA, add(CFA_XSP16, literal(-3)))
          CFI (cfiCond225) DPL0 load(1, XDATA, add(CFA_XSP16, literal(-2)))
          CFI (cfiCond225) DPH0 load(1, XDATA, add(CFA_XSP16, literal(-1)))
          CFI (cfiCond225) CFA_SP SP+-4
          CFI (cfiCond225) CFA_XSP16 add(XSP16, 21)
          CFI Block cfiCond226 Using cfiCommon0
          CFI (cfiCond226) Function ZDP_MgmtBindRsp
          CFI (cfiCond226) Conditional ??CrossCallReturnLabel_186, ??CrossCallReturnLabel_9
          CFI (cfiCond226) R6 load(1, XDATA, add(CFA_XSP16, literal(-22)))
          CFI (cfiCond226) VB load(1, XDATA, add(CFA_XSP16, literal(-21)))
          CFI (cfiCond226) V0 load(1, XDATA, add(CFA_XSP16, literal(-20)))
          CFI (cfiCond226) V1 load(1, XDATA, add(CFA_XSP16, literal(-19)))
          CFI (cfiCond226) V2 load(1, XDATA, add(CFA_XSP16, literal(-18)))
          CFI (cfiCond226) V3 load(1, XDATA, add(CFA_XSP16, literal(-17)))
          CFI (cfiCond226) V4 load(1, XDATA, add(CFA_XSP16, literal(-16)))
          CFI (cfiCond226) V5 load(1, XDATA, add(CFA_XSP16, literal(-15)))
          CFI (cfiCond226) V6 load(1, XDATA, add(CFA_XSP16, literal(-14)))
          CFI (cfiCond226) V7 load(1, XDATA, add(CFA_XSP16, literal(-13)))
          CFI (cfiCond226) V8 load(1, XDATA, add(CFA_XSP16, literal(-12)))
          CFI (cfiCond226) V9 load(1, XDATA, add(CFA_XSP16, literal(-11)))
          CFI (cfiCond226) V10 load(1, XDATA, add(CFA_XSP16, literal(-10)))
          CFI (cfiCond226) V11 load(1, XDATA, add(CFA_XSP16, literal(-9)))
          CFI (cfiCond226) V12 load(1, XDATA, add(CFA_XSP16, literal(-8)))
          CFI (cfiCond226) V13 load(1, XDATA, add(CFA_XSP16, literal(-7)))
          CFI (cfiCond226) R7 load(1, XDATA, add(CFA_XSP16, literal(-6)))
          CFI (cfiCond226) ?RET_LOW load(1, XDATA, add(CFA_XSP16, literal(-5)))
          CFI (cfiCond226) ?RET_HIGH load(1, XDATA, add(CFA_XSP16, literal(-4)))
          CFI (cfiCond226) ?BRET_EXT load(1, XDATA, add(CFA_XSP16, literal(-3)))
          CFI (cfiCond226) DPL0 load(1, XDATA, add(CFA_XSP16, literal(-2)))
          CFI (cfiCond226) DPH0 load(1, XDATA, add(CFA_XSP16, literal(-1)))
          CFI (cfiCond226) CFA_SP SP+-4
          CFI (cfiCond226) CFA_XSP16 add(XSP16, 23)
          CFI Block cfiPicker227 Using cfiCommon1
          CFI (cfiPicker227) NoFunction
          CFI (cfiPicker227) Picker
        MOVX      A,@DPTR
        MOV       DPL,R2
        MOV       DPH,R3
        RET
          CFI EndBlock cfiCond213
          CFI EndBlock cfiCond214
          CFI EndBlock cfiCond215
          CFI EndBlock cfiCond216
          CFI EndBlock cfiCond217
          CFI EndBlock cfiCond218
          CFI EndBlock cfiCond219
          CFI EndBlock cfiCond220
          CFI EndBlock cfiCond221
          CFI EndBlock cfiCond222
          CFI EndBlock cfiCond223
          CFI EndBlock cfiCond224
          CFI EndBlock cfiCond225
          CFI EndBlock cfiCond226
          CFI EndBlock cfiPicker227

        RSEG BANKED_CODE:HUGECODE:NOROOT(0)
?Subroutine59:
          CFI Block cfiCond228 Using cfiCommon0
          CFI Function ZDP_EPRsp
          CFI Conditional ??CrossCallReturnLabel_101
          CFI R6 load(1, XDATA, add(CFA_XSP16, literal(-15)))
          CFI VB load(1, XDATA, add(CFA_XSP16, literal(-14)))
          CFI V0 load(1, XDATA, add(CFA_XSP16, literal(-13)))
          CFI V1 load(1, XDATA, add(CFA_XSP16, literal(-12)))
          CFI V2 load(1, XDATA, add(CFA_XSP16, literal(-11)))
          CFI V3 load(1, XDATA, add(CFA_XSP16, literal(-10)))
          CFI V4 load(1, XDATA, add(CFA_XSP16, literal(-9)))
          CFI V5 load(1, XDATA, add(CFA_XSP16, literal(-8)))
          CFI V6 load(1, XDATA, add(CFA_XSP16, literal(-7)))
          CFI R7 load(1, XDATA, add(CFA_XSP16, literal(-6)))
          CFI ?RET_LOW load(1, XDATA, add(CFA_XSP16, literal(-5)))
          CFI ?RET_HIGH load(1, XDATA, add(CFA_XSP16, literal(-4)))
          CFI ?BRET_EXT load(1, XDATA, add(CFA_XSP16, literal(-3)))
          CFI DPL0 load(1, XDATA, add(CFA_XSP16, literal(-2)))
          CFI DPH0 load(1, XDATA, add(CFA_XSP16, literal(-1)))
          CFI CFA_SP SP+-2
          CFI CFA_XSP16 add(XSP16, 16)
          CFI Block cfiCond229 Using cfiCommon0
          CFI (cfiCond229) Function ZDP_BindUnbindReq
          CFI (cfiCond229) Conditional ??CrossCallReturnLabel_102
          CFI (cfiCond229) R6 load(1, XDATA, add(CFA_XSP16, literal(-18)))
          CFI (cfiCond229) VB load(1, XDATA, add(CFA_XSP16, literal(-17)))
          CFI (cfiCond229) V0 load(1, XDATA, add(CFA_XSP16, literal(-16)))
          CFI (cfiCond229) V1 load(1, XDATA, add(CFA_XSP16, literal(-15)))
          CFI (cfiCond229) V2 load(1, XDATA, add(CFA_XSP16, literal(-14)))
          CFI (cfiCond229) V3 load(1, XDATA, add(CFA_XSP16, literal(-13)))
          CFI (cfiCond229) V4 load(1, XDATA, add(CFA_XSP16, literal(-12)))
          CFI (cfiCond229) V5 load(1, XDATA, add(CFA_XSP16, literal(-11)))
          CFI (cfiCond229) V6 load(1, XDATA, add(CFA_XSP16, literal(-10)))
          CFI (cfiCond229) V7 load(1, XDATA, add(CFA_XSP16, literal(-9)))
          CFI (cfiCond229) V8 load(1, XDATA, add(CFA_XSP16, literal(-8)))
          CFI (cfiCond229) V9 load(1, XDATA, add(CFA_XSP16, literal(-7)))
          CFI (cfiCond229) R7 load(1, XDATA, add(CFA_XSP16, literal(-6)))
          CFI (cfiCond229) ?RET_LOW load(1, XDATA, add(CFA_XSP16, literal(-5)))
          CFI (cfiCond229) ?RET_HIGH load(1, XDATA, add(CFA_XSP16, literal(-4)))
          CFI (cfiCond229) ?BRET_EXT load(1, XDATA, add(CFA_XSP16, literal(-3)))
          CFI (cfiCond229) DPL0 load(1, XDATA, add(CFA_XSP16, literal(-2)))
          CFI (cfiCond229) DPH0 load(1, XDATA, add(CFA_XSP16, literal(-1)))
          CFI (cfiCond229) CFA_SP SP+-2
          CFI (cfiCond229) CFA_XSP16 add(XSP16, 18)
          CFI Block cfiCond230 Using cfiCommon0
          CFI (cfiCond230) Function ZDP_MgmtLqiRsp
          CFI (cfiCond230) Conditional ??CrossCallReturnLabel_103
          CFI (cfiCond230) R6 load(1, XDATA, add(CFA_XSP16, literal(-21)))
          CFI (cfiCond230) VB load(1, XDATA, add(CFA_XSP16, literal(-20)))
          CFI (cfiCond230) V0 load(1, XDATA, add(CFA_XSP16, literal(-19)))
          CFI (cfiCond230) V1 load(1, XDATA, add(CFA_XSP16, literal(-18)))
          CFI (cfiCond230) V2 load(1, XDATA, add(CFA_XSP16, literal(-17)))
          CFI (cfiCond230) V3 load(1, XDATA, add(CFA_XSP16, literal(-16)))
          CFI (cfiCond230) V4 load(1, XDATA, add(CFA_XSP16, literal(-15)))
          CFI (cfiCond230) V5 load(1, XDATA, add(CFA_XSP16, literal(-14)))
          CFI (cfiCond230) V6 load(1, XDATA, add(CFA_XSP16, literal(-13)))
          CFI (cfiCond230) V7 load(1, XDATA, add(CFA_XSP16, literal(-12)))
          CFI (cfiCond230) V8 load(1, XDATA, add(CFA_XSP16, literal(-11)))
          CFI (cfiCond230) V9 load(1, XDATA, add(CFA_XSP16, literal(-10)))
          CFI (cfiCond230) V10 load(1, XDATA, add(CFA_XSP16, literal(-9)))
          CFI (cfiCond230) V11 load(1, XDATA, add(CFA_XSP16, literal(-8)))
          CFI (cfiCond230) V12 load(1, XDATA, add(CFA_XSP16, literal(-7)))
          CFI (cfiCond230) R7 load(1, XDATA, add(CFA_XSP16, literal(-6)))
          CFI (cfiCond230) ?RET_LOW load(1, XDATA, add(CFA_XSP16, literal(-5)))
          CFI (cfiCond230) ?RET_HIGH load(1, XDATA, add(CFA_XSP16, literal(-4)))
          CFI (cfiCond230) ?BRET_EXT load(1, XDATA, add(CFA_XSP16, literal(-3)))
          CFI (cfiCond230) DPL0 load(1, XDATA, add(CFA_XSP16, literal(-2)))
          CFI (cfiCond230) DPH0 load(1, XDATA, add(CFA_XSP16, literal(-1)))
          CFI (cfiCond230) CFA_SP SP+-2
          CFI (cfiCond230) CFA_XSP16 add(XSP16, 22)
          CFI Block cfiPicker231 Using cfiCommon1
          CFI (cfiPicker231) NoFunction
          CFI (cfiPicker231) Picker
        LCALL     ?Subroutine79 & 0xFFFF
??CrossCallReturnLabel_188:
        MOVX      @DPTR,A
        RET
          CFI EndBlock cfiCond228
          CFI EndBlock cfiCond229
          CFI EndBlock cfiCond230
          CFI EndBlock cfiPicker231

        RSEG BANKED_CODE:HUGECODE:NOROOT(0)
?Subroutine49:
          CFI Block cfiCond232 Using cfiCommon0
          CFI Function ZDP_MatchDescReq
          CFI Conditional ??CrossCallReturnLabel_78
          CFI R6 load(1, XDATA, add(CFA_XSP16, literal(-14)))
          CFI VB load(1, XDATA, add(CFA_XSP16, literal(-13)))
          CFI V0 load(1, XDATA, add(CFA_XSP16, literal(-12)))
          CFI V1 load(1, XDATA, add(CFA_XSP16, literal(-11)))
          CFI V2 load(1, XDATA, add(CFA_XSP16, literal(-10)))
          CFI V3 load(1, XDATA, add(CFA_XSP16, literal(-9)))
          CFI V4 load(1, XDATA, add(CFA_XSP16, literal(-8)))
          CFI V5 load(1, XDATA, add(CFA_XSP16, literal(-7)))
          CFI R7 load(1, XDATA, add(CFA_XSP16, literal(-6)))
          CFI ?RET_LOW load(1, XDATA, add(CFA_XSP16, literal(-5)))
          CFI ?RET_HIGH load(1, XDATA, add(CFA_XSP16, literal(-4)))
          CFI ?BRET_EXT load(1, XDATA, add(CFA_XSP16, literal(-3)))
          CFI DPL0 load(1, XDATA, add(CFA_XSP16, literal(-2)))
          CFI DPH0 load(1, XDATA, add(CFA_XSP16, literal(-1)))
          CFI CFA_SP SP+-2
          CFI CFA_XSP16 add(XSP16, 14)
          CFI Block cfiCond233 Using cfiCommon0
          CFI (cfiCond233) Function ZDP_MatchDescReq
          CFI (cfiCond233) Conditional ??CrossCallReturnLabel_79
          CFI (cfiCond233) R6 load(1, XDATA, add(CFA_XSP16, literal(-14)))
          CFI (cfiCond233) VB load(1, XDATA, add(CFA_XSP16, literal(-13)))
          CFI (cfiCond233) V0 load(1, XDATA, add(CFA_XSP16, literal(-12)))
          CFI (cfiCond233) V1 load(1, XDATA, add(CFA_XSP16, literal(-11)))
          CFI (cfiCond233) V2 load(1, XDATA, add(CFA_XSP16, literal(-10)))
          CFI (cfiCond233) V3 load(1, XDATA, add(CFA_XSP16, literal(-9)))
          CFI (cfiCond233) V4 load(1, XDATA, add(CFA_XSP16, literal(-8)))
          CFI (cfiCond233) V5 load(1, XDATA, add(CFA_XSP16, literal(-7)))
          CFI (cfiCond233) R7 load(1, XDATA, add(CFA_XSP16, literal(-6)))
          CFI (cfiCond233) ?RET_LOW load(1, XDATA, add(CFA_XSP16, literal(-5)))
          CFI (cfiCond233) ?RET_HIGH load(1, XDATA, add(CFA_XSP16, literal(-4)))
          CFI (cfiCond233) ?BRET_EXT load(1, XDATA, add(CFA_XSP16, literal(-3)))
          CFI (cfiCond233) DPL0 load(1, XDATA, add(CFA_XSP16, literal(-2)))
          CFI (cfiCond233) DPH0 load(1, XDATA, add(CFA_XSP16, literal(-1)))
          CFI (cfiCond233) CFA_SP SP+-2
          CFI (cfiCond233) CFA_XSP16 add(XSP16, 14)
          CFI Block cfiCond234 Using cfiCommon0
          CFI (cfiCond234) Function ZDP_MatchDescReq
          CFI (cfiCond234) Conditional ??CrossCallReturnLabel_80
          CFI (cfiCond234) R6 load(1, XDATA, add(CFA_XSP16, literal(-14)))
          CFI (cfiCond234) VB load(1, XDATA, add(CFA_XSP16, literal(-13)))
          CFI (cfiCond234) V0 load(1, XDATA, add(CFA_XSP16, literal(-12)))
          CFI (cfiCond234) V1 load(1, XDATA, add(CFA_XSP16, literal(-11)))
          CFI (cfiCond234) V2 load(1, XDATA, add(CFA_XSP16, literal(-10)))
          CFI (cfiCond234) V3 load(1, XDATA, add(CFA_XSP16, literal(-9)))
          CFI (cfiCond234) V4 load(1, XDATA, add(CFA_XSP16, literal(-8)))
          CFI (cfiCond234) V5 load(1, XDATA, add(CFA_XSP16, literal(-7)))
          CFI (cfiCond234) R7 load(1, XDATA, add(CFA_XSP16, literal(-6)))
          CFI (cfiCond234) ?RET_LOW load(1, XDATA, add(CFA_XSP16, literal(-5)))
          CFI (cfiCond234) ?RET_HIGH load(1, XDATA, add(CFA_XSP16, literal(-4)))
          CFI (cfiCond234) ?BRET_EXT load(1, XDATA, add(CFA_XSP16, literal(-3)))
          CFI (cfiCond234) DPL0 load(1, XDATA, add(CFA_XSP16, literal(-2)))
          CFI (cfiCond234) DPH0 load(1, XDATA, add(CFA_XSP16, literal(-1)))
          CFI (cfiCond234) CFA_SP SP+-2
          CFI (cfiCond234) CFA_XSP16 add(XSP16, 14)
          CFI Block cfiCond235 Using cfiCommon0
          CFI (cfiCond235) Function ZDP_BindUnbindReq
          CFI (cfiCond235) Conditional ??CrossCallReturnLabel_81
          CFI (cfiCond235) R6 load(1, XDATA, add(CFA_XSP16, literal(-18)))
          CFI (cfiCond235) VB load(1, XDATA, add(CFA_XSP16, literal(-17)))
          CFI (cfiCond235) V0 load(1, XDATA, add(CFA_XSP16, literal(-16)))
          CFI (cfiCond235) V1 load(1, XDATA, add(CFA_XSP16, literal(-15)))
          CFI (cfiCond235) V2 load(1, XDATA, add(CFA_XSP16, literal(-14)))
          CFI (cfiCond235) V3 load(1, XDATA, add(CFA_XSP16, literal(-13)))
          CFI (cfiCond235) V4 load(1, XDATA, add(CFA_XSP16, literal(-12)))
          CFI (cfiCond235) V5 load(1, XDATA, add(CFA_XSP16, literal(-11)))
          CFI (cfiCond235) V6 load(1, XDATA, add(CFA_XSP16, literal(-10)))
          CFI (cfiCond235) V7 load(1, XDATA, add(CFA_XSP16, literal(-9)))
          CFI (cfiCond235) V8 load(1, XDATA, add(CFA_XSP16, literal(-8)))
          CFI (cfiCond235) V9 load(1, XDATA, add(CFA_XSP16, literal(-7)))
          CFI (cfiCond235) R7 load(1, XDATA, add(CFA_XSP16, literal(-6)))
          CFI (cfiCond235) ?RET_LOW load(1, XDATA, add(CFA_XSP16, literal(-5)))
          CFI (cfiCond235) ?RET_HIGH load(1, XDATA, add(CFA_XSP16, literal(-4)))
          CFI (cfiCond235) ?BRET_EXT load(1, XDATA, add(CFA_XSP16, literal(-3)))
          CFI (cfiCond235) DPL0 load(1, XDATA, add(CFA_XSP16, literal(-2)))
          CFI (cfiCond235) DPH0 load(1, XDATA, add(CFA_XSP16, literal(-1)))
          CFI (cfiCond235) CFA_SP SP+-2
          CFI (cfiCond235) CFA_XSP16 add(XSP16, 18)
          CFI Block cfiCond236 Using cfiCommon0
          CFI (cfiCond236) Function ZDP_MgmtRtgRsp
          CFI (cfiCond236) Conditional ??CrossCallReturnLabel_82
          CFI (cfiCond236) R6 load(1, XDATA, add(CFA_XSP16, literal(-20)))
          CFI (cfiCond236) VB load(1, XDATA, add(CFA_XSP16, literal(-19)))
          CFI (cfiCond236) V0 load(1, XDATA, add(CFA_XSP16, literal(-18)))
          CFI (cfiCond236) V1 load(1, XDATA, add(CFA_XSP16, literal(-17)))
          CFI (cfiCond236) V2 load(1, XDATA, add(CFA_XSP16, literal(-16)))
          CFI (cfiCond236) V3 load(1, XDATA, add(CFA_XSP16, literal(-15)))
          CFI (cfiCond236) V4 load(1, XDATA, add(CFA_XSP16, literal(-14)))
          CFI (cfiCond236) V5 load(1, XDATA, add(CFA_XSP16, literal(-13)))
          CFI (cfiCond236) V6 load(1, XDATA, add(CFA_XSP16, literal(-12)))
          CFI (cfiCond236) V7 load(1, XDATA, add(CFA_XSP16, literal(-11)))
          CFI (cfiCond236) V8 load(1, XDATA, add(CFA_XSP16, literal(-10)))
          CFI (cfiCond236) V9 load(1, XDATA, add(CFA_XSP16, literal(-9)))
          CFI (cfiCond236) V10 load(1, XDATA, add(CFA_XSP16, literal(-8)))
          CFI (cfiCond236) V11 load(1, XDATA, add(CFA_XSP16, literal(-7)))
          CFI (cfiCond236) R7 load(1, XDATA, add(CFA_XSP16, literal(-6)))
          CFI (cfiCond236) ?RET_LOW load(1, XDATA, add(CFA_XSP16, literal(-5)))
          CFI (cfiCond236) ?RET_HIGH load(1, XDATA, add(CFA_XSP16, literal(-4)))
          CFI (cfiCond236) ?BRET_EXT load(1, XDATA, add(CFA_XSP16, literal(-3)))
          CFI (cfiCond236) DPL0 load(1, XDATA, add(CFA_XSP16, literal(-2)))
          CFI (cfiCond236) DPH0 load(1, XDATA, add(CFA_XSP16, literal(-1)))
          CFI (cfiCond236) CFA_SP SP+-2
          CFI (cfiCond236) CFA_XSP16 add(XSP16, 21)
          CFI Block cfiPicker237 Using cfiCommon1
          CFI (cfiPicker237) NoFunction
          CFI (cfiPicker237) Picker
        MOVX      A,@DPTR
        MOV       R4,A
        INC       DPTR
        MOVX      A,@DPTR
        MOV       R5,A
        RET
          CFI EndBlock cfiCond232
          CFI EndBlock cfiCond233
          CFI EndBlock cfiCond234
          CFI EndBlock cfiCond235
          CFI EndBlock cfiCond236
          CFI EndBlock cfiPicker237

        RSEG BANKED_CODE:HUGECODE:NOROOT(0)
?Subroutine40:
          CFI Block cfiCond238 Using cfiCommon0
          CFI Function ZDP_MgmtDirectJoinReq
          CFI Conditional ??CrossCallReturnLabel_190
          CFI R6 load(1, XDATA, add(CFA_XSP16, literal(-12)))
          CFI VB load(1, XDATA, add(CFA_XSP16, literal(-11)))
          CFI V0 load(1, XDATA, add(CFA_XSP16, literal(-10)))
          CFI V1 load(1, XDATA, add(CFA_XSP16, literal(-9)))
          CFI V2 load(1, XDATA, add(CFA_XSP16, literal(-8)))
          CFI V3 load(1, XDATA, add(CFA_XSP16, literal(-7)))
          CFI R7 load(1, XDATA, add(CFA_XSP16, literal(-6)))
          CFI ?RET_LOW load(1, XDATA, add(CFA_XSP16, literal(-5)))
          CFI ?RET_HIGH load(1, XDATA, add(CFA_XSP16, literal(-4)))
          CFI ?BRET_EXT load(1, XDATA, add(CFA_XSP16, literal(-3)))
          CFI DPL0 load(1, XDATA, add(CFA_XSP16, literal(-2)))
          CFI DPH0 load(1, XDATA, add(CFA_XSP16, literal(-1)))
          CFI CFA_SP SP+-2
          CFI CFA_XSP16 add(XSP16, 12)
          CFI Block cfiCond239 Using cfiCommon0
          CFI (cfiCond239) Function ZDP_MgmtLeaveReq
          CFI (cfiCond239) Conditional ??CrossCallReturnLabel_191
          CFI (cfiCond239) R6 load(1, XDATA, add(CFA_XSP16, literal(-12)))
          CFI (cfiCond239) VB load(1, XDATA, add(CFA_XSP16, literal(-11)))
          CFI (cfiCond239) V0 load(1, XDATA, add(CFA_XSP16, literal(-10)))
          CFI (cfiCond239) V1 load(1, XDATA, add(CFA_XSP16, literal(-9)))
          CFI (cfiCond239) V2 load(1, XDATA, add(CFA_XSP16, literal(-8)))
          CFI (cfiCond239) V3 load(1, XDATA, add(CFA_XSP16, literal(-7)))
          CFI (cfiCond239) R7 load(1, XDATA, add(CFA_XSP16, literal(-6)))
          CFI (cfiCond239) ?RET_LOW load(1, XDATA, add(CFA_XSP16, literal(-5)))
          CFI (cfiCond239) ?RET_HIGH load(1, XDATA, add(CFA_XSP16, literal(-4)))
          CFI (cfiCond239) ?BRET_EXT load(1, XDATA, add(CFA_XSP16, literal(-3)))
          CFI (cfiCond239) DPL0 load(1, XDATA, add(CFA_XSP16, literal(-2)))
          CFI (cfiCond239) DPH0 load(1, XDATA, add(CFA_XSP16, literal(-1)))
          CFI (cfiCond239) CFA_SP SP+-2
          CFI (cfiCond239) CFA_XSP16 add(XSP16, 12)
          CFI Block cfiPicker240 Using cfiCommon1
          CFI (cfiPicker240) NoFunction
          CFI (cfiPicker240) Picker
        MOV       A,R2
        MOV       R6,A
        MOV       A,R3
        MOV       R7,A
        MOV       ?V0,R1
          CFI EndBlock cfiCond238
          CFI EndBlock cfiCond239
          CFI EndBlock cfiPicker240
        ; Setup parameters for call to function sAddrExtCpy
        ; Setup parameters for call to function sAddrExtCpy
        REQUIRE ??Subroutine106_0
        ; // Fall through to label ??Subroutine106_0

        RSEG BANKED_CODE:HUGECODE:NOROOT(0)
??Subroutine106_0:
          CFI Block cfiCond241 Using cfiCommon0
          CFI Function ZDP_ParentAnnce
          CFI Conditional ??CrossCallReturnLabel_196
          CFI R6 load(1, XDATA, add(CFA_XSP16, literal(-22)))
          CFI VB load(1, XDATA, add(CFA_XSP16, literal(-21)))
          CFI V0 load(1, XDATA, add(CFA_XSP16, literal(-20)))
          CFI V1 load(1, XDATA, add(CFA_XSP16, literal(-19)))
          CFI V2 load(1, XDATA, add(CFA_XSP16, literal(-18)))
          CFI V3 load(1, XDATA, add(CFA_XSP16, literal(-17)))
          CFI V4 load(1, XDATA, add(CFA_XSP16, literal(-16)))
          CFI V5 load(1, XDATA, add(CFA_XSP16, literal(-15)))
          CFI V6 load(1, XDATA, add(CFA_XSP16, literal(-14)))
          CFI V7 load(1, XDATA, add(CFA_XSP16, literal(-13)))
          CFI V8 load(1, XDATA, add(CFA_XSP16, literal(-12)))
          CFI V9 load(1, XDATA, add(CFA_XSP16, literal(-11)))
          CFI V10 load(1, XDATA, add(CFA_XSP16, literal(-10)))
          CFI V11 load(1, XDATA, add(CFA_XSP16, literal(-9)))
          CFI V12 load(1, XDATA, add(CFA_XSP16, literal(-8)))
          CFI V13 load(1, XDATA, add(CFA_XSP16, literal(-7)))
          CFI R7 load(1, XDATA, add(CFA_XSP16, literal(-6)))
          CFI ?RET_LOW load(1, XDATA, add(CFA_XSP16, literal(-5)))
          CFI ?RET_HIGH load(1, XDATA, add(CFA_XSP16, literal(-4)))
          CFI ?BRET_EXT load(1, XDATA, add(CFA_XSP16, literal(-3)))
          CFI DPL0 load(1, XDATA, add(CFA_XSP16, literal(-2)))
          CFI DPH0 load(1, XDATA, add(CFA_XSP16, literal(-1)))
          CFI CFA_SP SP+-2
          CFI CFA_XSP16 add(XSP16, 22)
          CFI Block cfiCond242 Using cfiCommon0
          CFI (cfiCond242) Function ZDP_BindUnbindReq
          CFI (cfiCond242) Conditional ??CrossCallReturnLabel_197
          CFI (cfiCond242) R6 load(1, XDATA, add(CFA_XSP16, literal(-18)))
          CFI (cfiCond242) VB load(1, XDATA, add(CFA_XSP16, literal(-17)))
          CFI (cfiCond242) V0 load(1, XDATA, add(CFA_XSP16, literal(-16)))
          CFI (cfiCond242) V1 load(1, XDATA, add(CFA_XSP16, literal(-15)))
          CFI (cfiCond242) V2 load(1, XDATA, add(CFA_XSP16, literal(-14)))
          CFI (cfiCond242) V3 load(1, XDATA, add(CFA_XSP16, literal(-13)))
          CFI (cfiCond242) V4 load(1, XDATA, add(CFA_XSP16, literal(-12)))
          CFI (cfiCond242) V5 load(1, XDATA, add(CFA_XSP16, literal(-11)))
          CFI (cfiCond242) V6 load(1, XDATA, add(CFA_XSP16, literal(-10)))
          CFI (cfiCond242) V7 load(1, XDATA, add(CFA_XSP16, literal(-9)))
          CFI (cfiCond242) V8 load(1, XDATA, add(CFA_XSP16, literal(-8)))
          CFI (cfiCond242) V9 load(1, XDATA, add(CFA_XSP16, literal(-7)))
          CFI (cfiCond242) R7 load(1, XDATA, add(CFA_XSP16, literal(-6)))
          CFI (cfiCond242) ?RET_LOW load(1, XDATA, add(CFA_XSP16, literal(-5)))
          CFI (cfiCond242) ?RET_HIGH load(1, XDATA, add(CFA_XSP16, literal(-4)))
          CFI (cfiCond242) ?BRET_EXT load(1, XDATA, add(CFA_XSP16, literal(-3)))
          CFI (cfiCond242) DPL0 load(1, XDATA, add(CFA_XSP16, literal(-2)))
          CFI (cfiCond242) DPH0 load(1, XDATA, add(CFA_XSP16, literal(-1)))
          CFI (cfiCond242) CFA_SP SP+-2
          CFI (cfiCond242) CFA_XSP16 add(XSP16, 18)
          CFI Block cfiCond243 Using cfiCommon0
          CFI (cfiCond243) Function ZDP_MgmtNwkDiscReq
          CFI (cfiCond243) Conditional ??CrossCallReturnLabel_198
          CFI (cfiCond243) R6 load(1, XDATA, add(CFA_XSP16, literal(-12)))
          CFI (cfiCond243) VB load(1, XDATA, add(CFA_XSP16, literal(-11)))
          CFI (cfiCond243) V0 load(1, XDATA, add(CFA_XSP16, literal(-10)))
          CFI (cfiCond243) V1 load(1, XDATA, add(CFA_XSP16, literal(-9)))
          CFI (cfiCond243) V2 load(1, XDATA, add(CFA_XSP16, literal(-8)))
          CFI (cfiCond243) V3 load(1, XDATA, add(CFA_XSP16, literal(-7)))
          CFI (cfiCond243) R7 load(1, XDATA, add(CFA_XSP16, literal(-6)))
          CFI (cfiCond243) ?RET_LOW load(1, XDATA, add(CFA_XSP16, literal(-5)))
          CFI (cfiCond243) ?RET_HIGH load(1, XDATA, add(CFA_XSP16, literal(-4)))
          CFI (cfiCond243) ?BRET_EXT load(1, XDATA, add(CFA_XSP16, literal(-3)))
          CFI (cfiCond243) DPL0 load(1, XDATA, add(CFA_XSP16, literal(-2)))
          CFI (cfiCond243) DPH0 load(1, XDATA, add(CFA_XSP16, literal(-1)))
          CFI (cfiCond243) CFA_SP SP+-2
          CFI (cfiCond243) CFA_XSP16 add(XSP16, 16)
          CFI Block cfiCond244 Using cfiCommon0
          CFI (cfiCond244) Function ZDP_MgmtNwkUpdateReq
          CFI (cfiCond244) Conditional ??CrossCallReturnLabel_199
          CFI (cfiCond244) R6 load(1, XDATA, add(CFA_XSP16, literal(-14)))
          CFI (cfiCond244) VB load(1, XDATA, add(CFA_XSP16, literal(-13)))
          CFI (cfiCond244) V0 load(1, XDATA, add(CFA_XSP16, literal(-12)))
          CFI (cfiCond244) V1 load(1, XDATA, add(CFA_XSP16, literal(-11)))
          CFI (cfiCond244) V2 load(1, XDATA, add(CFA_XSP16, literal(-10)))
          CFI (cfiCond244) V3 load(1, XDATA, add(CFA_XSP16, literal(-9)))
          CFI (cfiCond244) V4 load(1, XDATA, add(CFA_XSP16, literal(-8)))
          CFI (cfiCond244) V5 load(1, XDATA, add(CFA_XSP16, literal(-7)))
          CFI (cfiCond244) R7 load(1, XDATA, add(CFA_XSP16, literal(-6)))
          CFI (cfiCond244) ?RET_LOW load(1, XDATA, add(CFA_XSP16, literal(-5)))
          CFI (cfiCond244) ?RET_HIGH load(1, XDATA, add(CFA_XSP16, literal(-4)))
          CFI (cfiCond244) ?BRET_EXT load(1, XDATA, add(CFA_XSP16, literal(-3)))
          CFI (cfiCond244) DPL0 load(1, XDATA, add(CFA_XSP16, literal(-2)))
          CFI (cfiCond244) DPH0 load(1, XDATA, add(CFA_XSP16, literal(-1)))
          CFI (cfiCond244) CFA_SP SP+-2
          CFI (cfiCond244) CFA_XSP16 add(XSP16, 18)
          CFI Block cfiCond245 Using cfiCommon0
          CFI (cfiCond245) Function ZDP_MgmtDirectJoinReq
          CFI (cfiCond245) Conditional ??CrossCallReturnLabel_190
          CFI (cfiCond245) R6 load(1, XDATA, add(CFA_XSP16, literal(-12)))
          CFI (cfiCond245) VB load(1, XDATA, add(CFA_XSP16, literal(-11)))
          CFI (cfiCond245) V0 load(1, XDATA, add(CFA_XSP16, literal(-10)))
          CFI (cfiCond245) V1 load(1, XDATA, add(CFA_XSP16, literal(-9)))
          CFI (cfiCond245) V2 load(1, XDATA, add(CFA_XSP16, literal(-8)))
          CFI (cfiCond245) V3 load(1, XDATA, add(CFA_XSP16, literal(-7)))
          CFI (cfiCond245) R7 load(1, XDATA, add(CFA_XSP16, literal(-6)))
          CFI (cfiCond245) ?RET_LOW load(1, XDATA, add(CFA_XSP16, literal(-5)))
          CFI (cfiCond245) ?RET_HIGH load(1, XDATA, add(CFA_XSP16, literal(-4)))
          CFI (cfiCond245) ?BRET_EXT load(1, XDATA, add(CFA_XSP16, literal(-3)))
          CFI (cfiCond245) DPL0 load(1, XDATA, add(CFA_XSP16, literal(-2)))
          CFI (cfiCond245) DPH0 load(1, XDATA, add(CFA_XSP16, literal(-1)))
          CFI (cfiCond245) CFA_SP SP+-2
          CFI (cfiCond245) CFA_XSP16 add(XSP16, 12)
          CFI Block cfiCond246 Using cfiCommon0
          CFI (cfiCond246) Function ZDP_MgmtLeaveReq
          CFI (cfiCond246) Conditional ??CrossCallReturnLabel_191
          CFI (cfiCond246) R6 load(1, XDATA, add(CFA_XSP16, literal(-12)))
          CFI (cfiCond246) VB load(1, XDATA, add(CFA_XSP16, literal(-11)))
          CFI (cfiCond246) V0 load(1, XDATA, add(CFA_XSP16, literal(-10)))
          CFI (cfiCond246) V1 load(1, XDATA, add(CFA_XSP16, literal(-9)))
          CFI (cfiCond246) V2 load(1, XDATA, add(CFA_XSP16, literal(-8)))
          CFI (cfiCond246) V3 load(1, XDATA, add(CFA_XSP16, literal(-7)))
          CFI (cfiCond246) R7 load(1, XDATA, add(CFA_XSP16, literal(-6)))
          CFI (cfiCond246) ?RET_LOW load(1, XDATA, add(CFA_XSP16, literal(-5)))
          CFI (cfiCond246) ?RET_HIGH load(1, XDATA, add(CFA_XSP16, literal(-4)))
          CFI (cfiCond246) ?BRET_EXT load(1, XDATA, add(CFA_XSP16, literal(-3)))
          CFI (cfiCond246) DPL0 load(1, XDATA, add(CFA_XSP16, literal(-2)))
          CFI (cfiCond246) DPH0 load(1, XDATA, add(CFA_XSP16, literal(-1)))
          CFI (cfiCond246) CFA_SP SP+-2
          CFI (cfiCond246) CFA_XSP16 add(XSP16, 12)
          CFI Block cfiPicker247 Using cfiCommon1
          CFI (cfiPicker247) NoFunction
          CFI (cfiPicker247) Picker
        MOV       DPTR,#ZDP_TmpBuf
          CFI EndBlock cfiCond241
          CFI EndBlock cfiCond242
          CFI EndBlock cfiCond243
          CFI EndBlock cfiCond244
          CFI EndBlock cfiCond245
          CFI EndBlock cfiCond246
          CFI EndBlock cfiPicker247
        REQUIRE ??Subroutine107_0
        ; // Fall through to label ??Subroutine107_0

        RSEG BANKED_CODE:HUGECODE:NOROOT(0)
??Subroutine107_0:
          CFI Block cfiCond248 Using cfiCommon0
          CFI Function zdpProcessAddrReq
          CFI Conditional ??CrossCallReturnLabel_192
          CFI R6 load(1, XDATA, add(CFA_XSP16, literal(-20)))
          CFI VB load(1, XDATA, add(CFA_XSP16, literal(-19)))
          CFI V0 load(1, XDATA, add(CFA_XSP16, literal(-18)))
          CFI V1 load(1, XDATA, add(CFA_XSP16, literal(-17)))
          CFI V2 load(1, XDATA, add(CFA_XSP16, literal(-16)))
          CFI V3 load(1, XDATA, add(CFA_XSP16, literal(-15)))
          CFI V4 load(1, XDATA, add(CFA_XSP16, literal(-14)))
          CFI V5 load(1, XDATA, add(CFA_XSP16, literal(-13)))
          CFI V6 load(1, XDATA, add(CFA_XSP16, literal(-12)))
          CFI V7 load(1, XDATA, add(CFA_XSP16, literal(-11)))
          CFI V8 load(1, XDATA, add(CFA_XSP16, literal(-10)))
          CFI V9 load(1, XDATA, add(CFA_XSP16, literal(-9)))
          CFI V10 load(1, XDATA, add(CFA_XSP16, literal(-8)))
          CFI V11 load(1, XDATA, add(CFA_XSP16, literal(-7)))
          CFI R7 load(1, XDATA, add(CFA_XSP16, literal(-6)))
          CFI ?RET_LOW load(1, XDATA, add(CFA_XSP16, literal(-5)))
          CFI ?RET_HIGH load(1, XDATA, add(CFA_XSP16, literal(-4)))
          CFI ?BRET_EXT load(1, XDATA, add(CFA_XSP16, literal(-3)))
          CFI DPL0 load(1, XDATA, add(CFA_XSP16, literal(-2)))
          CFI DPH0 load(1, XDATA, add(CFA_XSP16, literal(-1)))
          CFI CFA_SP SP+-2
          CFI CFA_XSP16 add(XSP16, 28)
          CFI Block cfiCond249 Using cfiCommon0
          CFI (cfiCond249) Function ZDO_RegisterForZDOMsg
          CFI (cfiCond249) Conditional ??CrossCallReturnLabel_193
          CFI (cfiCond249) R6 load(1, XDATA, add(CFA_XSP16, literal(-14)))
          CFI (cfiCond249) VB load(1, XDATA, add(CFA_XSP16, literal(-13)))
          CFI (cfiCond249) V0 load(1, XDATA, add(CFA_XSP16, literal(-12)))
          CFI (cfiCond249) V1 load(1, XDATA, add(CFA_XSP16, literal(-11)))
          CFI (cfiCond249) V2 load(1, XDATA, add(CFA_XSP16, literal(-10)))
          CFI (cfiCond249) V3 load(1, XDATA, add(CFA_XSP16, literal(-9)))
          CFI (cfiCond249) V4 load(1, XDATA, add(CFA_XSP16, literal(-8)))
          CFI (cfiCond249) V5 load(1, XDATA, add(CFA_XSP16, literal(-7)))
          CFI (cfiCond249) R7 load(1, XDATA, add(CFA_XSP16, literal(-6)))
          CFI (cfiCond249) ?RET_LOW load(1, XDATA, add(CFA_XSP16, literal(-5)))
          CFI (cfiCond249) ?RET_HIGH load(1, XDATA, add(CFA_XSP16, literal(-4)))
          CFI (cfiCond249) ?BRET_EXT load(1, XDATA, add(CFA_XSP16, literal(-3)))
          CFI (cfiCond249) DPL0 load(1, XDATA, add(CFA_XSP16, literal(-2)))
          CFI (cfiCond249) DPH0 load(1, XDATA, add(CFA_XSP16, literal(-1)))
          CFI (cfiCond249) CFA_SP SP+-2
          CFI (cfiCond249) CFA_XSP16 add(XSP16, 14)
          CFI Block cfiCond250 Using cfiCommon0
          CFI (cfiCond250) Function ZDO_RemoveRegisteredCB
          CFI (cfiCond250) Conditional ??CrossCallReturnLabel_194
          CFI (cfiCond250) R6 load(1, XDATA, add(CFA_XSP16, literal(-9)))
          CFI (cfiCond250) VB load(1, XDATA, add(CFA_XSP16, literal(-8)))
          CFI (cfiCond250) V0 load(1, XDATA, add(CFA_XSP16, literal(-7)))
          CFI (cfiCond250) R7 load(1, XDATA, add(CFA_XSP16, literal(-6)))
          CFI (cfiCond250) ?RET_LOW load(1, XDATA, add(CFA_XSP16, literal(-5)))
          CFI (cfiCond250) ?RET_HIGH load(1, XDATA, add(CFA_XSP16, literal(-4)))
          CFI (cfiCond250) ?BRET_EXT load(1, XDATA, add(CFA_XSP16, literal(-3)))
          CFI (cfiCond250) DPL0 load(1, XDATA, add(CFA_XSP16, literal(-2)))
          CFI (cfiCond250) DPH0 load(1, XDATA, add(CFA_XSP16, literal(-1)))
          CFI (cfiCond250) CFA_SP SP+-2
          CFI (cfiCond250) CFA_XSP16 add(XSP16, 9)
          CFI Block cfiCond251 Using cfiCommon0
          CFI (cfiCond251) Function ZDO_SendMsgCBs
          CFI (cfiCond251) Conditional ??CrossCallReturnLabel_195
          CFI (cfiCond251) R6 load(1, XDATA, add(CFA_XSP16, literal(-18)))
          CFI (cfiCond251) VB load(1, XDATA, add(CFA_XSP16, literal(-17)))
          CFI (cfiCond251) V0 load(1, XDATA, add(CFA_XSP16, literal(-16)))
          CFI (cfiCond251) V1 load(1, XDATA, add(CFA_XSP16, literal(-15)))
          CFI (cfiCond251) V2 load(1, XDATA, add(CFA_XSP16, literal(-14)))
          CFI (cfiCond251) V3 load(1, XDATA, add(CFA_XSP16, literal(-13)))
          CFI (cfiCond251) V4 load(1, XDATA, add(CFA_XSP16, literal(-12)))
          CFI (cfiCond251) V5 load(1, XDATA, add(CFA_XSP16, literal(-11)))
          CFI (cfiCond251) V6 load(1, XDATA, add(CFA_XSP16, literal(-10)))
          CFI (cfiCond251) V7 load(1, XDATA, add(CFA_XSP16, literal(-9)))
          CFI (cfiCond251) V8 load(1, XDATA, add(CFA_XSP16, literal(-8)))
          CFI (cfiCond251) V9 load(1, XDATA, add(CFA_XSP16, literal(-7)))
          CFI (cfiCond251) R7 load(1, XDATA, add(CFA_XSP16, literal(-6)))
          CFI (cfiCond251) ?RET_LOW load(1, XDATA, add(CFA_XSP16, literal(-5)))
          CFI (cfiCond251) ?RET_HIGH load(1, XDATA, add(CFA_XSP16, literal(-4)))
          CFI (cfiCond251) ?BRET_EXT load(1, XDATA, add(CFA_XSP16, literal(-3)))
          CFI (cfiCond251) DPL0 load(1, XDATA, add(CFA_XSP16, literal(-2)))
          CFI (cfiCond251) DPH0 load(1, XDATA, add(CFA_XSP16, literal(-1)))
          CFI (cfiCond251) CFA_SP SP+-2
          CFI (cfiCond251) CFA_XSP16 add(XSP16, 18)
          CFI Block cfiCond252 Using cfiCommon0
          CFI (cfiCond252) Function ZDP_ParentAnnce
          CFI (cfiCond252) Conditional ??CrossCallReturnLabel_196
          CFI (cfiCond252) R6 load(1, XDATA, add(CFA_XSP16, literal(-22)))
          CFI (cfiCond252) VB load(1, XDATA, add(CFA_XSP16, literal(-21)))
          CFI (cfiCond252) V0 load(1, XDATA, add(CFA_XSP16, literal(-20)))
          CFI (cfiCond252) V1 load(1, XDATA, add(CFA_XSP16, literal(-19)))
          CFI (cfiCond252) V2 load(1, XDATA, add(CFA_XSP16, literal(-18)))
          CFI (cfiCond252) V3 load(1, XDATA, add(CFA_XSP16, literal(-17)))
          CFI (cfiCond252) V4 load(1, XDATA, add(CFA_XSP16, literal(-16)))
          CFI (cfiCond252) V5 load(1, XDATA, add(CFA_XSP16, literal(-15)))
          CFI (cfiCond252) V6 load(1, XDATA, add(CFA_XSP16, literal(-14)))
          CFI (cfiCond252) V7 load(1, XDATA, add(CFA_XSP16, literal(-13)))
          CFI (cfiCond252) V8 load(1, XDATA, add(CFA_XSP16, literal(-12)))
          CFI (cfiCond252) V9 load(1, XDATA, add(CFA_XSP16, literal(-11)))
          CFI (cfiCond252) V10 load(1, XDATA, add(CFA_XSP16, literal(-10)))
          CFI (cfiCond252) V11 load(1, XDATA, add(CFA_XSP16, literal(-9)))
          CFI (cfiCond252) V12 load(1, XDATA, add(CFA_XSP16, literal(-8)))
          CFI (cfiCond252) V13 load(1, XDATA, add(CFA_XSP16, literal(-7)))
          CFI (cfiCond252) R7 load(1, XDATA, add(CFA_XSP16, literal(-6)))
          CFI (cfiCond252) ?RET_LOW load(1, XDATA, add(CFA_XSP16, literal(-5)))
          CFI (cfiCond252) ?RET_HIGH load(1, XDATA, add(CFA_XSP16, literal(-4)))
          CFI (cfiCond252) ?BRET_EXT load(1, XDATA, add(CFA_XSP16, literal(-3)))
          CFI (cfiCond252) DPL0 load(1, XDATA, add(CFA_XSP16, literal(-2)))
          CFI (cfiCond252) DPH0 load(1, XDATA, add(CFA_XSP16, literal(-1)))
          CFI (cfiCond252) CFA_SP SP+-2
          CFI (cfiCond252) CFA_XSP16 add(XSP16, 22)
          CFI Block cfiCond253 Using cfiCommon0
          CFI (cfiCond253) Function ZDP_BindUnbindReq
          CFI (cfiCond253) Conditional ??CrossCallReturnLabel_197
          CFI (cfiCond253) R6 load(1, XDATA, add(CFA_XSP16, literal(-18)))
          CFI (cfiCond253) VB load(1, XDATA, add(CFA_XSP16, literal(-17)))
          CFI (cfiCond253) V0 load(1, XDATA, add(CFA_XSP16, literal(-16)))
          CFI (cfiCond253) V1 load(1, XDATA, add(CFA_XSP16, literal(-15)))
          CFI (cfiCond253) V2 load(1, XDATA, add(CFA_XSP16, literal(-14)))
          CFI (cfiCond253) V3 load(1, XDATA, add(CFA_XSP16, literal(-13)))
          CFI (cfiCond253) V4 load(1, XDATA, add(CFA_XSP16, literal(-12)))
          CFI (cfiCond253) V5 load(1, XDATA, add(CFA_XSP16, literal(-11)))
          CFI (cfiCond253) V6 load(1, XDATA, add(CFA_XSP16, literal(-10)))
          CFI (cfiCond253) V7 load(1, XDATA, add(CFA_XSP16, literal(-9)))
          CFI (cfiCond253) V8 load(1, XDATA, add(CFA_XSP16, literal(-8)))
          CFI (cfiCond253) V9 load(1, XDATA, add(CFA_XSP16, literal(-7)))
          CFI (cfiCond253) R7 load(1, XDATA, add(CFA_XSP16, literal(-6)))
          CFI (cfiCond253) ?RET_LOW load(1, XDATA, add(CFA_XSP16, literal(-5)))
          CFI (cfiCond253) ?RET_HIGH load(1, XDATA, add(CFA_XSP16, literal(-4)))
          CFI (cfiCond253) ?BRET_EXT load(1, XDATA, add(CFA_XSP16, literal(-3)))
          CFI (cfiCond253) DPL0 load(1, XDATA, add(CFA_XSP16, literal(-2)))
          CFI (cfiCond253) DPH0 load(1, XDATA, add(CFA_XSP16, literal(-1)))
          CFI (cfiCond253) CFA_SP SP+-2
          CFI (cfiCond253) CFA_XSP16 add(XSP16, 18)
          CFI Block cfiCond254 Using cfiCommon0
          CFI (cfiCond254) Function ZDP_MgmtNwkDiscReq
          CFI (cfiCond254) Conditional ??CrossCallReturnLabel_198
          CFI (cfiCond254) R6 load(1, XDATA, add(CFA_XSP16, literal(-12)))
          CFI (cfiCond254) VB load(1, XDATA, add(CFA_XSP16, literal(-11)))
          CFI (cfiCond254) V0 load(1, XDATA, add(CFA_XSP16, literal(-10)))
          CFI (cfiCond254) V1 load(1, XDATA, add(CFA_XSP16, literal(-9)))
          CFI (cfiCond254) V2 load(1, XDATA, add(CFA_XSP16, literal(-8)))
          CFI (cfiCond254) V3 load(1, XDATA, add(CFA_XSP16, literal(-7)))
          CFI (cfiCond254) R7 load(1, XDATA, add(CFA_XSP16, literal(-6)))
          CFI (cfiCond254) ?RET_LOW load(1, XDATA, add(CFA_XSP16, literal(-5)))
          CFI (cfiCond254) ?RET_HIGH load(1, XDATA, add(CFA_XSP16, literal(-4)))
          CFI (cfiCond254) ?BRET_EXT load(1, XDATA, add(CFA_XSP16, literal(-3)))
          CFI (cfiCond254) DPL0 load(1, XDATA, add(CFA_XSP16, literal(-2)))
          CFI (cfiCond254) DPH0 load(1, XDATA, add(CFA_XSP16, literal(-1)))
          CFI (cfiCond254) CFA_SP SP+-2
          CFI (cfiCond254) CFA_XSP16 add(XSP16, 16)
          CFI Block cfiCond255 Using cfiCommon0
          CFI (cfiCond255) Function ZDP_MgmtNwkUpdateReq
          CFI (cfiCond255) Conditional ??CrossCallReturnLabel_199
          CFI (cfiCond255) R6 load(1, XDATA, add(CFA_XSP16, literal(-14)))
          CFI (cfiCond255) VB load(1, XDATA, add(CFA_XSP16, literal(-13)))
          CFI (cfiCond255) V0 load(1, XDATA, add(CFA_XSP16, literal(-12)))
          CFI (cfiCond255) V1 load(1, XDATA, add(CFA_XSP16, literal(-11)))
          CFI (cfiCond255) V2 load(1, XDATA, add(CFA_XSP16, literal(-10)))
          CFI (cfiCond255) V3 load(1, XDATA, add(CFA_XSP16, literal(-9)))
          CFI (cfiCond255) V4 load(1, XDATA, add(CFA_XSP16, literal(-8)))
          CFI (cfiCond255) V5 load(1, XDATA, add(CFA_XSP16, literal(-7)))
          CFI (cfiCond255) R7 load(1, XDATA, add(CFA_XSP16, literal(-6)))
          CFI (cfiCond255) ?RET_LOW load(1, XDATA, add(CFA_XSP16, literal(-5)))
          CFI (cfiCond255) ?RET_HIGH load(1, XDATA, add(CFA_XSP16, literal(-4)))
          CFI (cfiCond255) ?BRET_EXT load(1, XDATA, add(CFA_XSP16, literal(-3)))
          CFI (cfiCond255) DPL0 load(1, XDATA, add(CFA_XSP16, literal(-2)))
          CFI (cfiCond255) DPH0 load(1, XDATA, add(CFA_XSP16, literal(-1)))
          CFI (cfiCond255) CFA_SP SP+-2
          CFI (cfiCond255) CFA_XSP16 add(XSP16, 18)
          CFI Block cfiCond256 Using cfiCommon0
          CFI (cfiCond256) Function ZDP_MgmtDirectJoinReq
          CFI (cfiCond256) Conditional ??CrossCallReturnLabel_190
          CFI (cfiCond256) R6 load(1, XDATA, add(CFA_XSP16, literal(-12)))
          CFI (cfiCond256) VB load(1, XDATA, add(CFA_XSP16, literal(-11)))
          CFI (cfiCond256) V0 load(1, XDATA, add(CFA_XSP16, literal(-10)))
          CFI (cfiCond256) V1 load(1, XDATA, add(CFA_XSP16, literal(-9)))
          CFI (cfiCond256) V2 load(1, XDATA, add(CFA_XSP16, literal(-8)))
          CFI (cfiCond256) V3 load(1, XDATA, add(CFA_XSP16, literal(-7)))
          CFI (cfiCond256) R7 load(1, XDATA, add(CFA_XSP16, literal(-6)))
          CFI (cfiCond256) ?RET_LOW load(1, XDATA, add(CFA_XSP16, literal(-5)))
          CFI (cfiCond256) ?RET_HIGH load(1, XDATA, add(CFA_XSP16, literal(-4)))
          CFI (cfiCond256) ?BRET_EXT load(1, XDATA, add(CFA_XSP16, literal(-3)))
          CFI (cfiCond256) DPL0 load(1, XDATA, add(CFA_XSP16, literal(-2)))
          CFI (cfiCond256) DPH0 load(1, XDATA, add(CFA_XSP16, literal(-1)))
          CFI (cfiCond256) CFA_SP SP+-2
          CFI (cfiCond256) CFA_XSP16 add(XSP16, 12)
          CFI Block cfiCond257 Using cfiCommon0
          CFI (cfiCond257) Function ZDP_MgmtLeaveReq
          CFI (cfiCond257) Conditional ??CrossCallReturnLabel_191
          CFI (cfiCond257) R6 load(1, XDATA, add(CFA_XSP16, literal(-12)))
          CFI (cfiCond257) VB load(1, XDATA, add(CFA_XSP16, literal(-11)))
          CFI (cfiCond257) V0 load(1, XDATA, add(CFA_XSP16, literal(-10)))
          CFI (cfiCond257) V1 load(1, XDATA, add(CFA_XSP16, literal(-9)))
          CFI (cfiCond257) V2 load(1, XDATA, add(CFA_XSP16, literal(-8)))
          CFI (cfiCond257) V3 load(1, XDATA, add(CFA_XSP16, literal(-7)))
          CFI (cfiCond257) R7 load(1, XDATA, add(CFA_XSP16, literal(-6)))
          CFI (cfiCond257) ?RET_LOW load(1, XDATA, add(CFA_XSP16, literal(-5)))
          CFI (cfiCond257) ?RET_HIGH load(1, XDATA, add(CFA_XSP16, literal(-4)))
          CFI (cfiCond257) ?BRET_EXT load(1, XDATA, add(CFA_XSP16, literal(-3)))
          CFI (cfiCond257) DPL0 load(1, XDATA, add(CFA_XSP16, literal(-2)))
          CFI (cfiCond257) DPH0 load(1, XDATA, add(CFA_XSP16, literal(-1)))
          CFI (cfiCond257) CFA_SP SP+-2
          CFI (cfiCond257) CFA_XSP16 add(XSP16, 12)
          CFI Block cfiPicker258 Using cfiCommon1
          CFI (cfiPicker258) NoFunction
          CFI (cfiPicker258) Picker
        MOVX      A,@DPTR
        MOV       R2,A
        INC       DPTR
        MOVX      A,@DPTR
        MOV       R3,A
        RET
          CFI EndBlock cfiCond248
          CFI EndBlock cfiCond249
          CFI EndBlock cfiCond250
          CFI EndBlock cfiCond251
          CFI EndBlock cfiCond252
          CFI EndBlock cfiCond253
          CFI EndBlock cfiCond254
          CFI EndBlock cfiCond255
          CFI EndBlock cfiCond256
          CFI EndBlock cfiCond257
          CFI EndBlock cfiPicker258
// 1299 
// 1300 /*********************************************************************
// 1301  * Network Management
// 1302  */
// 1303 
// 1304 /*********************************************************************
// 1305  * @fn          ZDP_MgmtNwkDiscReq
// 1306  *
// 1307  * @brief       This builds and send a Mgmt_NWK_Disc_req message. This
// 1308  *              function sends a unicast message.
// 1309  *
// 1310  * @param       dstAddr - destination address of the message
// 1311  * @param       ScanChannels - 32 bit address bit map
// 1312  * @param       StartIndex - Starting index within the reporting network
// 1313  *                           list
// 1314  * @param       SecurityEnable - Security Options
// 1315  *
// 1316  * @return      afStatus_t
// 1317  */

        RSEG BANKED_CODE:HUGECODE:NOROOT(0)
// 1318 afStatus_t ZDP_MgmtNwkDiscReq( zAddrType_t *dstAddr,
ZDP_MgmtNwkDiscReq:
          CFI Block cfiBlock259 Using cfiCommon0
          CFI Function ZDP_MgmtNwkDiscReq
        CODE
// 1319                                uint32 ScanChannels,
// 1320                                byte ScanDuration,
// 1321                                byte StartIndex,
// 1322                                byte SecurityEnable )
// 1323 {
        FUNCALL ZDP_MgmtNwkDiscReq, osal_buffer_uint32
        LOCFRAME ISTACK, 0, STACK
        LOCFRAME PSTACK, 0, STACK
        LOCFRAME XSTACK, 16, STACK
        LOCFRAME IOVERLAY, 0, STATIC
        LOCFRAME DOVERLAY, 0, STATIC
        ARGFRAME ISTACK, 0, STACK
        ARGFRAME PSTACK, 0, STACK
        ARGFRAME XSTACK, 16, STACK
        ARGFRAME IOVERLAY, 0, STATIC
        ARGFRAME DOVERLAY, 0, STATIC
        FUNCALL ZDP_MgmtNwkDiscReq, fillAndSend
        LOCFRAME ISTACK, 0, STACK
        LOCFRAME PSTACK, 0, STACK
        LOCFRAME XSTACK, 14, STACK
        LOCFRAME IOVERLAY, 0, STATIC
        LOCFRAME DOVERLAY, 0, STATIC
        ARGFRAME ISTACK, 0, STACK
        ARGFRAME PSTACK, 0, STACK
        ARGFRAME XSTACK, 14, STACK
        ARGFRAME IOVERLAY, 0, STATIC
        ARGFRAME DOVERLAY, 0, STATIC
        REQUIRE ?V0
        REQUIRE ?V1
        REQUIRE ?V2
        REQUIRE ?V3
        MOV       A,#-0xc
        LCALL     ?BANKED_ENTER_XDATA
          CFI DPH0 load(1, XDATA, add(CFA_XSP16, literal(-1)))
          CFI DPL0 load(1, XDATA, add(CFA_XSP16, literal(-2)))
          CFI ?BRET_EXT load(1, XDATA, add(CFA_XSP16, literal(-3)))
          CFI ?RET_HIGH load(1, XDATA, add(CFA_XSP16, literal(-4)))
          CFI ?RET_LOW load(1, XDATA, add(CFA_XSP16, literal(-5)))
          CFI R7 load(1, XDATA, add(CFA_XSP16, literal(-6)))
          CFI V3 load(1, XDATA, add(CFA_XSP16, literal(-7)))
          CFI V2 load(1, XDATA, add(CFA_XSP16, literal(-8)))
          CFI V1 load(1, XDATA, add(CFA_XSP16, literal(-9)))
          CFI V0 load(1, XDATA, add(CFA_XSP16, literal(-10)))
          CFI VB load(1, XDATA, add(CFA_XSP16, literal(-11)))
          CFI R6 load(1, XDATA, add(CFA_XSP16, literal(-12)))
          CFI CFA_SP SP+0
          CFI CFA_XSP16 add(XSP16, 12)
        ; Saved register size: 12
        ; Auto size: 0
        MOV       A,R2
        MOV       R6,A
        MOV       A,R3
        MOV       R7,A
        MOV       ?V0,R1
        MOV       ?V1,R4
// 1324   uint8 *pBuf = ZDP_TmpBuf;
// 1325   byte len = sizeof( uint32 )+1+1;  // ScanChannels + ScanDuration + StartIndex.
// 1326 
// 1327   (void)SecurityEnable;  // Intentionally unreferenced parameter
// 1328 
// 1329   pBuf = osal_buffer_uint32( pBuf, ScanChannels );
        ; Setup parameters for call to function osal_buffer_uint32
        MOV       A,#0xc
        LCALL     ?XSTACK_DISP0_8
        LCALL     ?PUSH_XSTACK8_X_FOUR
          CFI CFA_XSP16 add(XSP16, 16)
        LCALL     ??Subroutine106_0 & 0xFFFF
??CrossCallReturnLabel_198:
        LCALL     `??osal_buffer_uint32::?relay`; Banked call to: osal_buffer_uint32
        MOV       A,#0x4
        LCALL     ?DEALLOC_XSTACK8
          CFI CFA_XSP16 add(XSP16, 12)
        MOV       DPL,R2
        MOV       DPH,R3
// 1330 
// 1331   *pBuf++ = ScanDuration;
        MOV       A,?V0
        MOVX      @DPTR,A
// 1332   *pBuf = StartIndex;
        INC       DPTR
        MOV       A,?V1
        MOVX      @DPTR,A
// 1333 
// 1334   return fillAndSend( &ZDP_TransID, dstAddr, Mgmt_NWK_Disc_req, len );
        ; Setup parameters for call to function fillAndSend
        MOV       ?V2,#0x30
        MOV       ?V3,#0x0
        MOV       R0,#?V2
        LCALL     ?PUSH_XSTACK_I_TWO
          CFI CFA_XSP16 add(XSP16, 14)
        MOV       R1,#0x6
        LJMP      ??Subroutine90_0 & 0xFFFF
// 1335 }
          CFI EndBlock cfiBlock259
// 1336 
// 1337 /*********************************************************************
// 1338  * @fn          ZDP_MgmtDirectJoinReq
// 1339  *
// 1340  * @brief       This builds and send a Mgmt_Direct_Join_req message. This
// 1341  *              function sends a unicast message.
// 1342  *
// 1343  * @param       dstAddr - destination address of the message
// 1344  * @param       deviceAddr - 64 bit IEEE Address
// 1345  * @param       SecurityEnable - Security Options
// 1346  *
// 1347  * @return      afStatus_t
// 1348  */

        RSEG BANKED_CODE:HUGECODE:NOROOT(0)
// 1349 afStatus_t ZDP_MgmtDirectJoinReq( zAddrType_t *dstAddr,
ZDP_MgmtDirectJoinReq:
          CFI Block cfiBlock260 Using cfiCommon0
          CFI Function ZDP_MgmtDirectJoinReq
        CODE
// 1350                                uint8 *deviceAddr,
// 1351                                byte capInfo,
// 1352                                byte SecurityEnable )
// 1353 {
        FUNCALL ZDP_MgmtDirectJoinReq, sAddrExtCpy
        LOCFRAME ISTACK, 0, STACK
        LOCFRAME PSTACK, 0, STACK
        LOCFRAME XSTACK, 12, STACK
        LOCFRAME IOVERLAY, 0, STATIC
        LOCFRAME DOVERLAY, 0, STATIC
        ARGFRAME ISTACK, 0, STACK
        ARGFRAME PSTACK, 0, STACK
        ARGFRAME XSTACK, 12, STACK
        ARGFRAME IOVERLAY, 0, STATIC
        ARGFRAME DOVERLAY, 0, STATIC
        FUNCALL ZDP_MgmtDirectJoinReq, fillAndSend
        LOCFRAME ISTACK, 0, STACK
        LOCFRAME PSTACK, 0, STACK
        LOCFRAME XSTACK, 14, STACK
        LOCFRAME IOVERLAY, 0, STATIC
        LOCFRAME DOVERLAY, 0, STATIC
        ARGFRAME ISTACK, 0, STACK
        ARGFRAME PSTACK, 0, STACK
        ARGFRAME XSTACK, 14, STACK
        ARGFRAME IOVERLAY, 0, STATIC
        ARGFRAME DOVERLAY, 0, STATIC
        REQUIRE ?V0
        REQUIRE ?V2
        REQUIRE ?V3
        MOV       A,#-0xc
        LCALL     ?BANKED_ENTER_XDATA
          CFI DPH0 load(1, XDATA, add(CFA_XSP16, literal(-1)))
          CFI DPL0 load(1, XDATA, add(CFA_XSP16, literal(-2)))
          CFI ?BRET_EXT load(1, XDATA, add(CFA_XSP16, literal(-3)))
          CFI ?RET_HIGH load(1, XDATA, add(CFA_XSP16, literal(-4)))
          CFI ?RET_LOW load(1, XDATA, add(CFA_XSP16, literal(-5)))
          CFI R7 load(1, XDATA, add(CFA_XSP16, literal(-6)))
          CFI V3 load(1, XDATA, add(CFA_XSP16, literal(-7)))
          CFI V2 load(1, XDATA, add(CFA_XSP16, literal(-8)))
          CFI V1 load(1, XDATA, add(CFA_XSP16, literal(-9)))
          CFI V0 load(1, XDATA, add(CFA_XSP16, literal(-10)))
          CFI VB load(1, XDATA, add(CFA_XSP16, literal(-11)))
          CFI R6 load(1, XDATA, add(CFA_XSP16, literal(-12)))
          CFI CFA_SP SP+0
          CFI CFA_XSP16 add(XSP16, 12)
        ; Saved register size: 12
        ; Auto size: 0
        LCALL     ?Subroutine40 & 0xFFFF
// 1354   (void)SecurityEnable;  // Intentionally unreferenced parameter
// 1355 
// 1356   osal_cpyExtAddr( ZDP_TmpBuf, deviceAddr );
??CrossCallReturnLabel_190:
        LCALL     `??sAddrExtCpy::?relay`; Banked call to: sAddrExtCpy
// 1357   ZDP_TmpBuf[Z_EXTADDR_LEN] = capInfo;
        LCALL     ?Subroutine76 & 0xFFFF
??CrossCallReturnLabel_250:
        XCH       A,R0
        ADD       A,#0x8
        MOV       DPL,A
        CLR       A
        ADDC      A,R0
        MOV       DPH,A
        MOV       A,?V0
        MOVX      @DPTR,A
// 1358 
// 1359   return fillAndSend( &ZDP_TransID, dstAddr, Mgmt_Direct_Join_req, (Z_EXTADDR_LEN + 1) );
        ; Setup parameters for call to function fillAndSend
        MOV       ?V2,#0x35
        LJMP      ?Subroutine1 & 0xFFFF
// 1360 }
          CFI EndBlock cfiBlock260
// 1361 
// 1362 /*********************************************************************
// 1363  * @fn          ZDP_MgmtPermitJoinReq
// 1364  *
// 1365  * @brief       This builds and send a Mgmt_Permit_Join_req message.
// 1366  *
// 1367  * @param       dstAddr - destination address of the message
// 1368  * @param       duration - Permit duration
// 1369  * @param       TcSignificance - Trust Center Significance
// 1370  *
// 1371  * @return      afStatus_t
// 1372  */

        RSEG BANKED_CODE:HUGECODE:NOROOT(0)
// 1373 afStatus_t ZDP_MgmtPermitJoinReq( zAddrType_t *dstAddr, byte duration,
ZDP_MgmtPermitJoinReq:
          CFI Block cfiBlock261 Using cfiCommon0
          CFI Function ZDP_MgmtPermitJoinReq
        CODE
// 1374                                   byte TcSignificance, byte SecurityEnable )
// 1375 {
        FUNCALL ZDP_MgmtPermitJoinReq, NLME_GetShortAddr
        LOCFRAME ISTACK, 0, STACK
        LOCFRAME PSTACK, 0, STACK
        LOCFRAME XSTACK, 21, STACK
        LOCFRAME IOVERLAY, 0, STATIC
        LOCFRAME DOVERLAY, 0, STATIC
        ARGFRAME ISTACK, 0, STACK
        ARGFRAME PSTACK, 0, STACK
        ARGFRAME XSTACK, 21, STACK
        ARGFRAME IOVERLAY, 0, STATIC
        ARGFRAME DOVERLAY, 0, STATIC
        FUNCALL ZDP_MgmtPermitJoinReq, fillAndSend
        LOCFRAME ISTACK, 0, STACK
        LOCFRAME PSTACK, 0, STACK
        LOCFRAME XSTACK, 23, STACK
        LOCFRAME IOVERLAY, 0, STATIC
        LOCFRAME DOVERLAY, 0, STATIC
        ARGFRAME ISTACK, 0, STACK
        ARGFRAME PSTACK, 0, STACK
        ARGFRAME XSTACK, 23, STACK
        ARGFRAME IOVERLAY, 0, STATIC
        ARGFRAME DOVERLAY, 0, STATIC
        FUNCALL ZDP_MgmtPermitJoinReq, fillAndSend
        LOCFRAME ISTACK, 0, STACK
        LOCFRAME PSTACK, 0, STACK
        LOCFRAME XSTACK, 23, STACK
        LOCFRAME IOVERLAY, 0, STATIC
        LOCFRAME DOVERLAY, 0, STATIC
        ARGFRAME ISTACK, 0, STACK
        ARGFRAME PSTACK, 0, STACK
        ARGFRAME XSTACK, 23, STACK
        ARGFRAME IOVERLAY, 0, STATIC
        ARGFRAME DOVERLAY, 0, STATIC
        REQUIRE ?V0
        REQUIRE ?V1
        REQUIRE ?V2
        REQUIRE ?V3
        MOV       A,#-0xc
        LCALL     ?BANKED_ENTER_XDATA
          CFI DPH0 load(1, XDATA, add(CFA_XSP16, literal(-1)))
          CFI DPL0 load(1, XDATA, add(CFA_XSP16, literal(-2)))
          CFI ?BRET_EXT load(1, XDATA, add(CFA_XSP16, literal(-3)))
          CFI ?RET_HIGH load(1, XDATA, add(CFA_XSP16, literal(-4)))
          CFI ?RET_LOW load(1, XDATA, add(CFA_XSP16, literal(-5)))
          CFI R7 load(1, XDATA, add(CFA_XSP16, literal(-6)))
          CFI V3 load(1, XDATA, add(CFA_XSP16, literal(-7)))
          CFI V2 load(1, XDATA, add(CFA_XSP16, literal(-8)))
          CFI V1 load(1, XDATA, add(CFA_XSP16, literal(-9)))
          CFI V0 load(1, XDATA, add(CFA_XSP16, literal(-10)))
          CFI VB load(1, XDATA, add(CFA_XSP16, literal(-11)))
          CFI R6 load(1, XDATA, add(CFA_XSP16, literal(-12)))
          CFI CFA_SP SP+0
          CFI CFA_XSP16 add(XSP16, 12)
        ; Saved register size: 12
        ; Auto size: 9
        MOV       A,#-0x9
        LCALL     ?ALLOC_XSTACK8
          CFI CFA_XSP16 add(XSP16, 21)
        MOV       A,R2
        MOV       R6,A
        MOV       A,R3
        MOV       R7,A
// 1376   (void)SecurityEnable;  // Intentionally unreferenced parameter
// 1377 
// 1378   // Build buffer
// 1379   ZDP_TmpBuf[ZDP_MGMT_PERMIT_JOIN_REQ_DURATION] = duration;
        LCALL     ?Subroutine46 & 0xFFFF
??CrossCallReturnLabel_178:
        MOV       A,R1
        LCALL     ?Subroutine21 & 0xFFFF
// 1380   ZDP_TmpBuf[ZDP_MGMT_PERMIT_JOIN_REQ_TC_SIG]   = TcSignificance;
??CrossCallReturnLabel_25:
        MOV       A,R4
        MOVX      @DPTR,A
// 1381 
// 1382   // Check of this is a broadcast message
// 1383   if ( (dstAddr) && ((dstAddr->addrMode == Addr16Bit) || (dstAddr->addrMode == AddrBroadcast))
// 1384       && ((dstAddr->addr.shortAddr == NWK_BROADCAST_SHORTADDR_DEVALL)
// 1385           || (dstAddr->addr.shortAddr == NWK_BROADCAST_SHORTADDR_DEVZCZR)
// 1386           || (dstAddr->addr.shortAddr == NWK_BROADCAST_SHORTADDR_DEVRXON)) )
        MOV       A,R6
        ORL       A,R7
        JZ        ??ZDP_MgmtPermitJoinReq_0
        MOV       DPL,R6
        MOV       DPH,R7
        INC       DPTR
        INC       DPTR
        INC       DPTR
        INC       DPTR
        INC       DPTR
        INC       DPTR
        INC       DPTR
        INC       DPTR
        MOVX      A,@DPTR
        MOV       R0,A
        MOV       A,#0x2
        XRL       A,R0
        JZ        ??ZDP_MgmtPermitJoinReq_1
        MOV       A,#0xf
        XRL       A,R0
        JNZ       ??ZDP_MgmtPermitJoinReq_0
??ZDP_MgmtPermitJoinReq_1:
        MOV       DPL,R6
        MOV       DPH,R7
        LCALL     ??Subroutine117_0 & 0xFFFF
??CrossCallReturnLabel_237:
        MOV       A,#-0x1
        XRL       A,R0
        JNZ       ??ZDP_MgmtPermitJoinReq_2
        MOV       A,#-0x1
        XRL       A,R1
??ZDP_MgmtPermitJoinReq_2:
        JZ        ??ZDP_MgmtPermitJoinReq_3
        MOV       A,#-0x4
        XRL       A,R0
        JNZ       ??ZDP_MgmtPermitJoinReq_4
        MOV       A,#-0x1
        XRL       A,R1
??ZDP_MgmtPermitJoinReq_4:
        JZ        ??ZDP_MgmtPermitJoinReq_3
        MOV       A,#-0x3
        XRL       A,R0
        JNZ       ??ZDP_MgmtPermitJoinReq_5
        MOV       A,#-0x1
        XRL       A,R1
??ZDP_MgmtPermitJoinReq_5:
        JNZ       ??ZDP_MgmtPermitJoinReq_0
// 1387   {
// 1388     // Send this to our self as well as broadcast to network
// 1389     zAddrType_t tmpAddr;
// 1390 
// 1391     tmpAddr.addrMode = Addr16Bit;
??ZDP_MgmtPermitJoinReq_3:
        MOV       A,#0x8
        LCALL     ?XSTACK_DISP0_8
        MOV       A,#0x2
        MOVX      @DPTR,A
// 1392     tmpAddr.addr.shortAddr = NLME_GetShortAddr();
        ; Setup parameters for call to function NLME_GetShortAddr
        LCALL     `??NLME_GetShortAddr::?relay`; Banked call to: NLME_GetShortAddr
        MOV       DPL,?XSP + 0
        MOV       DPH,?XSP + 1
        MOV       A,R2
        MOVX      @DPTR,A
        INC       DPTR
        MOV       A,R3
        MOVX      @DPTR,A
// 1393 
// 1394     fillAndSend( &ZDP_TransID, &tmpAddr, Mgmt_Permit_Join_req,
// 1395                       ZDP_MGMT_PERMIT_JOIN_REQ_SIZE );
        ; Setup parameters for call to function fillAndSend
        MOV       ?V2,#0x36
        MOV       ?V3,#0x0
        MOV       R0,#?V2
        LCALL     ?PUSH_XSTACK_I_TWO
          CFI CFA_XSP16 add(XSP16, 23)
        MOV       R1,#0x2
        MOV       A,R1
        LCALL     ?XSTACK_DISP102_8
        MOV       R2,#ZDP_TransID & 0xff
        MOV       R3,#(ZDP_TransID >> 8) & 0xff
        LCALL     `??fillAndSend::?relay`; Banked call to: fillAndSend
        MOV       A,#0x2
        LCALL     ?DEALLOC_XSTACK8
          CFI CFA_XSP16 add(XSP16, 21)
// 1396   }
// 1397 
// 1398   // Send the message
// 1399   return fillAndSend( &ZDP_TransID, dstAddr, Mgmt_Permit_Join_req,
// 1400                       ZDP_MGMT_PERMIT_JOIN_REQ_SIZE );
??ZDP_MgmtPermitJoinReq_0:
        ; Setup parameters for call to function fillAndSend
        MOV       ?V2,#0x36
        MOV       ?V3,#0x0
        MOV       R0,#?V2
        LCALL     ?PUSH_XSTACK_I_TWO
          CFI CFA_XSP16 add(XSP16, 23)
        MOV       R1,#0x2
        MOV       A,R6
        MOV       R4,A
        MOV       A,R7
        MOV       R5,A
        LJMP      ?Subroutine9 & 0xFFFF
// 1401 }
          CFI EndBlock cfiBlock261

        RSEG BANKED_CODE:HUGECODE:NOROOT(0)
?Subroutine21:
          CFI Block cfiCond262 Using cfiCommon0
          CFI Function ZDP_DeviceAnnce
          CFI Conditional ??CrossCallReturnLabel_24
          CFI R6 load(1, XDATA, add(CFA_XSP16, literal(-10)))
          CFI VB load(1, XDATA, add(CFA_XSP16, literal(-9)))
          CFI V0 load(1, XDATA, add(CFA_XSP16, literal(-8)))
          CFI V1 load(1, XDATA, add(CFA_XSP16, literal(-7)))
          CFI R7 load(1, XDATA, add(CFA_XSP16, literal(-6)))
          CFI ?RET_LOW load(1, XDATA, add(CFA_XSP16, literal(-5)))
          CFI ?RET_HIGH load(1, XDATA, add(CFA_XSP16, literal(-4)))
          CFI ?BRET_EXT load(1, XDATA, add(CFA_XSP16, literal(-3)))
          CFI DPL0 load(1, XDATA, add(CFA_XSP16, literal(-2)))
          CFI DPH0 load(1, XDATA, add(CFA_XSP16, literal(-1)))
          CFI CFA_SP SP+-2
          CFI CFA_XSP16 add(XSP16, 19)
          CFI Block cfiCond263 Using cfiCommon0
          CFI (cfiCond263) Function ZDP_MgmtPermitJoinReq
          CFI (cfiCond263) Conditional ??CrossCallReturnLabel_25
          CFI (cfiCond263) R6 load(1, XDATA, add(CFA_XSP16, literal(-12)))
          CFI (cfiCond263) VB load(1, XDATA, add(CFA_XSP16, literal(-11)))
          CFI (cfiCond263) V0 load(1, XDATA, add(CFA_XSP16, literal(-10)))
          CFI (cfiCond263) V1 load(1, XDATA, add(CFA_XSP16, literal(-9)))
          CFI (cfiCond263) V2 load(1, XDATA, add(CFA_XSP16, literal(-8)))
          CFI (cfiCond263) V3 load(1, XDATA, add(CFA_XSP16, literal(-7)))
          CFI (cfiCond263) R7 load(1, XDATA, add(CFA_XSP16, literal(-6)))
          CFI (cfiCond263) ?RET_LOW load(1, XDATA, add(CFA_XSP16, literal(-5)))
          CFI (cfiCond263) ?RET_HIGH load(1, XDATA, add(CFA_XSP16, literal(-4)))
          CFI (cfiCond263) ?BRET_EXT load(1, XDATA, add(CFA_XSP16, literal(-3)))
          CFI (cfiCond263) DPL0 load(1, XDATA, add(CFA_XSP16, literal(-2)))
          CFI (cfiCond263) DPH0 load(1, XDATA, add(CFA_XSP16, literal(-1)))
          CFI (cfiCond263) CFA_SP SP+-2
          CFI (cfiCond263) CFA_XSP16 add(XSP16, 21)
          CFI Block cfiPicker264 Using cfiCommon1
          CFI (cfiPicker264) NoFunction
          CFI (cfiPicker264) Picker
        LCALL     ?Subroutine70 & 0xFFFF
??CrossCallReturnLabel_126:
        RET
          CFI EndBlock cfiCond262
          CFI EndBlock cfiCond263
          CFI EndBlock cfiPicker264

        RSEG BANKED_CODE:HUGECODE:NOROOT(0)
?Subroutine70:
          CFI Block cfiCond265 Using cfiCommon0
          CFI Function ZDP_NWKAddrOfInterestReq
          CFI Conditional ??CrossCallReturnLabel_124, ??CrossCallReturnLabel_16
          CFI R6 load(1, XDATA, add(CFA_XSP16, literal(-10)))
          CFI VB load(1, XDATA, add(CFA_XSP16, literal(-9)))
          CFI V0 load(1, XDATA, add(CFA_XSP16, literal(-8)))
          CFI V1 load(1, XDATA, add(CFA_XSP16, literal(-7)))
          CFI R7 load(1, XDATA, add(CFA_XSP16, literal(-6)))
          CFI ?RET_LOW load(1, XDATA, add(CFA_XSP16, literal(-5)))
          CFI ?RET_HIGH load(1, XDATA, add(CFA_XSP16, literal(-4)))
          CFI ?BRET_EXT load(1, XDATA, add(CFA_XSP16, literal(-3)))
          CFI DPL0 load(1, XDATA, add(CFA_XSP16, literal(-2)))
          CFI DPH0 load(1, XDATA, add(CFA_XSP16, literal(-1)))
          CFI CFA_SP SP+-4
          CFI CFA_XSP16 add(XSP16, 10)
          CFI Block cfiCond266 Using cfiCommon0
          CFI (cfiCond266) Function ZDP_SimpleDescReq
          CFI (cfiCond266) Conditional ??CrossCallReturnLabel_124, ??CrossCallReturnLabel_17
          CFI (cfiCond266) R6 load(1, XDATA, add(CFA_XSP16, literal(-10)))
          CFI (cfiCond266) VB load(1, XDATA, add(CFA_XSP16, literal(-9)))
          CFI (cfiCond266) V0 load(1, XDATA, add(CFA_XSP16, literal(-8)))
          CFI (cfiCond266) V1 load(1, XDATA, add(CFA_XSP16, literal(-7)))
          CFI (cfiCond266) R7 load(1, XDATA, add(CFA_XSP16, literal(-6)))
          CFI (cfiCond266) ?RET_LOW load(1, XDATA, add(CFA_XSP16, literal(-5)))
          CFI (cfiCond266) ?RET_HIGH load(1, XDATA, add(CFA_XSP16, literal(-4)))
          CFI (cfiCond266) ?BRET_EXT load(1, XDATA, add(CFA_XSP16, literal(-3)))
          CFI (cfiCond266) DPL0 load(1, XDATA, add(CFA_XSP16, literal(-2)))
          CFI (cfiCond266) DPH0 load(1, XDATA, add(CFA_XSP16, literal(-1)))
          CFI (cfiCond266) CFA_SP SP+-4
          CFI (cfiCond266) CFA_XSP16 add(XSP16, 10)
          CFI Block cfiCond267 Using cfiCommon0
          CFI (cfiCond267) Function ZDP_SimpleDescReq
          CFI (cfiCond267) Conditional ??CrossCallReturnLabel_125, ??CrossCallReturnLabel_6
          CFI (cfiCond267) R6 load(1, XDATA, add(CFA_XSP16, literal(-10)))
          CFI (cfiCond267) VB load(1, XDATA, add(CFA_XSP16, literal(-9)))
          CFI (cfiCond267) V0 load(1, XDATA, add(CFA_XSP16, literal(-8)))
          CFI (cfiCond267) V1 load(1, XDATA, add(CFA_XSP16, literal(-7)))
          CFI (cfiCond267) R7 load(1, XDATA, add(CFA_XSP16, literal(-6)))
          CFI (cfiCond267) ?RET_LOW load(1, XDATA, add(CFA_XSP16, literal(-5)))
          CFI (cfiCond267) ?RET_HIGH load(1, XDATA, add(CFA_XSP16, literal(-4)))
          CFI (cfiCond267) ?BRET_EXT load(1, XDATA, add(CFA_XSP16, literal(-3)))
          CFI (cfiCond267) DPL0 load(1, XDATA, add(CFA_XSP16, literal(-2)))
          CFI (cfiCond267) DPH0 load(1, XDATA, add(CFA_XSP16, literal(-1)))
          CFI (cfiCond267) CFA_SP SP+-4
          CFI (cfiCond267) CFA_XSP16 add(XSP16, 10)
          CFI Block cfiCond268 Using cfiCommon0
          CFI (cfiCond268) Function ZDP_GenericRsp
          CFI (cfiCond268) Conditional ??CrossCallReturnLabel_125, ??CrossCallReturnLabel_7
          CFI (cfiCond268) R6 load(1, XDATA, add(CFA_XSP16, literal(-9)))
          CFI (cfiCond268) VB load(1, XDATA, add(CFA_XSP16, literal(-8)))
          CFI (cfiCond268) V0 load(1, XDATA, add(CFA_XSP16, literal(-7)))
          CFI (cfiCond268) R7 load(1, XDATA, add(CFA_XSP16, literal(-6)))
          CFI (cfiCond268) ?RET_LOW load(1, XDATA, add(CFA_XSP16, literal(-5)))
          CFI (cfiCond268) ?RET_HIGH load(1, XDATA, add(CFA_XSP16, literal(-4)))
          CFI (cfiCond268) ?BRET_EXT load(1, XDATA, add(CFA_XSP16, literal(-3)))
          CFI (cfiCond268) DPL0 load(1, XDATA, add(CFA_XSP16, literal(-2)))
          CFI (cfiCond268) DPH0 load(1, XDATA, add(CFA_XSP16, literal(-1)))
          CFI (cfiCond268) CFA_SP SP+-4
          CFI (cfiCond268) CFA_XSP16 add(XSP16, 10)
          CFI Block cfiCond269 Using cfiCommon0
          CFI (cfiCond269) Function ZDP_DeviceAnnce
          CFI (cfiCond269) Conditional ??CrossCallReturnLabel_126, ??CrossCallReturnLabel_24
          CFI (cfiCond269) R6 load(1, XDATA, add(CFA_XSP16, literal(-10)))
          CFI (cfiCond269) VB load(1, XDATA, add(CFA_XSP16, literal(-9)))
          CFI (cfiCond269) V0 load(1, XDATA, add(CFA_XSP16, literal(-8)))
          CFI (cfiCond269) V1 load(1, XDATA, add(CFA_XSP16, literal(-7)))
          CFI (cfiCond269) R7 load(1, XDATA, add(CFA_XSP16, literal(-6)))
          CFI (cfiCond269) ?RET_LOW load(1, XDATA, add(CFA_XSP16, literal(-5)))
          CFI (cfiCond269) ?RET_HIGH load(1, XDATA, add(CFA_XSP16, literal(-4)))
          CFI (cfiCond269) ?BRET_EXT load(1, XDATA, add(CFA_XSP16, literal(-3)))
          CFI (cfiCond269) DPL0 load(1, XDATA, add(CFA_XSP16, literal(-2)))
          CFI (cfiCond269) DPH0 load(1, XDATA, add(CFA_XSP16, literal(-1)))
          CFI (cfiCond269) CFA_SP SP+-4
          CFI (cfiCond269) CFA_XSP16 add(XSP16, 19)
          CFI Block cfiCond270 Using cfiCommon0
          CFI (cfiCond270) Function ZDP_MgmtPermitJoinReq
          CFI (cfiCond270) Conditional ??CrossCallReturnLabel_126, ??CrossCallReturnLabel_25
          CFI (cfiCond270) R6 load(1, XDATA, add(CFA_XSP16, literal(-12)))
          CFI (cfiCond270) VB load(1, XDATA, add(CFA_XSP16, literal(-11)))
          CFI (cfiCond270) V0 load(1, XDATA, add(CFA_XSP16, literal(-10)))
          CFI (cfiCond270) V1 load(1, XDATA, add(CFA_XSP16, literal(-9)))
          CFI (cfiCond270) V2 load(1, XDATA, add(CFA_XSP16, literal(-8)))
          CFI (cfiCond270) V3 load(1, XDATA, add(CFA_XSP16, literal(-7)))
          CFI (cfiCond270) R7 load(1, XDATA, add(CFA_XSP16, literal(-6)))
          CFI (cfiCond270) ?RET_LOW load(1, XDATA, add(CFA_XSP16, literal(-5)))
          CFI (cfiCond270) ?RET_HIGH load(1, XDATA, add(CFA_XSP16, literal(-4)))
          CFI (cfiCond270) ?BRET_EXT load(1, XDATA, add(CFA_XSP16, literal(-3)))
          CFI (cfiCond270) DPL0 load(1, XDATA, add(CFA_XSP16, literal(-2)))
          CFI (cfiCond270) DPH0 load(1, XDATA, add(CFA_XSP16, literal(-1)))
          CFI (cfiCond270) CFA_SP SP+-4
          CFI (cfiCond270) CFA_XSP16 add(XSP16, 21)
          CFI Block cfiPicker271 Using cfiCommon1
          CFI (cfiPicker271) NoFunction
          CFI (cfiPicker271) Picker
        MOVX      @DPTR,A
        MOV       DPTR,#ZDP_TmpBuf
        MOVX      A,@DPTR
        MOV       R0,A
        INC       DPTR
        MOVX      A,@DPTR
        MOV       DPH,A
        MOV       DPL,R0
        INC       DPTR
        RET
          CFI EndBlock cfiCond265
          CFI EndBlock cfiCond266
          CFI EndBlock cfiCond267
          CFI EndBlock cfiCond268
          CFI EndBlock cfiCond269
          CFI EndBlock cfiCond270
          CFI EndBlock cfiPicker271
// 1402 
// 1403 /*********************************************************************
// 1404  * @fn          ZDP_MgmtLeaveReq
// 1405  *
// 1406  * @brief       This builds and send a Mgmt_Leave_req message.
// 1407  *
// 1408  * @param       dstAddr - destination address of the message
// 1409  *              IEEEAddr - IEEE adddress of device that is removed
// 1410  *              RemoveChildren - set to 1 to remove the children of the
// 1411  *                                device as well. 0 otherwise.
// 1412  *              Rejoin - set to 1 if the removed device should rejoin
// 1413                          afterwards. 0 otherwise.
// 1414  *
// 1415  * @return      afStatus_t
// 1416  */

        RSEG BANKED_CODE:HUGECODE:NOROOT(0)
// 1417 afStatus_t ZDP_MgmtLeaveReq( zAddrType_t *dstAddr, uint8 *IEEEAddr, uint8 RemoveChildren,
ZDP_MgmtLeaveReq:
          CFI Block cfiBlock272 Using cfiCommon0
          CFI Function ZDP_MgmtLeaveReq
        CODE
// 1418                  uint8 Rejoin, uint8 SecurityEnable )
// 1419 
// 1420 {
        FUNCALL ZDP_MgmtLeaveReq, sAddrExtCpy
        LOCFRAME ISTACK, 0, STACK
        LOCFRAME PSTACK, 0, STACK
        LOCFRAME XSTACK, 12, STACK
        LOCFRAME IOVERLAY, 0, STATIC
        LOCFRAME DOVERLAY, 0, STATIC
        ARGFRAME ISTACK, 0, STACK
        ARGFRAME PSTACK, 0, STACK
        ARGFRAME XSTACK, 12, STACK
        ARGFRAME IOVERLAY, 0, STATIC
        ARGFRAME DOVERLAY, 0, STATIC
        FUNCALL ZDP_MgmtLeaveReq, fillAndSend
        LOCFRAME ISTACK, 0, STACK
        LOCFRAME PSTACK, 0, STACK
        LOCFRAME XSTACK, 14, STACK
        LOCFRAME IOVERLAY, 0, STATIC
        LOCFRAME DOVERLAY, 0, STATIC
        ARGFRAME ISTACK, 0, STACK
        ARGFRAME PSTACK, 0, STACK
        ARGFRAME XSTACK, 14, STACK
        ARGFRAME IOVERLAY, 0, STATIC
        ARGFRAME DOVERLAY, 0, STATIC
        REQUIRE ?V0
        REQUIRE ?V2
        REQUIRE ?V3
        MOV       A,#-0xc
        LCALL     ?BANKED_ENTER_XDATA
          CFI DPH0 load(1, XDATA, add(CFA_XSP16, literal(-1)))
          CFI DPL0 load(1, XDATA, add(CFA_XSP16, literal(-2)))
          CFI ?BRET_EXT load(1, XDATA, add(CFA_XSP16, literal(-3)))
          CFI ?RET_HIGH load(1, XDATA, add(CFA_XSP16, literal(-4)))
          CFI ?RET_LOW load(1, XDATA, add(CFA_XSP16, literal(-5)))
          CFI R7 load(1, XDATA, add(CFA_XSP16, literal(-6)))
          CFI V3 load(1, XDATA, add(CFA_XSP16, literal(-7)))
          CFI V2 load(1, XDATA, add(CFA_XSP16, literal(-8)))
          CFI V1 load(1, XDATA, add(CFA_XSP16, literal(-9)))
          CFI V0 load(1, XDATA, add(CFA_XSP16, literal(-10)))
          CFI VB load(1, XDATA, add(CFA_XSP16, literal(-11)))
          CFI R6 load(1, XDATA, add(CFA_XSP16, literal(-12)))
          CFI CFA_SP SP+0
          CFI CFA_XSP16 add(XSP16, 12)
        ; Saved register size: 12
        ; Auto size: 0
        LCALL     ?Subroutine40 & 0xFFFF
// 1421   (void)SecurityEnable;  // Intentionally unreferenced parameter
// 1422 
// 1423   osal_cpyExtAddr( ZDP_TmpBuf, IEEEAddr );
??CrossCallReturnLabel_191:
        LCALL     `??sAddrExtCpy::?relay`; Banked call to: sAddrExtCpy
// 1424   ZDP_TmpBuf[Z_EXTADDR_LEN] = 0;
        MOV       DPTR,#ZDP_TmpBuf
        MOVX      A,@DPTR
        ADD       A,#0x8
        MOV       R0,A
        INC       DPTR
        MOVX      A,@DPTR
        ADDC      A,#0x0
        MOV       R1,A
        MOV       DPL,R0
        MOV       DPH,R1
        CLR       A
        MOVX      @DPTR,A
// 1425 
// 1426   if ( RemoveChildren == TRUE )
        INC       A
        XRL       A,?V0
        JNZ       ??ZDP_MgmtLeaveReq_0
// 1427   {
// 1428     ZDP_TmpBuf[Z_EXTADDR_LEN] |= ZDP_MGMT_LEAVE_REQ_RC;
        MOV       A,#0x40
        MOVX      @DPTR,A
// 1429   }
// 1430   if ( Rejoin == TRUE )
??ZDP_MgmtLeaveReq_0:
        MOV       A,#0xc
        LCALL     ?XSTACK_DISP0_8
        MOVX      A,@DPTR
        XRL       A,#0x1
        JNZ       ??ZDP_MgmtLeaveReq_1
// 1431   {
// 1432     ZDP_TmpBuf[Z_EXTADDR_LEN] |= ZDP_MGMT_LEAVE_REQ_REJOIN;
        MOV       DPL,R0
        MOV       DPH,R1
        MOVX      A,@DPTR
        SETB      0xE0 /* A   */.7
        MOVX      @DPTR,A
// 1433   }
// 1434 
// 1435   return fillAndSend( &ZDP_TransID, dstAddr, Mgmt_Leave_req, (Z_EXTADDR_LEN + 1) );
??ZDP_MgmtLeaveReq_1:
        ; Setup parameters for call to function fillAndSend
        MOV       ?V2,#0x34
        LJMP      ?Subroutine1 & 0xFFFF
// 1436 }
          CFI EndBlock cfiBlock272
// 1437 
// 1438 /*********************************************************************
// 1439  * @fn          ZDP_MgmtNwkUpdateReq
// 1440  *
// 1441  * @brief       This builds and send a Mgmt_NWK_Update_req message. This
// 1442  *              function sends a unicast or broadcast message.
// 1443  *
// 1444  * @param       dstAddr - destination address of the message
// 1445  * @param       ChannelMask - 32 bit address bit map
// 1446  * @param       ScanDuration - length of time to spend scanning each channel
// 1447  * @param       ScanCount - number of energy scans to be conducted
// 1448  * @param       NwkUpdateId - NWk Update Id value
// 1449  * @param       NwkManagerAddr - NWK address for device with Network Manager
// 1450  *                               bit set in its Node Descriptor
// 1451  *
// 1452  * @return      afStatus_t
// 1453  */

        RSEG BANKED_CODE:HUGECODE:NOROOT(0)
// 1454 afStatus_t ZDP_MgmtNwkUpdateReq( zAddrType_t *dstAddr,
ZDP_MgmtNwkUpdateReq:
          CFI Block cfiBlock273 Using cfiCommon0
          CFI Function ZDP_MgmtNwkUpdateReq
        CODE
// 1455                                  uint32 ChannelMask,
// 1456                                  uint8 ScanDuration,
// 1457                                  uint8 ScanCount,
// 1458                                  uint8 NwkUpdateId,
// 1459                                  uint16 NwkManagerAddr )
// 1460 {
        FUNCALL ZDP_MgmtNwkUpdateReq, osal_buffer_uint32
        LOCFRAME ISTACK, 0, STACK
        LOCFRAME PSTACK, 0, STACK
        LOCFRAME XSTACK, 18, STACK
        LOCFRAME IOVERLAY, 0, STATIC
        LOCFRAME DOVERLAY, 0, STATIC
        ARGFRAME ISTACK, 0, STACK
        ARGFRAME PSTACK, 0, STACK
        ARGFRAME XSTACK, 18, STACK
        ARGFRAME IOVERLAY, 0, STATIC
        ARGFRAME DOVERLAY, 0, STATIC
        FUNCALL ZDP_MgmtNwkUpdateReq, fillAndSend
        LOCFRAME ISTACK, 0, STACK
        LOCFRAME PSTACK, 0, STACK
        LOCFRAME XSTACK, 16, STACK
        LOCFRAME IOVERLAY, 0, STATIC
        LOCFRAME DOVERLAY, 0, STATIC
        ARGFRAME ISTACK, 0, STACK
        ARGFRAME PSTACK, 0, STACK
        ARGFRAME XSTACK, 16, STACK
        ARGFRAME IOVERLAY, 0, STATIC
        ARGFRAME DOVERLAY, 0, STATIC
        REQUIRE ?V0
        REQUIRE ?V1
        REQUIRE ?V2
        REQUIRE ?V3
        REQUIRE ?V4
        REQUIRE ?V5
        MOV       A,#-0xe
        LCALL     ?BANKED_ENTER_XDATA
          CFI DPH0 load(1, XDATA, add(CFA_XSP16, literal(-1)))
          CFI DPL0 load(1, XDATA, add(CFA_XSP16, literal(-2)))
          CFI ?BRET_EXT load(1, XDATA, add(CFA_XSP16, literal(-3)))
          CFI ?RET_HIGH load(1, XDATA, add(CFA_XSP16, literal(-4)))
          CFI ?RET_LOW load(1, XDATA, add(CFA_XSP16, literal(-5)))
          CFI R7 load(1, XDATA, add(CFA_XSP16, literal(-6)))
          CFI V5 load(1, XDATA, add(CFA_XSP16, literal(-7)))
          CFI V4 load(1, XDATA, add(CFA_XSP16, literal(-8)))
          CFI V3 load(1, XDATA, add(CFA_XSP16, literal(-9)))
          CFI V2 load(1, XDATA, add(CFA_XSP16, literal(-10)))
          CFI V1 load(1, XDATA, add(CFA_XSP16, literal(-11)))
          CFI V0 load(1, XDATA, add(CFA_XSP16, literal(-12)))
          CFI VB load(1, XDATA, add(CFA_XSP16, literal(-13)))
          CFI R6 load(1, XDATA, add(CFA_XSP16, literal(-14)))
          CFI CFA_SP SP+0
          CFI CFA_XSP16 add(XSP16, 14)
        ; Saved register size: 14
        ; Auto size: 0
        MOV       ?V0,R2
        MOV       ?V1,R3
        MOV       A,R1
        MOV       R7,A
        MOV       ?V2,R4
        MOV       ?V3,R5
// 1461   uint8 *pBuf = ZDP_TmpBuf;
// 1462   byte len = sizeof( uint32 ) + 1;  // ChannelMask + ScanDuration
        MOV       R6,#0x5
// 1463 
// 1464   pBuf = osal_buffer_uint32( pBuf, ChannelMask );
        ; Setup parameters for call to function osal_buffer_uint32
        MOV       A,#0xe
        LCALL     ?XSTACK_DISP0_8
        LCALL     ?PUSH_XSTACK8_X_FOUR
          CFI CFA_XSP16 add(XSP16, 18)
        LCALL     ??Subroutine106_0 & 0xFFFF
??CrossCallReturnLabel_199:
        LCALL     `??osal_buffer_uint32::?relay`; Banked call to: osal_buffer_uint32
        MOV       A,#0x4
        LCALL     ?DEALLOC_XSTACK8
          CFI CFA_XSP16 add(XSP16, 14)
// 1465 
// 1466   *pBuf++ = ScanDuration;
        MOV       A,R7
        MOV       DPL,R2
        MOV       DPH,R3
        MOVX      @DPTR,A
// 1467 
// 1468   if ( ScanDuration <= 0x05 )
        MOV       A,R2
        ADD       A,#0x2
        MOV       R4,A
        CLR       A
        ADDC      A,R3
        MOV       R5,A
        INC       DPTR
        MOV       A,R7
        CLR       C
        SUBB      A,#0x6
        JNC       ??ZDP_MgmtNwkUpdateReq_0
// 1469   {
// 1470     // Request is to scan over channelMask
// 1471     len += sizeof( uint8 );
        MOV       R6,#0x6
// 1472 
// 1473     *pBuf++ = ScanCount;
        MOV       A,?V2
        MOVX      @DPTR,A
        SJMP      ??ZDP_MgmtNwkUpdateReq_1
// 1474   }
// 1475   else if ( ( ScanDuration == 0xFE ) || ( ScanDuration == 0xFF ) )
??ZDP_MgmtNwkUpdateReq_0:
        MOV       A,#-0x2
        XRL       A,R7
        JZ        ??ZDP_MgmtNwkUpdateReq_2
        MOV       A,#-0x1
        XRL       A,R7
        JNZ       ??ZDP_MgmtNwkUpdateReq_1
// 1476   {
// 1477     // Request is to change Channel (0xFE) or apsChannelMask and NwkManagerAddr (0xFF)
// 1478     len += sizeof( uint8 );
??ZDP_MgmtNwkUpdateReq_2:
        MOV       R6,#0x6
// 1479 
// 1480     *pBuf++ = NwkUpdateId;
        MOV       A,?V3
        MOVX      @DPTR,A
// 1481 
// 1482     if ( ScanDuration == 0xFF )
        MOV       A,#-0x1
        XRL       A,R7
        JNZ       ??ZDP_MgmtNwkUpdateReq_1
// 1483     {
// 1484       len += sizeof( uint16 );
        MOV       R6,#0x8
        MOV       A,#0x12
        LCALL     ?XSTACK_DISP0_8
        LCALL     ?Subroutine52 & 0xFFFF
// 1485 
// 1486       *pBuf++  = LO_UINT16( NwkManagerAddr );
// 1487       *pBuf++  = HI_UINT16( NwkManagerAddr );
// 1488     }
// 1489   }
??CrossCallReturnLabel_91:
        LCALL     ?Subroutine33 & 0xFFFF
??CrossCallReturnLabel_46:
        MOVX      @DPTR,A
        MOV       A,R2
        ADD       A,#0x4
// 1490 
// 1491   return fillAndSend( &ZDP_TransID, dstAddr, Mgmt_NWK_Update_req, len );
??ZDP_MgmtNwkUpdateReq_1:
        ; Setup parameters for call to function fillAndSend
        MOV       ?V4,#0x38
        MOV       ?V5,#0x0
        MOV       R0,#?V4
        LCALL     ?PUSH_XSTACK_I_TWO
          CFI CFA_XSP16 add(XSP16, 16)
        MOV       A,R6
        MOV       R1,A
        MOV       R4,?V0
        MOV       R5,?V1
        MOV       R2,#ZDP_TransID & 0xff
        MOV       R3,#(ZDP_TransID >> 8) & 0xff
        LCALL     `??fillAndSend::?relay`; Banked call to: fillAndSend
        MOV       A,#0x2
        LJMP      ?Subroutine0 & 0xFFFF
// 1492 }
          CFI EndBlock cfiBlock273

        RSEG BANKED_CODE:HUGECODE:NOROOT(0)
?Subroutine52:
          CFI Block cfiCond274 Using cfiCommon0
          CFI Function ZDP_ServerDiscRsp
          CFI Conditional ??CrossCallReturnLabel_90
          CFI R6 load(1, XDATA, add(CFA_XSP16, literal(-10)))
          CFI VB load(1, XDATA, add(CFA_XSP16, literal(-9)))
          CFI V0 load(1, XDATA, add(CFA_XSP16, literal(-8)))
          CFI V1 load(1, XDATA, add(CFA_XSP16, literal(-7)))
          CFI R7 load(1, XDATA, add(CFA_XSP16, literal(-6)))
          CFI ?RET_LOW load(1, XDATA, add(CFA_XSP16, literal(-5)))
          CFI ?RET_HIGH load(1, XDATA, add(CFA_XSP16, literal(-4)))
          CFI ?BRET_EXT load(1, XDATA, add(CFA_XSP16, literal(-3)))
          CFI DPL0 load(1, XDATA, add(CFA_XSP16, literal(-2)))
          CFI DPH0 load(1, XDATA, add(CFA_XSP16, literal(-1)))
          CFI CFA_SP SP+-2
          CFI CFA_XSP16 add(XSP16, 11)
          CFI Block cfiCond275 Using cfiCommon0
          CFI (cfiCond275) Function ZDP_MgmtNwkUpdateReq
          CFI (cfiCond275) Conditional ??CrossCallReturnLabel_91
          CFI (cfiCond275) R6 load(1, XDATA, add(CFA_XSP16, literal(-14)))
          CFI (cfiCond275) VB load(1, XDATA, add(CFA_XSP16, literal(-13)))
          CFI (cfiCond275) V0 load(1, XDATA, add(CFA_XSP16, literal(-12)))
          CFI (cfiCond275) V1 load(1, XDATA, add(CFA_XSP16, literal(-11)))
          CFI (cfiCond275) V2 load(1, XDATA, add(CFA_XSP16, literal(-10)))
          CFI (cfiCond275) V3 load(1, XDATA, add(CFA_XSP16, literal(-9)))
          CFI (cfiCond275) V4 load(1, XDATA, add(CFA_XSP16, literal(-8)))
          CFI (cfiCond275) V5 load(1, XDATA, add(CFA_XSP16, literal(-7)))
          CFI (cfiCond275) R7 load(1, XDATA, add(CFA_XSP16, literal(-6)))
          CFI (cfiCond275) ?RET_LOW load(1, XDATA, add(CFA_XSP16, literal(-5)))
          CFI (cfiCond275) ?RET_HIGH load(1, XDATA, add(CFA_XSP16, literal(-4)))
          CFI (cfiCond275) ?BRET_EXT load(1, XDATA, add(CFA_XSP16, literal(-3)))
          CFI (cfiCond275) DPL0 load(1, XDATA, add(CFA_XSP16, literal(-2)))
          CFI (cfiCond275) DPH0 load(1, XDATA, add(CFA_XSP16, literal(-1)))
          CFI (cfiCond275) CFA_SP SP+-2
          CFI (cfiCond275) CFA_XSP16 add(XSP16, 14)
          CFI Block cfiPicker276 Using cfiCommon1
          CFI (cfiPicker276) NoFunction
          CFI (cfiPicker276) Picker
        LCALL     ?Subroutine75 & 0xFFFF
??CrossCallReturnLabel_166:
        MOV       DPL,R4
        MOV       DPH,R5
        RET
          CFI EndBlock cfiCond274
          CFI EndBlock cfiCond275
          CFI EndBlock cfiPicker276
// 1493 
// 1494 
// 1495 /*********************************************************************
// 1496  * Network Management Responses
// 1497  */
// 1498 
// 1499 /*********************************************************************
// 1500  * @fn          ZDP_MgmtNwkDiscRsp
// 1501  *
// 1502  * @brief       This builds and send a Mgmt_NWK_Disc_rsp message. This
// 1503  *              function sends a unicast message.
// 1504  *
// 1505  * @param       dstAddr - destination address of the message
// 1506  * @param       Status - message status (ZDP_SUCCESS or other)
// 1507  * @param       NetworkCount - Total number of networks found
// 1508  * @param       StartIndex - Starting index within the reporting network
// 1509  *                           list
// 1510  * @param       NetworkListCount - number of network lists included
// 1511  *                                 in this message
// 1512  * @param       NetworkList - List of network descriptors
// 1513  * @param       SecurityEnable - Security Options
// 1514  *
// 1515  * @return      afStatus_t
// 1516  */

        RSEG BANKED_CODE:HUGECODE:NOROOT(0)
// 1517 afStatus_t ZDP_MgmtNwkDiscRsp( byte TransSeq, zAddrType_t *dstAddr,
ZDP_MgmtNwkDiscRsp:
          CFI Block cfiBlock277 Using cfiCommon0
          CFI Function ZDP_MgmtNwkDiscRsp
        CODE
// 1518                             byte Status,
// 1519                             byte NetworkCount,
// 1520                             byte StartIndex,
// 1521                             byte NetworkListCount,
// 1522                             networkDesc_t *NetworkList,
// 1523                             byte SecurityEnable )
// 1524 {
        FUNCALL ZDP_MgmtNwkDiscRsp, osal_mem_alloc
        LOCFRAME ISTACK, 0, STACK
        LOCFRAME PSTACK, 0, STACK
        LOCFRAME XSTACK, 23, STACK
        LOCFRAME IOVERLAY, 0, STATIC
        LOCFRAME DOVERLAY, 0, STATIC
        ARGFRAME ISTACK, 0, STACK
        ARGFRAME PSTACK, 0, STACK
        ARGFRAME XSTACK, 23, STACK
        ARGFRAME IOVERLAY, 0, STATIC
        ARGFRAME DOVERLAY, 0, STATIC
        FUNCALL ZDP_MgmtNwkDiscRsp, sAddrExtCpy
        LOCFRAME ISTACK, 0, STACK
        LOCFRAME PSTACK, 0, STACK
        LOCFRAME XSTACK, 23, STACK
        LOCFRAME IOVERLAY, 0, STATIC
        LOCFRAME DOVERLAY, 0, STATIC
        ARGFRAME ISTACK, 0, STACK
        ARGFRAME PSTACK, 0, STACK
        ARGFRAME XSTACK, 23, STACK
        ARGFRAME IOVERLAY, 0, STATIC
        ARGFRAME DOVERLAY, 0, STATIC
        FUNCALL ZDP_MgmtNwkDiscRsp, fillAndSend
        LOCFRAME ISTACK, 0, STACK
        LOCFRAME PSTACK, 0, STACK
        LOCFRAME XSTACK, 25, STACK
        LOCFRAME IOVERLAY, 0, STATIC
        LOCFRAME DOVERLAY, 0, STATIC
        ARGFRAME ISTACK, 0, STACK
        ARGFRAME PSTACK, 0, STACK
        ARGFRAME XSTACK, 25, STACK
        ARGFRAME IOVERLAY, 0, STATIC
        ARGFRAME DOVERLAY, 0, STATIC
        FUNCALL ZDP_MgmtNwkDiscRsp, osal_mem_free
        LOCFRAME ISTACK, 0, STACK
        LOCFRAME PSTACK, 0, STACK
        LOCFRAME XSTACK, 23, STACK
        LOCFRAME IOVERLAY, 0, STATIC
        LOCFRAME DOVERLAY, 0, STATIC
        ARGFRAME ISTACK, 0, STACK
        ARGFRAME PSTACK, 0, STACK
        ARGFRAME XSTACK, 23, STACK
        ARGFRAME IOVERLAY, 0, STATIC
        ARGFRAME DOVERLAY, 0, STATIC
        REQUIRE ?V0
        REQUIRE ?V1
        REQUIRE ?V2
        REQUIRE ?V3
        REQUIRE ?V4
        REQUIRE ?V5
        REQUIRE ?V6
        REQUIRE ?V7
        REQUIRE ?V8
        REQUIRE ?V9
        REQUIRE ?V10
        REQUIRE ?V12
        REQUIRE ?V13
        MOV       A,#-0x16
        LCALL     ?BANKED_ENTER_XDATA
          CFI DPH0 load(1, XDATA, add(CFA_XSP16, literal(-1)))
          CFI DPL0 load(1, XDATA, add(CFA_XSP16, literal(-2)))
          CFI ?BRET_EXT load(1, XDATA, add(CFA_XSP16, literal(-3)))
          CFI ?RET_HIGH load(1, XDATA, add(CFA_XSP16, literal(-4)))
          CFI ?RET_LOW load(1, XDATA, add(CFA_XSP16, literal(-5)))
          CFI R7 load(1, XDATA, add(CFA_XSP16, literal(-6)))
          CFI V13 load(1, XDATA, add(CFA_XSP16, literal(-7)))
          CFI V12 load(1, XDATA, add(CFA_XSP16, literal(-8)))
          CFI V11 load(1, XDATA, add(CFA_XSP16, literal(-9)))
          CFI V10 load(1, XDATA, add(CFA_XSP16, literal(-10)))
          CFI V9 load(1, XDATA, add(CFA_XSP16, literal(-11)))
          CFI V8 load(1, XDATA, add(CFA_XSP16, literal(-12)))
          CFI V7 load(1, XDATA, add(CFA_XSP16, literal(-13)))
          CFI V6 load(1, XDATA, add(CFA_XSP16, literal(-14)))
          CFI V5 load(1, XDATA, add(CFA_XSP16, literal(-15)))
          CFI V4 load(1, XDATA, add(CFA_XSP16, literal(-16)))
          CFI V3 load(1, XDATA, add(CFA_XSP16, literal(-17)))
          CFI V2 load(1, XDATA, add(CFA_XSP16, literal(-18)))
          CFI V1 load(1, XDATA, add(CFA_XSP16, literal(-19)))
          CFI V0 load(1, XDATA, add(CFA_XSP16, literal(-20)))
          CFI VB load(1, XDATA, add(CFA_XSP16, literal(-21)))
          CFI R6 load(1, XDATA, add(CFA_XSP16, literal(-22)))
          CFI CFA_SP SP+0
          CFI CFA_XSP16 add(XSP16, 22)
        ; Saved register size: 22
        ; Auto size: 1
        MOV       A,#-0x1
        LCALL     ?ALLOC_XSTACK8
          CFI CFA_XSP16 add(XSP16, 23)
        MOV       A,R1
        MOV       DPL,?XSP + 0
        MOV       DPH,?XSP + 1
        MOVX      @DPTR,A
        MOV       ?V12,R2
        MOV       ?V13,R3
        MOV       ?V10,R4
        MOV       ?V7,R5
        MOV       A,#0x18
        LCALL     ?XSTACK_DISP0_8
        MOVX      A,@DPTR
        MOV       ?V4,A
// 1525   uint8 *buf;
// 1526   uint8 *pBuf;
// 1527   byte len = 1+1+1+1;  // Status + NetworkCount + StartIndex + NetworkCountList.
// 1528   byte idx;
// 1529 
// 1530   (void)SecurityEnable;  // Intentionally unreferenced parameter
// 1531 
// 1532   len += (NetworkListCount * ( ZDP_NETWORK_EXTENDED_DISCRIPTOR_SIZE - 2 ));
        MOV       B,#0xc
        MUL       AB
        ADD       A,#0x4
        MOV       ?V5,A
// 1533 
// 1534   buf = osal_mem_alloc( len+1 );
        ; Setup parameters for call to function osal_mem_alloc
        LCALL     ?Subroutine67 & 0xFFFF
??CrossCallReturnLabel_115:
        LCALL     `??osal_mem_alloc::?relay`; Banked call to: osal_mem_alloc
        MOV       ?V0,R2
        MOV       ?V1,R3
// 1535   if ( buf == NULL )
        MOV       A,R2
        ORL       A,?V1
        JNZ       ??ZDP_MgmtNwkDiscRsp_0
// 1536   {
// 1537     return afStatus_MEM_FAIL;
        MOV       R1,#0x10
        LJMP      ??CrossCallReturnLabel_32 & 0xFFFF
// 1538   }
// 1539 
// 1540   pBuf = buf+1;
??ZDP_MgmtNwkDiscRsp_0:
        MOV       DPL,R2
        MOV       DPH,R3
        INC       DPTR
        MOV       ?V8,DPL
        MOV       ?V9,DPH
        MOV       R6,?V8
        MOV       R7,?V9
// 1541 
// 1542   *pBuf++ = Status;
        MOV       A,?V10
        MOVX      @DPTR,A
// 1543   *pBuf++ = NetworkCount;
        INC       DPTR
        MOV       A,?V7
        MOVX      @DPTR,A
// 1544   *pBuf++ = StartIndex;
        MOV       A,#0x17
        LCALL     ?XSTACK_DISP0_8
        LCALL     ?Subroutine45 & 0xFFFF
??CrossCallReturnLabel_72:
        INC       DPTR
        LCALL     ?Subroutine83 & 0xFFFF
// 1545   *pBuf++ = NetworkListCount;
??CrossCallReturnLabel_139:
        MOV       A,?V4
        MOVX      @DPTR,A
        MOV       A,R6
        ADD       A,#0x4
        MOV       R6,A
        JNC       ??ZDP_MgmtNwkDiscRsp_1
        INC       R7
// 1546 
// 1547   for ( idx = 0; idx < NetworkListCount; idx++ )
??ZDP_MgmtNwkDiscRsp_1:
        MOV       ?V6,#0x0
        MOV       A,#0x19
        LCALL     ?XSTACK_DISP0_8
        LCALL     ?Subroutine43 & 0xFFFF
??CrossCallReturnLabel_65:
        SJMP      ??ZDP_MgmtNwkDiscRsp_2
// 1548   {
// 1549     osal_cpyExtAddr( pBuf, NetworkList->extendedPANID);
// 1550     pBuf += Z_EXTADDR_LEN;
// 1551 
// 1552     *pBuf++  = NetworkList->logicalChannel;                // LogicalChannel
// 1553     *pBuf    = NetworkList->stackProfile;                  // Stack profile
// 1554     *pBuf++ |= (byte)(NetworkList->version << 4);          // ZigBee Version
// 1555     *pBuf    = BEACON_ORDER_NO_BEACONS;                    // Beacon Order
// 1556     *pBuf++ |= (uint8)(BEACON_ORDER_NO_BEACONS << 4);      // Superframe Order
// 1557 
// 1558     if ( NetworkList->chosenRouter != INVALID_NODE_ADDR )
// 1559     {
// 1560       *pBuf++ = TRUE;                         // Permit Joining
// 1561     }
// 1562     else
// 1563     {
// 1564       *pBuf++ = FALSE;
??ZDP_MgmtNwkDiscRsp_3:
        CLR       A
??ZDP_MgmtNwkDiscRsp_4:
        MOVX      @DPTR,A
        MOV       A,R0
        MOV       R6,A
        MOV       A,R1
        MOV       R7,A
// 1565     }
// 1566 
// 1567     NetworkList = NetworkList->nextDesc;    // Move to next list entry
        MOV       A,?V2
        ADD       A,#0x14
        MOV       DPL,A
        CLR       A
        ADDC      A,?V3
        MOV       DPH,A
        LCALL     ?Subroutine43 & 0xFFFF
??CrossCallReturnLabel_66:
        INC       ?V6
??ZDP_MgmtNwkDiscRsp_2:
        MOV       A,?V6
        CLR       C
        SUBB      A,?V4
        JNC       ??ZDP_MgmtNwkDiscRsp_5
        ; Setup parameters for call to function sAddrExtCpy
        MOV       A,?V2
        ADD       A,#0xb
        MOV       R4,A
        CLR       A
        ADDC      A,?V3
        MOV       R5,A
        MOV       A,R6
        MOV       R2,A
        MOV       A,R7
        MOV       R3,A
        LCALL     `??sAddrExtCpy::?relay`; Banked call to: sAddrExtCpy
        MOV       DPL,?V2
        MOV       DPH,?V3
        INC       DPTR
        INC       DPTR
        LCALL     ?Subroutine45 & 0xFFFF
??CrossCallReturnLabel_73:
        INC       DPTR
        INC       DPTR
        INC       DPTR
        INC       DPTR
        INC       DPTR
        INC       DPTR
        INC       DPTR
        LCALL     ?Subroutine36 & 0xFFFF
??CrossCallReturnLabel_52:
        MOV       DPL,?V2
        MOV       DPH,?V3
        INC       DPTR
        INC       DPTR
        INC       DPTR
        INC       DPTR
        INC       DPTR
        INC       DPTR
        LCALL     ??Subroutine109_0 & 0xFFFF
??CrossCallReturnLabel_202:
        LCALL     ?Subroutine30 & 0xFFFF
??CrossCallReturnLabel_45:
        INC       DPTR
        INC       DPTR
        INC       DPTR
        MOVX      A,@DPTR
        SWAP      A
        ANL       A,#0xf0
        MOV       R2,A
        MOV       DPL,R0
        MOV       DPH,R1
        MOVX      A,@DPTR
        ORL       A,R2
        LCALL     ?Subroutine20 & 0xFFFF
??CrossCallReturnLabel_23:
        INC       DPTR
        INC       DPTR
        MOV       A,#-0x1
        MOVX      @DPTR,A
        MOV       A,R6
        ADD       A,#0xc
        MOV       R0,A
        CLR       A
        ADDC      A,R7
        MOV       R1,A
        MOV       A,R6
        ADD       A,#0xb
        MOV       R2,A
        CLR       A
        ADDC      A,R7
        MOV       R3,A
        MOV       DPL,?V2
        MOV       DPH,?V3
        INC       DPTR
        INC       DPTR
        INC       DPTR
        INC       DPTR
        INC       DPTR
        INC       DPTR
        INC       DPTR
        MOVX      A,@DPTR
        XRL       A,#0xfe
        JNZ       ??ZDP_MgmtNwkDiscRsp_6
        INC       DPTR
        MOVX      A,@DPTR
        CPL       A
??ZDP_MgmtNwkDiscRsp_6:
        MOV       DPL,R2
        MOV       DPH,R3
        JNZ       $+5
        LJMP      ??ZDP_MgmtNwkDiscRsp_3 & 0xFFFF
        MOV       A,#0x1
        LJMP      ??ZDP_MgmtNwkDiscRsp_4 & 0xFFFF
// 1568   }
// 1569 
// 1570   FillAndSendBuffer( &TransSeq, dstAddr, Mgmt_NWK_Disc_rsp, len, buf );
??ZDP_MgmtNwkDiscRsp_5:
        MOV       DPTR,#ZDP_TmpBuf
        MOV       A,?V8
        MOVX      @DPTR,A
        INC       DPTR
        MOV       A,?V9
        MOVX      @DPTR,A
        ; Setup parameters for call to function fillAndSend
        MOV       ?V2,#0x30
        MOV       ?V3,#-0x80
        MOV       R0,#?V2
        LCALL     ?PUSH_XSTACK_I_TWO
          CFI CFA_XSP16 add(XSP16, 25)
        MOV       R1,?V5
        MOV       R4,?V12
        MOV       R5,?V13
        MOV       A,#0x2
        LCALL     ?XSTACK_DISP101_8
        LCALL     `??fillAndSend::?relay`; Banked call to: fillAndSend
        MOV       A,#0x2
        LCALL     ?DEALLOC_XSTACK8
          CFI CFA_XSP16 add(XSP16, 23)
        MOV       A,R1
        MOV       R6,A
        ; Setup parameters for call to function osal_mem_free
        MOV       R2,?V0
        MOV       R3,?V1
        LCALL     `??osal_mem_free::?relay`; Banked call to: osal_mem_free
        LCALL     ?Subroutine24 & 0xFFFF
??CrossCallReturnLabel_32:
          CFI EndBlock cfiBlock277
        REQUIRE ?Subroutine4
        ; // Fall through to label ?Subroutine4
// 1571 }

        RSEG BANKED_CODE:HUGECODE:NOROOT(0)
?Subroutine4:
          CFI Block cfiBlock278 Using cfiCommon0
          CFI NoFunction
          CFI CFA_SP SP+0
          CFI CFA_XSP16 add(XSP16, 23)
          CFI VB load(1, XDATA, add(CFA_XSP16, literal(-21)))
          CFI DPL0 load(1, XDATA, add(CFA_XSP16, literal(-2)))
          CFI DPH0 load(1, XDATA, add(CFA_XSP16, literal(-1)))
          CFI R6 load(1, XDATA, add(CFA_XSP16, literal(-22)))
          CFI R7 load(1, XDATA, add(CFA_XSP16, literal(-6)))
          CFI V0 load(1, XDATA, add(CFA_XSP16, literal(-20)))
          CFI V1 load(1, XDATA, add(CFA_XSP16, literal(-19)))
          CFI V2 load(1, XDATA, add(CFA_XSP16, literal(-18)))
          CFI V3 load(1, XDATA, add(CFA_XSP16, literal(-17)))
          CFI V4 load(1, XDATA, add(CFA_XSP16, literal(-16)))
          CFI V5 load(1, XDATA, add(CFA_XSP16, literal(-15)))
          CFI V6 load(1, XDATA, add(CFA_XSP16, literal(-14)))
          CFI V7 load(1, XDATA, add(CFA_XSP16, literal(-13)))
          CFI V8 load(1, XDATA, add(CFA_XSP16, literal(-12)))
          CFI V9 load(1, XDATA, add(CFA_XSP16, literal(-11)))
          CFI V10 load(1, XDATA, add(CFA_XSP16, literal(-10)))
          CFI V11 load(1, XDATA, add(CFA_XSP16, literal(-9)))
          CFI V12 load(1, XDATA, add(CFA_XSP16, literal(-8)))
          CFI V13 load(1, XDATA, add(CFA_XSP16, literal(-7)))
          CFI ?BRET_EXT load(1, XDATA, add(CFA_XSP16, literal(-3)))
          CFI ?RET_HIGH load(1, XDATA, add(CFA_XSP16, literal(-4)))
          CFI ?RET_LOW load(1, XDATA, add(CFA_XSP16, literal(-5)))
        MOV       A,#0x1
          CFI EndBlock cfiBlock278
        REQUIRE ??Subroutine108_0
        ; // Fall through to label ??Subroutine108_0

        RSEG BANKED_CODE:HUGECODE:NOROOT(0)
??Subroutine108_0:
          CFI Block cfiBlock279 Using cfiCommon0
          CFI NoFunction
          CFI CFA_SP SP+0
          CFI CFA_XSP16 add(XSP16, 24)
          CFI VB load(1, XDATA, add(CFA_XSP16, literal(-21)))
          CFI DPL0 load(1, XDATA, add(CFA_XSP16, literal(-2)))
          CFI DPH0 load(1, XDATA, add(CFA_XSP16, literal(-1)))
          CFI R6 load(1, XDATA, add(CFA_XSP16, literal(-22)))
          CFI R7 load(1, XDATA, add(CFA_XSP16, literal(-6)))
          CFI V0 load(1, XDATA, add(CFA_XSP16, literal(-20)))
          CFI V1 load(1, XDATA, add(CFA_XSP16, literal(-19)))
          CFI V2 load(1, XDATA, add(CFA_XSP16, literal(-18)))
          CFI V3 load(1, XDATA, add(CFA_XSP16, literal(-17)))
          CFI V4 load(1, XDATA, add(CFA_XSP16, literal(-16)))
          CFI V5 load(1, XDATA, add(CFA_XSP16, literal(-15)))
          CFI V6 load(1, XDATA, add(CFA_XSP16, literal(-14)))
          CFI V7 load(1, XDATA, add(CFA_XSP16, literal(-13)))
          CFI V8 load(1, XDATA, add(CFA_XSP16, literal(-12)))
          CFI V9 load(1, XDATA, add(CFA_XSP16, literal(-11)))
          CFI V10 load(1, XDATA, add(CFA_XSP16, literal(-10)))
          CFI V11 load(1, XDATA, add(CFA_XSP16, literal(-9)))
          CFI V12 load(1, XDATA, add(CFA_XSP16, literal(-8)))
          CFI V13 load(1, XDATA, add(CFA_XSP16, literal(-7)))
          CFI ?BRET_EXT load(1, XDATA, add(CFA_XSP16, literal(-3)))
          CFI ?RET_HIGH load(1, XDATA, add(CFA_XSP16, literal(-4)))
          CFI ?RET_LOW load(1, XDATA, add(CFA_XSP16, literal(-5)))
          CFI Invalid
        LCALL     ?DEALLOC_XSTACK8
          CFI CFA_XSP16 add(XSP16, 22)
          CFI Valid
        MOV       R7,#0xe
        LJMP      ?BANKED_LEAVE_XDATA
          CFI EndBlock cfiBlock279

        RSEG BANKED_CODE:HUGECODE:NOROOT(0)
?Subroutine62:
          CFI Block cfiCond280 Using cfiCommon0
          CFI Function ZDP_SimpleDescMsg
          CFI Conditional ??CrossCallReturnLabel_204
          CFI R6 load(1, XDATA, add(CFA_XSP16, literal(-20)))
          CFI VB load(1, XDATA, add(CFA_XSP16, literal(-19)))
          CFI V0 load(1, XDATA, add(CFA_XSP16, literal(-18)))
          CFI V1 load(1, XDATA, add(CFA_XSP16, literal(-17)))
          CFI V2 load(1, XDATA, add(CFA_XSP16, literal(-16)))
          CFI V3 load(1, XDATA, add(CFA_XSP16, literal(-15)))
          CFI V4 load(1, XDATA, add(CFA_XSP16, literal(-14)))
          CFI V5 load(1, XDATA, add(CFA_XSP16, literal(-13)))
          CFI V6 load(1, XDATA, add(CFA_XSP16, literal(-12)))
          CFI V7 load(1, XDATA, add(CFA_XSP16, literal(-11)))
          CFI V8 load(1, XDATA, add(CFA_XSP16, literal(-10)))
          CFI V9 load(1, XDATA, add(CFA_XSP16, literal(-9)))
          CFI V10 load(1, XDATA, add(CFA_XSP16, literal(-8)))
          CFI V11 load(1, XDATA, add(CFA_XSP16, literal(-7)))
          CFI R7 load(1, XDATA, add(CFA_XSP16, literal(-6)))
          CFI ?RET_LOW load(1, XDATA, add(CFA_XSP16, literal(-5)))
          CFI ?RET_HIGH load(1, XDATA, add(CFA_XSP16, literal(-4)))
          CFI ?BRET_EXT load(1, XDATA, add(CFA_XSP16, literal(-3)))
          CFI DPL0 load(1, XDATA, add(CFA_XSP16, literal(-2)))
          CFI DPH0 load(1, XDATA, add(CFA_XSP16, literal(-1)))
          CFI CFA_SP SP+-2
          CFI CFA_XSP16 add(XSP16, 20)
          CFI Block cfiCond281 Using cfiCommon0
          CFI (cfiCond281) Function ZDP_SimpleDescMsg
          CFI (cfiCond281) Conditional ??CrossCallReturnLabel_205
          CFI (cfiCond281) R6 load(1, XDATA, add(CFA_XSP16, literal(-20)))
          CFI (cfiCond281) VB load(1, XDATA, add(CFA_XSP16, literal(-19)))
          CFI (cfiCond281) V0 load(1, XDATA, add(CFA_XSP16, literal(-18)))
          CFI (cfiCond281) V1 load(1, XDATA, add(CFA_XSP16, literal(-17)))
          CFI (cfiCond281) V2 load(1, XDATA, add(CFA_XSP16, literal(-16)))
          CFI (cfiCond281) V3 load(1, XDATA, add(CFA_XSP16, literal(-15)))
          CFI (cfiCond281) V4 load(1, XDATA, add(CFA_XSP16, literal(-14)))
          CFI (cfiCond281) V5 load(1, XDATA, add(CFA_XSP16, literal(-13)))
          CFI (cfiCond281) V6 load(1, XDATA, add(CFA_XSP16, literal(-12)))
          CFI (cfiCond281) V7 load(1, XDATA, add(CFA_XSP16, literal(-11)))
          CFI (cfiCond281) V8 load(1, XDATA, add(CFA_XSP16, literal(-10)))
          CFI (cfiCond281) V9 load(1, XDATA, add(CFA_XSP16, literal(-9)))
          CFI (cfiCond281) V10 load(1, XDATA, add(CFA_XSP16, literal(-8)))
          CFI (cfiCond281) V11 load(1, XDATA, add(CFA_XSP16, literal(-7)))
          CFI (cfiCond281) R7 load(1, XDATA, add(CFA_XSP16, literal(-6)))
          CFI (cfiCond281) ?RET_LOW load(1, XDATA, add(CFA_XSP16, literal(-5)))
          CFI (cfiCond281) ?RET_HIGH load(1, XDATA, add(CFA_XSP16, literal(-4)))
          CFI (cfiCond281) ?BRET_EXT load(1, XDATA, add(CFA_XSP16, literal(-3)))
          CFI (cfiCond281) DPL0 load(1, XDATA, add(CFA_XSP16, literal(-2)))
          CFI (cfiCond281) DPH0 load(1, XDATA, add(CFA_XSP16, literal(-1)))
          CFI (cfiCond281) CFA_SP SP+-2
          CFI (cfiCond281) CFA_XSP16 add(XSP16, 20)
          CFI Block cfiPicker282 Using cfiCommon1
          CFI (cfiPicker282) NoFunction
          CFI (cfiPicker282) Picker
        MOV       DPL,R7
        MOV       DPH,A
          CFI EndBlock cfiCond280
          CFI EndBlock cfiCond281
          CFI EndBlock cfiPicker282
        REQUIRE ??Subroutine109_0
        ; // Fall through to label ??Subroutine109_0

        RSEG BANKED_CODE:HUGECODE:NOROOT(0)
??Subroutine109_0:
          CFI Block cfiCond283 Using cfiCommon0
          CFI Function ZDP_SimpleDescMsg
          CFI Conditional ??CrossCallReturnLabel_200
          CFI R6 load(1, XDATA, add(CFA_XSP16, literal(-20)))
          CFI VB load(1, XDATA, add(CFA_XSP16, literal(-19)))
          CFI V0 load(1, XDATA, add(CFA_XSP16, literal(-18)))
          CFI V1 load(1, XDATA, add(CFA_XSP16, literal(-17)))
          CFI V2 load(1, XDATA, add(CFA_XSP16, literal(-16)))
          CFI V3 load(1, XDATA, add(CFA_XSP16, literal(-15)))
          CFI V4 load(1, XDATA, add(CFA_XSP16, literal(-14)))
          CFI V5 load(1, XDATA, add(CFA_XSP16, literal(-13)))
          CFI V6 load(1, XDATA, add(CFA_XSP16, literal(-12)))
          CFI V7 load(1, XDATA, add(CFA_XSP16, literal(-11)))
          CFI V8 load(1, XDATA, add(CFA_XSP16, literal(-10)))
          CFI V9 load(1, XDATA, add(CFA_XSP16, literal(-9)))
          CFI V10 load(1, XDATA, add(CFA_XSP16, literal(-8)))
          CFI V11 load(1, XDATA, add(CFA_XSP16, literal(-7)))
          CFI R7 load(1, XDATA, add(CFA_XSP16, literal(-6)))
          CFI ?RET_LOW load(1, XDATA, add(CFA_XSP16, literal(-5)))
          CFI ?RET_HIGH load(1, XDATA, add(CFA_XSP16, literal(-4)))
          CFI ?BRET_EXT load(1, XDATA, add(CFA_XSP16, literal(-3)))
          CFI DPL0 load(1, XDATA, add(CFA_XSP16, literal(-2)))
          CFI DPH0 load(1, XDATA, add(CFA_XSP16, literal(-1)))
          CFI CFA_SP SP+-2
          CFI CFA_XSP16 add(XSP16, 20)
          CFI Block cfiCond284 Using cfiCommon0
          CFI (cfiCond284) Function ZDP_SimpleDescMsg
          CFI (cfiCond284) Conditional ??CrossCallReturnLabel_201
          CFI (cfiCond284) R6 load(1, XDATA, add(CFA_XSP16, literal(-20)))
          CFI (cfiCond284) VB load(1, XDATA, add(CFA_XSP16, literal(-19)))
          CFI (cfiCond284) V0 load(1, XDATA, add(CFA_XSP16, literal(-18)))
          CFI (cfiCond284) V1 load(1, XDATA, add(CFA_XSP16, literal(-17)))
          CFI (cfiCond284) V2 load(1, XDATA, add(CFA_XSP16, literal(-16)))
          CFI (cfiCond284) V3 load(1, XDATA, add(CFA_XSP16, literal(-15)))
          CFI (cfiCond284) V4 load(1, XDATA, add(CFA_XSP16, literal(-14)))
          CFI (cfiCond284) V5 load(1, XDATA, add(CFA_XSP16, literal(-13)))
          CFI (cfiCond284) V6 load(1, XDATA, add(CFA_XSP16, literal(-12)))
          CFI (cfiCond284) V7 load(1, XDATA, add(CFA_XSP16, literal(-11)))
          CFI (cfiCond284) V8 load(1, XDATA, add(CFA_XSP16, literal(-10)))
          CFI (cfiCond284) V9 load(1, XDATA, add(CFA_XSP16, literal(-9)))
          CFI (cfiCond284) V10 load(1, XDATA, add(CFA_XSP16, literal(-8)))
          CFI (cfiCond284) V11 load(1, XDATA, add(CFA_XSP16, literal(-7)))
          CFI (cfiCond284) R7 load(1, XDATA, add(CFA_XSP16, literal(-6)))
          CFI (cfiCond284) ?RET_LOW load(1, XDATA, add(CFA_XSP16, literal(-5)))
          CFI (cfiCond284) ?RET_HIGH load(1, XDATA, add(CFA_XSP16, literal(-4)))
          CFI (cfiCond284) ?BRET_EXT load(1, XDATA, add(CFA_XSP16, literal(-3)))
          CFI (cfiCond284) DPL0 load(1, XDATA, add(CFA_XSP16, literal(-2)))
          CFI (cfiCond284) DPH0 load(1, XDATA, add(CFA_XSP16, literal(-1)))
          CFI (cfiCond284) CFA_SP SP+-2
          CFI (cfiCond284) CFA_XSP16 add(XSP16, 20)
          CFI Block cfiCond285 Using cfiCommon0
          CFI (cfiCond285) Function ZDP_MgmtNwkDiscRsp
          CFI (cfiCond285) Conditional ??CrossCallReturnLabel_202
          CFI (cfiCond285) R6 load(1, XDATA, add(CFA_XSP16, literal(-22)))
          CFI (cfiCond285) VB load(1, XDATA, add(CFA_XSP16, literal(-21)))
          CFI (cfiCond285) V0 load(1, XDATA, add(CFA_XSP16, literal(-20)))
          CFI (cfiCond285) V1 load(1, XDATA, add(CFA_XSP16, literal(-19)))
          CFI (cfiCond285) V2 load(1, XDATA, add(CFA_XSP16, literal(-18)))
          CFI (cfiCond285) V3 load(1, XDATA, add(CFA_XSP16, literal(-17)))
          CFI (cfiCond285) V4 load(1, XDATA, add(CFA_XSP16, literal(-16)))
          CFI (cfiCond285) V5 load(1, XDATA, add(CFA_XSP16, literal(-15)))
          CFI (cfiCond285) V6 load(1, XDATA, add(CFA_XSP16, literal(-14)))
          CFI (cfiCond285) V7 load(1, XDATA, add(CFA_XSP16, literal(-13)))
          CFI (cfiCond285) V8 load(1, XDATA, add(CFA_XSP16, literal(-12)))
          CFI (cfiCond285) V9 load(1, XDATA, add(CFA_XSP16, literal(-11)))
          CFI (cfiCond285) V10 load(1, XDATA, add(CFA_XSP16, literal(-10)))
          CFI (cfiCond285) V11 load(1, XDATA, add(CFA_XSP16, literal(-9)))
          CFI (cfiCond285) V12 load(1, XDATA, add(CFA_XSP16, literal(-8)))
          CFI (cfiCond285) V13 load(1, XDATA, add(CFA_XSP16, literal(-7)))
          CFI (cfiCond285) R7 load(1, XDATA, add(CFA_XSP16, literal(-6)))
          CFI (cfiCond285) ?RET_LOW load(1, XDATA, add(CFA_XSP16, literal(-5)))
          CFI (cfiCond285) ?RET_HIGH load(1, XDATA, add(CFA_XSP16, literal(-4)))
          CFI (cfiCond285) ?BRET_EXT load(1, XDATA, add(CFA_XSP16, literal(-3)))
          CFI (cfiCond285) DPL0 load(1, XDATA, add(CFA_XSP16, literal(-2)))
          CFI (cfiCond285) DPH0 load(1, XDATA, add(CFA_XSP16, literal(-1)))
          CFI (cfiCond285) CFA_SP SP+-2
          CFI (cfiCond285) CFA_XSP16 add(XSP16, 23)
          CFI Block cfiCond286 Using cfiCommon0
          CFI (cfiCond286) Function ZDP_MgmtLqiRsp
          CFI (cfiCond286) Conditional ??CrossCallReturnLabel_203
          CFI (cfiCond286) R6 load(1, XDATA, add(CFA_XSP16, literal(-21)))
          CFI (cfiCond286) VB load(1, XDATA, add(CFA_XSP16, literal(-20)))
          CFI (cfiCond286) V0 load(1, XDATA, add(CFA_XSP16, literal(-19)))
          CFI (cfiCond286) V1 load(1, XDATA, add(CFA_XSP16, literal(-18)))
          CFI (cfiCond286) V2 load(1, XDATA, add(CFA_XSP16, literal(-17)))
          CFI (cfiCond286) V3 load(1, XDATA, add(CFA_XSP16, literal(-16)))
          CFI (cfiCond286) V4 load(1, XDATA, add(CFA_XSP16, literal(-15)))
          CFI (cfiCond286) V5 load(1, XDATA, add(CFA_XSP16, literal(-14)))
          CFI (cfiCond286) V6 load(1, XDATA, add(CFA_XSP16, literal(-13)))
          CFI (cfiCond286) V7 load(1, XDATA, add(CFA_XSP16, literal(-12)))
          CFI (cfiCond286) V8 load(1, XDATA, add(CFA_XSP16, literal(-11)))
          CFI (cfiCond286) V9 load(1, XDATA, add(CFA_XSP16, literal(-10)))
          CFI (cfiCond286) V10 load(1, XDATA, add(CFA_XSP16, literal(-9)))
          CFI (cfiCond286) V11 load(1, XDATA, add(CFA_XSP16, literal(-8)))
          CFI (cfiCond286) V12 load(1, XDATA, add(CFA_XSP16, literal(-7)))
          CFI (cfiCond286) R7 load(1, XDATA, add(CFA_XSP16, literal(-6)))
          CFI (cfiCond286) ?RET_LOW load(1, XDATA, add(CFA_XSP16, literal(-5)))
          CFI (cfiCond286) ?RET_HIGH load(1, XDATA, add(CFA_XSP16, literal(-4)))
          CFI (cfiCond286) ?BRET_EXT load(1, XDATA, add(CFA_XSP16, literal(-3)))
          CFI (cfiCond286) DPL0 load(1, XDATA, add(CFA_XSP16, literal(-2)))
          CFI (cfiCond286) DPH0 load(1, XDATA, add(CFA_XSP16, literal(-1)))
          CFI (cfiCond286) CFA_SP SP+-2
          CFI (cfiCond286) CFA_XSP16 add(XSP16, 22)
          CFI Block cfiCond287 Using cfiCommon0
          CFI (cfiCond287) Function ZDP_SimpleDescMsg
          CFI (cfiCond287) Conditional ??CrossCallReturnLabel_204
          CFI (cfiCond287) R6 load(1, XDATA, add(CFA_XSP16, literal(-20)))
          CFI (cfiCond287) VB load(1, XDATA, add(CFA_XSP16, literal(-19)))
          CFI (cfiCond287) V0 load(1, XDATA, add(CFA_XSP16, literal(-18)))
          CFI (cfiCond287) V1 load(1, XDATA, add(CFA_XSP16, literal(-17)))
          CFI (cfiCond287) V2 load(1, XDATA, add(CFA_XSP16, literal(-16)))
          CFI (cfiCond287) V3 load(1, XDATA, add(CFA_XSP16, literal(-15)))
          CFI (cfiCond287) V4 load(1, XDATA, add(CFA_XSP16, literal(-14)))
          CFI (cfiCond287) V5 load(1, XDATA, add(CFA_XSP16, literal(-13)))
          CFI (cfiCond287) V6 load(1, XDATA, add(CFA_XSP16, literal(-12)))
          CFI (cfiCond287) V7 load(1, XDATA, add(CFA_XSP16, literal(-11)))
          CFI (cfiCond287) V8 load(1, XDATA, add(CFA_XSP16, literal(-10)))
          CFI (cfiCond287) V9 load(1, XDATA, add(CFA_XSP16, literal(-9)))
          CFI (cfiCond287) V10 load(1, XDATA, add(CFA_XSP16, literal(-8)))
          CFI (cfiCond287) V11 load(1, XDATA, add(CFA_XSP16, literal(-7)))
          CFI (cfiCond287) R7 load(1, XDATA, add(CFA_XSP16, literal(-6)))
          CFI (cfiCond287) ?RET_LOW load(1, XDATA, add(CFA_XSP16, literal(-5)))
          CFI (cfiCond287) ?RET_HIGH load(1, XDATA, add(CFA_XSP16, literal(-4)))
          CFI (cfiCond287) ?BRET_EXT load(1, XDATA, add(CFA_XSP16, literal(-3)))
          CFI (cfiCond287) DPL0 load(1, XDATA, add(CFA_XSP16, literal(-2)))
          CFI (cfiCond287) DPH0 load(1, XDATA, add(CFA_XSP16, literal(-1)))
          CFI (cfiCond287) CFA_SP SP+-2
          CFI (cfiCond287) CFA_XSP16 add(XSP16, 20)
          CFI Block cfiCond288 Using cfiCommon0
          CFI (cfiCond288) Function ZDP_SimpleDescMsg
          CFI (cfiCond288) Conditional ??CrossCallReturnLabel_205
          CFI (cfiCond288) R6 load(1, XDATA, add(CFA_XSP16, literal(-20)))
          CFI (cfiCond288) VB load(1, XDATA, add(CFA_XSP16, literal(-19)))
          CFI (cfiCond288) V0 load(1, XDATA, add(CFA_XSP16, literal(-18)))
          CFI (cfiCond288) V1 load(1, XDATA, add(CFA_XSP16, literal(-17)))
          CFI (cfiCond288) V2 load(1, XDATA, add(CFA_XSP16, literal(-16)))
          CFI (cfiCond288) V3 load(1, XDATA, add(CFA_XSP16, literal(-15)))
          CFI (cfiCond288) V4 load(1, XDATA, add(CFA_XSP16, literal(-14)))
          CFI (cfiCond288) V5 load(1, XDATA, add(CFA_XSP16, literal(-13)))
          CFI (cfiCond288) V6 load(1, XDATA, add(CFA_XSP16, literal(-12)))
          CFI (cfiCond288) V7 load(1, XDATA, add(CFA_XSP16, literal(-11)))
          CFI (cfiCond288) V8 load(1, XDATA, add(CFA_XSP16, literal(-10)))
          CFI (cfiCond288) V9 load(1, XDATA, add(CFA_XSP16, literal(-9)))
          CFI (cfiCond288) V10 load(1, XDATA, add(CFA_XSP16, literal(-8)))
          CFI (cfiCond288) V11 load(1, XDATA, add(CFA_XSP16, literal(-7)))
          CFI (cfiCond288) R7 load(1, XDATA, add(CFA_XSP16, literal(-6)))
          CFI (cfiCond288) ?RET_LOW load(1, XDATA, add(CFA_XSP16, literal(-5)))
          CFI (cfiCond288) ?RET_HIGH load(1, XDATA, add(CFA_XSP16, literal(-4)))
          CFI (cfiCond288) ?BRET_EXT load(1, XDATA, add(CFA_XSP16, literal(-3)))
          CFI (cfiCond288) DPL0 load(1, XDATA, add(CFA_XSP16, literal(-2)))
          CFI (cfiCond288) DPH0 load(1, XDATA, add(CFA_XSP16, literal(-1)))
          CFI (cfiCond288) CFA_SP SP+-2
          CFI (cfiCond288) CFA_XSP16 add(XSP16, 20)
          CFI Block cfiPicker289 Using cfiCommon1
          CFI (cfiPicker289) NoFunction
          CFI (cfiPicker289) Picker
        LCALL     ??Subroutine110_0 & 0xFFFF
??CrossCallReturnLabel_210:
        RET
          CFI EndBlock cfiCond283
          CFI EndBlock cfiCond284
          CFI EndBlock cfiCond285
          CFI EndBlock cfiCond286
          CFI EndBlock cfiCond287
          CFI EndBlock cfiCond288
          CFI EndBlock cfiPicker289

        RSEG BANKED_CODE:HUGECODE:NOROOT(0)
?Subroutine74:
          CFI Block cfiCond290 Using cfiCommon0
          CFI Function ZDP_MatchDescReq
          CFI Conditional ??CrossCallReturnLabel_208, ??CrossCallReturnLabel_2
          CFI R6 load(1, XDATA, add(CFA_XSP16, literal(-14)))
          CFI VB load(1, XDATA, add(CFA_XSP16, literal(-13)))
          CFI V0 load(1, XDATA, add(CFA_XSP16, literal(-12)))
          CFI V1 load(1, XDATA, add(CFA_XSP16, literal(-11)))
          CFI V2 load(1, XDATA, add(CFA_XSP16, literal(-10)))
          CFI V3 load(1, XDATA, add(CFA_XSP16, literal(-9)))
          CFI V4 load(1, XDATA, add(CFA_XSP16, literal(-8)))
          CFI V5 load(1, XDATA, add(CFA_XSP16, literal(-7)))
          CFI R7 load(1, XDATA, add(CFA_XSP16, literal(-6)))
          CFI ?RET_LOW load(1, XDATA, add(CFA_XSP16, literal(-5)))
          CFI ?RET_HIGH load(1, XDATA, add(CFA_XSP16, literal(-4)))
          CFI ?BRET_EXT load(1, XDATA, add(CFA_XSP16, literal(-3)))
          CFI DPL0 load(1, XDATA, add(CFA_XSP16, literal(-2)))
          CFI DPH0 load(1, XDATA, add(CFA_XSP16, literal(-1)))
          CFI CFA_SP SP+-4
          CFI CFA_XSP16 add(XSP16, 14)
          CFI Block cfiCond291 Using cfiCommon0
          CFI (cfiCond291) Function ZDP_MatchDescReq
          CFI (cfiCond291) Conditional ??CrossCallReturnLabel_208, ??CrossCallReturnLabel_3
          CFI (cfiCond291) R6 load(1, XDATA, add(CFA_XSP16, literal(-14)))
          CFI (cfiCond291) VB load(1, XDATA, add(CFA_XSP16, literal(-13)))
          CFI (cfiCond291) V0 load(1, XDATA, add(CFA_XSP16, literal(-12)))
          CFI (cfiCond291) V1 load(1, XDATA, add(CFA_XSP16, literal(-11)))
          CFI (cfiCond291) V2 load(1, XDATA, add(CFA_XSP16, literal(-10)))
          CFI (cfiCond291) V3 load(1, XDATA, add(CFA_XSP16, literal(-9)))
          CFI (cfiCond291) V4 load(1, XDATA, add(CFA_XSP16, literal(-8)))
          CFI (cfiCond291) V5 load(1, XDATA, add(CFA_XSP16, literal(-7)))
          CFI (cfiCond291) R7 load(1, XDATA, add(CFA_XSP16, literal(-6)))
          CFI (cfiCond291) ?RET_LOW load(1, XDATA, add(CFA_XSP16, literal(-5)))
          CFI (cfiCond291) ?RET_HIGH load(1, XDATA, add(CFA_XSP16, literal(-4)))
          CFI (cfiCond291) ?BRET_EXT load(1, XDATA, add(CFA_XSP16, literal(-3)))
          CFI (cfiCond291) DPL0 load(1, XDATA, add(CFA_XSP16, literal(-2)))
          CFI (cfiCond291) DPH0 load(1, XDATA, add(CFA_XSP16, literal(-1)))
          CFI (cfiCond291) CFA_SP SP+-4
          CFI (cfiCond291) CFA_XSP16 add(XSP16, 14)
          CFI Block cfiCond292 Using cfiCommon0
          CFI (cfiCond292) Function ZDP_MgmtLqiRsp
          CFI (cfiCond292) Conditional ??CrossCallReturnLabel_209, ??CrossCallReturnLabel_104
          CFI (cfiCond292) R6 load(1, XDATA, add(CFA_XSP16, literal(-21)))
          CFI (cfiCond292) VB load(1, XDATA, add(CFA_XSP16, literal(-20)))
          CFI (cfiCond292) V0 load(1, XDATA, add(CFA_XSP16, literal(-19)))
          CFI (cfiCond292) V1 load(1, XDATA, add(CFA_XSP16, literal(-18)))
          CFI (cfiCond292) V2 load(1, XDATA, add(CFA_XSP16, literal(-17)))
          CFI (cfiCond292) V3 load(1, XDATA, add(CFA_XSP16, literal(-16)))
          CFI (cfiCond292) V4 load(1, XDATA, add(CFA_XSP16, literal(-15)))
          CFI (cfiCond292) V5 load(1, XDATA, add(CFA_XSP16, literal(-14)))
          CFI (cfiCond292) V6 load(1, XDATA, add(CFA_XSP16, literal(-13)))
          CFI (cfiCond292) V7 load(1, XDATA, add(CFA_XSP16, literal(-12)))
          CFI (cfiCond292) V8 load(1, XDATA, add(CFA_XSP16, literal(-11)))
          CFI (cfiCond292) V9 load(1, XDATA, add(CFA_XSP16, literal(-10)))
          CFI (cfiCond292) V10 load(1, XDATA, add(CFA_XSP16, literal(-9)))
          CFI (cfiCond292) V11 load(1, XDATA, add(CFA_XSP16, literal(-8)))
          CFI (cfiCond292) V12 load(1, XDATA, add(CFA_XSP16, literal(-7)))
          CFI (cfiCond292) R7 load(1, XDATA, add(CFA_XSP16, literal(-6)))
          CFI (cfiCond292) ?RET_LOW load(1, XDATA, add(CFA_XSP16, literal(-5)))
          CFI (cfiCond292) ?RET_HIGH load(1, XDATA, add(CFA_XSP16, literal(-4)))
          CFI (cfiCond292) ?BRET_EXT load(1, XDATA, add(CFA_XSP16, literal(-3)))
          CFI (cfiCond292) DPL0 load(1, XDATA, add(CFA_XSP16, literal(-2)))
          CFI (cfiCond292) DPH0 load(1, XDATA, add(CFA_XSP16, literal(-1)))
          CFI (cfiCond292) CFA_SP SP+-4
          CFI (cfiCond292) CFA_XSP16 add(XSP16, 22)
          CFI Block cfiCond293 Using cfiCommon0
          CFI (cfiCond293) Function ZDP_MgmtLqiRsp
          CFI (cfiCond293) Conditional ??CrossCallReturnLabel_209, ??CrossCallReturnLabel_105
          CFI (cfiCond293) R6 load(1, XDATA, add(CFA_XSP16, literal(-21)))
          CFI (cfiCond293) VB load(1, XDATA, add(CFA_XSP16, literal(-20)))
          CFI (cfiCond293) V0 load(1, XDATA, add(CFA_XSP16, literal(-19)))
          CFI (cfiCond293) V1 load(1, XDATA, add(CFA_XSP16, literal(-18)))
          CFI (cfiCond293) V2 load(1, XDATA, add(CFA_XSP16, literal(-17)))
          CFI (cfiCond293) V3 load(1, XDATA, add(CFA_XSP16, literal(-16)))
          CFI (cfiCond293) V4 load(1, XDATA, add(CFA_XSP16, literal(-15)))
          CFI (cfiCond293) V5 load(1, XDATA, add(CFA_XSP16, literal(-14)))
          CFI (cfiCond293) V6 load(1, XDATA, add(CFA_XSP16, literal(-13)))
          CFI (cfiCond293) V7 load(1, XDATA, add(CFA_XSP16, literal(-12)))
          CFI (cfiCond293) V8 load(1, XDATA, add(CFA_XSP16, literal(-11)))
          CFI (cfiCond293) V9 load(1, XDATA, add(CFA_XSP16, literal(-10)))
          CFI (cfiCond293) V10 load(1, XDATA, add(CFA_XSP16, literal(-9)))
          CFI (cfiCond293) V11 load(1, XDATA, add(CFA_XSP16, literal(-8)))
          CFI (cfiCond293) V12 load(1, XDATA, add(CFA_XSP16, literal(-7)))
          CFI (cfiCond293) R7 load(1, XDATA, add(CFA_XSP16, literal(-6)))
          CFI (cfiCond293) ?RET_LOW load(1, XDATA, add(CFA_XSP16, literal(-5)))
          CFI (cfiCond293) ?RET_HIGH load(1, XDATA, add(CFA_XSP16, literal(-4)))
          CFI (cfiCond293) ?BRET_EXT load(1, XDATA, add(CFA_XSP16, literal(-3)))
          CFI (cfiCond293) DPL0 load(1, XDATA, add(CFA_XSP16, literal(-2)))
          CFI (cfiCond293) DPH0 load(1, XDATA, add(CFA_XSP16, literal(-1)))
          CFI (cfiCond293) CFA_SP SP+-4
          CFI (cfiCond293) CFA_XSP16 add(XSP16, 22)
          CFI Block cfiPicker294 Using cfiCommon1
          CFI (cfiPicker294) NoFunction
          CFI (cfiPicker294) Picker
        MOV       DPH,A
          CFI EndBlock cfiCond290
          CFI EndBlock cfiCond291
          CFI EndBlock cfiCond292
          CFI EndBlock cfiCond293
          CFI EndBlock cfiPicker294
        REQUIRE ??Subroutine110_0
        ; // Fall through to label ??Subroutine110_0

        RSEG BANKED_CODE:HUGECODE:NOROOT(0)
??Subroutine110_0:
          CFI Block cfiCond295 Using cfiCommon0
          CFI Function ZDP_SimpleDescMsg
          CFI Conditional ??CrossCallReturnLabel_207, ??CrossCallReturnLabel_106
          CFI R6 load(1, XDATA, add(CFA_XSP16, literal(-20)))
          CFI VB load(1, XDATA, add(CFA_XSP16, literal(-19)))
          CFI V0 load(1, XDATA, add(CFA_XSP16, literal(-18)))
          CFI V1 load(1, XDATA, add(CFA_XSP16, literal(-17)))
          CFI V2 load(1, XDATA, add(CFA_XSP16, literal(-16)))
          CFI V3 load(1, XDATA, add(CFA_XSP16, literal(-15)))
          CFI V4 load(1, XDATA, add(CFA_XSP16, literal(-14)))
          CFI V5 load(1, XDATA, add(CFA_XSP16, literal(-13)))
          CFI V6 load(1, XDATA, add(CFA_XSP16, literal(-12)))
          CFI V7 load(1, XDATA, add(CFA_XSP16, literal(-11)))
          CFI V8 load(1, XDATA, add(CFA_XSP16, literal(-10)))
          CFI V9 load(1, XDATA, add(CFA_XSP16, literal(-9)))
          CFI V10 load(1, XDATA, add(CFA_XSP16, literal(-8)))
          CFI V11 load(1, XDATA, add(CFA_XSP16, literal(-7)))
          CFI R7 load(1, XDATA, add(CFA_XSP16, literal(-6)))
          CFI ?RET_LOW load(1, XDATA, add(CFA_XSP16, literal(-5)))
          CFI ?RET_HIGH load(1, XDATA, add(CFA_XSP16, literal(-4)))
          CFI ?BRET_EXT load(1, XDATA, add(CFA_XSP16, literal(-3)))
          CFI DPL0 load(1, XDATA, add(CFA_XSP16, literal(-2)))
          CFI DPH0 load(1, XDATA, add(CFA_XSP16, literal(-1)))
          CFI CFA_SP SP+-4
          CFI CFA_XSP16 add(XSP16, 20)
          CFI Block cfiCond296 Using cfiCommon0
          CFI (cfiCond296) Function ZDP_SimpleDescMsg
          CFI (cfiCond296) Conditional ??CrossCallReturnLabel_207, ??CrossCallReturnLabel_107
          CFI (cfiCond296) R6 load(1, XDATA, add(CFA_XSP16, literal(-20)))
          CFI (cfiCond296) VB load(1, XDATA, add(CFA_XSP16, literal(-19)))
          CFI (cfiCond296) V0 load(1, XDATA, add(CFA_XSP16, literal(-18)))
          CFI (cfiCond296) V1 load(1, XDATA, add(CFA_XSP16, literal(-17)))
          CFI (cfiCond296) V2 load(1, XDATA, add(CFA_XSP16, literal(-16)))
          CFI (cfiCond296) V3 load(1, XDATA, add(CFA_XSP16, literal(-15)))
          CFI (cfiCond296) V4 load(1, XDATA, add(CFA_XSP16, literal(-14)))
          CFI (cfiCond296) V5 load(1, XDATA, add(CFA_XSP16, literal(-13)))
          CFI (cfiCond296) V6 load(1, XDATA, add(CFA_XSP16, literal(-12)))
          CFI (cfiCond296) V7 load(1, XDATA, add(CFA_XSP16, literal(-11)))
          CFI (cfiCond296) V8 load(1, XDATA, add(CFA_XSP16, literal(-10)))
          CFI (cfiCond296) V9 load(1, XDATA, add(CFA_XSP16, literal(-9)))
          CFI (cfiCond296) V10 load(1, XDATA, add(CFA_XSP16, literal(-8)))
          CFI (cfiCond296) V11 load(1, XDATA, add(CFA_XSP16, literal(-7)))
          CFI (cfiCond296) R7 load(1, XDATA, add(CFA_XSP16, literal(-6)))
          CFI (cfiCond296) ?RET_LOW load(1, XDATA, add(CFA_XSP16, literal(-5)))
          CFI (cfiCond296) ?RET_HIGH load(1, XDATA, add(CFA_XSP16, literal(-4)))
          CFI (cfiCond296) ?BRET_EXT load(1, XDATA, add(CFA_XSP16, literal(-3)))
          CFI (cfiCond296) DPL0 load(1, XDATA, add(CFA_XSP16, literal(-2)))
          CFI (cfiCond296) DPH0 load(1, XDATA, add(CFA_XSP16, literal(-1)))
          CFI (cfiCond296) CFA_SP SP+-4
          CFI (cfiCond296) CFA_XSP16 add(XSP16, 20)
          CFI Block cfiCond297 Using cfiCommon0
          CFI (cfiCond297) Function ZDP_SimpleDescMsg
          CFI (cfiCond297) Conditional ??CrossCallReturnLabel_207, ??CrossCallReturnLabel_108
          CFI (cfiCond297) R6 load(1, XDATA, add(CFA_XSP16, literal(-20)))
          CFI (cfiCond297) VB load(1, XDATA, add(CFA_XSP16, literal(-19)))
          CFI (cfiCond297) V0 load(1, XDATA, add(CFA_XSP16, literal(-18)))
          CFI (cfiCond297) V1 load(1, XDATA, add(CFA_XSP16, literal(-17)))
          CFI (cfiCond297) V2 load(1, XDATA, add(CFA_XSP16, literal(-16)))
          CFI (cfiCond297) V3 load(1, XDATA, add(CFA_XSP16, literal(-15)))
          CFI (cfiCond297) V4 load(1, XDATA, add(CFA_XSP16, literal(-14)))
          CFI (cfiCond297) V5 load(1, XDATA, add(CFA_XSP16, literal(-13)))
          CFI (cfiCond297) V6 load(1, XDATA, add(CFA_XSP16, literal(-12)))
          CFI (cfiCond297) V7 load(1, XDATA, add(CFA_XSP16, literal(-11)))
          CFI (cfiCond297) V8 load(1, XDATA, add(CFA_XSP16, literal(-10)))
          CFI (cfiCond297) V9 load(1, XDATA, add(CFA_XSP16, literal(-9)))
          CFI (cfiCond297) V10 load(1, XDATA, add(CFA_XSP16, literal(-8)))
          CFI (cfiCond297) V11 load(1, XDATA, add(CFA_XSP16, literal(-7)))
          CFI (cfiCond297) R7 load(1, XDATA, add(CFA_XSP16, literal(-6)))
          CFI (cfiCond297) ?RET_LOW load(1, XDATA, add(CFA_XSP16, literal(-5)))
          CFI (cfiCond297) ?RET_HIGH load(1, XDATA, add(CFA_XSP16, literal(-4)))
          CFI (cfiCond297) ?BRET_EXT load(1, XDATA, add(CFA_XSP16, literal(-3)))
          CFI (cfiCond297) DPL0 load(1, XDATA, add(CFA_XSP16, literal(-2)))
          CFI (cfiCond297) DPH0 load(1, XDATA, add(CFA_XSP16, literal(-1)))
          CFI (cfiCond297) CFA_SP SP+-4
          CFI (cfiCond297) CFA_XSP16 add(XSP16, 20)
          CFI Block cfiCond298 Using cfiCommon0
          CFI (cfiCond298) Function ZDP_SimpleDescMsg
          CFI (cfiCond298) Conditional ??CrossCallReturnLabel_206, ??CrossCallReturnLabel_98
          CFI (cfiCond298) R6 load(1, XDATA, add(CFA_XSP16, literal(-20)))
          CFI (cfiCond298) VB load(1, XDATA, add(CFA_XSP16, literal(-19)))
          CFI (cfiCond298) V0 load(1, XDATA, add(CFA_XSP16, literal(-18)))
          CFI (cfiCond298) V1 load(1, XDATA, add(CFA_XSP16, literal(-17)))
          CFI (cfiCond298) V2 load(1, XDATA, add(CFA_XSP16, literal(-16)))
          CFI (cfiCond298) V3 load(1, XDATA, add(CFA_XSP16, literal(-15)))
          CFI (cfiCond298) V4 load(1, XDATA, add(CFA_XSP16, literal(-14)))
          CFI (cfiCond298) V5 load(1, XDATA, add(CFA_XSP16, literal(-13)))
          CFI (cfiCond298) V6 load(1, XDATA, add(CFA_XSP16, literal(-12)))
          CFI (cfiCond298) V7 load(1, XDATA, add(CFA_XSP16, literal(-11)))
          CFI (cfiCond298) V8 load(1, XDATA, add(CFA_XSP16, literal(-10)))
          CFI (cfiCond298) V9 load(1, XDATA, add(CFA_XSP16, literal(-9)))
          CFI (cfiCond298) V10 load(1, XDATA, add(CFA_XSP16, literal(-8)))
          CFI (cfiCond298) V11 load(1, XDATA, add(CFA_XSP16, literal(-7)))
          CFI (cfiCond298) R7 load(1, XDATA, add(CFA_XSP16, literal(-6)))
          CFI (cfiCond298) ?RET_LOW load(1, XDATA, add(CFA_XSP16, literal(-5)))
          CFI (cfiCond298) ?RET_HIGH load(1, XDATA, add(CFA_XSP16, literal(-4)))
          CFI (cfiCond298) ?BRET_EXT load(1, XDATA, add(CFA_XSP16, literal(-3)))
          CFI (cfiCond298) DPL0 load(1, XDATA, add(CFA_XSP16, literal(-2)))
          CFI (cfiCond298) DPH0 load(1, XDATA, add(CFA_XSP16, literal(-1)))
          CFI (cfiCond298) CFA_SP SP+-4
          CFI (cfiCond298) CFA_XSP16 add(XSP16, 20)
          CFI Block cfiCond299 Using cfiCommon0
          CFI (cfiCond299) Function ZDP_EndDeviceBindReq
          CFI (cfiCond299) Conditional ??CrossCallReturnLabel_206, ??CrossCallReturnLabel_99
          CFI (cfiCond299) R6 load(1, XDATA, add(CFA_XSP16, literal(-18)))
          CFI (cfiCond299) VB load(1, XDATA, add(CFA_XSP16, literal(-17)))
          CFI (cfiCond299) V0 load(1, XDATA, add(CFA_XSP16, literal(-16)))
          CFI (cfiCond299) V1 load(1, XDATA, add(CFA_XSP16, literal(-15)))
          CFI (cfiCond299) V2 load(1, XDATA, add(CFA_XSP16, literal(-14)))
          CFI (cfiCond299) V3 load(1, XDATA, add(CFA_XSP16, literal(-13)))
          CFI (cfiCond299) V4 load(1, XDATA, add(CFA_XSP16, literal(-12)))
          CFI (cfiCond299) V5 load(1, XDATA, add(CFA_XSP16, literal(-11)))
          CFI (cfiCond299) V6 load(1, XDATA, add(CFA_XSP16, literal(-10)))
          CFI (cfiCond299) V7 load(1, XDATA, add(CFA_XSP16, literal(-9)))
          CFI (cfiCond299) V8 load(1, XDATA, add(CFA_XSP16, literal(-8)))
          CFI (cfiCond299) V9 load(1, XDATA, add(CFA_XSP16, literal(-7)))
          CFI (cfiCond299) R7 load(1, XDATA, add(CFA_XSP16, literal(-6)))
          CFI (cfiCond299) ?RET_LOW load(1, XDATA, add(CFA_XSP16, literal(-5)))
          CFI (cfiCond299) ?RET_HIGH load(1, XDATA, add(CFA_XSP16, literal(-4)))
          CFI (cfiCond299) ?BRET_EXT load(1, XDATA, add(CFA_XSP16, literal(-3)))
          CFI (cfiCond299) DPL0 load(1, XDATA, add(CFA_XSP16, literal(-2)))
          CFI (cfiCond299) DPH0 load(1, XDATA, add(CFA_XSP16, literal(-1)))
          CFI (cfiCond299) CFA_SP SP+-4
          CFI (cfiCond299) CFA_XSP16 add(XSP16, 18)
          CFI Block cfiCond300 Using cfiCommon0
          CFI (cfiCond300) Function ZDP_MgmtLqiRsp
          CFI (cfiCond300) Conditional ??CrossCallReturnLabel_206, ??CrossCallReturnLabel_100
          CFI (cfiCond300) R6 load(1, XDATA, add(CFA_XSP16, literal(-21)))
          CFI (cfiCond300) VB load(1, XDATA, add(CFA_XSP16, literal(-20)))
          CFI (cfiCond300) V0 load(1, XDATA, add(CFA_XSP16, literal(-19)))
          CFI (cfiCond300) V1 load(1, XDATA, add(CFA_XSP16, literal(-18)))
          CFI (cfiCond300) V2 load(1, XDATA, add(CFA_XSP16, literal(-17)))
          CFI (cfiCond300) V3 load(1, XDATA, add(CFA_XSP16, literal(-16)))
          CFI (cfiCond300) V4 load(1, XDATA, add(CFA_XSP16, literal(-15)))
          CFI (cfiCond300) V5 load(1, XDATA, add(CFA_XSP16, literal(-14)))
          CFI (cfiCond300) V6 load(1, XDATA, add(CFA_XSP16, literal(-13)))
          CFI (cfiCond300) V7 load(1, XDATA, add(CFA_XSP16, literal(-12)))
          CFI (cfiCond300) V8 load(1, XDATA, add(CFA_XSP16, literal(-11)))
          CFI (cfiCond300) V9 load(1, XDATA, add(CFA_XSP16, literal(-10)))
          CFI (cfiCond300) V10 load(1, XDATA, add(CFA_XSP16, literal(-9)))
          CFI (cfiCond300) V11 load(1, XDATA, add(CFA_XSP16, literal(-8)))
          CFI (cfiCond300) V12 load(1, XDATA, add(CFA_XSP16, literal(-7)))
          CFI (cfiCond300) R7 load(1, XDATA, add(CFA_XSP16, literal(-6)))
          CFI (cfiCond300) ?RET_LOW load(1, XDATA, add(CFA_XSP16, literal(-5)))
          CFI (cfiCond300) ?RET_HIGH load(1, XDATA, add(CFA_XSP16, literal(-4)))
          CFI (cfiCond300) ?BRET_EXT load(1, XDATA, add(CFA_XSP16, literal(-3)))
          CFI (cfiCond300) DPL0 load(1, XDATA, add(CFA_XSP16, literal(-2)))
          CFI (cfiCond300) DPH0 load(1, XDATA, add(CFA_XSP16, literal(-1)))
          CFI (cfiCond300) CFA_SP SP+-4
          CFI (cfiCond300) CFA_XSP16 add(XSP16, 22)
          CFI Block cfiCond301 Using cfiCommon0
          CFI (cfiCond301) Function ZDP_SimpleDescMsg
          CFI (cfiCond301) Conditional ??CrossCallReturnLabel_210, ??CrossCallReturnLabel_204
          CFI (cfiCond301) R6 load(1, XDATA, add(CFA_XSP16, literal(-20)))
          CFI (cfiCond301) VB load(1, XDATA, add(CFA_XSP16, literal(-19)))
          CFI (cfiCond301) V0 load(1, XDATA, add(CFA_XSP16, literal(-18)))
          CFI (cfiCond301) V1 load(1, XDATA, add(CFA_XSP16, literal(-17)))
          CFI (cfiCond301) V2 load(1, XDATA, add(CFA_XSP16, literal(-16)))
          CFI (cfiCond301) V3 load(1, XDATA, add(CFA_XSP16, literal(-15)))
          CFI (cfiCond301) V4 load(1, XDATA, add(CFA_XSP16, literal(-14)))
          CFI (cfiCond301) V5 load(1, XDATA, add(CFA_XSP16, literal(-13)))
          CFI (cfiCond301) V6 load(1, XDATA, add(CFA_XSP16, literal(-12)))
          CFI (cfiCond301) V7 load(1, XDATA, add(CFA_XSP16, literal(-11)))
          CFI (cfiCond301) V8 load(1, XDATA, add(CFA_XSP16, literal(-10)))
          CFI (cfiCond301) V9 load(1, XDATA, add(CFA_XSP16, literal(-9)))
          CFI (cfiCond301) V10 load(1, XDATA, add(CFA_XSP16, literal(-8)))
          CFI (cfiCond301) V11 load(1, XDATA, add(CFA_XSP16, literal(-7)))
          CFI (cfiCond301) R7 load(1, XDATA, add(CFA_XSP16, literal(-6)))
          CFI (cfiCond301) ?RET_LOW load(1, XDATA, add(CFA_XSP16, literal(-5)))
          CFI (cfiCond301) ?RET_HIGH load(1, XDATA, add(CFA_XSP16, literal(-4)))
          CFI (cfiCond301) ?BRET_EXT load(1, XDATA, add(CFA_XSP16, literal(-3)))
          CFI (cfiCond301) DPL0 load(1, XDATA, add(CFA_XSP16, literal(-2)))
          CFI (cfiCond301) DPH0 load(1, XDATA, add(CFA_XSP16, literal(-1)))
          CFI (cfiCond301) CFA_SP SP+-4
          CFI (cfiCond301) CFA_XSP16 add(XSP16, 20)
          CFI Block cfiCond302 Using cfiCommon0
          CFI (cfiCond302) Function ZDP_SimpleDescMsg
          CFI (cfiCond302) Conditional ??CrossCallReturnLabel_210, ??CrossCallReturnLabel_205
          CFI (cfiCond302) R6 load(1, XDATA, add(CFA_XSP16, literal(-20)))
          CFI (cfiCond302) VB load(1, XDATA, add(CFA_XSP16, literal(-19)))
          CFI (cfiCond302) V0 load(1, XDATA, add(CFA_XSP16, literal(-18)))
          CFI (cfiCond302) V1 load(1, XDATA, add(CFA_XSP16, literal(-17)))
          CFI (cfiCond302) V2 load(1, XDATA, add(CFA_XSP16, literal(-16)))
          CFI (cfiCond302) V3 load(1, XDATA, add(CFA_XSP16, literal(-15)))
          CFI (cfiCond302) V4 load(1, XDATA, add(CFA_XSP16, literal(-14)))
          CFI (cfiCond302) V5 load(1, XDATA, add(CFA_XSP16, literal(-13)))
          CFI (cfiCond302) V6 load(1, XDATA, add(CFA_XSP16, literal(-12)))
          CFI (cfiCond302) V7 load(1, XDATA, add(CFA_XSP16, literal(-11)))
          CFI (cfiCond302) V8 load(1, XDATA, add(CFA_XSP16, literal(-10)))
          CFI (cfiCond302) V9 load(1, XDATA, add(CFA_XSP16, literal(-9)))
          CFI (cfiCond302) V10 load(1, XDATA, add(CFA_XSP16, literal(-8)))
          CFI (cfiCond302) V11 load(1, XDATA, add(CFA_XSP16, literal(-7)))
          CFI (cfiCond302) R7 load(1, XDATA, add(CFA_XSP16, literal(-6)))
          CFI (cfiCond302) ?RET_LOW load(1, XDATA, add(CFA_XSP16, literal(-5)))
          CFI (cfiCond302) ?RET_HIGH load(1, XDATA, add(CFA_XSP16, literal(-4)))
          CFI (cfiCond302) ?BRET_EXT load(1, XDATA, add(CFA_XSP16, literal(-3)))
          CFI (cfiCond302) DPL0 load(1, XDATA, add(CFA_XSP16, literal(-2)))
          CFI (cfiCond302) DPH0 load(1, XDATA, add(CFA_XSP16, literal(-1)))
          CFI (cfiCond302) CFA_SP SP+-4
          CFI (cfiCond302) CFA_XSP16 add(XSP16, 20)
          CFI Block cfiCond303 Using cfiCommon0
          CFI (cfiCond303) Function ZDP_SimpleDescMsg
          CFI (cfiCond303) Conditional ??CrossCallReturnLabel_210, ??CrossCallReturnLabel_200
          CFI (cfiCond303) R6 load(1, XDATA, add(CFA_XSP16, literal(-20)))
          CFI (cfiCond303) VB load(1, XDATA, add(CFA_XSP16, literal(-19)))
          CFI (cfiCond303) V0 load(1, XDATA, add(CFA_XSP16, literal(-18)))
          CFI (cfiCond303) V1 load(1, XDATA, add(CFA_XSP16, literal(-17)))
          CFI (cfiCond303) V2 load(1, XDATA, add(CFA_XSP16, literal(-16)))
          CFI (cfiCond303) V3 load(1, XDATA, add(CFA_XSP16, literal(-15)))
          CFI (cfiCond303) V4 load(1, XDATA, add(CFA_XSP16, literal(-14)))
          CFI (cfiCond303) V5 load(1, XDATA, add(CFA_XSP16, literal(-13)))
          CFI (cfiCond303) V6 load(1, XDATA, add(CFA_XSP16, literal(-12)))
          CFI (cfiCond303) V7 load(1, XDATA, add(CFA_XSP16, literal(-11)))
          CFI (cfiCond303) V8 load(1, XDATA, add(CFA_XSP16, literal(-10)))
          CFI (cfiCond303) V9 load(1, XDATA, add(CFA_XSP16, literal(-9)))
          CFI (cfiCond303) V10 load(1, XDATA, add(CFA_XSP16, literal(-8)))
          CFI (cfiCond303) V11 load(1, XDATA, add(CFA_XSP16, literal(-7)))
          CFI (cfiCond303) R7 load(1, XDATA, add(CFA_XSP16, literal(-6)))
          CFI (cfiCond303) ?RET_LOW load(1, XDATA, add(CFA_XSP16, literal(-5)))
          CFI (cfiCond303) ?RET_HIGH load(1, XDATA, add(CFA_XSP16, literal(-4)))
          CFI (cfiCond303) ?BRET_EXT load(1, XDATA, add(CFA_XSP16, literal(-3)))
          CFI (cfiCond303) DPL0 load(1, XDATA, add(CFA_XSP16, literal(-2)))
          CFI (cfiCond303) DPH0 load(1, XDATA, add(CFA_XSP16, literal(-1)))
          CFI (cfiCond303) CFA_SP SP+-4
          CFI (cfiCond303) CFA_XSP16 add(XSP16, 20)
          CFI Block cfiCond304 Using cfiCommon0
          CFI (cfiCond304) Function ZDP_SimpleDescMsg
          CFI (cfiCond304) Conditional ??CrossCallReturnLabel_210, ??CrossCallReturnLabel_201
          CFI (cfiCond304) R6 load(1, XDATA, add(CFA_XSP16, literal(-20)))
          CFI (cfiCond304) VB load(1, XDATA, add(CFA_XSP16, literal(-19)))
          CFI (cfiCond304) V0 load(1, XDATA, add(CFA_XSP16, literal(-18)))
          CFI (cfiCond304) V1 load(1, XDATA, add(CFA_XSP16, literal(-17)))
          CFI (cfiCond304) V2 load(1, XDATA, add(CFA_XSP16, literal(-16)))
          CFI (cfiCond304) V3 load(1, XDATA, add(CFA_XSP16, literal(-15)))
          CFI (cfiCond304) V4 load(1, XDATA, add(CFA_XSP16, literal(-14)))
          CFI (cfiCond304) V5 load(1, XDATA, add(CFA_XSP16, literal(-13)))
          CFI (cfiCond304) V6 load(1, XDATA, add(CFA_XSP16, literal(-12)))
          CFI (cfiCond304) V7 load(1, XDATA, add(CFA_XSP16, literal(-11)))
          CFI (cfiCond304) V8 load(1, XDATA, add(CFA_XSP16, literal(-10)))
          CFI (cfiCond304) V9 load(1, XDATA, add(CFA_XSP16, literal(-9)))
          CFI (cfiCond304) V10 load(1, XDATA, add(CFA_XSP16, literal(-8)))
          CFI (cfiCond304) V11 load(1, XDATA, add(CFA_XSP16, literal(-7)))
          CFI (cfiCond304) R7 load(1, XDATA, add(CFA_XSP16, literal(-6)))
          CFI (cfiCond304) ?RET_LOW load(1, XDATA, add(CFA_XSP16, literal(-5)))
          CFI (cfiCond304) ?RET_HIGH load(1, XDATA, add(CFA_XSP16, literal(-4)))
          CFI (cfiCond304) ?BRET_EXT load(1, XDATA, add(CFA_XSP16, literal(-3)))
          CFI (cfiCond304) DPL0 load(1, XDATA, add(CFA_XSP16, literal(-2)))
          CFI (cfiCond304) DPH0 load(1, XDATA, add(CFA_XSP16, literal(-1)))
          CFI (cfiCond304) CFA_SP SP+-4
          CFI (cfiCond304) CFA_XSP16 add(XSP16, 20)
          CFI Block cfiCond305 Using cfiCommon0
          CFI (cfiCond305) Function ZDP_MgmtNwkDiscRsp
          CFI (cfiCond305) Conditional ??CrossCallReturnLabel_210, ??CrossCallReturnLabel_202
          CFI (cfiCond305) R6 load(1, XDATA, add(CFA_XSP16, literal(-22)))
          CFI (cfiCond305) VB load(1, XDATA, add(CFA_XSP16, literal(-21)))
          CFI (cfiCond305) V0 load(1, XDATA, add(CFA_XSP16, literal(-20)))
          CFI (cfiCond305) V1 load(1, XDATA, add(CFA_XSP16, literal(-19)))
          CFI (cfiCond305) V2 load(1, XDATA, add(CFA_XSP16, literal(-18)))
          CFI (cfiCond305) V3 load(1, XDATA, add(CFA_XSP16, literal(-17)))
          CFI (cfiCond305) V4 load(1, XDATA, add(CFA_XSP16, literal(-16)))
          CFI (cfiCond305) V5 load(1, XDATA, add(CFA_XSP16, literal(-15)))
          CFI (cfiCond305) V6 load(1, XDATA, add(CFA_XSP16, literal(-14)))
          CFI (cfiCond305) V7 load(1, XDATA, add(CFA_XSP16, literal(-13)))
          CFI (cfiCond305) V8 load(1, XDATA, add(CFA_XSP16, literal(-12)))
          CFI (cfiCond305) V9 load(1, XDATA, add(CFA_XSP16, literal(-11)))
          CFI (cfiCond305) V10 load(1, XDATA, add(CFA_XSP16, literal(-10)))
          CFI (cfiCond305) V11 load(1, XDATA, add(CFA_XSP16, literal(-9)))
          CFI (cfiCond305) V12 load(1, XDATA, add(CFA_XSP16, literal(-8)))
          CFI (cfiCond305) V13 load(1, XDATA, add(CFA_XSP16, literal(-7)))
          CFI (cfiCond305) R7 load(1, XDATA, add(CFA_XSP16, literal(-6)))
          CFI (cfiCond305) ?RET_LOW load(1, XDATA, add(CFA_XSP16, literal(-5)))
          CFI (cfiCond305) ?RET_HIGH load(1, XDATA, add(CFA_XSP16, literal(-4)))
          CFI (cfiCond305) ?BRET_EXT load(1, XDATA, add(CFA_XSP16, literal(-3)))
          CFI (cfiCond305) DPL0 load(1, XDATA, add(CFA_XSP16, literal(-2)))
          CFI (cfiCond305) DPH0 load(1, XDATA, add(CFA_XSP16, literal(-1)))
          CFI (cfiCond305) CFA_SP SP+-4
          CFI (cfiCond305) CFA_XSP16 add(XSP16, 23)
          CFI Block cfiCond306 Using cfiCommon0
          CFI (cfiCond306) Function ZDP_MgmtLqiRsp
          CFI (cfiCond306) Conditional ??CrossCallReturnLabel_210, ??CrossCallReturnLabel_203
          CFI (cfiCond306) R6 load(1, XDATA, add(CFA_XSP16, literal(-21)))
          CFI (cfiCond306) VB load(1, XDATA, add(CFA_XSP16, literal(-20)))
          CFI (cfiCond306) V0 load(1, XDATA, add(CFA_XSP16, literal(-19)))
          CFI (cfiCond306) V1 load(1, XDATA, add(CFA_XSP16, literal(-18)))
          CFI (cfiCond306) V2 load(1, XDATA, add(CFA_XSP16, literal(-17)))
          CFI (cfiCond306) V3 load(1, XDATA, add(CFA_XSP16, literal(-16)))
          CFI (cfiCond306) V4 load(1, XDATA, add(CFA_XSP16, literal(-15)))
          CFI (cfiCond306) V5 load(1, XDATA, add(CFA_XSP16, literal(-14)))
          CFI (cfiCond306) V6 load(1, XDATA, add(CFA_XSP16, literal(-13)))
          CFI (cfiCond306) V7 load(1, XDATA, add(CFA_XSP16, literal(-12)))
          CFI (cfiCond306) V8 load(1, XDATA, add(CFA_XSP16, literal(-11)))
          CFI (cfiCond306) V9 load(1, XDATA, add(CFA_XSP16, literal(-10)))
          CFI (cfiCond306) V10 load(1, XDATA, add(CFA_XSP16, literal(-9)))
          CFI (cfiCond306) V11 load(1, XDATA, add(CFA_XSP16, literal(-8)))
          CFI (cfiCond306) V12 load(1, XDATA, add(CFA_XSP16, literal(-7)))
          CFI (cfiCond306) R7 load(1, XDATA, add(CFA_XSP16, literal(-6)))
          CFI (cfiCond306) ?RET_LOW load(1, XDATA, add(CFA_XSP16, literal(-5)))
          CFI (cfiCond306) ?RET_HIGH load(1, XDATA, add(CFA_XSP16, literal(-4)))
          CFI (cfiCond306) ?BRET_EXT load(1, XDATA, add(CFA_XSP16, literal(-3)))
          CFI (cfiCond306) DPL0 load(1, XDATA, add(CFA_XSP16, literal(-2)))
          CFI (cfiCond306) DPH0 load(1, XDATA, add(CFA_XSP16, literal(-1)))
          CFI (cfiCond306) CFA_SP SP+-4
          CFI (cfiCond306) CFA_XSP16 add(XSP16, 22)
          CFI Block cfiCond307 Using cfiCommon0
          CFI (cfiCond307) Function ZDP_MatchDescReq
          CFI (cfiCond307) Conditional ??CrossCallReturnLabel_208, ??CrossCallReturnLabel_2
          CFI (cfiCond307) R6 load(1, XDATA, add(CFA_XSP16, literal(-14)))
          CFI (cfiCond307) VB load(1, XDATA, add(CFA_XSP16, literal(-13)))
          CFI (cfiCond307) V0 load(1, XDATA, add(CFA_XSP16, literal(-12)))
          CFI (cfiCond307) V1 load(1, XDATA, add(CFA_XSP16, literal(-11)))
          CFI (cfiCond307) V2 load(1, XDATA, add(CFA_XSP16, literal(-10)))
          CFI (cfiCond307) V3 load(1, XDATA, add(CFA_XSP16, literal(-9)))
          CFI (cfiCond307) V4 load(1, XDATA, add(CFA_XSP16, literal(-8)))
          CFI (cfiCond307) V5 load(1, XDATA, add(CFA_XSP16, literal(-7)))
          CFI (cfiCond307) R7 load(1, XDATA, add(CFA_XSP16, literal(-6)))
          CFI (cfiCond307) ?RET_LOW load(1, XDATA, add(CFA_XSP16, literal(-5)))
          CFI (cfiCond307) ?RET_HIGH load(1, XDATA, add(CFA_XSP16, literal(-4)))
          CFI (cfiCond307) ?BRET_EXT load(1, XDATA, add(CFA_XSP16, literal(-3)))
          CFI (cfiCond307) DPL0 load(1, XDATA, add(CFA_XSP16, literal(-2)))
          CFI (cfiCond307) DPH0 load(1, XDATA, add(CFA_XSP16, literal(-1)))
          CFI (cfiCond307) CFA_SP SP+-4
          CFI (cfiCond307) CFA_XSP16 add(XSP16, 14)
          CFI Block cfiCond308 Using cfiCommon0
          CFI (cfiCond308) Function ZDP_MatchDescReq
          CFI (cfiCond308) Conditional ??CrossCallReturnLabel_208, ??CrossCallReturnLabel_3
          CFI (cfiCond308) R6 load(1, XDATA, add(CFA_XSP16, literal(-14)))
          CFI (cfiCond308) VB load(1, XDATA, add(CFA_XSP16, literal(-13)))
          CFI (cfiCond308) V0 load(1, XDATA, add(CFA_XSP16, literal(-12)))
          CFI (cfiCond308) V1 load(1, XDATA, add(CFA_XSP16, literal(-11)))
          CFI (cfiCond308) V2 load(1, XDATA, add(CFA_XSP16, literal(-10)))
          CFI (cfiCond308) V3 load(1, XDATA, add(CFA_XSP16, literal(-9)))
          CFI (cfiCond308) V4 load(1, XDATA, add(CFA_XSP16, literal(-8)))
          CFI (cfiCond308) V5 load(1, XDATA, add(CFA_XSP16, literal(-7)))
          CFI (cfiCond308) R7 load(1, XDATA, add(CFA_XSP16, literal(-6)))
          CFI (cfiCond308) ?RET_LOW load(1, XDATA, add(CFA_XSP16, literal(-5)))
          CFI (cfiCond308) ?RET_HIGH load(1, XDATA, add(CFA_XSP16, literal(-4)))
          CFI (cfiCond308) ?BRET_EXT load(1, XDATA, add(CFA_XSP16, literal(-3)))
          CFI (cfiCond308) DPL0 load(1, XDATA, add(CFA_XSP16, literal(-2)))
          CFI (cfiCond308) DPH0 load(1, XDATA, add(CFA_XSP16, literal(-1)))
          CFI (cfiCond308) CFA_SP SP+-4
          CFI (cfiCond308) CFA_XSP16 add(XSP16, 14)
          CFI Block cfiCond309 Using cfiCommon0
          CFI (cfiCond309) Function ZDP_MgmtLqiRsp
          CFI (cfiCond309) Conditional ??CrossCallReturnLabel_209, ??CrossCallReturnLabel_104
          CFI (cfiCond309) R6 load(1, XDATA, add(CFA_XSP16, literal(-21)))
          CFI (cfiCond309) VB load(1, XDATA, add(CFA_XSP16, literal(-20)))
          CFI (cfiCond309) V0 load(1, XDATA, add(CFA_XSP16, literal(-19)))
          CFI (cfiCond309) V1 load(1, XDATA, add(CFA_XSP16, literal(-18)))
          CFI (cfiCond309) V2 load(1, XDATA, add(CFA_XSP16, literal(-17)))
          CFI (cfiCond309) V3 load(1, XDATA, add(CFA_XSP16, literal(-16)))
          CFI (cfiCond309) V4 load(1, XDATA, add(CFA_XSP16, literal(-15)))
          CFI (cfiCond309) V5 load(1, XDATA, add(CFA_XSP16, literal(-14)))
          CFI (cfiCond309) V6 load(1, XDATA, add(CFA_XSP16, literal(-13)))
          CFI (cfiCond309) V7 load(1, XDATA, add(CFA_XSP16, literal(-12)))
          CFI (cfiCond309) V8 load(1, XDATA, add(CFA_XSP16, literal(-11)))
          CFI (cfiCond309) V9 load(1, XDATA, add(CFA_XSP16, literal(-10)))
          CFI (cfiCond309) V10 load(1, XDATA, add(CFA_XSP16, literal(-9)))
          CFI (cfiCond309) V11 load(1, XDATA, add(CFA_XSP16, literal(-8)))
          CFI (cfiCond309) V12 load(1, XDATA, add(CFA_XSP16, literal(-7)))
          CFI (cfiCond309) R7 load(1, XDATA, add(CFA_XSP16, literal(-6)))
          CFI (cfiCond309) ?RET_LOW load(1, XDATA, add(CFA_XSP16, literal(-5)))
          CFI (cfiCond309) ?RET_HIGH load(1, XDATA, add(CFA_XSP16, literal(-4)))
          CFI (cfiCond309) ?BRET_EXT load(1, XDATA, add(CFA_XSP16, literal(-3)))
          CFI (cfiCond309) DPL0 load(1, XDATA, add(CFA_XSP16, literal(-2)))
          CFI (cfiCond309) DPH0 load(1, XDATA, add(CFA_XSP16, literal(-1)))
          CFI (cfiCond309) CFA_SP SP+-4
          CFI (cfiCond309) CFA_XSP16 add(XSP16, 22)
          CFI Block cfiCond310 Using cfiCommon0
          CFI (cfiCond310) Function ZDP_MgmtLqiRsp
          CFI (cfiCond310) Conditional ??CrossCallReturnLabel_209, ??CrossCallReturnLabel_105
          CFI (cfiCond310) R6 load(1, XDATA, add(CFA_XSP16, literal(-21)))
          CFI (cfiCond310) VB load(1, XDATA, add(CFA_XSP16, literal(-20)))
          CFI (cfiCond310) V0 load(1, XDATA, add(CFA_XSP16, literal(-19)))
          CFI (cfiCond310) V1 load(1, XDATA, add(CFA_XSP16, literal(-18)))
          CFI (cfiCond310) V2 load(1, XDATA, add(CFA_XSP16, literal(-17)))
          CFI (cfiCond310) V3 load(1, XDATA, add(CFA_XSP16, literal(-16)))
          CFI (cfiCond310) V4 load(1, XDATA, add(CFA_XSP16, literal(-15)))
          CFI (cfiCond310) V5 load(1, XDATA, add(CFA_XSP16, literal(-14)))
          CFI (cfiCond310) V6 load(1, XDATA, add(CFA_XSP16, literal(-13)))
          CFI (cfiCond310) V7 load(1, XDATA, add(CFA_XSP16, literal(-12)))
          CFI (cfiCond310) V8 load(1, XDATA, add(CFA_XSP16, literal(-11)))
          CFI (cfiCond310) V9 load(1, XDATA, add(CFA_XSP16, literal(-10)))
          CFI (cfiCond310) V10 load(1, XDATA, add(CFA_XSP16, literal(-9)))
          CFI (cfiCond310) V11 load(1, XDATA, add(CFA_XSP16, literal(-8)))
          CFI (cfiCond310) V12 load(1, XDATA, add(CFA_XSP16, literal(-7)))
          CFI (cfiCond310) R7 load(1, XDATA, add(CFA_XSP16, literal(-6)))
          CFI (cfiCond310) ?RET_LOW load(1, XDATA, add(CFA_XSP16, literal(-5)))
          CFI (cfiCond310) ?RET_HIGH load(1, XDATA, add(CFA_XSP16, literal(-4)))
          CFI (cfiCond310) ?BRET_EXT load(1, XDATA, add(CFA_XSP16, literal(-3)))
          CFI (cfiCond310) DPL0 load(1, XDATA, add(CFA_XSP16, literal(-2)))
          CFI (cfiCond310) DPH0 load(1, XDATA, add(CFA_XSP16, literal(-1)))
          CFI (cfiCond310) CFA_SP SP+-4
          CFI (cfiCond310) CFA_XSP16 add(XSP16, 22)
          CFI Block cfiPicker311 Using cfiCommon1
          CFI (cfiPicker311) NoFunction
          CFI (cfiPicker311) Picker
        MOVX      A,@DPTR
        MOV       DPL,R0
        MOV       DPH,R1
        RET
          CFI EndBlock cfiCond295
          CFI EndBlock cfiCond296
          CFI EndBlock cfiCond297
          CFI EndBlock cfiCond298
          CFI EndBlock cfiCond299
          CFI EndBlock cfiCond300
          CFI EndBlock cfiCond301
          CFI EndBlock cfiCond302
          CFI EndBlock cfiCond303
          CFI EndBlock cfiCond304
          CFI EndBlock cfiCond305
          CFI EndBlock cfiCond306
          CFI EndBlock cfiCond307
          CFI EndBlock cfiCond308
          CFI EndBlock cfiCond309
          CFI EndBlock cfiCond310
          CFI EndBlock cfiPicker311

        RSEG BANKED_CODE:HUGECODE:NOROOT(0)
?Subroutine45:
          CFI Block cfiCond312 Using cfiCommon0
          CFI Function ZDP_NodeDescMsg
          CFI Conditional ??CrossCallReturnLabel_69
          CFI R6 load(1, XDATA, add(CFA_XSP16, literal(-10)))
          CFI VB load(1, XDATA, add(CFA_XSP16, literal(-9)))
          CFI V0 load(1, XDATA, add(CFA_XSP16, literal(-8)))
          CFI V1 load(1, XDATA, add(CFA_XSP16, literal(-7)))
          CFI R7 load(1, XDATA, add(CFA_XSP16, literal(-6)))
          CFI ?RET_LOW load(1, XDATA, add(CFA_XSP16, literal(-5)))
          CFI ?RET_HIGH load(1, XDATA, add(CFA_XSP16, literal(-4)))
          CFI ?BRET_EXT load(1, XDATA, add(CFA_XSP16, literal(-3)))
          CFI DPL0 load(1, XDATA, add(CFA_XSP16, literal(-2)))
          CFI DPH0 load(1, XDATA, add(CFA_XSP16, literal(-1)))
          CFI CFA_SP SP+-2
          CFI CFA_XSP16 add(XSP16, 10)
          CFI Block cfiCond313 Using cfiCommon0
          CFI (cfiCond313) Function ZDP_NodeDescMsg
          CFI (cfiCond313) Conditional ??CrossCallReturnLabel_70
          CFI (cfiCond313) R6 load(1, XDATA, add(CFA_XSP16, literal(-10)))
          CFI (cfiCond313) VB load(1, XDATA, add(CFA_XSP16, literal(-9)))
          CFI (cfiCond313) V0 load(1, XDATA, add(CFA_XSP16, literal(-8)))
          CFI (cfiCond313) V1 load(1, XDATA, add(CFA_XSP16, literal(-7)))
          CFI (cfiCond313) R7 load(1, XDATA, add(CFA_XSP16, literal(-6)))
          CFI (cfiCond313) ?RET_LOW load(1, XDATA, add(CFA_XSP16, literal(-5)))
          CFI (cfiCond313) ?RET_HIGH load(1, XDATA, add(CFA_XSP16, literal(-4)))
          CFI (cfiCond313) ?BRET_EXT load(1, XDATA, add(CFA_XSP16, literal(-3)))
          CFI (cfiCond313) DPL0 load(1, XDATA, add(CFA_XSP16, literal(-2)))
          CFI (cfiCond313) DPH0 load(1, XDATA, add(CFA_XSP16, literal(-1)))
          CFI (cfiCond313) CFA_SP SP+-2
          CFI (cfiCond313) CFA_XSP16 add(XSP16, 10)
          CFI Block cfiCond314 Using cfiCommon0
          CFI (cfiCond314) Function ZDP_NodeDescMsg
          CFI (cfiCond314) Conditional ??CrossCallReturnLabel_71
          CFI (cfiCond314) R6 load(1, XDATA, add(CFA_XSP16, literal(-10)))
          CFI (cfiCond314) VB load(1, XDATA, add(CFA_XSP16, literal(-9)))
          CFI (cfiCond314) V0 load(1, XDATA, add(CFA_XSP16, literal(-8)))
          CFI (cfiCond314) V1 load(1, XDATA, add(CFA_XSP16, literal(-7)))
          CFI (cfiCond314) R7 load(1, XDATA, add(CFA_XSP16, literal(-6)))
          CFI (cfiCond314) ?RET_LOW load(1, XDATA, add(CFA_XSP16, literal(-5)))
          CFI (cfiCond314) ?RET_HIGH load(1, XDATA, add(CFA_XSP16, literal(-4)))
          CFI (cfiCond314) ?BRET_EXT load(1, XDATA, add(CFA_XSP16, literal(-3)))
          CFI (cfiCond314) DPL0 load(1, XDATA, add(CFA_XSP16, literal(-2)))
          CFI (cfiCond314) DPH0 load(1, XDATA, add(CFA_XSP16, literal(-1)))
          CFI (cfiCond314) CFA_SP SP+-2
          CFI (cfiCond314) CFA_XSP16 add(XSP16, 10)
          CFI Block cfiCond315 Using cfiCommon0
          CFI (cfiCond315) Function ZDP_MgmtNwkDiscRsp
          CFI (cfiCond315) Conditional ??CrossCallReturnLabel_72
          CFI (cfiCond315) R6 load(1, XDATA, add(CFA_XSP16, literal(-22)))
          CFI (cfiCond315) VB load(1, XDATA, add(CFA_XSP16, literal(-21)))
          CFI (cfiCond315) V0 load(1, XDATA, add(CFA_XSP16, literal(-20)))
          CFI (cfiCond315) V1 load(1, XDATA, add(CFA_XSP16, literal(-19)))
          CFI (cfiCond315) V2 load(1, XDATA, add(CFA_XSP16, literal(-18)))
          CFI (cfiCond315) V3 load(1, XDATA, add(CFA_XSP16, literal(-17)))
          CFI (cfiCond315) V4 load(1, XDATA, add(CFA_XSP16, literal(-16)))
          CFI (cfiCond315) V5 load(1, XDATA, add(CFA_XSP16, literal(-15)))
          CFI (cfiCond315) V6 load(1, XDATA, add(CFA_XSP16, literal(-14)))
          CFI (cfiCond315) V7 load(1, XDATA, add(CFA_XSP16, literal(-13)))
          CFI (cfiCond315) V8 load(1, XDATA, add(CFA_XSP16, literal(-12)))
          CFI (cfiCond315) V9 load(1, XDATA, add(CFA_XSP16, literal(-11)))
          CFI (cfiCond315) V10 load(1, XDATA, add(CFA_XSP16, literal(-10)))
          CFI (cfiCond315) V11 load(1, XDATA, add(CFA_XSP16, literal(-9)))
          CFI (cfiCond315) V12 load(1, XDATA, add(CFA_XSP16, literal(-8)))
          CFI (cfiCond315) V13 load(1, XDATA, add(CFA_XSP16, literal(-7)))
          CFI (cfiCond315) R7 load(1, XDATA, add(CFA_XSP16, literal(-6)))
          CFI (cfiCond315) ?RET_LOW load(1, XDATA, add(CFA_XSP16, literal(-5)))
          CFI (cfiCond315) ?RET_HIGH load(1, XDATA, add(CFA_XSP16, literal(-4)))
          CFI (cfiCond315) ?BRET_EXT load(1, XDATA, add(CFA_XSP16, literal(-3)))
          CFI (cfiCond315) DPL0 load(1, XDATA, add(CFA_XSP16, literal(-2)))
          CFI (cfiCond315) DPH0 load(1, XDATA, add(CFA_XSP16, literal(-1)))
          CFI (cfiCond315) CFA_SP SP+-2
          CFI (cfiCond315) CFA_XSP16 add(XSP16, 23)
          CFI Block cfiCond316 Using cfiCommon0
          CFI (cfiCond316) Function ZDP_MgmtNwkDiscRsp
          CFI (cfiCond316) Conditional ??CrossCallReturnLabel_73
          CFI (cfiCond316) R6 load(1, XDATA, add(CFA_XSP16, literal(-22)))
          CFI (cfiCond316) VB load(1, XDATA, add(CFA_XSP16, literal(-21)))
          CFI (cfiCond316) V0 load(1, XDATA, add(CFA_XSP16, literal(-20)))
          CFI (cfiCond316) V1 load(1, XDATA, add(CFA_XSP16, literal(-19)))
          CFI (cfiCond316) V2 load(1, XDATA, add(CFA_XSP16, literal(-18)))
          CFI (cfiCond316) V3 load(1, XDATA, add(CFA_XSP16, literal(-17)))
          CFI (cfiCond316) V4 load(1, XDATA, add(CFA_XSP16, literal(-16)))
          CFI (cfiCond316) V5 load(1, XDATA, add(CFA_XSP16, literal(-15)))
          CFI (cfiCond316) V6 load(1, XDATA, add(CFA_XSP16, literal(-14)))
          CFI (cfiCond316) V7 load(1, XDATA, add(CFA_XSP16, literal(-13)))
          CFI (cfiCond316) V8 load(1, XDATA, add(CFA_XSP16, literal(-12)))
          CFI (cfiCond316) V9 load(1, XDATA, add(CFA_XSP16, literal(-11)))
          CFI (cfiCond316) V10 load(1, XDATA, add(CFA_XSP16, literal(-10)))
          CFI (cfiCond316) V11 load(1, XDATA, add(CFA_XSP16, literal(-9)))
          CFI (cfiCond316) V12 load(1, XDATA, add(CFA_XSP16, literal(-8)))
          CFI (cfiCond316) V13 load(1, XDATA, add(CFA_XSP16, literal(-7)))
          CFI (cfiCond316) R7 load(1, XDATA, add(CFA_XSP16, literal(-6)))
          CFI (cfiCond316) ?RET_LOW load(1, XDATA, add(CFA_XSP16, literal(-5)))
          CFI (cfiCond316) ?RET_HIGH load(1, XDATA, add(CFA_XSP16, literal(-4)))
          CFI (cfiCond316) ?BRET_EXT load(1, XDATA, add(CFA_XSP16, literal(-3)))
          CFI (cfiCond316) DPL0 load(1, XDATA, add(CFA_XSP16, literal(-2)))
          CFI (cfiCond316) DPH0 load(1, XDATA, add(CFA_XSP16, literal(-1)))
          CFI (cfiCond316) CFA_SP SP+-2
          CFI (cfiCond316) CFA_XSP16 add(XSP16, 23)
          CFI Block cfiPicker317 Using cfiCommon1
          CFI (cfiPicker317) NoFunction
          CFI (cfiPicker317) Picker
        LCALL     ??Subroutine111_0 & 0xFFFF
??CrossCallReturnLabel_212:
        INC       DPTR
        RET
          CFI EndBlock cfiCond312
          CFI EndBlock cfiCond313
          CFI EndBlock cfiCond314
          CFI EndBlock cfiCond315
          CFI EndBlock cfiCond316
          CFI EndBlock cfiPicker317

        RSEG BANKED_CODE:HUGECODE:NOROOT(0)
?Subroutine77:
          CFI Block cfiCond318 Using cfiCommon0
          CFI Function ZDP_NodeDescMsg
          CFI Conditional ??CrossCallReturnLabel_213
          CFI R6 load(1, XDATA, add(CFA_XSP16, literal(-10)))
          CFI VB load(1, XDATA, add(CFA_XSP16, literal(-9)))
          CFI V0 load(1, XDATA, add(CFA_XSP16, literal(-8)))
          CFI V1 load(1, XDATA, add(CFA_XSP16, literal(-7)))
          CFI R7 load(1, XDATA, add(CFA_XSP16, literal(-6)))
          CFI ?RET_LOW load(1, XDATA, add(CFA_XSP16, literal(-5)))
          CFI ?RET_HIGH load(1, XDATA, add(CFA_XSP16, literal(-4)))
          CFI ?BRET_EXT load(1, XDATA, add(CFA_XSP16, literal(-3)))
          CFI DPL0 load(1, XDATA, add(CFA_XSP16, literal(-2)))
          CFI DPH0 load(1, XDATA, add(CFA_XSP16, literal(-1)))
          CFI CFA_SP SP+-2
          CFI CFA_XSP16 add(XSP16, 10)
          CFI Block cfiCond319 Using cfiCommon0
          CFI (cfiCond319) Function ZDP_NodeDescMsg
          CFI (cfiCond319) Conditional ??CrossCallReturnLabel_214
          CFI (cfiCond319) R6 load(1, XDATA, add(CFA_XSP16, literal(-10)))
          CFI (cfiCond319) VB load(1, XDATA, add(CFA_XSP16, literal(-9)))
          CFI (cfiCond319) V0 load(1, XDATA, add(CFA_XSP16, literal(-8)))
          CFI (cfiCond319) V1 load(1, XDATA, add(CFA_XSP16, literal(-7)))
          CFI (cfiCond319) R7 load(1, XDATA, add(CFA_XSP16, literal(-6)))
          CFI (cfiCond319) ?RET_LOW load(1, XDATA, add(CFA_XSP16, literal(-5)))
          CFI (cfiCond319) ?RET_HIGH load(1, XDATA, add(CFA_XSP16, literal(-4)))
          CFI (cfiCond319) ?BRET_EXT load(1, XDATA, add(CFA_XSP16, literal(-3)))
          CFI (cfiCond319) DPL0 load(1, XDATA, add(CFA_XSP16, literal(-2)))
          CFI (cfiCond319) DPH0 load(1, XDATA, add(CFA_XSP16, literal(-1)))
          CFI (cfiCond319) CFA_SP SP+-2
          CFI (cfiCond319) CFA_XSP16 add(XSP16, 10)
          CFI Block cfiPicker320 Using cfiCommon1
          CFI (cfiPicker320) NoFunction
          CFI (cfiPicker320) Picker
        INC       DPTR
          CFI EndBlock cfiCond318
          CFI EndBlock cfiCond319
          CFI EndBlock cfiPicker320
        REQUIRE ??Subroutine111_0
        ; // Fall through to label ??Subroutine111_0

        RSEG BANKED_CODE:HUGECODE:NOROOT(0)
??Subroutine111_0:
          CFI Block cfiCond321 Using cfiCommon0
          CFI Function ZDP_NodeDescMsg
          CFI Conditional ??CrossCallReturnLabel_211, ??CrossCallReturnLabel_67
          CFI R6 load(1, XDATA, add(CFA_XSP16, literal(-10)))
          CFI VB load(1, XDATA, add(CFA_XSP16, literal(-9)))
          CFI V0 load(1, XDATA, add(CFA_XSP16, literal(-8)))
          CFI V1 load(1, XDATA, add(CFA_XSP16, literal(-7)))
          CFI R7 load(1, XDATA, add(CFA_XSP16, literal(-6)))
          CFI ?RET_LOW load(1, XDATA, add(CFA_XSP16, literal(-5)))
          CFI ?RET_HIGH load(1, XDATA, add(CFA_XSP16, literal(-4)))
          CFI ?BRET_EXT load(1, XDATA, add(CFA_XSP16, literal(-3)))
          CFI DPL0 load(1, XDATA, add(CFA_XSP16, literal(-2)))
          CFI DPH0 load(1, XDATA, add(CFA_XSP16, literal(-1)))
          CFI CFA_SP SP+-4
          CFI CFA_XSP16 add(XSP16, 10)
          CFI Block cfiCond322 Using cfiCommon0
          CFI (cfiCond322) Function ZDP_NodeDescMsg
          CFI (cfiCond322) Conditional ??CrossCallReturnLabel_211, ??CrossCallReturnLabel_68
          CFI (cfiCond322) R6 load(1, XDATA, add(CFA_XSP16, literal(-10)))
          CFI (cfiCond322) VB load(1, XDATA, add(CFA_XSP16, literal(-9)))
          CFI (cfiCond322) V0 load(1, XDATA, add(CFA_XSP16, literal(-8)))
          CFI (cfiCond322) V1 load(1, XDATA, add(CFA_XSP16, literal(-7)))
          CFI (cfiCond322) R7 load(1, XDATA, add(CFA_XSP16, literal(-6)))
          CFI (cfiCond322) ?RET_LOW load(1, XDATA, add(CFA_XSP16, literal(-5)))
          CFI (cfiCond322) ?RET_HIGH load(1, XDATA, add(CFA_XSP16, literal(-4)))
          CFI (cfiCond322) ?BRET_EXT load(1, XDATA, add(CFA_XSP16, literal(-3)))
          CFI (cfiCond322) DPL0 load(1, XDATA, add(CFA_XSP16, literal(-2)))
          CFI (cfiCond322) DPH0 load(1, XDATA, add(CFA_XSP16, literal(-1)))
          CFI (cfiCond322) CFA_SP SP+-4
          CFI (cfiCond322) CFA_XSP16 add(XSP16, 10)
          CFI Block cfiCond323 Using cfiCommon0
          CFI (cfiCond323) Function ZDP_NodeDescMsg
          CFI (cfiCond323) Conditional ??CrossCallReturnLabel_212, ??CrossCallReturnLabel_69
          CFI (cfiCond323) R6 load(1, XDATA, add(CFA_XSP16, literal(-10)))
          CFI (cfiCond323) VB load(1, XDATA, add(CFA_XSP16, literal(-9)))
          CFI (cfiCond323) V0 load(1, XDATA, add(CFA_XSP16, literal(-8)))
          CFI (cfiCond323) V1 load(1, XDATA, add(CFA_XSP16, literal(-7)))
          CFI (cfiCond323) R7 load(1, XDATA, add(CFA_XSP16, literal(-6)))
          CFI (cfiCond323) ?RET_LOW load(1, XDATA, add(CFA_XSP16, literal(-5)))
          CFI (cfiCond323) ?RET_HIGH load(1, XDATA, add(CFA_XSP16, literal(-4)))
          CFI (cfiCond323) ?BRET_EXT load(1, XDATA, add(CFA_XSP16, literal(-3)))
          CFI (cfiCond323) DPL0 load(1, XDATA, add(CFA_XSP16, literal(-2)))
          CFI (cfiCond323) DPH0 load(1, XDATA, add(CFA_XSP16, literal(-1)))
          CFI (cfiCond323) CFA_SP SP+-4
          CFI (cfiCond323) CFA_XSP16 add(XSP16, 10)
          CFI Block cfiCond324 Using cfiCommon0
          CFI (cfiCond324) Function ZDP_NodeDescMsg
          CFI (cfiCond324) Conditional ??CrossCallReturnLabel_212, ??CrossCallReturnLabel_70
          CFI (cfiCond324) R6 load(1, XDATA, add(CFA_XSP16, literal(-10)))
          CFI (cfiCond324) VB load(1, XDATA, add(CFA_XSP16, literal(-9)))
          CFI (cfiCond324) V0 load(1, XDATA, add(CFA_XSP16, literal(-8)))
          CFI (cfiCond324) V1 load(1, XDATA, add(CFA_XSP16, literal(-7)))
          CFI (cfiCond324) R7 load(1, XDATA, add(CFA_XSP16, literal(-6)))
          CFI (cfiCond324) ?RET_LOW load(1, XDATA, add(CFA_XSP16, literal(-5)))
          CFI (cfiCond324) ?RET_HIGH load(1, XDATA, add(CFA_XSP16, literal(-4)))
          CFI (cfiCond324) ?BRET_EXT load(1, XDATA, add(CFA_XSP16, literal(-3)))
          CFI (cfiCond324) DPL0 load(1, XDATA, add(CFA_XSP16, literal(-2)))
          CFI (cfiCond324) DPH0 load(1, XDATA, add(CFA_XSP16, literal(-1)))
          CFI (cfiCond324) CFA_SP SP+-4
          CFI (cfiCond324) CFA_XSP16 add(XSP16, 10)
          CFI Block cfiCond325 Using cfiCommon0
          CFI (cfiCond325) Function ZDP_NodeDescMsg
          CFI (cfiCond325) Conditional ??CrossCallReturnLabel_212, ??CrossCallReturnLabel_71
          CFI (cfiCond325) R6 load(1, XDATA, add(CFA_XSP16, literal(-10)))
          CFI (cfiCond325) VB load(1, XDATA, add(CFA_XSP16, literal(-9)))
          CFI (cfiCond325) V0 load(1, XDATA, add(CFA_XSP16, literal(-8)))
          CFI (cfiCond325) V1 load(1, XDATA, add(CFA_XSP16, literal(-7)))
          CFI (cfiCond325) R7 load(1, XDATA, add(CFA_XSP16, literal(-6)))
          CFI (cfiCond325) ?RET_LOW load(1, XDATA, add(CFA_XSP16, literal(-5)))
          CFI (cfiCond325) ?RET_HIGH load(1, XDATA, add(CFA_XSP16, literal(-4)))
          CFI (cfiCond325) ?BRET_EXT load(1, XDATA, add(CFA_XSP16, literal(-3)))
          CFI (cfiCond325) DPL0 load(1, XDATA, add(CFA_XSP16, literal(-2)))
          CFI (cfiCond325) DPH0 load(1, XDATA, add(CFA_XSP16, literal(-1)))
          CFI (cfiCond325) CFA_SP SP+-4
          CFI (cfiCond325) CFA_XSP16 add(XSP16, 10)
          CFI Block cfiCond326 Using cfiCommon0
          CFI (cfiCond326) Function ZDP_MgmtNwkDiscRsp
          CFI (cfiCond326) Conditional ??CrossCallReturnLabel_212, ??CrossCallReturnLabel_72
          CFI (cfiCond326) R6 load(1, XDATA, add(CFA_XSP16, literal(-22)))
          CFI (cfiCond326) VB load(1, XDATA, add(CFA_XSP16, literal(-21)))
          CFI (cfiCond326) V0 load(1, XDATA, add(CFA_XSP16, literal(-20)))
          CFI (cfiCond326) V1 load(1, XDATA, add(CFA_XSP16, literal(-19)))
          CFI (cfiCond326) V2 load(1, XDATA, add(CFA_XSP16, literal(-18)))
          CFI (cfiCond326) V3 load(1, XDATA, add(CFA_XSP16, literal(-17)))
          CFI (cfiCond326) V4 load(1, XDATA, add(CFA_XSP16, literal(-16)))
          CFI (cfiCond326) V5 load(1, XDATA, add(CFA_XSP16, literal(-15)))
          CFI (cfiCond326) V6 load(1, XDATA, add(CFA_XSP16, literal(-14)))
          CFI (cfiCond326) V7 load(1, XDATA, add(CFA_XSP16, literal(-13)))
          CFI (cfiCond326) V8 load(1, XDATA, add(CFA_XSP16, literal(-12)))
          CFI (cfiCond326) V9 load(1, XDATA, add(CFA_XSP16, literal(-11)))
          CFI (cfiCond326) V10 load(1, XDATA, add(CFA_XSP16, literal(-10)))
          CFI (cfiCond326) V11 load(1, XDATA, add(CFA_XSP16, literal(-9)))
          CFI (cfiCond326) V12 load(1, XDATA, add(CFA_XSP16, literal(-8)))
          CFI (cfiCond326) V13 load(1, XDATA, add(CFA_XSP16, literal(-7)))
          CFI (cfiCond326) R7 load(1, XDATA, add(CFA_XSP16, literal(-6)))
          CFI (cfiCond326) ?RET_LOW load(1, XDATA, add(CFA_XSP16, literal(-5)))
          CFI (cfiCond326) ?RET_HIGH load(1, XDATA, add(CFA_XSP16, literal(-4)))
          CFI (cfiCond326) ?BRET_EXT load(1, XDATA, add(CFA_XSP16, literal(-3)))
          CFI (cfiCond326) DPL0 load(1, XDATA, add(CFA_XSP16, literal(-2)))
          CFI (cfiCond326) DPH0 load(1, XDATA, add(CFA_XSP16, literal(-1)))
          CFI (cfiCond326) CFA_SP SP+-4
          CFI (cfiCond326) CFA_XSP16 add(XSP16, 23)
          CFI Block cfiCond327 Using cfiCommon0
          CFI (cfiCond327) Function ZDP_MgmtNwkDiscRsp
          CFI (cfiCond327) Conditional ??CrossCallReturnLabel_212, ??CrossCallReturnLabel_73
          CFI (cfiCond327) R6 load(1, XDATA, add(CFA_XSP16, literal(-22)))
          CFI (cfiCond327) VB load(1, XDATA, add(CFA_XSP16, literal(-21)))
          CFI (cfiCond327) V0 load(1, XDATA, add(CFA_XSP16, literal(-20)))
          CFI (cfiCond327) V1 load(1, XDATA, add(CFA_XSP16, literal(-19)))
          CFI (cfiCond327) V2 load(1, XDATA, add(CFA_XSP16, literal(-18)))
          CFI (cfiCond327) V3 load(1, XDATA, add(CFA_XSP16, literal(-17)))
          CFI (cfiCond327) V4 load(1, XDATA, add(CFA_XSP16, literal(-16)))
          CFI (cfiCond327) V5 load(1, XDATA, add(CFA_XSP16, literal(-15)))
          CFI (cfiCond327) V6 load(1, XDATA, add(CFA_XSP16, literal(-14)))
          CFI (cfiCond327) V7 load(1, XDATA, add(CFA_XSP16, literal(-13)))
          CFI (cfiCond327) V8 load(1, XDATA, add(CFA_XSP16, literal(-12)))
          CFI (cfiCond327) V9 load(1, XDATA, add(CFA_XSP16, literal(-11)))
          CFI (cfiCond327) V10 load(1, XDATA, add(CFA_XSP16, literal(-10)))
          CFI (cfiCond327) V11 load(1, XDATA, add(CFA_XSP16, literal(-9)))
          CFI (cfiCond327) V12 load(1, XDATA, add(CFA_XSP16, literal(-8)))
          CFI (cfiCond327) V13 load(1, XDATA, add(CFA_XSP16, literal(-7)))
          CFI (cfiCond327) R7 load(1, XDATA, add(CFA_XSP16, literal(-6)))
          CFI (cfiCond327) ?RET_LOW load(1, XDATA, add(CFA_XSP16, literal(-5)))
          CFI (cfiCond327) ?RET_HIGH load(1, XDATA, add(CFA_XSP16, literal(-4)))
          CFI (cfiCond327) ?BRET_EXT load(1, XDATA, add(CFA_XSP16, literal(-3)))
          CFI (cfiCond327) DPL0 load(1, XDATA, add(CFA_XSP16, literal(-2)))
          CFI (cfiCond327) DPH0 load(1, XDATA, add(CFA_XSP16, literal(-1)))
          CFI (cfiCond327) CFA_SP SP+-4
          CFI (cfiCond327) CFA_XSP16 add(XSP16, 23)
          CFI Block cfiCond328 Using cfiCommon0
          CFI (cfiCond328) Function ZDP_NodeDescMsg
          CFI (cfiCond328) Conditional ??CrossCallReturnLabel_213
          CFI (cfiCond328) R6 load(1, XDATA, add(CFA_XSP16, literal(-10)))
          CFI (cfiCond328) VB load(1, XDATA, add(CFA_XSP16, literal(-9)))
          CFI (cfiCond328) V0 load(1, XDATA, add(CFA_XSP16, literal(-8)))
          CFI (cfiCond328) V1 load(1, XDATA, add(CFA_XSP16, literal(-7)))
          CFI (cfiCond328) R7 load(1, XDATA, add(CFA_XSP16, literal(-6)))
          CFI (cfiCond328) ?RET_LOW load(1, XDATA, add(CFA_XSP16, literal(-5)))
          CFI (cfiCond328) ?RET_HIGH load(1, XDATA, add(CFA_XSP16, literal(-4)))
          CFI (cfiCond328) ?BRET_EXT load(1, XDATA, add(CFA_XSP16, literal(-3)))
          CFI (cfiCond328) DPL0 load(1, XDATA, add(CFA_XSP16, literal(-2)))
          CFI (cfiCond328) DPH0 load(1, XDATA, add(CFA_XSP16, literal(-1)))
          CFI (cfiCond328) CFA_SP SP+-2
          CFI (cfiCond328) CFA_XSP16 add(XSP16, 10)
          CFI Block cfiCond329 Using cfiCommon0
          CFI (cfiCond329) Function ZDP_NodeDescMsg
          CFI (cfiCond329) Conditional ??CrossCallReturnLabel_214
          CFI (cfiCond329) R6 load(1, XDATA, add(CFA_XSP16, literal(-10)))
          CFI (cfiCond329) VB load(1, XDATA, add(CFA_XSP16, literal(-9)))
          CFI (cfiCond329) V0 load(1, XDATA, add(CFA_XSP16, literal(-8)))
          CFI (cfiCond329) V1 load(1, XDATA, add(CFA_XSP16, literal(-7)))
          CFI (cfiCond329) R7 load(1, XDATA, add(CFA_XSP16, literal(-6)))
          CFI (cfiCond329) ?RET_LOW load(1, XDATA, add(CFA_XSP16, literal(-5)))
          CFI (cfiCond329) ?RET_HIGH load(1, XDATA, add(CFA_XSP16, literal(-4)))
          CFI (cfiCond329) ?BRET_EXT load(1, XDATA, add(CFA_XSP16, literal(-3)))
          CFI (cfiCond329) DPL0 load(1, XDATA, add(CFA_XSP16, literal(-2)))
          CFI (cfiCond329) DPH0 load(1, XDATA, add(CFA_XSP16, literal(-1)))
          CFI (cfiCond329) CFA_SP SP+-2
          CFI (cfiCond329) CFA_XSP16 add(XSP16, 10)
          CFI Block cfiPicker330 Using cfiCommon1
          CFI (cfiPicker330) NoFunction
          CFI (cfiPicker330) Picker
        MOVX      A,@DPTR
        MOV       DPL,R6
        MOV       DPH,R7
        RET
          CFI EndBlock cfiCond321
          CFI EndBlock cfiCond322
          CFI EndBlock cfiCond323
          CFI EndBlock cfiCond324
          CFI EndBlock cfiCond325
          CFI EndBlock cfiCond326
          CFI EndBlock cfiCond327
          CFI EndBlock cfiCond328
          CFI EndBlock cfiCond329
          CFI EndBlock cfiPicker330

        RSEG BANKED_CODE:HUGECODE:NOROOT(0)
?Subroutine30:
          CFI Block cfiCond331 Using cfiCommon0
          CFI Function ZDP_UserDescSet
          CFI Conditional ??CrossCallReturnLabel_44
          CFI R6 load(1, XDATA, add(CFA_XSP16, literal(-15)))
          CFI VB load(1, XDATA, add(CFA_XSP16, literal(-14)))
          CFI V0 load(1, XDATA, add(CFA_XSP16, literal(-13)))
          CFI V1 load(1, XDATA, add(CFA_XSP16, literal(-12)))
          CFI V2 load(1, XDATA, add(CFA_XSP16, literal(-11)))
          CFI V3 load(1, XDATA, add(CFA_XSP16, literal(-10)))
          CFI V4 load(1, XDATA, add(CFA_XSP16, literal(-9)))
          CFI V5 load(1, XDATA, add(CFA_XSP16, literal(-8)))
          CFI V6 load(1, XDATA, add(CFA_XSP16, literal(-7)))
          CFI R7 load(1, XDATA, add(CFA_XSP16, literal(-6)))
          CFI ?RET_LOW load(1, XDATA, add(CFA_XSP16, literal(-5)))
          CFI ?RET_HIGH load(1, XDATA, add(CFA_XSP16, literal(-4)))
          CFI ?BRET_EXT load(1, XDATA, add(CFA_XSP16, literal(-3)))
          CFI DPL0 load(1, XDATA, add(CFA_XSP16, literal(-2)))
          CFI DPH0 load(1, XDATA, add(CFA_XSP16, literal(-1)))
          CFI CFA_SP SP+-2
          CFI CFA_XSP16 add(XSP16, 15)
          CFI Block cfiCond332 Using cfiCommon0
          CFI (cfiCond332) Function ZDP_MgmtNwkDiscRsp
          CFI (cfiCond332) Conditional ??CrossCallReturnLabel_45
          CFI (cfiCond332) R6 load(1, XDATA, add(CFA_XSP16, literal(-22)))
          CFI (cfiCond332) VB load(1, XDATA, add(CFA_XSP16, literal(-21)))
          CFI (cfiCond332) V0 load(1, XDATA, add(CFA_XSP16, literal(-20)))
          CFI (cfiCond332) V1 load(1, XDATA, add(CFA_XSP16, literal(-19)))
          CFI (cfiCond332) V2 load(1, XDATA, add(CFA_XSP16, literal(-18)))
          CFI (cfiCond332) V3 load(1, XDATA, add(CFA_XSP16, literal(-17)))
          CFI (cfiCond332) V4 load(1, XDATA, add(CFA_XSP16, literal(-16)))
          CFI (cfiCond332) V5 load(1, XDATA, add(CFA_XSP16, literal(-15)))
          CFI (cfiCond332) V6 load(1, XDATA, add(CFA_XSP16, literal(-14)))
          CFI (cfiCond332) V7 load(1, XDATA, add(CFA_XSP16, literal(-13)))
          CFI (cfiCond332) V8 load(1, XDATA, add(CFA_XSP16, literal(-12)))
          CFI (cfiCond332) V9 load(1, XDATA, add(CFA_XSP16, literal(-11)))
          CFI (cfiCond332) V10 load(1, XDATA, add(CFA_XSP16, literal(-10)))
          CFI (cfiCond332) V11 load(1, XDATA, add(CFA_XSP16, literal(-9)))
          CFI (cfiCond332) V12 load(1, XDATA, add(CFA_XSP16, literal(-8)))
          CFI (cfiCond332) V13 load(1, XDATA, add(CFA_XSP16, literal(-7)))
          CFI (cfiCond332) R7 load(1, XDATA, add(CFA_XSP16, literal(-6)))
          CFI (cfiCond332) ?RET_LOW load(1, XDATA, add(CFA_XSP16, literal(-5)))
          CFI (cfiCond332) ?RET_HIGH load(1, XDATA, add(CFA_XSP16, literal(-4)))
          CFI (cfiCond332) ?BRET_EXT load(1, XDATA, add(CFA_XSP16, literal(-3)))
          CFI (cfiCond332) DPL0 load(1, XDATA, add(CFA_XSP16, literal(-2)))
          CFI (cfiCond332) DPH0 load(1, XDATA, add(CFA_XSP16, literal(-1)))
          CFI (cfiCond332) CFA_SP SP+-2
          CFI (cfiCond332) CFA_XSP16 add(XSP16, 23)
          CFI Block cfiPicker333 Using cfiCommon1
          CFI (cfiPicker333) NoFunction
          CFI (cfiPicker333) Picker
        LCALL     ?Subroutine84 & 0xFFFF
??CrossCallReturnLabel_142:
        INC       DPTR
        RET
          CFI EndBlock cfiCond331
          CFI EndBlock cfiCond332
          CFI EndBlock cfiPicker333

        RSEG BANKED_CODE:HUGECODE:NOROOT(0)
?Subroutine84:
          CFI Block cfiCond334 Using cfiCommon0
          CFI Function ZDP_SimpleDescMsg
          CFI Conditional ??CrossCallReturnLabel_141, ??CrossCallReturnLabel_4
          CFI R6 load(1, XDATA, add(CFA_XSP16, literal(-20)))
          CFI VB load(1, XDATA, add(CFA_XSP16, literal(-19)))
          CFI V0 load(1, XDATA, add(CFA_XSP16, literal(-18)))
          CFI V1 load(1, XDATA, add(CFA_XSP16, literal(-17)))
          CFI V2 load(1, XDATA, add(CFA_XSP16, literal(-16)))
          CFI V3 load(1, XDATA, add(CFA_XSP16, literal(-15)))
          CFI V4 load(1, XDATA, add(CFA_XSP16, literal(-14)))
          CFI V5 load(1, XDATA, add(CFA_XSP16, literal(-13)))
          CFI V6 load(1, XDATA, add(CFA_XSP16, literal(-12)))
          CFI V7 load(1, XDATA, add(CFA_XSP16, literal(-11)))
          CFI V8 load(1, XDATA, add(CFA_XSP16, literal(-10)))
          CFI V9 load(1, XDATA, add(CFA_XSP16, literal(-9)))
          CFI V10 load(1, XDATA, add(CFA_XSP16, literal(-8)))
          CFI V11 load(1, XDATA, add(CFA_XSP16, literal(-7)))
          CFI R7 load(1, XDATA, add(CFA_XSP16, literal(-6)))
          CFI ?RET_LOW load(1, XDATA, add(CFA_XSP16, literal(-5)))
          CFI ?RET_HIGH load(1, XDATA, add(CFA_XSP16, literal(-4)))
          CFI ?BRET_EXT load(1, XDATA, add(CFA_XSP16, literal(-3)))
          CFI DPL0 load(1, XDATA, add(CFA_XSP16, literal(-2)))
          CFI DPH0 load(1, XDATA, add(CFA_XSP16, literal(-1)))
          CFI CFA_SP SP+-4
          CFI CFA_XSP16 add(XSP16, 20)
          CFI Block cfiCond335 Using cfiCommon0
          CFI (cfiCond335) Function ZDP_SimpleDescMsg
          CFI (cfiCond335) Conditional ??CrossCallReturnLabel_141, ??CrossCallReturnLabel_5
          CFI (cfiCond335) R6 load(1, XDATA, add(CFA_XSP16, literal(-20)))
          CFI (cfiCond335) VB load(1, XDATA, add(CFA_XSP16, literal(-19)))
          CFI (cfiCond335) V0 load(1, XDATA, add(CFA_XSP16, literal(-18)))
          CFI (cfiCond335) V1 load(1, XDATA, add(CFA_XSP16, literal(-17)))
          CFI (cfiCond335) V2 load(1, XDATA, add(CFA_XSP16, literal(-16)))
          CFI (cfiCond335) V3 load(1, XDATA, add(CFA_XSP16, literal(-15)))
          CFI (cfiCond335) V4 load(1, XDATA, add(CFA_XSP16, literal(-14)))
          CFI (cfiCond335) V5 load(1, XDATA, add(CFA_XSP16, literal(-13)))
          CFI (cfiCond335) V6 load(1, XDATA, add(CFA_XSP16, literal(-12)))
          CFI (cfiCond335) V7 load(1, XDATA, add(CFA_XSP16, literal(-11)))
          CFI (cfiCond335) V8 load(1, XDATA, add(CFA_XSP16, literal(-10)))
          CFI (cfiCond335) V9 load(1, XDATA, add(CFA_XSP16, literal(-9)))
          CFI (cfiCond335) V10 load(1, XDATA, add(CFA_XSP16, literal(-8)))
          CFI (cfiCond335) V11 load(1, XDATA, add(CFA_XSP16, literal(-7)))
          CFI (cfiCond335) R7 load(1, XDATA, add(CFA_XSP16, literal(-6)))
          CFI (cfiCond335) ?RET_LOW load(1, XDATA, add(CFA_XSP16, literal(-5)))
          CFI (cfiCond335) ?RET_HIGH load(1, XDATA, add(CFA_XSP16, literal(-4)))
          CFI (cfiCond335) ?BRET_EXT load(1, XDATA, add(CFA_XSP16, literal(-3)))
          CFI (cfiCond335) DPL0 load(1, XDATA, add(CFA_XSP16, literal(-2)))
          CFI (cfiCond335) DPH0 load(1, XDATA, add(CFA_XSP16, literal(-1)))
          CFI (cfiCond335) CFA_SP SP+-4
          CFI (cfiCond335) CFA_XSP16 add(XSP16, 20)
          CFI Block cfiCond336 Using cfiCommon0
          CFI (cfiCond336) Function ZDP_UserDescSet
          CFI (cfiCond336) Conditional ??CrossCallReturnLabel_142, ??CrossCallReturnLabel_44
          CFI (cfiCond336) R6 load(1, XDATA, add(CFA_XSP16, literal(-15)))
          CFI (cfiCond336) VB load(1, XDATA, add(CFA_XSP16, literal(-14)))
          CFI (cfiCond336) V0 load(1, XDATA, add(CFA_XSP16, literal(-13)))
          CFI (cfiCond336) V1 load(1, XDATA, add(CFA_XSP16, literal(-12)))
          CFI (cfiCond336) V2 load(1, XDATA, add(CFA_XSP16, literal(-11)))
          CFI (cfiCond336) V3 load(1, XDATA, add(CFA_XSP16, literal(-10)))
          CFI (cfiCond336) V4 load(1, XDATA, add(CFA_XSP16, literal(-9)))
          CFI (cfiCond336) V5 load(1, XDATA, add(CFA_XSP16, literal(-8)))
          CFI (cfiCond336) V6 load(1, XDATA, add(CFA_XSP16, literal(-7)))
          CFI (cfiCond336) R7 load(1, XDATA, add(CFA_XSP16, literal(-6)))
          CFI (cfiCond336) ?RET_LOW load(1, XDATA, add(CFA_XSP16, literal(-5)))
          CFI (cfiCond336) ?RET_HIGH load(1, XDATA, add(CFA_XSP16, literal(-4)))
          CFI (cfiCond336) ?BRET_EXT load(1, XDATA, add(CFA_XSP16, literal(-3)))
          CFI (cfiCond336) DPL0 load(1, XDATA, add(CFA_XSP16, literal(-2)))
          CFI (cfiCond336) DPH0 load(1, XDATA, add(CFA_XSP16, literal(-1)))
          CFI (cfiCond336) CFA_SP SP+-4
          CFI (cfiCond336) CFA_XSP16 add(XSP16, 15)
          CFI Block cfiCond337 Using cfiCommon0
          CFI (cfiCond337) Function ZDP_MgmtNwkDiscRsp
          CFI (cfiCond337) Conditional ??CrossCallReturnLabel_142, ??CrossCallReturnLabel_45
          CFI (cfiCond337) R6 load(1, XDATA, add(CFA_XSP16, literal(-22)))
          CFI (cfiCond337) VB load(1, XDATA, add(CFA_XSP16, literal(-21)))
          CFI (cfiCond337) V0 load(1, XDATA, add(CFA_XSP16, literal(-20)))
          CFI (cfiCond337) V1 load(1, XDATA, add(CFA_XSP16, literal(-19)))
          CFI (cfiCond337) V2 load(1, XDATA, add(CFA_XSP16, literal(-18)))
          CFI (cfiCond337) V3 load(1, XDATA, add(CFA_XSP16, literal(-17)))
          CFI (cfiCond337) V4 load(1, XDATA, add(CFA_XSP16, literal(-16)))
          CFI (cfiCond337) V5 load(1, XDATA, add(CFA_XSP16, literal(-15)))
          CFI (cfiCond337) V6 load(1, XDATA, add(CFA_XSP16, literal(-14)))
          CFI (cfiCond337) V7 load(1, XDATA, add(CFA_XSP16, literal(-13)))
          CFI (cfiCond337) V8 load(1, XDATA, add(CFA_XSP16, literal(-12)))
          CFI (cfiCond337) V9 load(1, XDATA, add(CFA_XSP16, literal(-11)))
          CFI (cfiCond337) V10 load(1, XDATA, add(CFA_XSP16, literal(-10)))
          CFI (cfiCond337) V11 load(1, XDATA, add(CFA_XSP16, literal(-9)))
          CFI (cfiCond337) V12 load(1, XDATA, add(CFA_XSP16, literal(-8)))
          CFI (cfiCond337) V13 load(1, XDATA, add(CFA_XSP16, literal(-7)))
          CFI (cfiCond337) R7 load(1, XDATA, add(CFA_XSP16, literal(-6)))
          CFI (cfiCond337) ?RET_LOW load(1, XDATA, add(CFA_XSP16, literal(-5)))
          CFI (cfiCond337) ?RET_HIGH load(1, XDATA, add(CFA_XSP16, literal(-4)))
          CFI (cfiCond337) ?BRET_EXT load(1, XDATA, add(CFA_XSP16, literal(-3)))
          CFI (cfiCond337) DPL0 load(1, XDATA, add(CFA_XSP16, literal(-2)))
          CFI (cfiCond337) DPH0 load(1, XDATA, add(CFA_XSP16, literal(-1)))
          CFI (cfiCond337) CFA_SP SP+-4
          CFI (cfiCond337) CFA_XSP16 add(XSP16, 23)
          CFI Block cfiPicker338 Using cfiCommon1
          CFI (cfiPicker338) NoFunction
          CFI (cfiPicker338) Picker
        LCALL     ?Subroutine88 & 0xFFFF
??CrossCallReturnLabel_151:
        INC       DPTR
        RET
          CFI EndBlock cfiCond334
          CFI EndBlock cfiCond335
          CFI EndBlock cfiCond336
          CFI EndBlock cfiCond337
          CFI EndBlock cfiPicker338

        RSEG BANKED_CODE:HUGECODE:NOROOT(0)
?Subroutine20:
          CFI Block cfiCond339 Using cfiCommon0
          CFI Function fillAndSend
          CFI Conditional ??CrossCallReturnLabel_22
          CFI R6 load(1, XDATA, add(CFA_XSP16, literal(-14)))
          CFI VB load(1, XDATA, add(CFA_XSP16, literal(-13)))
          CFI V0 load(1, XDATA, add(CFA_XSP16, literal(-12)))
          CFI V1 load(1, XDATA, add(CFA_XSP16, literal(-11)))
          CFI V2 load(1, XDATA, add(CFA_XSP16, literal(-10)))
          CFI V3 load(1, XDATA, add(CFA_XSP16, literal(-9)))
          CFI V4 load(1, XDATA, add(CFA_XSP16, literal(-8)))
          CFI V5 load(1, XDATA, add(CFA_XSP16, literal(-7)))
          CFI R7 load(1, XDATA, add(CFA_XSP16, literal(-6)))
          CFI ?RET_LOW load(1, XDATA, add(CFA_XSP16, literal(-5)))
          CFI ?RET_HIGH load(1, XDATA, add(CFA_XSP16, literal(-4)))
          CFI ?BRET_EXT load(1, XDATA, add(CFA_XSP16, literal(-3)))
          CFI DPL0 load(1, XDATA, add(CFA_XSP16, literal(-2)))
          CFI DPH0 load(1, XDATA, add(CFA_XSP16, literal(-1)))
          CFI CFA_SP SP+-2
          CFI CFA_XSP16 add(XSP16, 26)
          CFI Block cfiCond340 Using cfiCommon0
          CFI (cfiCond340) Function ZDP_MgmtNwkDiscRsp
          CFI (cfiCond340) Conditional ??CrossCallReturnLabel_23
          CFI (cfiCond340) R6 load(1, XDATA, add(CFA_XSP16, literal(-22)))
          CFI (cfiCond340) VB load(1, XDATA, add(CFA_XSP16, literal(-21)))
          CFI (cfiCond340) V0 load(1, XDATA, add(CFA_XSP16, literal(-20)))
          CFI (cfiCond340) V1 load(1, XDATA, add(CFA_XSP16, literal(-19)))
          CFI (cfiCond340) V2 load(1, XDATA, add(CFA_XSP16, literal(-18)))
          CFI (cfiCond340) V3 load(1, XDATA, add(CFA_XSP16, literal(-17)))
          CFI (cfiCond340) V4 load(1, XDATA, add(CFA_XSP16, literal(-16)))
          CFI (cfiCond340) V5 load(1, XDATA, add(CFA_XSP16, literal(-15)))
          CFI (cfiCond340) V6 load(1, XDATA, add(CFA_XSP16, literal(-14)))
          CFI (cfiCond340) V7 load(1, XDATA, add(CFA_XSP16, literal(-13)))
          CFI (cfiCond340) V8 load(1, XDATA, add(CFA_XSP16, literal(-12)))
          CFI (cfiCond340) V9 load(1, XDATA, add(CFA_XSP16, literal(-11)))
          CFI (cfiCond340) V10 load(1, XDATA, add(CFA_XSP16, literal(-10)))
          CFI (cfiCond340) V11 load(1, XDATA, add(CFA_XSP16, literal(-9)))
          CFI (cfiCond340) V12 load(1, XDATA, add(CFA_XSP16, literal(-8)))
          CFI (cfiCond340) V13 load(1, XDATA, add(CFA_XSP16, literal(-7)))
          CFI (cfiCond340) R7 load(1, XDATA, add(CFA_XSP16, literal(-6)))
          CFI (cfiCond340) ?RET_LOW load(1, XDATA, add(CFA_XSP16, literal(-5)))
          CFI (cfiCond340) ?RET_HIGH load(1, XDATA, add(CFA_XSP16, literal(-4)))
          CFI (cfiCond340) ?BRET_EXT load(1, XDATA, add(CFA_XSP16, literal(-3)))
          CFI (cfiCond340) DPL0 load(1, XDATA, add(CFA_XSP16, literal(-2)))
          CFI (cfiCond340) DPH0 load(1, XDATA, add(CFA_XSP16, literal(-1)))
          CFI (cfiCond340) CFA_SP SP+-2
          CFI (cfiCond340) CFA_XSP16 add(XSP16, 23)
          CFI Block cfiPicker341 Using cfiCommon1
          CFI (cfiPicker341) NoFunction
          CFI (cfiPicker341) Picker
        LCALL     ?Subroutine83 & 0xFFFF
??CrossCallReturnLabel_140:
        INC       DPTR
        INC       DPTR
        INC       DPTR
        INC       DPTR
        INC       DPTR
        RET
          CFI EndBlock cfiCond339
          CFI EndBlock cfiCond340
          CFI EndBlock cfiPicker341

        RSEG BANKED_CODE:HUGECODE:NOROOT(0)
?Subroutine83:
          CFI Block cfiCond342 Using cfiCommon0
          CFI Function ZDP_MgmtNwkDiscRsp
          CFI Conditional ??CrossCallReturnLabel_139
          CFI R6 load(1, XDATA, add(CFA_XSP16, literal(-22)))
          CFI VB load(1, XDATA, add(CFA_XSP16, literal(-21)))
          CFI V0 load(1, XDATA, add(CFA_XSP16, literal(-20)))
          CFI V1 load(1, XDATA, add(CFA_XSP16, literal(-19)))
          CFI V2 load(1, XDATA, add(CFA_XSP16, literal(-18)))
          CFI V3 load(1, XDATA, add(CFA_XSP16, literal(-17)))
          CFI V4 load(1, XDATA, add(CFA_XSP16, literal(-16)))
          CFI V5 load(1, XDATA, add(CFA_XSP16, literal(-15)))
          CFI V6 load(1, XDATA, add(CFA_XSP16, literal(-14)))
          CFI V7 load(1, XDATA, add(CFA_XSP16, literal(-13)))
          CFI V8 load(1, XDATA, add(CFA_XSP16, literal(-12)))
          CFI V9 load(1, XDATA, add(CFA_XSP16, literal(-11)))
          CFI V10 load(1, XDATA, add(CFA_XSP16, literal(-10)))
          CFI V11 load(1, XDATA, add(CFA_XSP16, literal(-9)))
          CFI V12 load(1, XDATA, add(CFA_XSP16, literal(-8)))
          CFI V13 load(1, XDATA, add(CFA_XSP16, literal(-7)))
          CFI R7 load(1, XDATA, add(CFA_XSP16, literal(-6)))
          CFI ?RET_LOW load(1, XDATA, add(CFA_XSP16, literal(-5)))
          CFI ?RET_HIGH load(1, XDATA, add(CFA_XSP16, literal(-4)))
          CFI ?BRET_EXT load(1, XDATA, add(CFA_XSP16, literal(-3)))
          CFI DPL0 load(1, XDATA, add(CFA_XSP16, literal(-2)))
          CFI DPH0 load(1, XDATA, add(CFA_XSP16, literal(-1)))
          CFI CFA_SP SP+-2
          CFI CFA_XSP16 add(XSP16, 23)
          CFI Block cfiCond343 Using cfiCommon0
          CFI (cfiCond343) Function fillAndSend
          CFI (cfiCond343) Conditional ??CrossCallReturnLabel_140, ??CrossCallReturnLabel_22
          CFI (cfiCond343) R6 load(1, XDATA, add(CFA_XSP16, literal(-14)))
          CFI (cfiCond343) VB load(1, XDATA, add(CFA_XSP16, literal(-13)))
          CFI (cfiCond343) V0 load(1, XDATA, add(CFA_XSP16, literal(-12)))
          CFI (cfiCond343) V1 load(1, XDATA, add(CFA_XSP16, literal(-11)))
          CFI (cfiCond343) V2 load(1, XDATA, add(CFA_XSP16, literal(-10)))
          CFI (cfiCond343) V3 load(1, XDATA, add(CFA_XSP16, literal(-9)))
          CFI (cfiCond343) V4 load(1, XDATA, add(CFA_XSP16, literal(-8)))
          CFI (cfiCond343) V5 load(1, XDATA, add(CFA_XSP16, literal(-7)))
          CFI (cfiCond343) R7 load(1, XDATA, add(CFA_XSP16, literal(-6)))
          CFI (cfiCond343) ?RET_LOW load(1, XDATA, add(CFA_XSP16, literal(-5)))
          CFI (cfiCond343) ?RET_HIGH load(1, XDATA, add(CFA_XSP16, literal(-4)))
          CFI (cfiCond343) ?BRET_EXT load(1, XDATA, add(CFA_XSP16, literal(-3)))
          CFI (cfiCond343) DPL0 load(1, XDATA, add(CFA_XSP16, literal(-2)))
          CFI (cfiCond343) DPH0 load(1, XDATA, add(CFA_XSP16, literal(-1)))
          CFI (cfiCond343) CFA_SP SP+-4
          CFI (cfiCond343) CFA_XSP16 add(XSP16, 26)
          CFI Block cfiCond344 Using cfiCommon0
          CFI (cfiCond344) Function ZDP_MgmtNwkDiscRsp
          CFI (cfiCond344) Conditional ??CrossCallReturnLabel_140, ??CrossCallReturnLabel_23
          CFI (cfiCond344) R6 load(1, XDATA, add(CFA_XSP16, literal(-22)))
          CFI (cfiCond344) VB load(1, XDATA, add(CFA_XSP16, literal(-21)))
          CFI (cfiCond344) V0 load(1, XDATA, add(CFA_XSP16, literal(-20)))
          CFI (cfiCond344) V1 load(1, XDATA, add(CFA_XSP16, literal(-19)))
          CFI (cfiCond344) V2 load(1, XDATA, add(CFA_XSP16, literal(-18)))
          CFI (cfiCond344) V3 load(1, XDATA, add(CFA_XSP16, literal(-17)))
          CFI (cfiCond344) V4 load(1, XDATA, add(CFA_XSP16, literal(-16)))
          CFI (cfiCond344) V5 load(1, XDATA, add(CFA_XSP16, literal(-15)))
          CFI (cfiCond344) V6 load(1, XDATA, add(CFA_XSP16, literal(-14)))
          CFI (cfiCond344) V7 load(1, XDATA, add(CFA_XSP16, literal(-13)))
          CFI (cfiCond344) V8 load(1, XDATA, add(CFA_XSP16, literal(-12)))
          CFI (cfiCond344) V9 load(1, XDATA, add(CFA_XSP16, literal(-11)))
          CFI (cfiCond344) V10 load(1, XDATA, add(CFA_XSP16, literal(-10)))
          CFI (cfiCond344) V11 load(1, XDATA, add(CFA_XSP16, literal(-9)))
          CFI (cfiCond344) V12 load(1, XDATA, add(CFA_XSP16, literal(-8)))
          CFI (cfiCond344) V13 load(1, XDATA, add(CFA_XSP16, literal(-7)))
          CFI (cfiCond344) R7 load(1, XDATA, add(CFA_XSP16, literal(-6)))
          CFI (cfiCond344) ?RET_LOW load(1, XDATA, add(CFA_XSP16, literal(-5)))
          CFI (cfiCond344) ?RET_HIGH load(1, XDATA, add(CFA_XSP16, literal(-4)))
          CFI (cfiCond344) ?BRET_EXT load(1, XDATA, add(CFA_XSP16, literal(-3)))
          CFI (cfiCond344) DPL0 load(1, XDATA, add(CFA_XSP16, literal(-2)))
          CFI (cfiCond344) DPH0 load(1, XDATA, add(CFA_XSP16, literal(-1)))
          CFI (cfiCond344) CFA_SP SP+-4
          CFI (cfiCond344) CFA_XSP16 add(XSP16, 23)
          CFI Block cfiPicker345 Using cfiCommon1
          CFI (cfiPicker345) NoFunction
          CFI (cfiPicker345) Picker
        MOVX      @DPTR,A
        MOV       DPL,R6
        MOV       DPH,R7
        INC       DPTR
        INC       DPTR
        INC       DPTR
        RET
          CFI EndBlock cfiCond342
          CFI EndBlock cfiCond343
          CFI EndBlock cfiCond344
          CFI EndBlock cfiPicker345
// 1572 
// 1573 /*********************************************************************
// 1574  * @fn          ZDP_MgmtLqiRsp
// 1575  *
// 1576  * @brief       This builds and send a Mgmt_Lqi_rsp message. This
// 1577  *              function sends a unicast message.
// 1578  *
// 1579  * @param       dstAddr - destination address of the message
// 1580  * @param       Status - message status (ZDP_SUCCESS or other)
// 1581  * @param       NeighborLqiEntries - Total number of entries found
// 1582  * @param       StartIndex - Starting index within the reporting list
// 1583  * @param       NeighborLqiCount - number of lists included
// 1584  *                                 in this message
// 1585  * @param       NeighborLqiList - List of NeighborLqiItems.  This list
// 1586  *                is the list to be sent, not the entire list
// 1587  * @param       SecurityEnable - true if secure
// 1588  *
// 1589  * @return      ZStatus_t
// 1590  */

        RSEG BANKED_CODE:HUGECODE:NOROOT(0)
// 1591 ZStatus_t ZDP_MgmtLqiRsp( byte TransSeq, zAddrType_t *dstAddr,
ZDP_MgmtLqiRsp:
          CFI Block cfiBlock346 Using cfiCommon0
          CFI Function ZDP_MgmtLqiRsp
        CODE
// 1592                           byte Status,
// 1593                           byte NeighborLqiEntries,
// 1594                           byte StartIndex,
// 1595                           byte NeighborLqiCount,
// 1596                           ZDP_MgmtLqiItem_t* NeighborList,
// 1597                           byte SecurityEnable )
// 1598 {
        FUNCALL ZDP_MgmtLqiRsp, fillAndSend
        LOCFRAME ISTACK, 0, STACK
        LOCFRAME PSTACK, 0, STACK
        LOCFRAME XSTACK, 24, STACK
        LOCFRAME IOVERLAY, 0, STATIC
        LOCFRAME DOVERLAY, 0, STATIC
        ARGFRAME ISTACK, 0, STACK
        ARGFRAME PSTACK, 0, STACK
        ARGFRAME XSTACK, 24, STACK
        ARGFRAME IOVERLAY, 0, STATIC
        ARGFRAME DOVERLAY, 0, STATIC
        FUNCALL ZDP_MgmtLqiRsp, osal_mem_alloc
        LOCFRAME ISTACK, 0, STACK
        LOCFRAME PSTACK, 0, STACK
        LOCFRAME XSTACK, 22, STACK
        LOCFRAME IOVERLAY, 0, STATIC
        LOCFRAME DOVERLAY, 0, STATIC
        ARGFRAME ISTACK, 0, STACK
        ARGFRAME PSTACK, 0, STACK
        ARGFRAME XSTACK, 22, STACK
        ARGFRAME IOVERLAY, 0, STATIC
        ARGFRAME DOVERLAY, 0, STATIC
        FUNCALL ZDP_MgmtLqiRsp, sAddrExtCpy
        LOCFRAME ISTACK, 0, STACK
        LOCFRAME PSTACK, 0, STACK
        LOCFRAME XSTACK, 22, STACK
        LOCFRAME IOVERLAY, 0, STATIC
        LOCFRAME DOVERLAY, 0, STATIC
        ARGFRAME ISTACK, 0, STACK
        ARGFRAME PSTACK, 0, STACK
        ARGFRAME XSTACK, 22, STACK
        ARGFRAME IOVERLAY, 0, STATIC
        ARGFRAME DOVERLAY, 0, STATIC
        FUNCALL ZDP_MgmtLqiRsp, sAddrExtCpy
        LOCFRAME ISTACK, 0, STACK
        LOCFRAME PSTACK, 0, STACK
        LOCFRAME XSTACK, 22, STACK
        LOCFRAME IOVERLAY, 0, STATIC
        LOCFRAME DOVERLAY, 0, STATIC
        ARGFRAME ISTACK, 0, STACK
        ARGFRAME PSTACK, 0, STACK
        ARGFRAME XSTACK, 22, STACK
        ARGFRAME IOVERLAY, 0, STATIC
        ARGFRAME DOVERLAY, 0, STATIC
        FUNCALL ZDP_MgmtLqiRsp, fillAndSend
        LOCFRAME ISTACK, 0, STACK
        LOCFRAME PSTACK, 0, STACK
        LOCFRAME XSTACK, 24, STACK
        LOCFRAME IOVERLAY, 0, STATIC
        LOCFRAME DOVERLAY, 0, STATIC
        ARGFRAME ISTACK, 0, STACK
        ARGFRAME PSTACK, 0, STACK
        ARGFRAME XSTACK, 24, STACK
        ARGFRAME IOVERLAY, 0, STATIC
        ARGFRAME DOVERLAY, 0, STATIC
        FUNCALL ZDP_MgmtLqiRsp, osal_mem_free
        LOCFRAME ISTACK, 0, STACK
        LOCFRAME PSTACK, 0, STACK
        LOCFRAME XSTACK, 22, STACK
        LOCFRAME IOVERLAY, 0, STATIC
        LOCFRAME DOVERLAY, 0, STATIC
        ARGFRAME ISTACK, 0, STACK
        ARGFRAME PSTACK, 0, STACK
        ARGFRAME XSTACK, 22, STACK
        ARGFRAME IOVERLAY, 0, STATIC
        ARGFRAME DOVERLAY, 0, STATIC
        REQUIRE ?V0
        REQUIRE ?V1
        REQUIRE ?V2
        REQUIRE ?V3
        REQUIRE ?V4
        REQUIRE ?V5
        REQUIRE ?V6
        REQUIRE ?V7
        REQUIRE ?V8
        REQUIRE ?V9
        REQUIRE ?V10
        REQUIRE ?V11
        REQUIRE ?V12
        MOV       A,#-0x15
        LCALL     ?BANKED_ENTER_XDATA
          CFI DPH0 load(1, XDATA, add(CFA_XSP16, literal(-1)))
          CFI DPL0 load(1, XDATA, add(CFA_XSP16, literal(-2)))
          CFI ?BRET_EXT load(1, XDATA, add(CFA_XSP16, literal(-3)))
          CFI ?RET_HIGH load(1, XDATA, add(CFA_XSP16, literal(-4)))
          CFI ?RET_LOW load(1, XDATA, add(CFA_XSP16, literal(-5)))
          CFI R7 load(1, XDATA, add(CFA_XSP16, literal(-6)))
          CFI V12 load(1, XDATA, add(CFA_XSP16, literal(-7)))
          CFI V11 load(1, XDATA, add(CFA_XSP16, literal(-8)))
          CFI V10 load(1, XDATA, add(CFA_XSP16, literal(-9)))
          CFI V9 load(1, XDATA, add(CFA_XSP16, literal(-10)))
          CFI V8 load(1, XDATA, add(CFA_XSP16, literal(-11)))
          CFI V7 load(1, XDATA, add(CFA_XSP16, literal(-12)))
          CFI V6 load(1, XDATA, add(CFA_XSP16, literal(-13)))
          CFI V5 load(1, XDATA, add(CFA_XSP16, literal(-14)))
          CFI V4 load(1, XDATA, add(CFA_XSP16, literal(-15)))
          CFI V3 load(1, XDATA, add(CFA_XSP16, literal(-16)))
          CFI V2 load(1, XDATA, add(CFA_XSP16, literal(-17)))
          CFI V1 load(1, XDATA, add(CFA_XSP16, literal(-18)))
          CFI V0 load(1, XDATA, add(CFA_XSP16, literal(-19)))
          CFI VB load(1, XDATA, add(CFA_XSP16, literal(-20)))
          CFI R6 load(1, XDATA, add(CFA_XSP16, literal(-21)))
          CFI CFA_SP SP+0
          CFI CFA_XSP16 add(XSP16, 21)
        ; Saved register size: 21
        ; Auto size: 1
        MOV       A,#-0x1
        LCALL     ?ALLOC_XSTACK8
          CFI CFA_XSP16 add(XSP16, 22)
        MOV       A,R1
        MOV       DPL,?XSP + 0
        MOV       DPH,?XSP + 1
        MOVX      @DPTR,A
        MOV       ?V10,R2
        MOV       ?V11,R3
        MOV       ?V12,R5
// 1599   ZDP_MgmtLqiItem_t* list = NeighborList;
        MOV       A,#0x18
        LCALL     ?XSTACK_DISP0_8
        LCALL     ?Subroutine50 & 0xFFFF
// 1600   uint8 *buf, *pBuf;
// 1601   byte len, x;
// 1602 
// 1603   (void)SecurityEnable;  // Intentionally unreferenced parameter
// 1604 
// 1605   if ( ZSuccess != Status )
??CrossCallReturnLabel_85:
        MOV       A,R4
        JZ        ??ZDP_MgmtLqiRsp_0
// 1606   {
// 1607     ZDP_TmpBuf[0] = Status;
        LCALL     ?Subroutine46 & 0xFFFF
// 1608     return fillAndSend( &TransSeq, dstAddr, Mgmt_Lqi_rsp, 1 );
// 1609   }
??CrossCallReturnLabel_179:
        MOV       A,R4
        LCALL     ?Subroutine34 & 0xFFFF
??CrossCallReturnLabel_48:
        LCALL     ?PUSH_XSTACK_I_TWO
          CFI CFA_XSP16 add(XSP16, 24)
        MOV       R1,#0x1
        MOV       R4,?V10
        MOV       R5,?V11
        MOV       A,#0x2
        LCALL     ?XSTACK_DISP101_8
        LCALL     `??fillAndSend::?relay`; Banked call to: fillAndSend
        MOV       A,#0x2
        LCALL     ?DEALLOC_XSTACK8
          CFI CFA_XSP16 add(XSP16, 22)
        LJMP      ??CrossCallReturnLabel_33 & 0xFFFF
??ZDP_MgmtLqiRsp_0:
        MOV       A,#0x17
        LCALL     ?XSTACK_DISP0_8
        MOVX      A,@DPTR
        MOV       ?V5,A
// 1610 
// 1611   // (Status + NeighborLqiEntries + StartIndex + NeighborLqiCount) +
// 1612   //  neighbor LQI data.
// 1613   len = (1 + 1 + 1 + 1) + (NeighborLqiCount * ZDP_MGMTLQI_EXTENDED_SIZE);
        MOV       B,#0x16
        MUL       AB
        ADD       A,#0x4
        MOV       ?V6,A
// 1614 
// 1615   buf = osal_mem_alloc( len+1 );
        ; Setup parameters for call to function osal_mem_alloc
        LCALL     ?Subroutine67 & 0xFFFF
??CrossCallReturnLabel_116:
        LCALL     `??osal_mem_alloc::?relay`; Banked call to: osal_mem_alloc
        MOV       ?V2,R2
        MOV       ?V3,R3
// 1616   if ( buf == NULL )
        MOV       A,R2
        ORL       A,?V3
        JNZ       ??ZDP_MgmtLqiRsp_1
// 1617   {
// 1618     return afStatus_MEM_FAIL;
        MOV       R1,#0x10
        LJMP      ??CrossCallReturnLabel_33 & 0xFFFF
// 1619   }
// 1620 
// 1621   pBuf = buf+1;
??ZDP_MgmtLqiRsp_1:
        MOV       DPL,R2
        MOV       DPH,R3
        INC       DPTR
        MOV       ?V8,DPL
        MOV       ?V9,DPH
        MOV       ?V0,?V8
        MOV       ?V1,?V9
// 1622 
// 1623   *pBuf++ = Status;
        CLR       A
        MOVX      @DPTR,A
// 1624   *pBuf++ = NeighborLqiEntries;
        INC       DPTR
        MOV       A,?V12
        MOVX      @DPTR,A
// 1625   *pBuf++ = StartIndex;
        MOV       A,#0x16
        LCALL     ?XSTACK_DISP0_8
        LCALL     ?Subroutine64 & 0xFFFF
??CrossCallReturnLabel_112:
        INC       DPTR
        MOVX      @DPTR,A
// 1626   *pBuf++ = NeighborLqiCount;
        MOV       DPL,?V0
        MOV       DPH,?V1
        INC       DPTR
        INC       DPTR
        INC       DPTR
        MOV       A,?V5
        MOVX      @DPTR,A
        MOV       A,?V0
        ADD       A,#0x4
        MOV       ?V0,A
        JNC       ??ZDP_MgmtLqiRsp_2
        INC       ?V1
// 1627 
// 1628   for ( x = 0; x < NeighborLqiCount; x++ )
??ZDP_MgmtLqiRsp_2:
        MOV       ?V4,#0x0
        LJMP      ??ZDP_MgmtLqiRsp_3 & 0xFFFF
// 1629   {
// 1630     osal_cpyExtAddr( pBuf, list->extPanID);         // Extended PanID
??ZDP_MgmtLqiRsp_4:
        ; Setup parameters for call to function sAddrExtCpy
        MOV       A,R6
        ADD       A,#0x2
        MOV       R4,A
        CLR       A
        ADDC      A,R7
        MOV       R5,A
        MOV       R2,?V0
        MOV       R3,?V1
        LCALL     `??sAddrExtCpy::?relay`; Banked call to: sAddrExtCpy
// 1631     pBuf += Z_EXTADDR_LEN;
// 1632 
// 1633     // EXTADDR
// 1634     pBuf = osal_cpyExtAddr( pBuf, list->extAddr );
        ; Setup parameters for call to function sAddrExtCpy
        MOV       A,R6
        ADD       A,#0xa
        MOV       R4,A
        CLR       A
        ADDC      A,R7
        MOV       R5,A
        MOV       A,?V0
        ADD       A,#0x8
        MOV       R2,A
        CLR       A
        ADDC      A,?V1
        MOV       R3,A
        LCALL     `??sAddrExtCpy::?relay`; Banked call to: sAddrExtCpy
        MOV       ?V0,R2
        MOV       ?V1,R3
        MOV       R0,?V0
        MOV       R1,?V1
// 1635 
// 1636     // NWKADDR
// 1637     *pBuf++ = LO_UINT16( list->nwkAddr );
        MOV       A,R6
        ADD       A,#0x12
        MOV       R2,A
        CLR       A
        ADDC      A,R7
        MOV       R3,A
        MOV       DPL,R2
        MOV       DPH,R3
        LCALL     ?Subroutine58 & 0xFFFF
// 1638     *pBuf++ = HI_UINT16( list->nwkAddr );
??CrossCallReturnLabel_100:
        MOV       DPL,R2
        MOV       DPH,R3
        INC       DPTR
        LCALL     ??Subroutine109_0 & 0xFFFF
??CrossCallReturnLabel_203:
        INC       DPTR
        MOVX      @DPTR,A
// 1639 
// 1640     // DEVICETYPE
// 1641     *pBuf = list->devType;
        MOV       A,R0
        ADD       A,#0x2
        MOV       R2,A
        CLR       A
        ADDC      A,R1
        MOV       R3,A
        LCALL     ?Subroutine69 & 0xFFFF
??CrossCallReturnLabel_122:
        LCALL     ?Subroutine59 & 0xFFFF
// 1642 
// 1643     // RXONIDLE
// 1644     *pBuf |= (uint8)(list->rxOnIdle << 2);
??CrossCallReturnLabel_103:
        MOV       A,R6
        ADD       A,#0x15
        MOV       DPL,A
        CLR       A
        ADDC      A,R7
        MOV       DPH,A
        MOVX      A,@DPTR
        RLC       A
        RLC       A
        ANL       A,#0xfc
        MOV       R4,A
        MOV       DPL,R2
        MOV       DPH,R3
        MOVX      A,@DPTR
        ORL       A,R4
        MOVX      @DPTR,A
// 1645 
// 1646     // RELATIONSHIP
// 1647     *pBuf++ |= (uint8)(list->relation << 4);
        MOV       A,R6
        ADD       A,#0x16
        MOV       DPL,A
        CLR       A
        ADDC      A,R7
        MOV       DPH,A
        MOVX      A,@DPTR
        SWAP      A
        ANL       A,#0xf0
        MOV       R4,A
        MOV       DPL,R2
        MOV       DPH,R3
        MOVX      A,@DPTR
        ORL       A,R4
        MOVX      @DPTR,A
// 1648 
// 1649     // PERMITJOINING
// 1650     *pBuf++ = (uint8)(list->permit);
        MOV       A,R6
        ADD       A,#0x17
        LCALL     ?Subroutine60 & 0xFFFF
??CrossCallReturnLabel_104:
        MOVX      @DPTR,A
// 1651 
// 1652     // DEPTH
// 1653     *pBuf++ = list->depth;
        MOV       A,R6
        ADD       A,#0x18
        LCALL     ?Subroutine60 & 0xFFFF
??CrossCallReturnLabel_105:
        INC       DPTR
        MOVX      @DPTR,A
// 1654 
// 1655     // LQI
// 1656     *pBuf++ = list->lqi;
        MOV       A,R6
        ADD       A,#0x19
        MOV       DPL,A
        CLR       A
        ADDC      A,R7
        MOV       DPH,A
        LCALL     ?Subroutine54 & 0xFFFF
??CrossCallReturnLabel_95:
        MOVX      @DPTR,A
        MOV       A,R0
        ADD       A,#0x6
        MOV       ?V0,A
        CLR       A
        ADDC      A,R1
        MOV       ?V1,A
// 1657 
// 1658     list++; // next list entry
        MOV       A,R6
        ADD       A,#0x1a
        MOV       R6,A
        JNC       ??ZDP_MgmtLqiRsp_5
        INC       R7
// 1659   }
??ZDP_MgmtLqiRsp_5:
        INC       ?V4
??ZDP_MgmtLqiRsp_3:
        MOV       A,?V4
        CLR       C
        SUBB      A,?V5
        JNC       $+5
        LJMP      ??ZDP_MgmtLqiRsp_4 & 0xFFFF
// 1660 
// 1661   FillAndSendBuffer( &TransSeq, dstAddr, Mgmt_Lqi_rsp, len, buf );
        MOV       DPTR,#ZDP_TmpBuf
        MOV       A,?V8
        MOVX      @DPTR,A
        INC       DPTR
        MOV       A,?V9
        LCALL     ?Subroutine34 & 0xFFFF
??CrossCallReturnLabel_49:
        LCALL     ?PUSH_XSTACK_I_TWO
          CFI CFA_XSP16 add(XSP16, 24)
        MOV       R1,?V6
        MOV       R4,?V10
        MOV       R5,?V11
        MOV       A,#0x2
        LCALL     ?XSTACK_DISP101_8
        LCALL     `??fillAndSend::?relay`; Banked call to: fillAndSend
        MOV       A,#0x2
        LCALL     ?DEALLOC_XSTACK8
          CFI CFA_XSP16 add(XSP16, 22)
        MOV       A,R1
        MOV       R6,A
        ; Setup parameters for call to function osal_mem_free
        MOV       R2,?V2
        MOV       R3,?V3
        LCALL     `??osal_mem_free::?relay`; Banked call to: osal_mem_free
        LCALL     ?Subroutine24 & 0xFFFF
??CrossCallReturnLabel_33:
        MOV       A,#0x1
        LCALL     ?DEALLOC_XSTACK8
          CFI CFA_XSP16 add(XSP16, 21)
        MOV       R7,#0xd
        LJMP      ?BANKED_LEAVE_XDATA
// 1662 }
          CFI EndBlock cfiBlock346

        RSEG BANKED_CODE:HUGECODE:NOROOT(0)
?Subroutine64:
          CFI Block cfiCond347 Using cfiCommon0
          CFI Function ZDP_EndDeviceBindReq
          CFI Conditional ??CrossCallReturnLabel_111
          CFI R6 load(1, XDATA, add(CFA_XSP16, literal(-18)))
          CFI VB load(1, XDATA, add(CFA_XSP16, literal(-17)))
          CFI V0 load(1, XDATA, add(CFA_XSP16, literal(-16)))
          CFI V1 load(1, XDATA, add(CFA_XSP16, literal(-15)))
          CFI V2 load(1, XDATA, add(CFA_XSP16, literal(-14)))
          CFI V3 load(1, XDATA, add(CFA_XSP16, literal(-13)))
          CFI V4 load(1, XDATA, add(CFA_XSP16, literal(-12)))
          CFI V5 load(1, XDATA, add(CFA_XSP16, literal(-11)))
          CFI V6 load(1, XDATA, add(CFA_XSP16, literal(-10)))
          CFI V7 load(1, XDATA, add(CFA_XSP16, literal(-9)))
          CFI V8 load(1, XDATA, add(CFA_XSP16, literal(-8)))
          CFI V9 load(1, XDATA, add(CFA_XSP16, literal(-7)))
          CFI R7 load(1, XDATA, add(CFA_XSP16, literal(-6)))
          CFI ?RET_LOW load(1, XDATA, add(CFA_XSP16, literal(-5)))
          CFI ?RET_HIGH load(1, XDATA, add(CFA_XSP16, literal(-4)))
          CFI ?BRET_EXT load(1, XDATA, add(CFA_XSP16, literal(-3)))
          CFI DPL0 load(1, XDATA, add(CFA_XSP16, literal(-2)))
          CFI DPH0 load(1, XDATA, add(CFA_XSP16, literal(-1)))
          CFI CFA_SP SP+-2
          CFI CFA_XSP16 add(XSP16, 18)
          CFI Block cfiCond348 Using cfiCommon0
          CFI (cfiCond348) Function ZDP_MgmtLqiRsp
          CFI (cfiCond348) Conditional ??CrossCallReturnLabel_112
          CFI (cfiCond348) R6 load(1, XDATA, add(CFA_XSP16, literal(-21)))
          CFI (cfiCond348) VB load(1, XDATA, add(CFA_XSP16, literal(-20)))
          CFI (cfiCond348) V0 load(1, XDATA, add(CFA_XSP16, literal(-19)))
          CFI (cfiCond348) V1 load(1, XDATA, add(CFA_XSP16, literal(-18)))
          CFI (cfiCond348) V2 load(1, XDATA, add(CFA_XSP16, literal(-17)))
          CFI (cfiCond348) V3 load(1, XDATA, add(CFA_XSP16, literal(-16)))
          CFI (cfiCond348) V4 load(1, XDATA, add(CFA_XSP16, literal(-15)))
          CFI (cfiCond348) V5 load(1, XDATA, add(CFA_XSP16, literal(-14)))
          CFI (cfiCond348) V6 load(1, XDATA, add(CFA_XSP16, literal(-13)))
          CFI (cfiCond348) V7 load(1, XDATA, add(CFA_XSP16, literal(-12)))
          CFI (cfiCond348) V8 load(1, XDATA, add(CFA_XSP16, literal(-11)))
          CFI (cfiCond348) V9 load(1, XDATA, add(CFA_XSP16, literal(-10)))
          CFI (cfiCond348) V10 load(1, XDATA, add(CFA_XSP16, literal(-9)))
          CFI (cfiCond348) V11 load(1, XDATA, add(CFA_XSP16, literal(-8)))
          CFI (cfiCond348) V12 load(1, XDATA, add(CFA_XSP16, literal(-7)))
          CFI (cfiCond348) R7 load(1, XDATA, add(CFA_XSP16, literal(-6)))
          CFI (cfiCond348) ?RET_LOW load(1, XDATA, add(CFA_XSP16, literal(-5)))
          CFI (cfiCond348) ?RET_HIGH load(1, XDATA, add(CFA_XSP16, literal(-4)))
          CFI (cfiCond348) ?BRET_EXT load(1, XDATA, add(CFA_XSP16, literal(-3)))
          CFI (cfiCond348) DPL0 load(1, XDATA, add(CFA_XSP16, literal(-2)))
          CFI (cfiCond348) DPH0 load(1, XDATA, add(CFA_XSP16, literal(-1)))
          CFI (cfiCond348) CFA_SP SP+-2
          CFI (cfiCond348) CFA_XSP16 add(XSP16, 22)
          CFI Block cfiPicker349 Using cfiCommon1
          CFI (cfiPicker349) NoFunction
          CFI (cfiPicker349) Picker
        MOVX      A,@DPTR
        MOV       DPL,?V0
        MOV       DPH,?V1
        INC       DPTR
        RET
          CFI EndBlock cfiCond347
          CFI EndBlock cfiCond348
          CFI EndBlock cfiPicker349

        RSEG BANKED_CODE:HUGECODE:NOROOT(0)
?Subroutine60:
          CFI Block cfiCond350 Using cfiCommon0
          CFI Function ZDP_MgmtLqiRsp
          CFI Conditional ??CrossCallReturnLabel_104
          CFI R6 load(1, XDATA, add(CFA_XSP16, literal(-21)))
          CFI VB load(1, XDATA, add(CFA_XSP16, literal(-20)))
          CFI V0 load(1, XDATA, add(CFA_XSP16, literal(-19)))
          CFI V1 load(1, XDATA, add(CFA_XSP16, literal(-18)))
          CFI V2 load(1, XDATA, add(CFA_XSP16, literal(-17)))
          CFI V3 load(1, XDATA, add(CFA_XSP16, literal(-16)))
          CFI V4 load(1, XDATA, add(CFA_XSP16, literal(-15)))
          CFI V5 load(1, XDATA, add(CFA_XSP16, literal(-14)))
          CFI V6 load(1, XDATA, add(CFA_XSP16, literal(-13)))
          CFI V7 load(1, XDATA, add(CFA_XSP16, literal(-12)))
          CFI V8 load(1, XDATA, add(CFA_XSP16, literal(-11)))
          CFI V9 load(1, XDATA, add(CFA_XSP16, literal(-10)))
          CFI V10 load(1, XDATA, add(CFA_XSP16, literal(-9)))
          CFI V11 load(1, XDATA, add(CFA_XSP16, literal(-8)))
          CFI V12 load(1, XDATA, add(CFA_XSP16, literal(-7)))
          CFI R7 load(1, XDATA, add(CFA_XSP16, literal(-6)))
          CFI ?RET_LOW load(1, XDATA, add(CFA_XSP16, literal(-5)))
          CFI ?RET_HIGH load(1, XDATA, add(CFA_XSP16, literal(-4)))
          CFI ?BRET_EXT load(1, XDATA, add(CFA_XSP16, literal(-3)))
          CFI DPL0 load(1, XDATA, add(CFA_XSP16, literal(-2)))
          CFI DPH0 load(1, XDATA, add(CFA_XSP16, literal(-1)))
          CFI CFA_SP SP+-2
          CFI CFA_XSP16 add(XSP16, 22)
          CFI Block cfiCond351 Using cfiCommon0
          CFI (cfiCond351) Function ZDP_MgmtLqiRsp
          CFI (cfiCond351) Conditional ??CrossCallReturnLabel_105
          CFI (cfiCond351) R6 load(1, XDATA, add(CFA_XSP16, literal(-21)))
          CFI (cfiCond351) VB load(1, XDATA, add(CFA_XSP16, literal(-20)))
          CFI (cfiCond351) V0 load(1, XDATA, add(CFA_XSP16, literal(-19)))
          CFI (cfiCond351) V1 load(1, XDATA, add(CFA_XSP16, literal(-18)))
          CFI (cfiCond351) V2 load(1, XDATA, add(CFA_XSP16, literal(-17)))
          CFI (cfiCond351) V3 load(1, XDATA, add(CFA_XSP16, literal(-16)))
          CFI (cfiCond351) V4 load(1, XDATA, add(CFA_XSP16, literal(-15)))
          CFI (cfiCond351) V5 load(1, XDATA, add(CFA_XSP16, literal(-14)))
          CFI (cfiCond351) V6 load(1, XDATA, add(CFA_XSP16, literal(-13)))
          CFI (cfiCond351) V7 load(1, XDATA, add(CFA_XSP16, literal(-12)))
          CFI (cfiCond351) V8 load(1, XDATA, add(CFA_XSP16, literal(-11)))
          CFI (cfiCond351) V9 load(1, XDATA, add(CFA_XSP16, literal(-10)))
          CFI (cfiCond351) V10 load(1, XDATA, add(CFA_XSP16, literal(-9)))
          CFI (cfiCond351) V11 load(1, XDATA, add(CFA_XSP16, literal(-8)))
          CFI (cfiCond351) V12 load(1, XDATA, add(CFA_XSP16, literal(-7)))
          CFI (cfiCond351) R7 load(1, XDATA, add(CFA_XSP16, literal(-6)))
          CFI (cfiCond351) ?RET_LOW load(1, XDATA, add(CFA_XSP16, literal(-5)))
          CFI (cfiCond351) ?RET_HIGH load(1, XDATA, add(CFA_XSP16, literal(-4)))
          CFI (cfiCond351) ?BRET_EXT load(1, XDATA, add(CFA_XSP16, literal(-3)))
          CFI (cfiCond351) DPL0 load(1, XDATA, add(CFA_XSP16, literal(-2)))
          CFI (cfiCond351) DPH0 load(1, XDATA, add(CFA_XSP16, literal(-1)))
          CFI (cfiCond351) CFA_SP SP+-2
          CFI (cfiCond351) CFA_XSP16 add(XSP16, 22)
          CFI Block cfiPicker352 Using cfiCommon1
          CFI (cfiPicker352) NoFunction
          CFI (cfiPicker352) Picker
        MOV       DPL,A
        CLR       A
        ADDC      A,R7
        LCALL     ?Subroutine74 & 0xFFFF
??CrossCallReturnLabel_209:
        INC       DPTR
        INC       DPTR
        INC       DPTR
        RET
          CFI EndBlock cfiCond350
          CFI EndBlock cfiCond351
          CFI EndBlock cfiPicker352

        RSEG BANKED_CODE:HUGECODE:NOROOT(0)
?Subroutine54:
          CFI Block cfiCond353 Using cfiCommon0
          CFI Function ZDP_SimpleDescMsg
          CFI Conditional ??CrossCallReturnLabel_94
          CFI R6 load(1, XDATA, add(CFA_XSP16, literal(-20)))
          CFI VB load(1, XDATA, add(CFA_XSP16, literal(-19)))
          CFI V0 load(1, XDATA, add(CFA_XSP16, literal(-18)))
          CFI V1 load(1, XDATA, add(CFA_XSP16, literal(-17)))
          CFI V2 load(1, XDATA, add(CFA_XSP16, literal(-16)))
          CFI V3 load(1, XDATA, add(CFA_XSP16, literal(-15)))
          CFI V4 load(1, XDATA, add(CFA_XSP16, literal(-14)))
          CFI V5 load(1, XDATA, add(CFA_XSP16, literal(-13)))
          CFI V6 load(1, XDATA, add(CFA_XSP16, literal(-12)))
          CFI V7 load(1, XDATA, add(CFA_XSP16, literal(-11)))
          CFI V8 load(1, XDATA, add(CFA_XSP16, literal(-10)))
          CFI V9 load(1, XDATA, add(CFA_XSP16, literal(-9)))
          CFI V10 load(1, XDATA, add(CFA_XSP16, literal(-8)))
          CFI V11 load(1, XDATA, add(CFA_XSP16, literal(-7)))
          CFI R7 load(1, XDATA, add(CFA_XSP16, literal(-6)))
          CFI ?RET_LOW load(1, XDATA, add(CFA_XSP16, literal(-5)))
          CFI ?RET_HIGH load(1, XDATA, add(CFA_XSP16, literal(-4)))
          CFI ?BRET_EXT load(1, XDATA, add(CFA_XSP16, literal(-3)))
          CFI DPL0 load(1, XDATA, add(CFA_XSP16, literal(-2)))
          CFI DPH0 load(1, XDATA, add(CFA_XSP16, literal(-1)))
          CFI CFA_SP SP+-2
          CFI CFA_XSP16 add(XSP16, 20)
          CFI Block cfiCond354 Using cfiCommon0
          CFI (cfiCond354) Function ZDP_MgmtLqiRsp
          CFI (cfiCond354) Conditional ??CrossCallReturnLabel_95
          CFI (cfiCond354) R6 load(1, XDATA, add(CFA_XSP16, literal(-21)))
          CFI (cfiCond354) VB load(1, XDATA, add(CFA_XSP16, literal(-20)))
          CFI (cfiCond354) V0 load(1, XDATA, add(CFA_XSP16, literal(-19)))
          CFI (cfiCond354) V1 load(1, XDATA, add(CFA_XSP16, literal(-18)))
          CFI (cfiCond354) V2 load(1, XDATA, add(CFA_XSP16, literal(-17)))
          CFI (cfiCond354) V3 load(1, XDATA, add(CFA_XSP16, literal(-16)))
          CFI (cfiCond354) V4 load(1, XDATA, add(CFA_XSP16, literal(-15)))
          CFI (cfiCond354) V5 load(1, XDATA, add(CFA_XSP16, literal(-14)))
          CFI (cfiCond354) V6 load(1, XDATA, add(CFA_XSP16, literal(-13)))
          CFI (cfiCond354) V7 load(1, XDATA, add(CFA_XSP16, literal(-12)))
          CFI (cfiCond354) V8 load(1, XDATA, add(CFA_XSP16, literal(-11)))
          CFI (cfiCond354) V9 load(1, XDATA, add(CFA_XSP16, literal(-10)))
          CFI (cfiCond354) V10 load(1, XDATA, add(CFA_XSP16, literal(-9)))
          CFI (cfiCond354) V11 load(1, XDATA, add(CFA_XSP16, literal(-8)))
          CFI (cfiCond354) V12 load(1, XDATA, add(CFA_XSP16, literal(-7)))
          CFI (cfiCond354) R7 load(1, XDATA, add(CFA_XSP16, literal(-6)))
          CFI (cfiCond354) ?RET_LOW load(1, XDATA, add(CFA_XSP16, literal(-5)))
          CFI (cfiCond354) ?RET_HIGH load(1, XDATA, add(CFA_XSP16, literal(-4)))
          CFI (cfiCond354) ?BRET_EXT load(1, XDATA, add(CFA_XSP16, literal(-3)))
          CFI (cfiCond354) DPL0 load(1, XDATA, add(CFA_XSP16, literal(-2)))
          CFI (cfiCond354) DPH0 load(1, XDATA, add(CFA_XSP16, literal(-1)))
          CFI (cfiCond354) CFA_SP SP+-2
          CFI (cfiCond354) CFA_XSP16 add(XSP16, 22)
          CFI Block cfiPicker355 Using cfiCommon1
          CFI (cfiPicker355) NoFunction
          CFI (cfiPicker355) Picker
        LCALL     ?Subroutine73 & 0xFFFF
??CrossCallReturnLabel_132:
        RET
          CFI EndBlock cfiCond353
          CFI EndBlock cfiCond354
          CFI EndBlock cfiPicker355

        RSEG BANKED_CODE:HUGECODE:NOROOT(0)
?Subroutine73:
          CFI Block cfiCond356 Using cfiCommon0
          CFI Function ZDP_SimpleDescMsg
          CFI Conditional ??CrossCallReturnLabel_131, ??CrossCallReturnLabel_4
          CFI R6 load(1, XDATA, add(CFA_XSP16, literal(-20)))
          CFI VB load(1, XDATA, add(CFA_XSP16, literal(-19)))
          CFI V0 load(1, XDATA, add(CFA_XSP16, literal(-18)))
          CFI V1 load(1, XDATA, add(CFA_XSP16, literal(-17)))
          CFI V2 load(1, XDATA, add(CFA_XSP16, literal(-16)))
          CFI V3 load(1, XDATA, add(CFA_XSP16, literal(-15)))
          CFI V4 load(1, XDATA, add(CFA_XSP16, literal(-14)))
          CFI V5 load(1, XDATA, add(CFA_XSP16, literal(-13)))
          CFI V6 load(1, XDATA, add(CFA_XSP16, literal(-12)))
          CFI V7 load(1, XDATA, add(CFA_XSP16, literal(-11)))
          CFI V8 load(1, XDATA, add(CFA_XSP16, literal(-10)))
          CFI V9 load(1, XDATA, add(CFA_XSP16, literal(-9)))
          CFI V10 load(1, XDATA, add(CFA_XSP16, literal(-8)))
          CFI V11 load(1, XDATA, add(CFA_XSP16, literal(-7)))
          CFI R7 load(1, XDATA, add(CFA_XSP16, literal(-6)))
          CFI ?RET_LOW load(1, XDATA, add(CFA_XSP16, literal(-5)))
          CFI ?RET_HIGH load(1, XDATA, add(CFA_XSP16, literal(-4)))
          CFI ?BRET_EXT load(1, XDATA, add(CFA_XSP16, literal(-3)))
          CFI DPL0 load(1, XDATA, add(CFA_XSP16, literal(-2)))
          CFI DPH0 load(1, XDATA, add(CFA_XSP16, literal(-1)))
          CFI CFA_SP SP+-4
          CFI CFA_XSP16 add(XSP16, 20)
          CFI Block cfiCond357 Using cfiCommon0
          CFI (cfiCond357) Function ZDP_SimpleDescMsg
          CFI (cfiCond357) Conditional ??CrossCallReturnLabel_131, ??CrossCallReturnLabel_5
          CFI (cfiCond357) R6 load(1, XDATA, add(CFA_XSP16, literal(-20)))
          CFI (cfiCond357) VB load(1, XDATA, add(CFA_XSP16, literal(-19)))
          CFI (cfiCond357) V0 load(1, XDATA, add(CFA_XSP16, literal(-18)))
          CFI (cfiCond357) V1 load(1, XDATA, add(CFA_XSP16, literal(-17)))
          CFI (cfiCond357) V2 load(1, XDATA, add(CFA_XSP16, literal(-16)))
          CFI (cfiCond357) V3 load(1, XDATA, add(CFA_XSP16, literal(-15)))
          CFI (cfiCond357) V4 load(1, XDATA, add(CFA_XSP16, literal(-14)))
          CFI (cfiCond357) V5 load(1, XDATA, add(CFA_XSP16, literal(-13)))
          CFI (cfiCond357) V6 load(1, XDATA, add(CFA_XSP16, literal(-12)))
          CFI (cfiCond357) V7 load(1, XDATA, add(CFA_XSP16, literal(-11)))
          CFI (cfiCond357) V8 load(1, XDATA, add(CFA_XSP16, literal(-10)))
          CFI (cfiCond357) V9 load(1, XDATA, add(CFA_XSP16, literal(-9)))
          CFI (cfiCond357) V10 load(1, XDATA, add(CFA_XSP16, literal(-8)))
          CFI (cfiCond357) V11 load(1, XDATA, add(CFA_XSP16, literal(-7)))
          CFI (cfiCond357) R7 load(1, XDATA, add(CFA_XSP16, literal(-6)))
          CFI (cfiCond357) ?RET_LOW load(1, XDATA, add(CFA_XSP16, literal(-5)))
          CFI (cfiCond357) ?RET_HIGH load(1, XDATA, add(CFA_XSP16, literal(-4)))
          CFI (cfiCond357) ?BRET_EXT load(1, XDATA, add(CFA_XSP16, literal(-3)))
          CFI (cfiCond357) DPL0 load(1, XDATA, add(CFA_XSP16, literal(-2)))
          CFI (cfiCond357) DPH0 load(1, XDATA, add(CFA_XSP16, literal(-1)))
          CFI (cfiCond357) CFA_SP SP+-4
          CFI (cfiCond357) CFA_XSP16 add(XSP16, 20)
          CFI Block cfiCond358 Using cfiCommon0
          CFI (cfiCond358) Function ZDP_SimpleDescMsg
          CFI (cfiCond358) Conditional ??CrossCallReturnLabel_132, ??CrossCallReturnLabel_94
          CFI (cfiCond358) R6 load(1, XDATA, add(CFA_XSP16, literal(-20)))
          CFI (cfiCond358) VB load(1, XDATA, add(CFA_XSP16, literal(-19)))
          CFI (cfiCond358) V0 load(1, XDATA, add(CFA_XSP16, literal(-18)))
          CFI (cfiCond358) V1 load(1, XDATA, add(CFA_XSP16, literal(-17)))
          CFI (cfiCond358) V2 load(1, XDATA, add(CFA_XSP16, literal(-16)))
          CFI (cfiCond358) V3 load(1, XDATA, add(CFA_XSP16, literal(-15)))
          CFI (cfiCond358) V4 load(1, XDATA, add(CFA_XSP16, literal(-14)))
          CFI (cfiCond358) V5 load(1, XDATA, add(CFA_XSP16, literal(-13)))
          CFI (cfiCond358) V6 load(1, XDATA, add(CFA_XSP16, literal(-12)))
          CFI (cfiCond358) V7 load(1, XDATA, add(CFA_XSP16, literal(-11)))
          CFI (cfiCond358) V8 load(1, XDATA, add(CFA_XSP16, literal(-10)))
          CFI (cfiCond358) V9 load(1, XDATA, add(CFA_XSP16, literal(-9)))
          CFI (cfiCond358) V10 load(1, XDATA, add(CFA_XSP16, literal(-8)))
          CFI (cfiCond358) V11 load(1, XDATA, add(CFA_XSP16, literal(-7)))
          CFI (cfiCond358) R7 load(1, XDATA, add(CFA_XSP16, literal(-6)))
          CFI (cfiCond358) ?RET_LOW load(1, XDATA, add(CFA_XSP16, literal(-5)))
          CFI (cfiCond358) ?RET_HIGH load(1, XDATA, add(CFA_XSP16, literal(-4)))
          CFI (cfiCond358) ?BRET_EXT load(1, XDATA, add(CFA_XSP16, literal(-3)))
          CFI (cfiCond358) DPL0 load(1, XDATA, add(CFA_XSP16, literal(-2)))
          CFI (cfiCond358) DPH0 load(1, XDATA, add(CFA_XSP16, literal(-1)))
          CFI (cfiCond358) CFA_SP SP+-4
          CFI (cfiCond358) CFA_XSP16 add(XSP16, 20)
          CFI Block cfiCond359 Using cfiCommon0
          CFI (cfiCond359) Function ZDP_MgmtLqiRsp
          CFI (cfiCond359) Conditional ??CrossCallReturnLabel_132, ??CrossCallReturnLabel_95
          CFI (cfiCond359) R6 load(1, XDATA, add(CFA_XSP16, literal(-21)))
          CFI (cfiCond359) VB load(1, XDATA, add(CFA_XSP16, literal(-20)))
          CFI (cfiCond359) V0 load(1, XDATA, add(CFA_XSP16, literal(-19)))
          CFI (cfiCond359) V1 load(1, XDATA, add(CFA_XSP16, literal(-18)))
          CFI (cfiCond359) V2 load(1, XDATA, add(CFA_XSP16, literal(-17)))
          CFI (cfiCond359) V3 load(1, XDATA, add(CFA_XSP16, literal(-16)))
          CFI (cfiCond359) V4 load(1, XDATA, add(CFA_XSP16, literal(-15)))
          CFI (cfiCond359) V5 load(1, XDATA, add(CFA_XSP16, literal(-14)))
          CFI (cfiCond359) V6 load(1, XDATA, add(CFA_XSP16, literal(-13)))
          CFI (cfiCond359) V7 load(1, XDATA, add(CFA_XSP16, literal(-12)))
          CFI (cfiCond359) V8 load(1, XDATA, add(CFA_XSP16, literal(-11)))
          CFI (cfiCond359) V9 load(1, XDATA, add(CFA_XSP16, literal(-10)))
          CFI (cfiCond359) V10 load(1, XDATA, add(CFA_XSP16, literal(-9)))
          CFI (cfiCond359) V11 load(1, XDATA, add(CFA_XSP16, literal(-8)))
          CFI (cfiCond359) V12 load(1, XDATA, add(CFA_XSP16, literal(-7)))
          CFI (cfiCond359) R7 load(1, XDATA, add(CFA_XSP16, literal(-6)))
          CFI (cfiCond359) ?RET_LOW load(1, XDATA, add(CFA_XSP16, literal(-5)))
          CFI (cfiCond359) ?RET_HIGH load(1, XDATA, add(CFA_XSP16, literal(-4)))
          CFI (cfiCond359) ?BRET_EXT load(1, XDATA, add(CFA_XSP16, literal(-3)))
          CFI (cfiCond359) DPL0 load(1, XDATA, add(CFA_XSP16, literal(-2)))
          CFI (cfiCond359) DPH0 load(1, XDATA, add(CFA_XSP16, literal(-1)))
          CFI (cfiCond359) CFA_SP SP+-4
          CFI (cfiCond359) CFA_XSP16 add(XSP16, 22)
          CFI Block cfiPicker360 Using cfiCommon1
          CFI (cfiPicker360) NoFunction
          CFI (cfiPicker360) Picker
        MOVX      A,@DPTR
        MOV       DPL,R0
        MOV       DPH,R1
        INC       DPTR
        INC       DPTR
        INC       DPTR
        INC       DPTR
        INC       DPTR
        RET
          CFI EndBlock cfiCond356
          CFI EndBlock cfiCond357
          CFI EndBlock cfiCond358
          CFI EndBlock cfiCond359
          CFI EndBlock cfiPicker360

        RSEG BANKED_CODE:HUGECODE:NOROOT(0)
?Subroutine50:
          CFI Block cfiCond361 Using cfiCommon0
          CFI Function zdpProcessAddrReq
          CFI Conditional ??CrossCallReturnLabel_83
          CFI R6 load(1, XDATA, add(CFA_XSP16, literal(-20)))
          CFI VB load(1, XDATA, add(CFA_XSP16, literal(-19)))
          CFI V0 load(1, XDATA, add(CFA_XSP16, literal(-18)))
          CFI V1 load(1, XDATA, add(CFA_XSP16, literal(-17)))
          CFI V2 load(1, XDATA, add(CFA_XSP16, literal(-16)))
          CFI V3 load(1, XDATA, add(CFA_XSP16, literal(-15)))
          CFI V4 load(1, XDATA, add(CFA_XSP16, literal(-14)))
          CFI V5 load(1, XDATA, add(CFA_XSP16, literal(-13)))
          CFI V6 load(1, XDATA, add(CFA_XSP16, literal(-12)))
          CFI V7 load(1, XDATA, add(CFA_XSP16, literal(-11)))
          CFI V8 load(1, XDATA, add(CFA_XSP16, literal(-10)))
          CFI V9 load(1, XDATA, add(CFA_XSP16, literal(-9)))
          CFI V10 load(1, XDATA, add(CFA_XSP16, literal(-8)))
          CFI V11 load(1, XDATA, add(CFA_XSP16, literal(-7)))
          CFI R7 load(1, XDATA, add(CFA_XSP16, literal(-6)))
          CFI ?RET_LOW load(1, XDATA, add(CFA_XSP16, literal(-5)))
          CFI ?RET_HIGH load(1, XDATA, add(CFA_XSP16, literal(-4)))
          CFI ?BRET_EXT load(1, XDATA, add(CFA_XSP16, literal(-3)))
          CFI DPL0 load(1, XDATA, add(CFA_XSP16, literal(-2)))
          CFI DPH0 load(1, XDATA, add(CFA_XSP16, literal(-1)))
          CFI CFA_SP SP+-2
          CFI CFA_XSP16 add(XSP16, 28)
          CFI Block cfiCond362 Using cfiCommon0
          CFI (cfiCond362) Function ZDP_BindUnbindReq
          CFI (cfiCond362) Conditional ??CrossCallReturnLabel_84
          CFI (cfiCond362) R6 load(1, XDATA, add(CFA_XSP16, literal(-18)))
          CFI (cfiCond362) VB load(1, XDATA, add(CFA_XSP16, literal(-17)))
          CFI (cfiCond362) V0 load(1, XDATA, add(CFA_XSP16, literal(-16)))
          CFI (cfiCond362) V1 load(1, XDATA, add(CFA_XSP16, literal(-15)))
          CFI (cfiCond362) V2 load(1, XDATA, add(CFA_XSP16, literal(-14)))
          CFI (cfiCond362) V3 load(1, XDATA, add(CFA_XSP16, literal(-13)))
          CFI (cfiCond362) V4 load(1, XDATA, add(CFA_XSP16, literal(-12)))
          CFI (cfiCond362) V5 load(1, XDATA, add(CFA_XSP16, literal(-11)))
          CFI (cfiCond362) V6 load(1, XDATA, add(CFA_XSP16, literal(-10)))
          CFI (cfiCond362) V7 load(1, XDATA, add(CFA_XSP16, literal(-9)))
          CFI (cfiCond362) V8 load(1, XDATA, add(CFA_XSP16, literal(-8)))
          CFI (cfiCond362) V9 load(1, XDATA, add(CFA_XSP16, literal(-7)))
          CFI (cfiCond362) R7 load(1, XDATA, add(CFA_XSP16, literal(-6)))
          CFI (cfiCond362) ?RET_LOW load(1, XDATA, add(CFA_XSP16, literal(-5)))
          CFI (cfiCond362) ?RET_HIGH load(1, XDATA, add(CFA_XSP16, literal(-4)))
          CFI (cfiCond362) ?BRET_EXT load(1, XDATA, add(CFA_XSP16, literal(-3)))
          CFI (cfiCond362) DPL0 load(1, XDATA, add(CFA_XSP16, literal(-2)))
          CFI (cfiCond362) DPH0 load(1, XDATA, add(CFA_XSP16, literal(-1)))
          CFI (cfiCond362) CFA_SP SP+-2
          CFI (cfiCond362) CFA_XSP16 add(XSP16, 18)
          CFI Block cfiCond363 Using cfiCommon0
          CFI (cfiCond363) Function ZDP_MgmtLqiRsp
          CFI (cfiCond363) Conditional ??CrossCallReturnLabel_85
          CFI (cfiCond363) R6 load(1, XDATA, add(CFA_XSP16, literal(-21)))
          CFI (cfiCond363) VB load(1, XDATA, add(CFA_XSP16, literal(-20)))
          CFI (cfiCond363) V0 load(1, XDATA, add(CFA_XSP16, literal(-19)))
          CFI (cfiCond363) V1 load(1, XDATA, add(CFA_XSP16, literal(-18)))
          CFI (cfiCond363) V2 load(1, XDATA, add(CFA_XSP16, literal(-17)))
          CFI (cfiCond363) V3 load(1, XDATA, add(CFA_XSP16, literal(-16)))
          CFI (cfiCond363) V4 load(1, XDATA, add(CFA_XSP16, literal(-15)))
          CFI (cfiCond363) V5 load(1, XDATA, add(CFA_XSP16, literal(-14)))
          CFI (cfiCond363) V6 load(1, XDATA, add(CFA_XSP16, literal(-13)))
          CFI (cfiCond363) V7 load(1, XDATA, add(CFA_XSP16, literal(-12)))
          CFI (cfiCond363) V8 load(1, XDATA, add(CFA_XSP16, literal(-11)))
          CFI (cfiCond363) V9 load(1, XDATA, add(CFA_XSP16, literal(-10)))
          CFI (cfiCond363) V10 load(1, XDATA, add(CFA_XSP16, literal(-9)))
          CFI (cfiCond363) V11 load(1, XDATA, add(CFA_XSP16, literal(-8)))
          CFI (cfiCond363) V12 load(1, XDATA, add(CFA_XSP16, literal(-7)))
          CFI (cfiCond363) R7 load(1, XDATA, add(CFA_XSP16, literal(-6)))
          CFI (cfiCond363) ?RET_LOW load(1, XDATA, add(CFA_XSP16, literal(-5)))
          CFI (cfiCond363) ?RET_HIGH load(1, XDATA, add(CFA_XSP16, literal(-4)))
          CFI (cfiCond363) ?BRET_EXT load(1, XDATA, add(CFA_XSP16, literal(-3)))
          CFI (cfiCond363) DPL0 load(1, XDATA, add(CFA_XSP16, literal(-2)))
          CFI (cfiCond363) DPH0 load(1, XDATA, add(CFA_XSP16, literal(-1)))
          CFI (cfiCond363) CFA_SP SP+-2
          CFI (cfiCond363) CFA_XSP16 add(XSP16, 22)
          CFI Block cfiCond364 Using cfiCommon0
          CFI (cfiCond364) Function ZDP_MgmtBindRsp
          CFI (cfiCond364) Conditional ??CrossCallReturnLabel_86
          CFI (cfiCond364) R6 load(1, XDATA, add(CFA_XSP16, literal(-22)))
          CFI (cfiCond364) VB load(1, XDATA, add(CFA_XSP16, literal(-21)))
          CFI (cfiCond364) V0 load(1, XDATA, add(CFA_XSP16, literal(-20)))
          CFI (cfiCond364) V1 load(1, XDATA, add(CFA_XSP16, literal(-19)))
          CFI (cfiCond364) V2 load(1, XDATA, add(CFA_XSP16, literal(-18)))
          CFI (cfiCond364) V3 load(1, XDATA, add(CFA_XSP16, literal(-17)))
          CFI (cfiCond364) V4 load(1, XDATA, add(CFA_XSP16, literal(-16)))
          CFI (cfiCond364) V5 load(1, XDATA, add(CFA_XSP16, literal(-15)))
          CFI (cfiCond364) V6 load(1, XDATA, add(CFA_XSP16, literal(-14)))
          CFI (cfiCond364) V7 load(1, XDATA, add(CFA_XSP16, literal(-13)))
          CFI (cfiCond364) V8 load(1, XDATA, add(CFA_XSP16, literal(-12)))
          CFI (cfiCond364) V9 load(1, XDATA, add(CFA_XSP16, literal(-11)))
          CFI (cfiCond364) V10 load(1, XDATA, add(CFA_XSP16, literal(-10)))
          CFI (cfiCond364) V11 load(1, XDATA, add(CFA_XSP16, literal(-9)))
          CFI (cfiCond364) V12 load(1, XDATA, add(CFA_XSP16, literal(-8)))
          CFI (cfiCond364) V13 load(1, XDATA, add(CFA_XSP16, literal(-7)))
          CFI (cfiCond364) R7 load(1, XDATA, add(CFA_XSP16, literal(-6)))
          CFI (cfiCond364) ?RET_LOW load(1, XDATA, add(CFA_XSP16, literal(-5)))
          CFI (cfiCond364) ?RET_HIGH load(1, XDATA, add(CFA_XSP16, literal(-4)))
          CFI (cfiCond364) ?BRET_EXT load(1, XDATA, add(CFA_XSP16, literal(-3)))
          CFI (cfiCond364) DPL0 load(1, XDATA, add(CFA_XSP16, literal(-2)))
          CFI (cfiCond364) DPH0 load(1, XDATA, add(CFA_XSP16, literal(-1)))
          CFI (cfiCond364) CFA_SP SP+-2
          CFI (cfiCond364) CFA_XSP16 add(XSP16, 23)
          CFI Block cfiCond365 Using cfiCommon0
          CFI (cfiCond365) Function ZDO_RegisterForZDOMsg
          CFI (cfiCond365) Conditional ??CrossCallReturnLabel_87
          CFI (cfiCond365) R6 load(1, XDATA, add(CFA_XSP16, literal(-14)))
          CFI (cfiCond365) VB load(1, XDATA, add(CFA_XSP16, literal(-13)))
          CFI (cfiCond365) V0 load(1, XDATA, add(CFA_XSP16, literal(-12)))
          CFI (cfiCond365) V1 load(1, XDATA, add(CFA_XSP16, literal(-11)))
          CFI (cfiCond365) V2 load(1, XDATA, add(CFA_XSP16, literal(-10)))
          CFI (cfiCond365) V3 load(1, XDATA, add(CFA_XSP16, literal(-9)))
          CFI (cfiCond365) V4 load(1, XDATA, add(CFA_XSP16, literal(-8)))
          CFI (cfiCond365) V5 load(1, XDATA, add(CFA_XSP16, literal(-7)))
          CFI (cfiCond365) R7 load(1, XDATA, add(CFA_XSP16, literal(-6)))
          CFI (cfiCond365) ?RET_LOW load(1, XDATA, add(CFA_XSP16, literal(-5)))
          CFI (cfiCond365) ?RET_HIGH load(1, XDATA, add(CFA_XSP16, literal(-4)))
          CFI (cfiCond365) ?BRET_EXT load(1, XDATA, add(CFA_XSP16, literal(-3)))
          CFI (cfiCond365) DPL0 load(1, XDATA, add(CFA_XSP16, literal(-2)))
          CFI (cfiCond365) DPH0 load(1, XDATA, add(CFA_XSP16, literal(-1)))
          CFI (cfiCond365) CFA_SP SP+-2
          CFI (cfiCond365) CFA_XSP16 add(XSP16, 14)
          CFI Block cfiPicker366 Using cfiCommon1
          CFI (cfiPicker366) NoFunction
          CFI (cfiPicker366) Picker
        MOVX      A,@DPTR
        MOV       R6,A
        INC       DPTR
        MOVX      A,@DPTR
        MOV       R7,A
        RET
          CFI EndBlock cfiCond361
          CFI EndBlock cfiCond362
          CFI EndBlock cfiCond363
          CFI EndBlock cfiCond364
          CFI EndBlock cfiCond365
          CFI EndBlock cfiPicker366

        RSEG BANKED_CODE:HUGECODE:NOROOT(0)
?Subroutine34:
          CFI Block cfiCond367 Using cfiCommon0
          CFI Function ZDP_MgmtLqiRsp
          CFI Conditional ??CrossCallReturnLabel_48
          CFI R6 load(1, XDATA, add(CFA_XSP16, literal(-21)))
          CFI VB load(1, XDATA, add(CFA_XSP16, literal(-20)))
          CFI V0 load(1, XDATA, add(CFA_XSP16, literal(-19)))
          CFI V1 load(1, XDATA, add(CFA_XSP16, literal(-18)))
          CFI V2 load(1, XDATA, add(CFA_XSP16, literal(-17)))
          CFI V3 load(1, XDATA, add(CFA_XSP16, literal(-16)))
          CFI V4 load(1, XDATA, add(CFA_XSP16, literal(-15)))
          CFI V5 load(1, XDATA, add(CFA_XSP16, literal(-14)))
          CFI V6 load(1, XDATA, add(CFA_XSP16, literal(-13)))
          CFI V7 load(1, XDATA, add(CFA_XSP16, literal(-12)))
          CFI V8 load(1, XDATA, add(CFA_XSP16, literal(-11)))
          CFI V9 load(1, XDATA, add(CFA_XSP16, literal(-10)))
          CFI V10 load(1, XDATA, add(CFA_XSP16, literal(-9)))
          CFI V11 load(1, XDATA, add(CFA_XSP16, literal(-8)))
          CFI V12 load(1, XDATA, add(CFA_XSP16, literal(-7)))
          CFI R7 load(1, XDATA, add(CFA_XSP16, literal(-6)))
          CFI ?RET_LOW load(1, XDATA, add(CFA_XSP16, literal(-5)))
          CFI ?RET_HIGH load(1, XDATA, add(CFA_XSP16, literal(-4)))
          CFI ?BRET_EXT load(1, XDATA, add(CFA_XSP16, literal(-3)))
          CFI DPL0 load(1, XDATA, add(CFA_XSP16, literal(-2)))
          CFI DPH0 load(1, XDATA, add(CFA_XSP16, literal(-1)))
          CFI CFA_SP SP+-2
          CFI CFA_XSP16 add(XSP16, 22)
          CFI Block cfiCond368 Using cfiCommon0
          CFI (cfiCond368) Function ZDP_MgmtLqiRsp
          CFI (cfiCond368) Conditional ??CrossCallReturnLabel_49
          CFI (cfiCond368) R6 load(1, XDATA, add(CFA_XSP16, literal(-21)))
          CFI (cfiCond368) VB load(1, XDATA, add(CFA_XSP16, literal(-20)))
          CFI (cfiCond368) V0 load(1, XDATA, add(CFA_XSP16, literal(-19)))
          CFI (cfiCond368) V1 load(1, XDATA, add(CFA_XSP16, literal(-18)))
          CFI (cfiCond368) V2 load(1, XDATA, add(CFA_XSP16, literal(-17)))
          CFI (cfiCond368) V3 load(1, XDATA, add(CFA_XSP16, literal(-16)))
          CFI (cfiCond368) V4 load(1, XDATA, add(CFA_XSP16, literal(-15)))
          CFI (cfiCond368) V5 load(1, XDATA, add(CFA_XSP16, literal(-14)))
          CFI (cfiCond368) V6 load(1, XDATA, add(CFA_XSP16, literal(-13)))
          CFI (cfiCond368) V7 load(1, XDATA, add(CFA_XSP16, literal(-12)))
          CFI (cfiCond368) V8 load(1, XDATA, add(CFA_XSP16, literal(-11)))
          CFI (cfiCond368) V9 load(1, XDATA, add(CFA_XSP16, literal(-10)))
          CFI (cfiCond368) V10 load(1, XDATA, add(CFA_XSP16, literal(-9)))
          CFI (cfiCond368) V11 load(1, XDATA, add(CFA_XSP16, literal(-8)))
          CFI (cfiCond368) V12 load(1, XDATA, add(CFA_XSP16, literal(-7)))
          CFI (cfiCond368) R7 load(1, XDATA, add(CFA_XSP16, literal(-6)))
          CFI (cfiCond368) ?RET_LOW load(1, XDATA, add(CFA_XSP16, literal(-5)))
          CFI (cfiCond368) ?RET_HIGH load(1, XDATA, add(CFA_XSP16, literal(-4)))
          CFI (cfiCond368) ?BRET_EXT load(1, XDATA, add(CFA_XSP16, literal(-3)))
          CFI (cfiCond368) DPL0 load(1, XDATA, add(CFA_XSP16, literal(-2)))
          CFI (cfiCond368) DPH0 load(1, XDATA, add(CFA_XSP16, literal(-1)))
          CFI (cfiCond368) CFA_SP SP+-2
          CFI (cfiCond368) CFA_XSP16 add(XSP16, 22)
          CFI Block cfiPicker369 Using cfiCommon1
          CFI (cfiPicker369) NoFunction
          CFI (cfiPicker369) Picker
        MOVX      @DPTR,A
        ; Setup parameters for call to function fillAndSend
        ; Setup parameters for call to function fillAndSend
        MOV       ?V0,#0x31
        MOV       ?V1,#-0x80
        MOV       R0,#?V0
        RET
          CFI EndBlock cfiCond367
          CFI EndBlock cfiCond368
          CFI EndBlock cfiPicker369

        RSEG BANKED_CODE:HUGECODE:NOROOT(0)
?Subroutine24:
          CFI Block cfiCond370 Using cfiCommon0
          CFI Function ZDP_MgmtNwkDiscRsp
          CFI Conditional ??CrossCallReturnLabel_32
          CFI R6 load(1, XDATA, add(CFA_XSP16, literal(-22)))
          CFI VB load(1, XDATA, add(CFA_XSP16, literal(-21)))
          CFI V0 load(1, XDATA, add(CFA_XSP16, literal(-20)))
          CFI V1 load(1, XDATA, add(CFA_XSP16, literal(-19)))
          CFI V2 load(1, XDATA, add(CFA_XSP16, literal(-18)))
          CFI V3 load(1, XDATA, add(CFA_XSP16, literal(-17)))
          CFI V4 load(1, XDATA, add(CFA_XSP16, literal(-16)))
          CFI V5 load(1, XDATA, add(CFA_XSP16, literal(-15)))
          CFI V6 load(1, XDATA, add(CFA_XSP16, literal(-14)))
          CFI V7 load(1, XDATA, add(CFA_XSP16, literal(-13)))
          CFI V8 load(1, XDATA, add(CFA_XSP16, literal(-12)))
          CFI V9 load(1, XDATA, add(CFA_XSP16, literal(-11)))
          CFI V10 load(1, XDATA, add(CFA_XSP16, literal(-10)))
          CFI V11 load(1, XDATA, add(CFA_XSP16, literal(-9)))
          CFI V12 load(1, XDATA, add(CFA_XSP16, literal(-8)))
          CFI V13 load(1, XDATA, add(CFA_XSP16, literal(-7)))
          CFI R7 load(1, XDATA, add(CFA_XSP16, literal(-6)))
          CFI ?RET_LOW load(1, XDATA, add(CFA_XSP16, literal(-5)))
          CFI ?RET_HIGH load(1, XDATA, add(CFA_XSP16, literal(-4)))
          CFI ?BRET_EXT load(1, XDATA, add(CFA_XSP16, literal(-3)))
          CFI DPL0 load(1, XDATA, add(CFA_XSP16, literal(-2)))
          CFI DPH0 load(1, XDATA, add(CFA_XSP16, literal(-1)))
          CFI CFA_SP SP+-2
          CFI CFA_XSP16 add(XSP16, 23)
          CFI Block cfiCond371 Using cfiCommon0
          CFI (cfiCond371) Function ZDP_MgmtLqiRsp
          CFI (cfiCond371) Conditional ??CrossCallReturnLabel_33
          CFI (cfiCond371) R6 load(1, XDATA, add(CFA_XSP16, literal(-21)))
          CFI (cfiCond371) VB load(1, XDATA, add(CFA_XSP16, literal(-20)))
          CFI (cfiCond371) V0 load(1, XDATA, add(CFA_XSP16, literal(-19)))
          CFI (cfiCond371) V1 load(1, XDATA, add(CFA_XSP16, literal(-18)))
          CFI (cfiCond371) V2 load(1, XDATA, add(CFA_XSP16, literal(-17)))
          CFI (cfiCond371) V3 load(1, XDATA, add(CFA_XSP16, literal(-16)))
          CFI (cfiCond371) V4 load(1, XDATA, add(CFA_XSP16, literal(-15)))
          CFI (cfiCond371) V5 load(1, XDATA, add(CFA_XSP16, literal(-14)))
          CFI (cfiCond371) V6 load(1, XDATA, add(CFA_XSP16, literal(-13)))
          CFI (cfiCond371) V7 load(1, XDATA, add(CFA_XSP16, literal(-12)))
          CFI (cfiCond371) V8 load(1, XDATA, add(CFA_XSP16, literal(-11)))
          CFI (cfiCond371) V9 load(1, XDATA, add(CFA_XSP16, literal(-10)))
          CFI (cfiCond371) V10 load(1, XDATA, add(CFA_XSP16, literal(-9)))
          CFI (cfiCond371) V11 load(1, XDATA, add(CFA_XSP16, literal(-8)))
          CFI (cfiCond371) V12 load(1, XDATA, add(CFA_XSP16, literal(-7)))
          CFI (cfiCond371) R7 load(1, XDATA, add(CFA_XSP16, literal(-6)))
          CFI (cfiCond371) ?RET_LOW load(1, XDATA, add(CFA_XSP16, literal(-5)))
          CFI (cfiCond371) ?RET_HIGH load(1, XDATA, add(CFA_XSP16, literal(-4)))
          CFI (cfiCond371) ?BRET_EXT load(1, XDATA, add(CFA_XSP16, literal(-3)))
          CFI (cfiCond371) DPL0 load(1, XDATA, add(CFA_XSP16, literal(-2)))
          CFI (cfiCond371) DPH0 load(1, XDATA, add(CFA_XSP16, literal(-1)))
          CFI (cfiCond371) CFA_SP SP+-2
          CFI (cfiCond371) CFA_XSP16 add(XSP16, 22)
          CFI Block cfiCond372 Using cfiCommon0
          CFI (cfiCond372) Function ZDP_MgmtBindRsp
          CFI (cfiCond372) Conditional ??CrossCallReturnLabel_34
          CFI (cfiCond372) R6 load(1, XDATA, add(CFA_XSP16, literal(-22)))
          CFI (cfiCond372) VB load(1, XDATA, add(CFA_XSP16, literal(-21)))
          CFI (cfiCond372) V0 load(1, XDATA, add(CFA_XSP16, literal(-20)))
          CFI (cfiCond372) V1 load(1, XDATA, add(CFA_XSP16, literal(-19)))
          CFI (cfiCond372) V2 load(1, XDATA, add(CFA_XSP16, literal(-18)))
          CFI (cfiCond372) V3 load(1, XDATA, add(CFA_XSP16, literal(-17)))
          CFI (cfiCond372) V4 load(1, XDATA, add(CFA_XSP16, literal(-16)))
          CFI (cfiCond372) V5 load(1, XDATA, add(CFA_XSP16, literal(-15)))
          CFI (cfiCond372) V6 load(1, XDATA, add(CFA_XSP16, literal(-14)))
          CFI (cfiCond372) V7 load(1, XDATA, add(CFA_XSP16, literal(-13)))
          CFI (cfiCond372) V8 load(1, XDATA, add(CFA_XSP16, literal(-12)))
          CFI (cfiCond372) V9 load(1, XDATA, add(CFA_XSP16, literal(-11)))
          CFI (cfiCond372) V10 load(1, XDATA, add(CFA_XSP16, literal(-10)))
          CFI (cfiCond372) V11 load(1, XDATA, add(CFA_XSP16, literal(-9)))
          CFI (cfiCond372) V12 load(1, XDATA, add(CFA_XSP16, literal(-8)))
          CFI (cfiCond372) V13 load(1, XDATA, add(CFA_XSP16, literal(-7)))
          CFI (cfiCond372) R7 load(1, XDATA, add(CFA_XSP16, literal(-6)))
          CFI (cfiCond372) ?RET_LOW load(1, XDATA, add(CFA_XSP16, literal(-5)))
          CFI (cfiCond372) ?RET_HIGH load(1, XDATA, add(CFA_XSP16, literal(-4)))
          CFI (cfiCond372) ?BRET_EXT load(1, XDATA, add(CFA_XSP16, literal(-3)))
          CFI (cfiCond372) DPL0 load(1, XDATA, add(CFA_XSP16, literal(-2)))
          CFI (cfiCond372) DPH0 load(1, XDATA, add(CFA_XSP16, literal(-1)))
          CFI (cfiCond372) CFA_SP SP+-2
          CFI (cfiCond372) CFA_XSP16 add(XSP16, 23)
          CFI Block cfiPicker373 Using cfiCommon1
          CFI (cfiPicker373) NoFunction
          CFI (cfiPicker373) Picker
        MOV       DPTR,#ZDP_TmpBuf
        MOV       A,#(ZDP_Buf + 1) & 0xff
        MOVX      @DPTR,A
        INC       DPTR
        MOV       A,#((ZDP_Buf + 1) >> 8) & 0xff
        MOVX      @DPTR,A
        MOV       A,R6
        MOV       R1,A
        RET
          CFI EndBlock cfiCond370
          CFI EndBlock cfiCond371
          CFI EndBlock cfiCond372
          CFI EndBlock cfiPicker373
// 1663 
// 1664 /*********************************************************************
// 1665  * @fn          ZDP_MgmtRtgRsp
// 1666  *
// 1667  * @brief       This builds and send a Mgmt_Rtg_rsp message. This
// 1668  *              function sends a unicast message.
// 1669  *
// 1670  * @param       dstAddr - destination address of the message
// 1671  * @param       Status - message status (ZDP_SUCCESS or other)
// 1672  * @param       RoutingTableEntries - Total number of entries
// 1673  * @param       StartIndex - Starting index within the reporting list
// 1674  * @param       RoutingTableListCount - number of entries included
// 1675  *                                      in this message
// 1676  * @param       RoutingTableList - List of Routing Table entries
// 1677  * @param       SecurityEnable - true to enable security for this message
// 1678  *
// 1679  * @return      ZStatus_t
// 1680  */

        RSEG BANKED_CODE:HUGECODE:NOROOT(0)
// 1681 ZStatus_t ZDP_MgmtRtgRsp( byte TransSeq, zAddrType_t *dstAddr,
ZDP_MgmtRtgRsp:
          CFI Block cfiBlock374 Using cfiCommon0
          CFI Function ZDP_MgmtRtgRsp
        CODE
// 1682                             byte Status,
// 1683                             byte RoutingTableEntries,
// 1684                             byte StartIndex,
// 1685                             byte RoutingListCount,
// 1686                             rtgItem_t *RoutingTableList,
// 1687                             byte SecurityEnable )
// 1688 {
        FUNCALL ZDP_MgmtRtgRsp, osal_mem_alloc
        LOCFRAME ISTACK, 0, STACK
        LOCFRAME PSTACK, 0, STACK
        LOCFRAME XSTACK, 21, STACK
        LOCFRAME IOVERLAY, 0, STATIC
        LOCFRAME DOVERLAY, 0, STATIC
        ARGFRAME ISTACK, 0, STACK
        ARGFRAME PSTACK, 0, STACK
        ARGFRAME XSTACK, 21, STACK
        ARGFRAME IOVERLAY, 0, STATIC
        ARGFRAME DOVERLAY, 0, STATIC
        FUNCALL ZDP_MgmtRtgRsp, fillAndSend
        LOCFRAME ISTACK, 0, STACK
        LOCFRAME PSTACK, 0, STACK
        LOCFRAME XSTACK, 23, STACK
        LOCFRAME IOVERLAY, 0, STATIC
        LOCFRAME DOVERLAY, 0, STATIC
        ARGFRAME ISTACK, 0, STACK
        ARGFRAME PSTACK, 0, STACK
        ARGFRAME XSTACK, 23, STACK
        ARGFRAME IOVERLAY, 0, STATIC
        ARGFRAME DOVERLAY, 0, STATIC
        FUNCALL ZDP_MgmtRtgRsp, osal_mem_free
        LOCFRAME ISTACK, 0, STACK
        LOCFRAME PSTACK, 0, STACK
        LOCFRAME XSTACK, 21, STACK
        LOCFRAME IOVERLAY, 0, STATIC
        LOCFRAME DOVERLAY, 0, STATIC
        ARGFRAME ISTACK, 0, STACK
        ARGFRAME PSTACK, 0, STACK
        ARGFRAME XSTACK, 21, STACK
        ARGFRAME IOVERLAY, 0, STATIC
        ARGFRAME DOVERLAY, 0, STATIC
        REQUIRE ?V0
        REQUIRE ?V1
        REQUIRE ?V2
        REQUIRE ?V3
        REQUIRE ?V4
        REQUIRE ?V5
        REQUIRE ?V6
        REQUIRE ?V7
        REQUIRE ?V8
        REQUIRE ?V9
        REQUIRE ?V10
        REQUIRE ?V11
        MOV       A,#-0x14
        LCALL     ?BANKED_ENTER_XDATA
          CFI DPH0 load(1, XDATA, add(CFA_XSP16, literal(-1)))
          CFI DPL0 load(1, XDATA, add(CFA_XSP16, literal(-2)))
          CFI ?BRET_EXT load(1, XDATA, add(CFA_XSP16, literal(-3)))
          CFI ?RET_HIGH load(1, XDATA, add(CFA_XSP16, literal(-4)))
          CFI ?RET_LOW load(1, XDATA, add(CFA_XSP16, literal(-5)))
          CFI R7 load(1, XDATA, add(CFA_XSP16, literal(-6)))
          CFI V11 load(1, XDATA, add(CFA_XSP16, literal(-7)))
          CFI V10 load(1, XDATA, add(CFA_XSP16, literal(-8)))
          CFI V9 load(1, XDATA, add(CFA_XSP16, literal(-9)))
          CFI V8 load(1, XDATA, add(CFA_XSP16, literal(-10)))
          CFI V7 load(1, XDATA, add(CFA_XSP16, literal(-11)))
          CFI V6 load(1, XDATA, add(CFA_XSP16, literal(-12)))
          CFI V5 load(1, XDATA, add(CFA_XSP16, literal(-13)))
          CFI V4 load(1, XDATA, add(CFA_XSP16, literal(-14)))
          CFI V3 load(1, XDATA, add(CFA_XSP16, literal(-15)))
          CFI V2 load(1, XDATA, add(CFA_XSP16, literal(-16)))
          CFI V1 load(1, XDATA, add(CFA_XSP16, literal(-17)))
          CFI V0 load(1, XDATA, add(CFA_XSP16, literal(-18)))
          CFI VB load(1, XDATA, add(CFA_XSP16, literal(-19)))
          CFI R6 load(1, XDATA, add(CFA_XSP16, literal(-20)))
          CFI CFA_SP SP+0
          CFI CFA_XSP16 add(XSP16, 20)
        ; Saved register size: 20
        ; Auto size: 1
        MOV       A,#-0x1
        LCALL     ?ALLOC_XSTACK8
          CFI CFA_XSP16 add(XSP16, 21)
        MOV       A,R1
        MOV       DPL,?XSP + 0
        MOV       DPH,?XSP + 1
        MOVX      @DPTR,A
        MOV       ?V2,R2
        MOV       ?V3,R3
        MOV       ?V1,R4
        MOV       ?V0,R5
        MOV       A,#0x16
        LCALL     ?XSTACK_DISP0_8
        MOVX      A,@DPTR
        MOV       ?V5,A
// 1689   uint8 *buf;
// 1690   uint8 *pBuf;
// 1691   // Status + RoutingTableEntries + StartIndex + RoutingListCount.
// 1692   byte len = 1 + 1 + 1 + 1;
// 1693   byte x;
// 1694 
// 1695   (void)SecurityEnable;  // Intentionally unreferenced parameter
// 1696 
// 1697   // Add an array for Routing List data
// 1698   len += (RoutingListCount * ZDP_ROUTINGENTRY_SIZE);
        MOV       B,#0x5
        MUL       AB
        ADD       A,#0x4
        MOV       ?V4,A
// 1699 
// 1700   buf = osal_mem_alloc( (short)(len+1) );
        ; Setup parameters for call to function osal_mem_alloc
        LCALL     ?Subroutine67 & 0xFFFF
??CrossCallReturnLabel_117:
        LCALL     `??osal_mem_alloc::?relay`; Banked call to: osal_mem_alloc
        MOV       ?V6,R2
        MOV       ?V7,R3
        MOV       R6,?V6
        MOV       R7,?V7
// 1701   if ( buf == NULL )
        MOV       A,R6
        ORL       A,R7
        JNZ       ??ZDP_MgmtRtgRsp_0
// 1702   {
// 1703     return afStatus_MEM_FAIL;
        MOV       R1,#0x10
        LJMP      ??ZDP_MgmtRtgRsp_1 & 0xFFFF
// 1704   }
// 1705 
// 1706   pBuf = buf+1;
??ZDP_MgmtRtgRsp_0:
        MOV       DPL,R6
        MOV       DPH,R7
        INC       DPTR
        MOV       R0,DPL
        MOV       R1,DPH
        MOV       A,R0
        MOV       R2,A
        MOV       A,R1
        MOV       R3,A
// 1707 
// 1708   *pBuf++ = Status;
        MOV       A,?V1
        MOVX      @DPTR,A
// 1709   *pBuf++ = RoutingTableEntries;
        INC       DPTR
        MOV       A,?V0
        MOVX      @DPTR,A
// 1710   *pBuf++ = StartIndex;
        MOV       A,#0x15
        LCALL     ?XSTACK_DISP0_8
        LCALL     ?Subroutine39 & 0xFFFF
// 1711   *pBuf++ = RoutingListCount;
??CrossCallReturnLabel_58:
        MOV       A,?V5
        LCALL     ??Subroutine112_0 & 0xFFFF
??CrossCallReturnLabel_215:
        JNC       ??ZDP_MgmtRtgRsp_2
        INC       R3
// 1712 
// 1713   for ( x = 0; x < RoutingListCount; x++ )
??ZDP_MgmtRtgRsp_2:
        MOV       ?V6,#0x0
        MOV       A,#0x17
        LCALL     ?XSTACK_DISP0_8
        LCALL     ?Subroutine49 & 0xFFFF
??CrossCallReturnLabel_82:
        LJMP      ??ZDP_MgmtRtgRsp_3 & 0xFFFF
// 1714   {
// 1715     *pBuf++ = LO_UINT16( RoutingTableList->dstAddress );  // Destination Address
??ZDP_MgmtRtgRsp_4:
        LCALL     ?Subroutine14 & 0xFFFF
// 1716     *pBuf++ = HI_UINT16( RoutingTableList->dstAddress );
// 1717 
// 1718     *pBuf = (RoutingTableList->status & 0x07);
??CrossCallReturnLabel_8:
        MOV       ?V8,A
        CLR       A
        ADDC      A,R3
        MOV       ?V9,A
        MOV       DPL,R4
        MOV       DPH,R5
        INC       DPTR
        INC       DPTR
        INC       DPTR
        INC       DPTR
        INC       DPTR
        MOVX      A,@DPTR
        ANL       A,#0x7
        MOV       DPL,?V8
        MOV       DPH,?V9
        MOVX      @DPTR,A
// 1719     if ( RoutingTableList->options & (ZP_MTO_ROUTE_RC | ZP_MTO_ROUTE_NRC) )
        MOV       A,R4
        ADD       A,#0x6
        MOV       DPL,A
        CLR       A
        ADDC      A,R5
        MOV       DPH,A
        MOVX      A,@DPTR
        ANL       A,#0x18
        JZ        ??ZDP_MgmtRtgRsp_5
// 1720     {
// 1721       uint8 options = 0;
// 1722       options |= ZDO_MGMT_RTG_ENTRY_MANYTOONE;
        MOV       ?V7,#0x2
// 1723 
// 1724       if ( RoutingTableList->options & ZP_RTG_RECORD )
        MOVX      A,@DPTR
        MOV       C,0xE0 /* A   */.2
        JNC       ??ZDP_MgmtRtgRsp_6
// 1725       {
// 1726         options |= ZDO_MGMT_RTG_ENTRY_ROUTE_RECORD_REQUIRED;
        MOV       ?V7,#0x6
// 1727       }
// 1728 
// 1729       if ( RoutingTableList->options & ZP_MTO_ROUTE_NRC )
??ZDP_MgmtRtgRsp_6:
        MOV       C,0xE0 /* A   */.4
        JNC       ??ZDP_MgmtRtgRsp_7
// 1730       {
// 1731         options |= ZDO_MGMT_RTG_ENTRY_MEMORY_CONSTRAINED;
        SETB      C
        MOV       A,?V7
        SETB      0xE0 /* A   */.0
        MOV       ?V7,A
// 1732       }
// 1733 
// 1734       *pBuf |= (options << 3);
??ZDP_MgmtRtgRsp_7:
        MOV       A,?V7
        RLC       A
        RLC       A
        RLC       A
        ANL       A,#0xf8
        MOV       ?V7,A
        MOV       DPL,?V8
        MOV       DPH,?V9
        MOVX      A,@DPTR
        ORL       A,?V7
        MOVX      @DPTR,A
// 1735     }
// 1736     pBuf++;
// 1737 
// 1738     *pBuf++ = LO_UINT16( RoutingTableList->nextHopAddress );  // Next hop
??ZDP_MgmtRtgRsp_5:
        MOV       A,R4
        ADD       A,#0x2
        MOV       ?V8,A
        CLR       A
        ADDC      A,R5
        MOV       ?V9,A
        MOV       DPL,?V8
        MOV       DPH,A
        LCALL     ?Subroutine65 & 0xFFFF
??CrossCallReturnLabel_113:
        MOVX      @DPTR,A
// 1739     *pBuf++ = HI_UINT16( RoutingTableList->nextHopAddress );
        MOV       DPL,?V8
        MOV       DPH,?V9
        INC       DPTR
        LCALL     ?Subroutine65 & 0xFFFF
??CrossCallReturnLabel_114:
        INC       DPTR
        MOVX      @DPTR,A
        MOV       A,R2
        ADD       A,#0x5
        MOV       R2,A
        JNC       ??ZDP_MgmtRtgRsp_8
        INC       R3
// 1740     RoutingTableList++;    // Move to next list entry
??ZDP_MgmtRtgRsp_8:
        MOV       A,R4
        ADD       A,#0x7
        MOV       R4,A
        JNC       ??ZDP_MgmtRtgRsp_9
        INC       R5
// 1741   }
??ZDP_MgmtRtgRsp_9:
        INC       ?V6
??ZDP_MgmtRtgRsp_3:
        MOV       A,?V6
        CLR       C
        SUBB      A,?V5
        JNC       $+5
        LJMP      ??ZDP_MgmtRtgRsp_4 & 0xFFFF
// 1742 
// 1743   FillAndSendBuffer( &TransSeq, dstAddr, Mgmt_Rtg_rsp, len, buf );
        MOV       DPTR,#ZDP_TmpBuf
        LCALL     ?Subroutine28 & 0xFFFF
??CrossCallReturnLabel_38:
        ; Setup parameters for call to function fillAndSend
        MOV       ?V6,#0x32
        MOV       ?V7,#-0x80
        MOV       R0,#?V6
        LCALL     ?PUSH_XSTACK_I_TWO
          CFI CFA_XSP16 add(XSP16, 23)
        MOV       R1,?V4
        MOV       R4,?V2
        MOV       R5,?V3
        MOV       A,#0x2
        LCALL     ?XSTACK_DISP101_8
        LCALL     `??fillAndSend::?relay`; Banked call to: fillAndSend
        MOV       A,#0x2
        LCALL     ?DEALLOC_XSTACK8
          CFI CFA_XSP16 add(XSP16, 21)
        MOV       A,R1
        MOV       ?V2,A
        ; Setup parameters for call to function osal_mem_free
        MOV       A,R6
        MOV       R2,A
        MOV       A,R7
        MOV       R3,A
        LCALL     `??osal_mem_free::?relay`; Banked call to: osal_mem_free
        MOV       DPTR,#ZDP_TmpBuf
        MOV       A,#(ZDP_Buf + 1) & 0xff
        MOVX      @DPTR,A
        INC       DPTR
        MOV       A,#((ZDP_Buf + 1) >> 8) & 0xff
        MOVX      @DPTR,A
        MOV       R1,?V2
??ZDP_MgmtRtgRsp_1:
        MOV       A,#0x1
        LJMP      ?Subroutine5 & 0xFFFF
// 1744 }
          CFI EndBlock cfiBlock374

        RSEG BANKED_CODE:HUGECODE:NOROOT(0)
?Subroutine67:
          CFI Block cfiCond375 Using cfiCommon0
          CFI Function ZDP_MgmtNwkDiscRsp
          CFI Conditional ??CrossCallReturnLabel_115
          CFI R6 load(1, XDATA, add(CFA_XSP16, literal(-22)))
          CFI VB load(1, XDATA, add(CFA_XSP16, literal(-21)))
          CFI V0 load(1, XDATA, add(CFA_XSP16, literal(-20)))
          CFI V1 load(1, XDATA, add(CFA_XSP16, literal(-19)))
          CFI V2 load(1, XDATA, add(CFA_XSP16, literal(-18)))
          CFI V3 load(1, XDATA, add(CFA_XSP16, literal(-17)))
          CFI V4 load(1, XDATA, add(CFA_XSP16, literal(-16)))
          CFI V5 load(1, XDATA, add(CFA_XSP16, literal(-15)))
          CFI V6 load(1, XDATA, add(CFA_XSP16, literal(-14)))
          CFI V7 load(1, XDATA, add(CFA_XSP16, literal(-13)))
          CFI V8 load(1, XDATA, add(CFA_XSP16, literal(-12)))
          CFI V9 load(1, XDATA, add(CFA_XSP16, literal(-11)))
          CFI V10 load(1, XDATA, add(CFA_XSP16, literal(-10)))
          CFI V11 load(1, XDATA, add(CFA_XSP16, literal(-9)))
          CFI V12 load(1, XDATA, add(CFA_XSP16, literal(-8)))
          CFI V13 load(1, XDATA, add(CFA_XSP16, literal(-7)))
          CFI R7 load(1, XDATA, add(CFA_XSP16, literal(-6)))
          CFI ?RET_LOW load(1, XDATA, add(CFA_XSP16, literal(-5)))
          CFI ?RET_HIGH load(1, XDATA, add(CFA_XSP16, literal(-4)))
          CFI ?BRET_EXT load(1, XDATA, add(CFA_XSP16, literal(-3)))
          CFI DPL0 load(1, XDATA, add(CFA_XSP16, literal(-2)))
          CFI DPH0 load(1, XDATA, add(CFA_XSP16, literal(-1)))
          CFI CFA_SP SP+-2
          CFI CFA_XSP16 add(XSP16, 23)
          CFI Block cfiCond376 Using cfiCommon0
          CFI (cfiCond376) Function ZDP_MgmtLqiRsp
          CFI (cfiCond376) Conditional ??CrossCallReturnLabel_116
          CFI (cfiCond376) R6 load(1, XDATA, add(CFA_XSP16, literal(-21)))
          CFI (cfiCond376) VB load(1, XDATA, add(CFA_XSP16, literal(-20)))
          CFI (cfiCond376) V0 load(1, XDATA, add(CFA_XSP16, literal(-19)))
          CFI (cfiCond376) V1 load(1, XDATA, add(CFA_XSP16, literal(-18)))
          CFI (cfiCond376) V2 load(1, XDATA, add(CFA_XSP16, literal(-17)))
          CFI (cfiCond376) V3 load(1, XDATA, add(CFA_XSP16, literal(-16)))
          CFI (cfiCond376) V4 load(1, XDATA, add(CFA_XSP16, literal(-15)))
          CFI (cfiCond376) V5 load(1, XDATA, add(CFA_XSP16, literal(-14)))
          CFI (cfiCond376) V6 load(1, XDATA, add(CFA_XSP16, literal(-13)))
          CFI (cfiCond376) V7 load(1, XDATA, add(CFA_XSP16, literal(-12)))
          CFI (cfiCond376) V8 load(1, XDATA, add(CFA_XSP16, literal(-11)))
          CFI (cfiCond376) V9 load(1, XDATA, add(CFA_XSP16, literal(-10)))
          CFI (cfiCond376) V10 load(1, XDATA, add(CFA_XSP16, literal(-9)))
          CFI (cfiCond376) V11 load(1, XDATA, add(CFA_XSP16, literal(-8)))
          CFI (cfiCond376) V12 load(1, XDATA, add(CFA_XSP16, literal(-7)))
          CFI (cfiCond376) R7 load(1, XDATA, add(CFA_XSP16, literal(-6)))
          CFI (cfiCond376) ?RET_LOW load(1, XDATA, add(CFA_XSP16, literal(-5)))
          CFI (cfiCond376) ?RET_HIGH load(1, XDATA, add(CFA_XSP16, literal(-4)))
          CFI (cfiCond376) ?BRET_EXT load(1, XDATA, add(CFA_XSP16, literal(-3)))
          CFI (cfiCond376) DPL0 load(1, XDATA, add(CFA_XSP16, literal(-2)))
          CFI (cfiCond376) DPH0 load(1, XDATA, add(CFA_XSP16, literal(-1)))
          CFI (cfiCond376) CFA_SP SP+-2
          CFI (cfiCond376) CFA_XSP16 add(XSP16, 22)
          CFI Block cfiCond377 Using cfiCommon0
          CFI (cfiCond377) Function ZDP_MgmtRtgRsp
          CFI (cfiCond377) Conditional ??CrossCallReturnLabel_117
          CFI (cfiCond377) R6 load(1, XDATA, add(CFA_XSP16, literal(-20)))
          CFI (cfiCond377) VB load(1, XDATA, add(CFA_XSP16, literal(-19)))
          CFI (cfiCond377) V0 load(1, XDATA, add(CFA_XSP16, literal(-18)))
          CFI (cfiCond377) V1 load(1, XDATA, add(CFA_XSP16, literal(-17)))
          CFI (cfiCond377) V2 load(1, XDATA, add(CFA_XSP16, literal(-16)))
          CFI (cfiCond377) V3 load(1, XDATA, add(CFA_XSP16, literal(-15)))
          CFI (cfiCond377) V4 load(1, XDATA, add(CFA_XSP16, literal(-14)))
          CFI (cfiCond377) V5 load(1, XDATA, add(CFA_XSP16, literal(-13)))
          CFI (cfiCond377) V6 load(1, XDATA, add(CFA_XSP16, literal(-12)))
          CFI (cfiCond377) V7 load(1, XDATA, add(CFA_XSP16, literal(-11)))
          CFI (cfiCond377) V8 load(1, XDATA, add(CFA_XSP16, literal(-10)))
          CFI (cfiCond377) V9 load(1, XDATA, add(CFA_XSP16, literal(-9)))
          CFI (cfiCond377) V10 load(1, XDATA, add(CFA_XSP16, literal(-8)))
          CFI (cfiCond377) V11 load(1, XDATA, add(CFA_XSP16, literal(-7)))
          CFI (cfiCond377) R7 load(1, XDATA, add(CFA_XSP16, literal(-6)))
          CFI (cfiCond377) ?RET_LOW load(1, XDATA, add(CFA_XSP16, literal(-5)))
          CFI (cfiCond377) ?RET_HIGH load(1, XDATA, add(CFA_XSP16, literal(-4)))
          CFI (cfiCond377) ?BRET_EXT load(1, XDATA, add(CFA_XSP16, literal(-3)))
          CFI (cfiCond377) DPL0 load(1, XDATA, add(CFA_XSP16, literal(-2)))
          CFI (cfiCond377) DPH0 load(1, XDATA, add(CFA_XSP16, literal(-1)))
          CFI (cfiCond377) CFA_SP SP+-2
          CFI (cfiCond377) CFA_XSP16 add(XSP16, 21)
          CFI Block cfiCond378 Using cfiCommon0
          CFI (cfiCond378) Function ZDP_MgmtBindRsp
          CFI (cfiCond378) Conditional ??CrossCallReturnLabel_118
          CFI (cfiCond378) R6 load(1, XDATA, add(CFA_XSP16, literal(-22)))
          CFI (cfiCond378) VB load(1, XDATA, add(CFA_XSP16, literal(-21)))
          CFI (cfiCond378) V0 load(1, XDATA, add(CFA_XSP16, literal(-20)))
          CFI (cfiCond378) V1 load(1, XDATA, add(CFA_XSP16, literal(-19)))
          CFI (cfiCond378) V2 load(1, XDATA, add(CFA_XSP16, literal(-18)))
          CFI (cfiCond378) V3 load(1, XDATA, add(CFA_XSP16, literal(-17)))
          CFI (cfiCond378) V4 load(1, XDATA, add(CFA_XSP16, literal(-16)))
          CFI (cfiCond378) V5 load(1, XDATA, add(CFA_XSP16, literal(-15)))
          CFI (cfiCond378) V6 load(1, XDATA, add(CFA_XSP16, literal(-14)))
          CFI (cfiCond378) V7 load(1, XDATA, add(CFA_XSP16, literal(-13)))
          CFI (cfiCond378) V8 load(1, XDATA, add(CFA_XSP16, literal(-12)))
          CFI (cfiCond378) V9 load(1, XDATA, add(CFA_XSP16, literal(-11)))
          CFI (cfiCond378) V10 load(1, XDATA, add(CFA_XSP16, literal(-10)))
          CFI (cfiCond378) V11 load(1, XDATA, add(CFA_XSP16, literal(-9)))
          CFI (cfiCond378) V12 load(1, XDATA, add(CFA_XSP16, literal(-8)))
          CFI (cfiCond378) V13 load(1, XDATA, add(CFA_XSP16, literal(-7)))
          CFI (cfiCond378) R7 load(1, XDATA, add(CFA_XSP16, literal(-6)))
          CFI (cfiCond378) ?RET_LOW load(1, XDATA, add(CFA_XSP16, literal(-5)))
          CFI (cfiCond378) ?RET_HIGH load(1, XDATA, add(CFA_XSP16, literal(-4)))
          CFI (cfiCond378) ?BRET_EXT load(1, XDATA, add(CFA_XSP16, literal(-3)))
          CFI (cfiCond378) DPL0 load(1, XDATA, add(CFA_XSP16, literal(-2)))
          CFI (cfiCond378) DPH0 load(1, XDATA, add(CFA_XSP16, literal(-1)))
          CFI (cfiCond378) CFA_SP SP+-2
          CFI (cfiCond378) CFA_XSP16 add(XSP16, 23)
          CFI Block cfiCond379 Using cfiCommon0
          CFI (cfiCond379) Function ZDP_MgmtNwkUpdateNotify
          CFI (cfiCond379) Conditional ??CrossCallReturnLabel_119
          CFI (cfiCond379) R6 load(1, XDATA, add(CFA_XSP16, literal(-18)))
          CFI (cfiCond379) VB load(1, XDATA, add(CFA_XSP16, literal(-17)))
          CFI (cfiCond379) V0 load(1, XDATA, add(CFA_XSP16, literal(-16)))
          CFI (cfiCond379) V1 load(1, XDATA, add(CFA_XSP16, literal(-15)))
          CFI (cfiCond379) V2 load(1, XDATA, add(CFA_XSP16, literal(-14)))
          CFI (cfiCond379) V3 load(1, XDATA, add(CFA_XSP16, literal(-13)))
          CFI (cfiCond379) V4 load(1, XDATA, add(CFA_XSP16, literal(-12)))
          CFI (cfiCond379) V5 load(1, XDATA, add(CFA_XSP16, literal(-11)))
          CFI (cfiCond379) V6 load(1, XDATA, add(CFA_XSP16, literal(-10)))
          CFI (cfiCond379) V7 load(1, XDATA, add(CFA_XSP16, literal(-9)))
          CFI (cfiCond379) V8 load(1, XDATA, add(CFA_XSP16, literal(-8)))
          CFI (cfiCond379) V9 load(1, XDATA, add(CFA_XSP16, literal(-7)))
          CFI (cfiCond379) R7 load(1, XDATA, add(CFA_XSP16, literal(-6)))
          CFI (cfiCond379) ?RET_LOW load(1, XDATA, add(CFA_XSP16, literal(-5)))
          CFI (cfiCond379) ?RET_HIGH load(1, XDATA, add(CFA_XSP16, literal(-4)))
          CFI (cfiCond379) ?BRET_EXT load(1, XDATA, add(CFA_XSP16, literal(-3)))
          CFI (cfiCond379) DPL0 load(1, XDATA, add(CFA_XSP16, literal(-2)))
          CFI (cfiCond379) DPH0 load(1, XDATA, add(CFA_XSP16, literal(-1)))
          CFI (cfiCond379) CFA_SP SP+-2
          CFI (cfiCond379) CFA_XSP16 add(XSP16, 19)
          CFI Block cfiPicker380 Using cfiCommon1
          CFI (cfiPicker380) NoFunction
          CFI (cfiPicker380) Picker
        ADD       A,#0x1
        MOV       R2,A
        CLR       A
        ADDC      A,#0x0
        MOV       R3,A
        RET
          CFI EndBlock cfiCond375
          CFI EndBlock cfiCond376
          CFI EndBlock cfiCond377
          CFI EndBlock cfiCond378
          CFI EndBlock cfiCond379
          CFI EndBlock cfiPicker380

        RSEG BANKED_CODE:HUGECODE:NOROOT(0)
?Subroutine65:
          CFI Block cfiCond381 Using cfiCommon0
          CFI Function ZDP_MgmtRtgRsp
          CFI Conditional ??CrossCallReturnLabel_113
          CFI R6 load(1, XDATA, add(CFA_XSP16, literal(-20)))
          CFI VB load(1, XDATA, add(CFA_XSP16, literal(-19)))
          CFI V0 load(1, XDATA, add(CFA_XSP16, literal(-18)))
          CFI V1 load(1, XDATA, add(CFA_XSP16, literal(-17)))
          CFI V2 load(1, XDATA, add(CFA_XSP16, literal(-16)))
          CFI V3 load(1, XDATA, add(CFA_XSP16, literal(-15)))
          CFI V4 load(1, XDATA, add(CFA_XSP16, literal(-14)))
          CFI V5 load(1, XDATA, add(CFA_XSP16, literal(-13)))
          CFI V6 load(1, XDATA, add(CFA_XSP16, literal(-12)))
          CFI V7 load(1, XDATA, add(CFA_XSP16, literal(-11)))
          CFI V8 load(1, XDATA, add(CFA_XSP16, literal(-10)))
          CFI V9 load(1, XDATA, add(CFA_XSP16, literal(-9)))
          CFI V10 load(1, XDATA, add(CFA_XSP16, literal(-8)))
          CFI V11 load(1, XDATA, add(CFA_XSP16, literal(-7)))
          CFI R7 load(1, XDATA, add(CFA_XSP16, literal(-6)))
          CFI ?RET_LOW load(1, XDATA, add(CFA_XSP16, literal(-5)))
          CFI ?RET_HIGH load(1, XDATA, add(CFA_XSP16, literal(-4)))
          CFI ?BRET_EXT load(1, XDATA, add(CFA_XSP16, literal(-3)))
          CFI DPL0 load(1, XDATA, add(CFA_XSP16, literal(-2)))
          CFI DPH0 load(1, XDATA, add(CFA_XSP16, literal(-1)))
          CFI CFA_SP SP+-2
          CFI CFA_XSP16 add(XSP16, 21)
          CFI Block cfiCond382 Using cfiCommon0
          CFI (cfiCond382) Function ZDP_MgmtRtgRsp
          CFI (cfiCond382) Conditional ??CrossCallReturnLabel_114
          CFI (cfiCond382) R6 load(1, XDATA, add(CFA_XSP16, literal(-20)))
          CFI (cfiCond382) VB load(1, XDATA, add(CFA_XSP16, literal(-19)))
          CFI (cfiCond382) V0 load(1, XDATA, add(CFA_XSP16, literal(-18)))
          CFI (cfiCond382) V1 load(1, XDATA, add(CFA_XSP16, literal(-17)))
          CFI (cfiCond382) V2 load(1, XDATA, add(CFA_XSP16, literal(-16)))
          CFI (cfiCond382) V3 load(1, XDATA, add(CFA_XSP16, literal(-15)))
          CFI (cfiCond382) V4 load(1, XDATA, add(CFA_XSP16, literal(-14)))
          CFI (cfiCond382) V5 load(1, XDATA, add(CFA_XSP16, literal(-13)))
          CFI (cfiCond382) V6 load(1, XDATA, add(CFA_XSP16, literal(-12)))
          CFI (cfiCond382) V7 load(1, XDATA, add(CFA_XSP16, literal(-11)))
          CFI (cfiCond382) V8 load(1, XDATA, add(CFA_XSP16, literal(-10)))
          CFI (cfiCond382) V9 load(1, XDATA, add(CFA_XSP16, literal(-9)))
          CFI (cfiCond382) V10 load(1, XDATA, add(CFA_XSP16, literal(-8)))
          CFI (cfiCond382) V11 load(1, XDATA, add(CFA_XSP16, literal(-7)))
          CFI (cfiCond382) R7 load(1, XDATA, add(CFA_XSP16, literal(-6)))
          CFI (cfiCond382) ?RET_LOW load(1, XDATA, add(CFA_XSP16, literal(-5)))
          CFI (cfiCond382) ?RET_HIGH load(1, XDATA, add(CFA_XSP16, literal(-4)))
          CFI (cfiCond382) ?BRET_EXT load(1, XDATA, add(CFA_XSP16, literal(-3)))
          CFI (cfiCond382) DPL0 load(1, XDATA, add(CFA_XSP16, literal(-2)))
          CFI (cfiCond382) DPH0 load(1, XDATA, add(CFA_XSP16, literal(-1)))
          CFI (cfiCond382) CFA_SP SP+-2
          CFI (cfiCond382) CFA_XSP16 add(XSP16, 21)
          CFI Block cfiPicker383 Using cfiCommon1
          CFI (cfiPicker383) NoFunction
          CFI (cfiPicker383) Picker
        LCALL     ?Subroutine78 & 0xFFFF
??CrossCallReturnLabel_134:
        RET
          CFI EndBlock cfiCond381
          CFI EndBlock cfiCond382
          CFI EndBlock cfiPicker383

        RSEG BANKED_CODE:HUGECODE:NOROOT(0)
?Subroutine78:
          CFI Block cfiCond384 Using cfiCommon0
          CFI Function ZDP_MgmtRtgRsp
          CFI Conditional ??CrossCallReturnLabel_134, ??CrossCallReturnLabel_113
          CFI R6 load(1, XDATA, add(CFA_XSP16, literal(-20)))
          CFI VB load(1, XDATA, add(CFA_XSP16, literal(-19)))
          CFI V0 load(1, XDATA, add(CFA_XSP16, literal(-18)))
          CFI V1 load(1, XDATA, add(CFA_XSP16, literal(-17)))
          CFI V2 load(1, XDATA, add(CFA_XSP16, literal(-16)))
          CFI V3 load(1, XDATA, add(CFA_XSP16, literal(-15)))
          CFI V4 load(1, XDATA, add(CFA_XSP16, literal(-14)))
          CFI V5 load(1, XDATA, add(CFA_XSP16, literal(-13)))
          CFI V6 load(1, XDATA, add(CFA_XSP16, literal(-12)))
          CFI V7 load(1, XDATA, add(CFA_XSP16, literal(-11)))
          CFI V8 load(1, XDATA, add(CFA_XSP16, literal(-10)))
          CFI V9 load(1, XDATA, add(CFA_XSP16, literal(-9)))
          CFI V10 load(1, XDATA, add(CFA_XSP16, literal(-8)))
          CFI V11 load(1, XDATA, add(CFA_XSP16, literal(-7)))
          CFI R7 load(1, XDATA, add(CFA_XSP16, literal(-6)))
          CFI ?RET_LOW load(1, XDATA, add(CFA_XSP16, literal(-5)))
          CFI ?RET_HIGH load(1, XDATA, add(CFA_XSP16, literal(-4)))
          CFI ?BRET_EXT load(1, XDATA, add(CFA_XSP16, literal(-3)))
          CFI DPL0 load(1, XDATA, add(CFA_XSP16, literal(-2)))
          CFI DPH0 load(1, XDATA, add(CFA_XSP16, literal(-1)))
          CFI CFA_SP SP+-4
          CFI CFA_XSP16 add(XSP16, 21)
          CFI Block cfiCond385 Using cfiCommon0
          CFI (cfiCond385) Function ZDP_MgmtRtgRsp
          CFI (cfiCond385) Conditional ??CrossCallReturnLabel_134, ??CrossCallReturnLabel_114
          CFI (cfiCond385) R6 load(1, XDATA, add(CFA_XSP16, literal(-20)))
          CFI (cfiCond385) VB load(1, XDATA, add(CFA_XSP16, literal(-19)))
          CFI (cfiCond385) V0 load(1, XDATA, add(CFA_XSP16, literal(-18)))
          CFI (cfiCond385) V1 load(1, XDATA, add(CFA_XSP16, literal(-17)))
          CFI (cfiCond385) V2 load(1, XDATA, add(CFA_XSP16, literal(-16)))
          CFI (cfiCond385) V3 load(1, XDATA, add(CFA_XSP16, literal(-15)))
          CFI (cfiCond385) V4 load(1, XDATA, add(CFA_XSP16, literal(-14)))
          CFI (cfiCond385) V5 load(1, XDATA, add(CFA_XSP16, literal(-13)))
          CFI (cfiCond385) V6 load(1, XDATA, add(CFA_XSP16, literal(-12)))
          CFI (cfiCond385) V7 load(1, XDATA, add(CFA_XSP16, literal(-11)))
          CFI (cfiCond385) V8 load(1, XDATA, add(CFA_XSP16, literal(-10)))
          CFI (cfiCond385) V9 load(1, XDATA, add(CFA_XSP16, literal(-9)))
          CFI (cfiCond385) V10 load(1, XDATA, add(CFA_XSP16, literal(-8)))
          CFI (cfiCond385) V11 load(1, XDATA, add(CFA_XSP16, literal(-7)))
          CFI (cfiCond385) R7 load(1, XDATA, add(CFA_XSP16, literal(-6)))
          CFI (cfiCond385) ?RET_LOW load(1, XDATA, add(CFA_XSP16, literal(-5)))
          CFI (cfiCond385) ?RET_HIGH load(1, XDATA, add(CFA_XSP16, literal(-4)))
          CFI (cfiCond385) ?BRET_EXT load(1, XDATA, add(CFA_XSP16, literal(-3)))
          CFI (cfiCond385) DPL0 load(1, XDATA, add(CFA_XSP16, literal(-2)))
          CFI (cfiCond385) DPH0 load(1, XDATA, add(CFA_XSP16, literal(-1)))
          CFI (cfiCond385) CFA_SP SP+-4
          CFI (cfiCond385) CFA_XSP16 add(XSP16, 21)
          CFI Block cfiCond386 Using cfiCommon0
          CFI (cfiCond386) Function ZDP_BindUnbindReq
          CFI (cfiCond386) Conditional ??CrossCallReturnLabel_133, ??CrossCallReturnLabel_217
          CFI (cfiCond386) R6 load(1, XDATA, add(CFA_XSP16, literal(-18)))
          CFI (cfiCond386) VB load(1, XDATA, add(CFA_XSP16, literal(-17)))
          CFI (cfiCond386) V0 load(1, XDATA, add(CFA_XSP16, literal(-16)))
          CFI (cfiCond386) V1 load(1, XDATA, add(CFA_XSP16, literal(-15)))
          CFI (cfiCond386) V2 load(1, XDATA, add(CFA_XSP16, literal(-14)))
          CFI (cfiCond386) V3 load(1, XDATA, add(CFA_XSP16, literal(-13)))
          CFI (cfiCond386) V4 load(1, XDATA, add(CFA_XSP16, literal(-12)))
          CFI (cfiCond386) V5 load(1, XDATA, add(CFA_XSP16, literal(-11)))
          CFI (cfiCond386) V6 load(1, XDATA, add(CFA_XSP16, literal(-10)))
          CFI (cfiCond386) V7 load(1, XDATA, add(CFA_XSP16, literal(-9)))
          CFI (cfiCond386) V8 load(1, XDATA, add(CFA_XSP16, literal(-8)))
          CFI (cfiCond386) V9 load(1, XDATA, add(CFA_XSP16, literal(-7)))
          CFI (cfiCond386) R7 load(1, XDATA, add(CFA_XSP16, literal(-6)))
          CFI (cfiCond386) ?RET_LOW load(1, XDATA, add(CFA_XSP16, literal(-5)))
          CFI (cfiCond386) ?RET_HIGH load(1, XDATA, add(CFA_XSP16, literal(-4)))
          CFI (cfiCond386) ?BRET_EXT load(1, XDATA, add(CFA_XSP16, literal(-3)))
          CFI (cfiCond386) DPL0 load(1, XDATA, add(CFA_XSP16, literal(-2)))
          CFI (cfiCond386) DPH0 load(1, XDATA, add(CFA_XSP16, literal(-1)))
          CFI (cfiCond386) CFA_SP SP+-4
          CFI (cfiCond386) CFA_XSP16 add(XSP16, 18)
          CFI Block cfiCond387 Using cfiCommon0
          CFI (cfiCond387) Function ZDP_MgmtBindRsp
          CFI (cfiCond387) Conditional ??CrossCallReturnLabel_133, ??CrossCallReturnLabel_218
          CFI (cfiCond387) R6 load(1, XDATA, add(CFA_XSP16, literal(-22)))
          CFI (cfiCond387) VB load(1, XDATA, add(CFA_XSP16, literal(-21)))
          CFI (cfiCond387) V0 load(1, XDATA, add(CFA_XSP16, literal(-20)))
          CFI (cfiCond387) V1 load(1, XDATA, add(CFA_XSP16, literal(-19)))
          CFI (cfiCond387) V2 load(1, XDATA, add(CFA_XSP16, literal(-18)))
          CFI (cfiCond387) V3 load(1, XDATA, add(CFA_XSP16, literal(-17)))
          CFI (cfiCond387) V4 load(1, XDATA, add(CFA_XSP16, literal(-16)))
          CFI (cfiCond387) V5 load(1, XDATA, add(CFA_XSP16, literal(-15)))
          CFI (cfiCond387) V6 load(1, XDATA, add(CFA_XSP16, literal(-14)))
          CFI (cfiCond387) V7 load(1, XDATA, add(CFA_XSP16, literal(-13)))
          CFI (cfiCond387) V8 load(1, XDATA, add(CFA_XSP16, literal(-12)))
          CFI (cfiCond387) V9 load(1, XDATA, add(CFA_XSP16, literal(-11)))
          CFI (cfiCond387) V10 load(1, XDATA, add(CFA_XSP16, literal(-10)))
          CFI (cfiCond387) V11 load(1, XDATA, add(CFA_XSP16, literal(-9)))
          CFI (cfiCond387) V12 load(1, XDATA, add(CFA_XSP16, literal(-8)))
          CFI (cfiCond387) V13 load(1, XDATA, add(CFA_XSP16, literal(-7)))
          CFI (cfiCond387) R7 load(1, XDATA, add(CFA_XSP16, literal(-6)))
          CFI (cfiCond387) ?RET_LOW load(1, XDATA, add(CFA_XSP16, literal(-5)))
          CFI (cfiCond387) ?RET_HIGH load(1, XDATA, add(CFA_XSP16, literal(-4)))
          CFI (cfiCond387) ?BRET_EXT load(1, XDATA, add(CFA_XSP16, literal(-3)))
          CFI (cfiCond387) DPL0 load(1, XDATA, add(CFA_XSP16, literal(-2)))
          CFI (cfiCond387) DPH0 load(1, XDATA, add(CFA_XSP16, literal(-1)))
          CFI (cfiCond387) CFA_SP SP+-4
          CFI (cfiCond387) CFA_XSP16 add(XSP16, 23)
          CFI Block cfiPicker388 Using cfiCommon1
          CFI (cfiPicker388) NoFunction
          CFI (cfiPicker388) Picker
        MOVX      A,@DPTR
        MOV       DPL,R2
        MOV       DPH,R3
        INC       DPTR
        INC       DPTR
        INC       DPTR
        RET
          CFI EndBlock cfiCond384
          CFI EndBlock cfiCond385
          CFI EndBlock cfiCond386
          CFI EndBlock cfiCond387
          CFI EndBlock cfiPicker388
// 1745 
// 1746 /*********************************************************************
// 1747  * @fn          ZDP_MgmtBindRsp
// 1748  *
// 1749  * @brief       This builds and send a Mgmt_Bind_rsp message. This
// 1750  *              function sends a unicast message.
// 1751  *
// 1752  * @param       dstAddr - destination address of the message
// 1753  * @param       Status - message status (ZDP_SUCCESS or other)
// 1754  * @param       BindingTableEntries - Total number of entries
// 1755  * @param       StartIndex - Starting index within the reporting list
// 1756  * @param       BindingTableListCount - number of entries included
// 1757  *                                 in this message
// 1758  * @param       BindingTableList - List of Binding Table entries
// 1759  * @param       SecurityEnable - Security Options
// 1760  *
// 1761  * @return      ZStatus_t
// 1762  */

        RSEG BANKED_CODE:HUGECODE:NOROOT(0)
// 1763 ZStatus_t ZDP_MgmtBindRsp( byte TransSeq, zAddrType_t *dstAddr,
ZDP_MgmtBindRsp:
          CFI Block cfiBlock389 Using cfiCommon0
          CFI Function ZDP_MgmtBindRsp
        CODE
// 1764                             byte Status,
// 1765                             byte BindingTableEntries,
// 1766                             byte StartIndex,
// 1767                             byte BindingTableListCount,
// 1768                             apsBindingItem_t *BindingTableList,
// 1769                             byte SecurityEnable )
// 1770 {
        FUNCALL ZDP_MgmtBindRsp, osal_mem_alloc
        LOCFRAME ISTACK, 0, STACK
        LOCFRAME PSTACK, 0, STACK
        LOCFRAME XSTACK, 23, STACK
        LOCFRAME IOVERLAY, 0, STATIC
        LOCFRAME DOVERLAY, 0, STATIC
        ARGFRAME ISTACK, 0, STACK
        ARGFRAME PSTACK, 0, STACK
        ARGFRAME XSTACK, 23, STACK
        ARGFRAME IOVERLAY, 0, STATIC
        ARGFRAME DOVERLAY, 0, STATIC
        FUNCALL ZDP_MgmtBindRsp, sAddrExtCpy
        LOCFRAME ISTACK, 0, STACK
        LOCFRAME PSTACK, 0, STACK
        LOCFRAME XSTACK, 23, STACK
        LOCFRAME IOVERLAY, 0, STATIC
        LOCFRAME DOVERLAY, 0, STATIC
        ARGFRAME ISTACK, 0, STACK
        ARGFRAME PSTACK, 0, STACK
        ARGFRAME XSTACK, 23, STACK
        ARGFRAME IOVERLAY, 0, STATIC
        ARGFRAME DOVERLAY, 0, STATIC
        FUNCALL ZDP_MgmtBindRsp, sAddrExtCpy
        LOCFRAME ISTACK, 0, STACK
        LOCFRAME PSTACK, 0, STACK
        LOCFRAME XSTACK, 23, STACK
        LOCFRAME IOVERLAY, 0, STATIC
        LOCFRAME DOVERLAY, 0, STATIC
        ARGFRAME ISTACK, 0, STACK
        ARGFRAME PSTACK, 0, STACK
        ARGFRAME XSTACK, 23, STACK
        ARGFRAME IOVERLAY, 0, STATIC
        ARGFRAME DOVERLAY, 0, STATIC
        FUNCALL ZDP_MgmtBindRsp, fillAndSend
        LOCFRAME ISTACK, 0, STACK
        LOCFRAME PSTACK, 0, STACK
        LOCFRAME XSTACK, 25, STACK
        LOCFRAME IOVERLAY, 0, STATIC
        LOCFRAME DOVERLAY, 0, STATIC
        ARGFRAME ISTACK, 0, STACK
        ARGFRAME PSTACK, 0, STACK
        ARGFRAME XSTACK, 25, STACK
        ARGFRAME IOVERLAY, 0, STATIC
        ARGFRAME DOVERLAY, 0, STATIC
        FUNCALL ZDP_MgmtBindRsp, osal_mem_free
        LOCFRAME ISTACK, 0, STACK
        LOCFRAME PSTACK, 0, STACK
        LOCFRAME XSTACK, 23, STACK
        LOCFRAME IOVERLAY, 0, STATIC
        LOCFRAME DOVERLAY, 0, STATIC
        ARGFRAME ISTACK, 0, STACK
        ARGFRAME PSTACK, 0, STACK
        ARGFRAME XSTACK, 23, STACK
        ARGFRAME IOVERLAY, 0, STATIC
        ARGFRAME DOVERLAY, 0, STATIC
        REQUIRE ?V0
        REQUIRE ?V1
        REQUIRE ?V2
        REQUIRE ?V3
        REQUIRE ?V4
        REQUIRE ?V5
        REQUIRE ?V6
        REQUIRE ?V7
        REQUIRE ?V8
        REQUIRE ?V9
        REQUIRE ?V10
        REQUIRE ?V12
        REQUIRE ?V13
        MOV       A,#-0x16
        LCALL     ?BANKED_ENTER_XDATA
          CFI DPH0 load(1, XDATA, add(CFA_XSP16, literal(-1)))
          CFI DPL0 load(1, XDATA, add(CFA_XSP16, literal(-2)))
          CFI ?BRET_EXT load(1, XDATA, add(CFA_XSP16, literal(-3)))
          CFI ?RET_HIGH load(1, XDATA, add(CFA_XSP16, literal(-4)))
          CFI ?RET_LOW load(1, XDATA, add(CFA_XSP16, literal(-5)))
          CFI R7 load(1, XDATA, add(CFA_XSP16, literal(-6)))
          CFI V13 load(1, XDATA, add(CFA_XSP16, literal(-7)))
          CFI V12 load(1, XDATA, add(CFA_XSP16, literal(-8)))
          CFI V11 load(1, XDATA, add(CFA_XSP16, literal(-9)))
          CFI V10 load(1, XDATA, add(CFA_XSP16, literal(-10)))
          CFI V9 load(1, XDATA, add(CFA_XSP16, literal(-11)))
          CFI V8 load(1, XDATA, add(CFA_XSP16, literal(-12)))
          CFI V7 load(1, XDATA, add(CFA_XSP16, literal(-13)))
          CFI V6 load(1, XDATA, add(CFA_XSP16, literal(-14)))
          CFI V5 load(1, XDATA, add(CFA_XSP16, literal(-15)))
          CFI V4 load(1, XDATA, add(CFA_XSP16, literal(-16)))
          CFI V3 load(1, XDATA, add(CFA_XSP16, literal(-17)))
          CFI V2 load(1, XDATA, add(CFA_XSP16, literal(-18)))
          CFI V1 load(1, XDATA, add(CFA_XSP16, literal(-19)))
          CFI V0 load(1, XDATA, add(CFA_XSP16, literal(-20)))
          CFI VB load(1, XDATA, add(CFA_XSP16, literal(-21)))
          CFI R6 load(1, XDATA, add(CFA_XSP16, literal(-22)))
          CFI CFA_SP SP+0
          CFI CFA_XSP16 add(XSP16, 22)
        ; Saved register size: 22
        ; Auto size: 1
        MOV       A,#-0x1
        LCALL     ?ALLOC_XSTACK8
          CFI CFA_XSP16 add(XSP16, 23)
        MOV       A,R1
        MOV       DPL,?XSP + 0
        MOV       DPH,?XSP + 1
        MOVX      @DPTR,A
        MOV       ?V12,R2
        MOV       ?V13,R3
        MOV       ?V10,R4
        MOV       ?V5,R5
        MOV       A,#0x18
        LCALL     ?XSTACK_DISP0_8
        MOVX      A,@DPTR
        MOV       ?V4,A
// 1771   uint8 *buf;
// 1772   uint8 *pBuf;
// 1773   uint8 maxLen; // maxLen is the maximum packet length to allocate enough memory space
// 1774   uint8 len;    // Actual length varies due to different addrMode
// 1775   uint8 x;
// 1776   byte extZdpBindEntrySize = ZDP_BINDINGENTRY_SIZE + 1 + 1; // One more byte for cluserID and DstAddrMode
// 1777   byte shortZdpBindEntrySize = ZDP_BINDINGENTRY_SIZE + 1 + 1 + 2 - 8 - 1; // clusterID + DstAddrMode + shortAddr - ExtAddr - DstEndpoint
// 1778 
// 1779   (void)SecurityEnable;  // Intentionally unreferenced parameter
// 1780 
// 1781   // Status + BindingTableEntries + StartIndex + BindingTableListCount.
// 1782   maxLen = 1 + 1 + 1 + 1;
// 1783   maxLen += (BindingTableListCount * extZdpBindEntrySize );  //max length
// 1784   buf = osal_mem_alloc( maxLen + 1 );  // +1 for transaction ID
        ; Setup parameters for call to function osal_mem_alloc
        MOV       B,#0x15
        MUL       AB
        ADD       A,#0x4
        LCALL     ?Subroutine67 & 0xFFFF
??CrossCallReturnLabel_118:
        LCALL     `??osal_mem_alloc::?relay`; Banked call to: osal_mem_alloc
        MOV       ?V2,R2
        MOV       ?V3,R3
// 1785 
// 1786   if ( buf == NULL )
        MOV       A,R2
        ORL       A,?V3
        JNZ       ??ZDP_MgmtBindRsp_0
// 1787   {
// 1788     return afStatus_MEM_FAIL;
        MOV       R1,#0x10
        LJMP      ??CrossCallReturnLabel_34 & 0xFFFF
// 1789   }
// 1790 
// 1791   pBuf = buf+1;
??ZDP_MgmtBindRsp_0:
        MOV       DPL,R2
        MOV       DPH,R3
        INC       DPTR
        MOV       ?V6,DPL
        MOV       ?V7,DPH
        MOV       R2,?V6
        MOV       R3,?V7
// 1792 
// 1793   *pBuf++ = Status;
        MOV       A,?V10
        MOVX      @DPTR,A
// 1794   *pBuf++ = BindingTableEntries;
        INC       DPTR
        MOV       A,?V5
        MOVX      @DPTR,A
// 1795   *pBuf++ = StartIndex;
        MOV       A,#0x17
        LCALL     ?XSTACK_DISP0_8
        LCALL     ?Subroutine39 & 0xFFFF
// 1796   *pBuf++ = BindingTableListCount;
??CrossCallReturnLabel_59:
        MOV       A,?V4
        LCALL     ??Subroutine112_0 & 0xFFFF
??CrossCallReturnLabel_216:
        JNC       ??ZDP_MgmtBindRsp_1
        INC       R3
// 1797 
// 1798   // Initial length = Status + BindingTableEntries + StartIndex + BindingTableListCount.
// 1799   // length += ZDP_BINDINGENTRY_SIZE   -- Version 1.0
// 1800   //           extZdpBindEntrySize     -- Version 1.1 extended address mode
// 1801   //           shortZdpBindEntrySize   -- Version 1.1 group address mode
// 1802 
// 1803   len = 1 + 1 + 1 + 1;
??ZDP_MgmtBindRsp_1:
        MOV       ?V0,#0x4
// 1804   for ( x = 0; x < BindingTableListCount; x++ )
        MOV       ?V1,#0x0
        MOV       A,#0x19
        LCALL     ?XSTACK_DISP0_8
        LCALL     ?Subroutine50 & 0xFFFF
??CrossCallReturnLabel_86:
        SJMP      ??ZDP_MgmtBindRsp_2
// 1805   {
// 1806     pBuf = osal_cpyExtAddr( pBuf, BindingTableList->srcAddr );
// 1807     *pBuf++ = BindingTableList->srcEP;
// 1808 
// 1809     // Cluster ID
// 1810     *pBuf++ = LO_UINT16( BindingTableList->clusterID );
// 1811     *pBuf++ = HI_UINT16( BindingTableList->clusterID );
// 1812 
// 1813     *pBuf++ = BindingTableList->dstAddr.addrMode;
// 1814     if ( BindingTableList->dstAddr.addrMode == Addr64Bit )
// 1815     {
// 1816       len += extZdpBindEntrySize;
// 1817       pBuf = osal_cpyExtAddr( pBuf, BindingTableList->dstAddr.addr.extAddr );
// 1818       *pBuf++ = BindingTableList->dstEP;
// 1819     }
// 1820     else
// 1821     {
// 1822       len += shortZdpBindEntrySize;
??ZDP_MgmtBindRsp_3:
        MOV       A,#0xe
        ADD       A,?V0
        MOV       ?V0,A
// 1823       *pBuf++ = LO_UINT16( BindingTableList->dstAddr.addr.shortAddr );
        LCALL     ?Subroutine14 & 0xFFFF
// 1824       *pBuf++ = HI_UINT16( BindingTableList->dstAddr.addr.shortAddr );
// 1825     }
??CrossCallReturnLabel_9:
        MOV       R2,A
        JNC       ??ZDP_MgmtBindRsp_4
        INC       R3
// 1826     BindingTableList++;    // Move to next list entry
??ZDP_MgmtBindRsp_4:
        MOV       A,R6
        ADD       A,#0x15
        MOV       R6,A
        JNC       ??ZDP_MgmtBindRsp_5
        INC       R7
??ZDP_MgmtBindRsp_5:
        INC       ?V1
??ZDP_MgmtBindRsp_2:
        MOV       A,?V1
        CLR       C
        SUBB      A,?V4
        JNC       ??ZDP_MgmtBindRsp_6
        ; Setup parameters for call to function sAddrExtCpy
        MOV       A,R6
        MOV       R4,A
        MOV       A,R7
        MOV       R5,A
        LCALL     `??sAddrExtCpy::?relay`; Banked call to: sAddrExtCpy
        MOV       DPL,R6
        MOV       DPH,R7
        INC       DPTR
        INC       DPTR
        INC       DPTR
        INC       DPTR
        INC       DPTR
        INC       DPTR
        INC       DPTR
        LCALL     ?Subroutine66 & 0xFFFF
??CrossCallReturnLabel_184:
        LCALL     ?Subroutine36 & 0xFFFF
??CrossCallReturnLabel_53:
        MOV       DPL,R0
        MOV       DPH,R1
        LCALL     ??Subroutine105_0 & 0xFFFF
??CrossCallReturnLabel_180:
        LCALL     ??Subroutine113_0 & 0xFFFF
??CrossCallReturnLabel_221:
        LCALL     ??Subroutine105_0 & 0xFFFF
??CrossCallReturnLabel_181:
        INC       DPTR
        INC       DPTR
        MOVX      @DPTR,A
        MOV       A,R6
        ADD       A,#0x13
        MOV       R0,A
        CLR       A
        ADDC      A,R7
        MOV       R1,A
        MOV       DPL,R0
        MOV       DPH,R1
        LCALL     ?Subroutine29 & 0xFFFF
??CrossCallReturnLabel_218:
        JNC       ??ZDP_MgmtBindRsp_7
        INC       R3
??ZDP_MgmtBindRsp_7:
        MOV       A,R6
        ADD       A,#0xb
        MOV       R4,A
        CLR       A
        ADDC      A,R7
        MOV       R5,A
        MOV       DPL,R0
        MOV       DPH,R1
        MOVX      A,@DPTR
        XRL       A,#0x3
        JNZ       ??ZDP_MgmtBindRsp_3
        MOV       A,#0x15
        ADD       A,?V0
        MOV       ?V0,A
        ; Setup parameters for call to function sAddrExtCpy
        LCALL     `??sAddrExtCpy::?relay`; Banked call to: sAddrExtCpy
        LCALL     ?Subroutine69 & 0xFFFF
// 1827   }
??CrossCallReturnLabel_123:
        LCALL     ??Subroutine105_0 & 0xFFFF
??CrossCallReturnLabel_182:
        LCALL     ?Subroutine22 & 0xFFFF
??CrossCallReturnLabel_28:
        SJMP      ??ZDP_MgmtBindRsp_4
// 1828 
// 1829   FillAndSendBuffer( &TransSeq, dstAddr, Mgmt_Bind_rsp, len, buf );
??ZDP_MgmtBindRsp_6:
        MOV       DPTR,#ZDP_TmpBuf
        MOV       A,?V6
        MOVX      @DPTR,A
        INC       DPTR
        MOV       A,?V7
        MOVX      @DPTR,A
        ; Setup parameters for call to function fillAndSend
        MOV       ?V6,#0x33
        MOV       ?V7,#-0x80
        MOV       R0,#?V6
        LCALL     ?PUSH_XSTACK_I_TWO
          CFI CFA_XSP16 add(XSP16, 25)
        MOV       R1,?V0
        MOV       R4,?V12
        MOV       R5,?V13
        MOV       A,#0x2
        LCALL     ?XSTACK_DISP101_8
        LCALL     `??fillAndSend::?relay`; Banked call to: fillAndSend
        MOV       A,#0x2
        LCALL     ?DEALLOC_XSTACK8
          CFI CFA_XSP16 add(XSP16, 23)
        MOV       A,R1
        MOV       R6,A
        ; Setup parameters for call to function osal_mem_free
        MOV       R2,?V2
        MOV       R3,?V3
        LCALL     `??osal_mem_free::?relay`; Banked call to: osal_mem_free
        LCALL     ?Subroutine24 & 0xFFFF
??CrossCallReturnLabel_34:
        LJMP      ?Subroutine4 & 0xFFFF
// 1830 }
          CFI EndBlock cfiBlock389

        RSEG BANKED_CODE:HUGECODE:NOROOT(0)
?Subroutine69:
          CFI Block cfiCond390 Using cfiCommon0
          CFI Function ZDP_MgmtLqiRsp
          CFI Conditional ??CrossCallReturnLabel_122
          CFI R6 load(1, XDATA, add(CFA_XSP16, literal(-21)))
          CFI VB load(1, XDATA, add(CFA_XSP16, literal(-20)))
          CFI V0 load(1, XDATA, add(CFA_XSP16, literal(-19)))
          CFI V1 load(1, XDATA, add(CFA_XSP16, literal(-18)))
          CFI V2 load(1, XDATA, add(CFA_XSP16, literal(-17)))
          CFI V3 load(1, XDATA, add(CFA_XSP16, literal(-16)))
          CFI V4 load(1, XDATA, add(CFA_XSP16, literal(-15)))
          CFI V5 load(1, XDATA, add(CFA_XSP16, literal(-14)))
          CFI V6 load(1, XDATA, add(CFA_XSP16, literal(-13)))
          CFI V7 load(1, XDATA, add(CFA_XSP16, literal(-12)))
          CFI V8 load(1, XDATA, add(CFA_XSP16, literal(-11)))
          CFI V9 load(1, XDATA, add(CFA_XSP16, literal(-10)))
          CFI V10 load(1, XDATA, add(CFA_XSP16, literal(-9)))
          CFI V11 load(1, XDATA, add(CFA_XSP16, literal(-8)))
          CFI V12 load(1, XDATA, add(CFA_XSP16, literal(-7)))
          CFI R7 load(1, XDATA, add(CFA_XSP16, literal(-6)))
          CFI ?RET_LOW load(1, XDATA, add(CFA_XSP16, literal(-5)))
          CFI ?RET_HIGH load(1, XDATA, add(CFA_XSP16, literal(-4)))
          CFI ?BRET_EXT load(1, XDATA, add(CFA_XSP16, literal(-3)))
          CFI DPL0 load(1, XDATA, add(CFA_XSP16, literal(-2)))
          CFI DPH0 load(1, XDATA, add(CFA_XSP16, literal(-1)))
          CFI CFA_SP SP+-2
          CFI CFA_XSP16 add(XSP16, 22)
          CFI Block cfiCond391 Using cfiCommon0
          CFI (cfiCond391) Function ZDP_MgmtBindRsp
          CFI (cfiCond391) Conditional ??CrossCallReturnLabel_123
          CFI (cfiCond391) R6 load(1, XDATA, add(CFA_XSP16, literal(-22)))
          CFI (cfiCond391) VB load(1, XDATA, add(CFA_XSP16, literal(-21)))
          CFI (cfiCond391) V0 load(1, XDATA, add(CFA_XSP16, literal(-20)))
          CFI (cfiCond391) V1 load(1, XDATA, add(CFA_XSP16, literal(-19)))
          CFI (cfiCond391) V2 load(1, XDATA, add(CFA_XSP16, literal(-18)))
          CFI (cfiCond391) V3 load(1, XDATA, add(CFA_XSP16, literal(-17)))
          CFI (cfiCond391) V4 load(1, XDATA, add(CFA_XSP16, literal(-16)))
          CFI (cfiCond391) V5 load(1, XDATA, add(CFA_XSP16, literal(-15)))
          CFI (cfiCond391) V6 load(1, XDATA, add(CFA_XSP16, literal(-14)))
          CFI (cfiCond391) V7 load(1, XDATA, add(CFA_XSP16, literal(-13)))
          CFI (cfiCond391) V8 load(1, XDATA, add(CFA_XSP16, literal(-12)))
          CFI (cfiCond391) V9 load(1, XDATA, add(CFA_XSP16, literal(-11)))
          CFI (cfiCond391) V10 load(1, XDATA, add(CFA_XSP16, literal(-10)))
          CFI (cfiCond391) V11 load(1, XDATA, add(CFA_XSP16, literal(-9)))
          CFI (cfiCond391) V12 load(1, XDATA, add(CFA_XSP16, literal(-8)))
          CFI (cfiCond391) V13 load(1, XDATA, add(CFA_XSP16, literal(-7)))
          CFI (cfiCond391) R7 load(1, XDATA, add(CFA_XSP16, literal(-6)))
          CFI (cfiCond391) ?RET_LOW load(1, XDATA, add(CFA_XSP16, literal(-5)))
          CFI (cfiCond391) ?RET_HIGH load(1, XDATA, add(CFA_XSP16, literal(-4)))
          CFI (cfiCond391) ?BRET_EXT load(1, XDATA, add(CFA_XSP16, literal(-3)))
          CFI (cfiCond391) DPL0 load(1, XDATA, add(CFA_XSP16, literal(-2)))
          CFI (cfiCond391) DPH0 load(1, XDATA, add(CFA_XSP16, literal(-1)))
          CFI (cfiCond391) CFA_SP SP+-2
          CFI (cfiCond391) CFA_XSP16 add(XSP16, 23)
          CFI Block cfiPicker392 Using cfiCommon1
          CFI (cfiPicker392) NoFunction
          CFI (cfiPicker392) Picker
        MOV       A,R6
        ADD       A,#0x14
        MOV       DPL,A
        CLR       A
        ADDC      A,R7
        MOV       DPH,A
        RET
          CFI EndBlock cfiCond390
          CFI EndBlock cfiCond391
          CFI EndBlock cfiPicker392

        RSEG BANKED_CODE:HUGECODE:NOROOT(0)
?Subroutine39:
          CFI Block cfiCond393 Using cfiCommon0
          CFI Function ZDP_MgmtRtgRsp
          CFI Conditional ??CrossCallReturnLabel_58
          CFI R6 load(1, XDATA, add(CFA_XSP16, literal(-20)))
          CFI VB load(1, XDATA, add(CFA_XSP16, literal(-19)))
          CFI V0 load(1, XDATA, add(CFA_XSP16, literal(-18)))
          CFI V1 load(1, XDATA, add(CFA_XSP16, literal(-17)))
          CFI V2 load(1, XDATA, add(CFA_XSP16, literal(-16)))
          CFI V3 load(1, XDATA, add(CFA_XSP16, literal(-15)))
          CFI V4 load(1, XDATA, add(CFA_XSP16, literal(-14)))
          CFI V5 load(1, XDATA, add(CFA_XSP16, literal(-13)))
          CFI V6 load(1, XDATA, add(CFA_XSP16, literal(-12)))
          CFI V7 load(1, XDATA, add(CFA_XSP16, literal(-11)))
          CFI V8 load(1, XDATA, add(CFA_XSP16, literal(-10)))
          CFI V9 load(1, XDATA, add(CFA_XSP16, literal(-9)))
          CFI V10 load(1, XDATA, add(CFA_XSP16, literal(-8)))
          CFI V11 load(1, XDATA, add(CFA_XSP16, literal(-7)))
          CFI R7 load(1, XDATA, add(CFA_XSP16, literal(-6)))
          CFI ?RET_LOW load(1, XDATA, add(CFA_XSP16, literal(-5)))
          CFI ?RET_HIGH load(1, XDATA, add(CFA_XSP16, literal(-4)))
          CFI ?BRET_EXT load(1, XDATA, add(CFA_XSP16, literal(-3)))
          CFI DPL0 load(1, XDATA, add(CFA_XSP16, literal(-2)))
          CFI DPH0 load(1, XDATA, add(CFA_XSP16, literal(-1)))
          CFI CFA_SP SP+-2
          CFI CFA_XSP16 add(XSP16, 21)
          CFI Block cfiCond394 Using cfiCommon0
          CFI (cfiCond394) Function ZDP_MgmtBindRsp
          CFI (cfiCond394) Conditional ??CrossCallReturnLabel_59
          CFI (cfiCond394) R6 load(1, XDATA, add(CFA_XSP16, literal(-22)))
          CFI (cfiCond394) VB load(1, XDATA, add(CFA_XSP16, literal(-21)))
          CFI (cfiCond394) V0 load(1, XDATA, add(CFA_XSP16, literal(-20)))
          CFI (cfiCond394) V1 load(1, XDATA, add(CFA_XSP16, literal(-19)))
          CFI (cfiCond394) V2 load(1, XDATA, add(CFA_XSP16, literal(-18)))
          CFI (cfiCond394) V3 load(1, XDATA, add(CFA_XSP16, literal(-17)))
          CFI (cfiCond394) V4 load(1, XDATA, add(CFA_XSP16, literal(-16)))
          CFI (cfiCond394) V5 load(1, XDATA, add(CFA_XSP16, literal(-15)))
          CFI (cfiCond394) V6 load(1, XDATA, add(CFA_XSP16, literal(-14)))
          CFI (cfiCond394) V7 load(1, XDATA, add(CFA_XSP16, literal(-13)))
          CFI (cfiCond394) V8 load(1, XDATA, add(CFA_XSP16, literal(-12)))
          CFI (cfiCond394) V9 load(1, XDATA, add(CFA_XSP16, literal(-11)))
          CFI (cfiCond394) V10 load(1, XDATA, add(CFA_XSP16, literal(-10)))
          CFI (cfiCond394) V11 load(1, XDATA, add(CFA_XSP16, literal(-9)))
          CFI (cfiCond394) V12 load(1, XDATA, add(CFA_XSP16, literal(-8)))
          CFI (cfiCond394) V13 load(1, XDATA, add(CFA_XSP16, literal(-7)))
          CFI (cfiCond394) R7 load(1, XDATA, add(CFA_XSP16, literal(-6)))
          CFI (cfiCond394) ?RET_LOW load(1, XDATA, add(CFA_XSP16, literal(-5)))
          CFI (cfiCond394) ?RET_HIGH load(1, XDATA, add(CFA_XSP16, literal(-4)))
          CFI (cfiCond394) ?BRET_EXT load(1, XDATA, add(CFA_XSP16, literal(-3)))
          CFI (cfiCond394) DPL0 load(1, XDATA, add(CFA_XSP16, literal(-2)))
          CFI (cfiCond394) DPH0 load(1, XDATA, add(CFA_XSP16, literal(-1)))
          CFI (cfiCond394) CFA_SP SP+-2
          CFI (cfiCond394) CFA_XSP16 add(XSP16, 23)
          CFI Block cfiPicker395 Using cfiCommon1
          CFI (cfiPicker395) NoFunction
          CFI (cfiPicker395) Picker
        LCALL     ?Subroutine79 & 0xFFFF
??CrossCallReturnLabel_187:
        INC       DPTR
        INC       DPTR
        LCALL     ?Subroutine86 & 0xFFFF
??CrossCallReturnLabel_145:
        RET
          CFI EndBlock cfiCond393
          CFI EndBlock cfiCond394
          CFI EndBlock cfiPicker395

        RSEG BANKED_CODE:HUGECODE:NOROOT(0)
?Subroutine86:
          CFI Block cfiCond396 Using cfiCommon0
          CFI Function ZDP_MgmtRtgRsp
          CFI Conditional ??CrossCallReturnLabel_145, ??CrossCallReturnLabel_58
          CFI R6 load(1, XDATA, add(CFA_XSP16, literal(-20)))
          CFI VB load(1, XDATA, add(CFA_XSP16, literal(-19)))
          CFI V0 load(1, XDATA, add(CFA_XSP16, literal(-18)))
          CFI V1 load(1, XDATA, add(CFA_XSP16, literal(-17)))
          CFI V2 load(1, XDATA, add(CFA_XSP16, literal(-16)))
          CFI V3 load(1, XDATA, add(CFA_XSP16, literal(-15)))
          CFI V4 load(1, XDATA, add(CFA_XSP16, literal(-14)))
          CFI V5 load(1, XDATA, add(CFA_XSP16, literal(-13)))
          CFI V6 load(1, XDATA, add(CFA_XSP16, literal(-12)))
          CFI V7 load(1, XDATA, add(CFA_XSP16, literal(-11)))
          CFI V8 load(1, XDATA, add(CFA_XSP16, literal(-10)))
          CFI V9 load(1, XDATA, add(CFA_XSP16, literal(-9)))
          CFI V10 load(1, XDATA, add(CFA_XSP16, literal(-8)))
          CFI V11 load(1, XDATA, add(CFA_XSP16, literal(-7)))
          CFI R7 load(1, XDATA, add(CFA_XSP16, literal(-6)))
          CFI ?RET_LOW load(1, XDATA, add(CFA_XSP16, literal(-5)))
          CFI ?RET_HIGH load(1, XDATA, add(CFA_XSP16, literal(-4)))
          CFI ?BRET_EXT load(1, XDATA, add(CFA_XSP16, literal(-3)))
          CFI DPL0 load(1, XDATA, add(CFA_XSP16, literal(-2)))
          CFI DPH0 load(1, XDATA, add(CFA_XSP16, literal(-1)))
          CFI CFA_SP SP+-4
          CFI CFA_XSP16 add(XSP16, 21)
          CFI Block cfiCond397 Using cfiCommon0
          CFI (cfiCond397) Function ZDP_MgmtBindRsp
          CFI (cfiCond397) Conditional ??CrossCallReturnLabel_145, ??CrossCallReturnLabel_59
          CFI (cfiCond397) R6 load(1, XDATA, add(CFA_XSP16, literal(-22)))
          CFI (cfiCond397) VB load(1, XDATA, add(CFA_XSP16, literal(-21)))
          CFI (cfiCond397) V0 load(1, XDATA, add(CFA_XSP16, literal(-20)))
          CFI (cfiCond397) V1 load(1, XDATA, add(CFA_XSP16, literal(-19)))
          CFI (cfiCond397) V2 load(1, XDATA, add(CFA_XSP16, literal(-18)))
          CFI (cfiCond397) V3 load(1, XDATA, add(CFA_XSP16, literal(-17)))
          CFI (cfiCond397) V4 load(1, XDATA, add(CFA_XSP16, literal(-16)))
          CFI (cfiCond397) V5 load(1, XDATA, add(CFA_XSP16, literal(-15)))
          CFI (cfiCond397) V6 load(1, XDATA, add(CFA_XSP16, literal(-14)))
          CFI (cfiCond397) V7 load(1, XDATA, add(CFA_XSP16, literal(-13)))
          CFI (cfiCond397) V8 load(1, XDATA, add(CFA_XSP16, literal(-12)))
          CFI (cfiCond397) V9 load(1, XDATA, add(CFA_XSP16, literal(-11)))
          CFI (cfiCond397) V10 load(1, XDATA, add(CFA_XSP16, literal(-10)))
          CFI (cfiCond397) V11 load(1, XDATA, add(CFA_XSP16, literal(-9)))
          CFI (cfiCond397) V12 load(1, XDATA, add(CFA_XSP16, literal(-8)))
          CFI (cfiCond397) V13 load(1, XDATA, add(CFA_XSP16, literal(-7)))
          CFI (cfiCond397) R7 load(1, XDATA, add(CFA_XSP16, literal(-6)))
          CFI (cfiCond397) ?RET_LOW load(1, XDATA, add(CFA_XSP16, literal(-5)))
          CFI (cfiCond397) ?RET_HIGH load(1, XDATA, add(CFA_XSP16, literal(-4)))
          CFI (cfiCond397) ?BRET_EXT load(1, XDATA, add(CFA_XSP16, literal(-3)))
          CFI (cfiCond397) DPL0 load(1, XDATA, add(CFA_XSP16, literal(-2)))
          CFI (cfiCond397) DPH0 load(1, XDATA, add(CFA_XSP16, literal(-1)))
          CFI (cfiCond397) CFA_SP SP+-4
          CFI (cfiCond397) CFA_XSP16 add(XSP16, 23)
          CFI Block cfiCond398 Using cfiCommon0
          CFI (cfiCond398) Function ZDP_MgmtNwkUpdateNotify
          CFI (cfiCond398) Conditional ??CrossCallReturnLabel_146, ??CrossCallReturnLabel_13
          CFI (cfiCond398) R6 load(1, XDATA, add(CFA_XSP16, literal(-18)))
          CFI (cfiCond398) VB load(1, XDATA, add(CFA_XSP16, literal(-17)))
          CFI (cfiCond398) V0 load(1, XDATA, add(CFA_XSP16, literal(-16)))
          CFI (cfiCond398) V1 load(1, XDATA, add(CFA_XSP16, literal(-15)))
          CFI (cfiCond398) V2 load(1, XDATA, add(CFA_XSP16, literal(-14)))
          CFI (cfiCond398) V3 load(1, XDATA, add(CFA_XSP16, literal(-13)))
          CFI (cfiCond398) V4 load(1, XDATA, add(CFA_XSP16, literal(-12)))
          CFI (cfiCond398) V5 load(1, XDATA, add(CFA_XSP16, literal(-11)))
          CFI (cfiCond398) V6 load(1, XDATA, add(CFA_XSP16, literal(-10)))
          CFI (cfiCond398) V7 load(1, XDATA, add(CFA_XSP16, literal(-9)))
          CFI (cfiCond398) V8 load(1, XDATA, add(CFA_XSP16, literal(-8)))
          CFI (cfiCond398) V9 load(1, XDATA, add(CFA_XSP16, literal(-7)))
          CFI (cfiCond398) R7 load(1, XDATA, add(CFA_XSP16, literal(-6)))
          CFI (cfiCond398) ?RET_LOW load(1, XDATA, add(CFA_XSP16, literal(-5)))
          CFI (cfiCond398) ?RET_HIGH load(1, XDATA, add(CFA_XSP16, literal(-4)))
          CFI (cfiCond398) ?BRET_EXT load(1, XDATA, add(CFA_XSP16, literal(-3)))
          CFI (cfiCond398) DPL0 load(1, XDATA, add(CFA_XSP16, literal(-2)))
          CFI (cfiCond398) DPH0 load(1, XDATA, add(CFA_XSP16, literal(-1)))
          CFI (cfiCond398) CFA_SP SP+-4
          CFI (cfiCond398) CFA_XSP16 add(XSP16, 19)
          CFI Block cfiCond399 Using cfiCommon0
          CFI (cfiCond399) Function ZDP_IncomingData
          CFI (cfiCond399) Conditional ??CrossCallReturnLabel_146, ??CrossCallReturnLabel_14
          CFI (cfiCond399) R6 load(1, XDATA, add(CFA_XSP16, literal(-10)))
          CFI (cfiCond399) VB load(1, XDATA, add(CFA_XSP16, literal(-9)))
          CFI (cfiCond399) V0 load(1, XDATA, add(CFA_XSP16, literal(-8)))
          CFI (cfiCond399) V1 load(1, XDATA, add(CFA_XSP16, literal(-7)))
          CFI (cfiCond399) R7 load(1, XDATA, add(CFA_XSP16, literal(-6)))
          CFI (cfiCond399) ?RET_LOW load(1, XDATA, add(CFA_XSP16, literal(-5)))
          CFI (cfiCond399) ?RET_HIGH load(1, XDATA, add(CFA_XSP16, literal(-4)))
          CFI (cfiCond399) ?BRET_EXT load(1, XDATA, add(CFA_XSP16, literal(-3)))
          CFI (cfiCond399) DPL0 load(1, XDATA, add(CFA_XSP16, literal(-2)))
          CFI (cfiCond399) DPH0 load(1, XDATA, add(CFA_XSP16, literal(-1)))
          CFI (cfiCond399) CFA_SP SP+-4
          CFI (cfiCond399) CFA_XSP16 add(XSP16, 33)
          CFI Block cfiCond400 Using cfiCommon0
          CFI (cfiCond400) Function ZDP_IncomingData
          CFI (cfiCond400) Conditional ??CrossCallReturnLabel_146, ??CrossCallReturnLabel_15
          CFI (cfiCond400) R6 load(1, XDATA, add(CFA_XSP16, literal(-10)))
          CFI (cfiCond400) VB load(1, XDATA, add(CFA_XSP16, literal(-9)))
          CFI (cfiCond400) V0 load(1, XDATA, add(CFA_XSP16, literal(-8)))
          CFI (cfiCond400) V1 load(1, XDATA, add(CFA_XSP16, literal(-7)))
          CFI (cfiCond400) R7 load(1, XDATA, add(CFA_XSP16, literal(-6)))
          CFI (cfiCond400) ?RET_LOW load(1, XDATA, add(CFA_XSP16, literal(-5)))
          CFI (cfiCond400) ?RET_HIGH load(1, XDATA, add(CFA_XSP16, literal(-4)))
          CFI (cfiCond400) ?BRET_EXT load(1, XDATA, add(CFA_XSP16, literal(-3)))
          CFI (cfiCond400) DPL0 load(1, XDATA, add(CFA_XSP16, literal(-2)))
          CFI (cfiCond400) DPH0 load(1, XDATA, add(CFA_XSP16, literal(-1)))
          CFI (cfiCond400) CFA_SP SP+-4
          CFI (cfiCond400) CFA_XSP16 add(XSP16, 33)
          CFI Block cfiPicker401 Using cfiCommon1
          CFI (cfiPicker401) NoFunction
          CFI (cfiPicker401) Picker
        MOVX      @DPTR,A
        MOV       DPL,R2
        MOV       DPH,R3
        INC       DPTR
        INC       DPTR
        INC       DPTR
        RET
          CFI EndBlock cfiCond396
          CFI EndBlock cfiCond397
          CFI EndBlock cfiCond398
          CFI EndBlock cfiCond399
          CFI EndBlock cfiCond400
          CFI EndBlock cfiPicker401

        RSEG BANKED_CODE:HUGECODE:NOROOT(0)
?Subroutine36:
          CFI Block cfiCond402 Using cfiCommon0
          CFI Function ZDP_MgmtNwkDiscRsp
          CFI Conditional ??CrossCallReturnLabel_52
          CFI R6 load(1, XDATA, add(CFA_XSP16, literal(-22)))
          CFI VB load(1, XDATA, add(CFA_XSP16, literal(-21)))
          CFI V0 load(1, XDATA, add(CFA_XSP16, literal(-20)))
          CFI V1 load(1, XDATA, add(CFA_XSP16, literal(-19)))
          CFI V2 load(1, XDATA, add(CFA_XSP16, literal(-18)))
          CFI V3 load(1, XDATA, add(CFA_XSP16, literal(-17)))
          CFI V4 load(1, XDATA, add(CFA_XSP16, literal(-16)))
          CFI V5 load(1, XDATA, add(CFA_XSP16, literal(-15)))
          CFI V6 load(1, XDATA, add(CFA_XSP16, literal(-14)))
          CFI V7 load(1, XDATA, add(CFA_XSP16, literal(-13)))
          CFI V8 load(1, XDATA, add(CFA_XSP16, literal(-12)))
          CFI V9 load(1, XDATA, add(CFA_XSP16, literal(-11)))
          CFI V10 load(1, XDATA, add(CFA_XSP16, literal(-10)))
          CFI V11 load(1, XDATA, add(CFA_XSP16, literal(-9)))
          CFI V12 load(1, XDATA, add(CFA_XSP16, literal(-8)))
          CFI V13 load(1, XDATA, add(CFA_XSP16, literal(-7)))
          CFI R7 load(1, XDATA, add(CFA_XSP16, literal(-6)))
          CFI ?RET_LOW load(1, XDATA, add(CFA_XSP16, literal(-5)))
          CFI ?RET_HIGH load(1, XDATA, add(CFA_XSP16, literal(-4)))
          CFI ?BRET_EXT load(1, XDATA, add(CFA_XSP16, literal(-3)))
          CFI DPL0 load(1, XDATA, add(CFA_XSP16, literal(-2)))
          CFI DPH0 load(1, XDATA, add(CFA_XSP16, literal(-1)))
          CFI CFA_SP SP+-2
          CFI CFA_XSP16 add(XSP16, 23)
          CFI Block cfiCond403 Using cfiCommon0
          CFI (cfiCond403) Function ZDP_MgmtBindRsp
          CFI (cfiCond403) Conditional ??CrossCallReturnLabel_53
          CFI (cfiCond403) R6 load(1, XDATA, add(CFA_XSP16, literal(-22)))
          CFI (cfiCond403) VB load(1, XDATA, add(CFA_XSP16, literal(-21)))
          CFI (cfiCond403) V0 load(1, XDATA, add(CFA_XSP16, literal(-20)))
          CFI (cfiCond403) V1 load(1, XDATA, add(CFA_XSP16, literal(-19)))
          CFI (cfiCond403) V2 load(1, XDATA, add(CFA_XSP16, literal(-18)))
          CFI (cfiCond403) V3 load(1, XDATA, add(CFA_XSP16, literal(-17)))
          CFI (cfiCond403) V4 load(1, XDATA, add(CFA_XSP16, literal(-16)))
          CFI (cfiCond403) V5 load(1, XDATA, add(CFA_XSP16, literal(-15)))
          CFI (cfiCond403) V6 load(1, XDATA, add(CFA_XSP16, literal(-14)))
          CFI (cfiCond403) V7 load(1, XDATA, add(CFA_XSP16, literal(-13)))
          CFI (cfiCond403) V8 load(1, XDATA, add(CFA_XSP16, literal(-12)))
          CFI (cfiCond403) V9 load(1, XDATA, add(CFA_XSP16, literal(-11)))
          CFI (cfiCond403) V10 load(1, XDATA, add(CFA_XSP16, literal(-10)))
          CFI (cfiCond403) V11 load(1, XDATA, add(CFA_XSP16, literal(-9)))
          CFI (cfiCond403) V12 load(1, XDATA, add(CFA_XSP16, literal(-8)))
          CFI (cfiCond403) V13 load(1, XDATA, add(CFA_XSP16, literal(-7)))
          CFI (cfiCond403) R7 load(1, XDATA, add(CFA_XSP16, literal(-6)))
          CFI (cfiCond403) ?RET_LOW load(1, XDATA, add(CFA_XSP16, literal(-5)))
          CFI (cfiCond403) ?RET_HIGH load(1, XDATA, add(CFA_XSP16, literal(-4)))
          CFI (cfiCond403) ?BRET_EXT load(1, XDATA, add(CFA_XSP16, literal(-3)))
          CFI (cfiCond403) DPL0 load(1, XDATA, add(CFA_XSP16, literal(-2)))
          CFI (cfiCond403) DPH0 load(1, XDATA, add(CFA_XSP16, literal(-1)))
          CFI (cfiCond403) CFA_SP SP+-2
          CFI (cfiCond403) CFA_XSP16 add(XSP16, 23)
          CFI Block cfiPicker404 Using cfiCommon1
          CFI (cfiPicker404) NoFunction
          CFI (cfiPicker404) Picker
        MOVX      @DPTR,A
        MOV       A,R6
        ADD       A,#0x9
        MOV       R0,A
        CLR       A
        ADDC      A,R7
        MOV       R1,A
        RET
          CFI EndBlock cfiCond402
          CFI EndBlock cfiCond403
          CFI EndBlock cfiPicker404

        RSEG BANKED_CODE:HUGECODE:NOROOT(0)
?Subroutine29:
          CFI Block cfiCond405 Using cfiCommon0
          CFI Function ZDP_BindUnbindReq
          CFI Conditional ??CrossCallReturnLabel_217
          CFI R6 load(1, XDATA, add(CFA_XSP16, literal(-18)))
          CFI VB load(1, XDATA, add(CFA_XSP16, literal(-17)))
          CFI V0 load(1, XDATA, add(CFA_XSP16, literal(-16)))
          CFI V1 load(1, XDATA, add(CFA_XSP16, literal(-15)))
          CFI V2 load(1, XDATA, add(CFA_XSP16, literal(-14)))
          CFI V3 load(1, XDATA, add(CFA_XSP16, literal(-13)))
          CFI V4 load(1, XDATA, add(CFA_XSP16, literal(-12)))
          CFI V5 load(1, XDATA, add(CFA_XSP16, literal(-11)))
          CFI V6 load(1, XDATA, add(CFA_XSP16, literal(-10)))
          CFI V7 load(1, XDATA, add(CFA_XSP16, literal(-9)))
          CFI V8 load(1, XDATA, add(CFA_XSP16, literal(-8)))
          CFI V9 load(1, XDATA, add(CFA_XSP16, literal(-7)))
          CFI R7 load(1, XDATA, add(CFA_XSP16, literal(-6)))
          CFI ?RET_LOW load(1, XDATA, add(CFA_XSP16, literal(-5)))
          CFI ?RET_HIGH load(1, XDATA, add(CFA_XSP16, literal(-4)))
          CFI ?BRET_EXT load(1, XDATA, add(CFA_XSP16, literal(-3)))
          CFI DPL0 load(1, XDATA, add(CFA_XSP16, literal(-2)))
          CFI DPH0 load(1, XDATA, add(CFA_XSP16, literal(-1)))
          CFI CFA_SP SP+-2
          CFI CFA_XSP16 add(XSP16, 18)
          CFI Block cfiCond406 Using cfiCommon0
          CFI (cfiCond406) Function ZDP_MgmtBindRsp
          CFI (cfiCond406) Conditional ??CrossCallReturnLabel_218
          CFI (cfiCond406) R6 load(1, XDATA, add(CFA_XSP16, literal(-22)))
          CFI (cfiCond406) VB load(1, XDATA, add(CFA_XSP16, literal(-21)))
          CFI (cfiCond406) V0 load(1, XDATA, add(CFA_XSP16, literal(-20)))
          CFI (cfiCond406) V1 load(1, XDATA, add(CFA_XSP16, literal(-19)))
          CFI (cfiCond406) V2 load(1, XDATA, add(CFA_XSP16, literal(-18)))
          CFI (cfiCond406) V3 load(1, XDATA, add(CFA_XSP16, literal(-17)))
          CFI (cfiCond406) V4 load(1, XDATA, add(CFA_XSP16, literal(-16)))
          CFI (cfiCond406) V5 load(1, XDATA, add(CFA_XSP16, literal(-15)))
          CFI (cfiCond406) V6 load(1, XDATA, add(CFA_XSP16, literal(-14)))
          CFI (cfiCond406) V7 load(1, XDATA, add(CFA_XSP16, literal(-13)))
          CFI (cfiCond406) V8 load(1, XDATA, add(CFA_XSP16, literal(-12)))
          CFI (cfiCond406) V9 load(1, XDATA, add(CFA_XSP16, literal(-11)))
          CFI (cfiCond406) V10 load(1, XDATA, add(CFA_XSP16, literal(-10)))
          CFI (cfiCond406) V11 load(1, XDATA, add(CFA_XSP16, literal(-9)))
          CFI (cfiCond406) V12 load(1, XDATA, add(CFA_XSP16, literal(-8)))
          CFI (cfiCond406) V13 load(1, XDATA, add(CFA_XSP16, literal(-7)))
          CFI (cfiCond406) R7 load(1, XDATA, add(CFA_XSP16, literal(-6)))
          CFI (cfiCond406) ?RET_LOW load(1, XDATA, add(CFA_XSP16, literal(-5)))
          CFI (cfiCond406) ?RET_HIGH load(1, XDATA, add(CFA_XSP16, literal(-4)))
          CFI (cfiCond406) ?BRET_EXT load(1, XDATA, add(CFA_XSP16, literal(-3)))
          CFI (cfiCond406) DPL0 load(1, XDATA, add(CFA_XSP16, literal(-2)))
          CFI (cfiCond406) DPH0 load(1, XDATA, add(CFA_XSP16, literal(-1)))
          CFI (cfiCond406) CFA_SP SP+-2
          CFI (cfiCond406) CFA_XSP16 add(XSP16, 23)
          CFI Block cfiPicker407 Using cfiCommon1
          CFI (cfiPicker407) NoFunction
          CFI (cfiPicker407) Picker
        LCALL     ?Subroutine78 & 0xFFFF
??CrossCallReturnLabel_133:
          CFI EndBlock cfiCond405
          CFI EndBlock cfiCond406
          CFI EndBlock cfiPicker407
        REQUIRE ??Subroutine112_0
        ; // Fall through to label ??Subroutine112_0

        RSEG BANKED_CODE:HUGECODE:NOROOT(0)
??Subroutine112_0:
          CFI Block cfiCond408 Using cfiCommon0
          CFI Function ZDP_MgmtRtgRsp
          CFI Conditional ??CrossCallReturnLabel_215
          CFI R6 load(1, XDATA, add(CFA_XSP16, literal(-20)))
          CFI VB load(1, XDATA, add(CFA_XSP16, literal(-19)))
          CFI V0 load(1, XDATA, add(CFA_XSP16, literal(-18)))
          CFI V1 load(1, XDATA, add(CFA_XSP16, literal(-17)))
          CFI V2 load(1, XDATA, add(CFA_XSP16, literal(-16)))
          CFI V3 load(1, XDATA, add(CFA_XSP16, literal(-15)))
          CFI V4 load(1, XDATA, add(CFA_XSP16, literal(-14)))
          CFI V5 load(1, XDATA, add(CFA_XSP16, literal(-13)))
          CFI V6 load(1, XDATA, add(CFA_XSP16, literal(-12)))
          CFI V7 load(1, XDATA, add(CFA_XSP16, literal(-11)))
          CFI V8 load(1, XDATA, add(CFA_XSP16, literal(-10)))
          CFI V9 load(1, XDATA, add(CFA_XSP16, literal(-9)))
          CFI V10 load(1, XDATA, add(CFA_XSP16, literal(-8)))
          CFI V11 load(1, XDATA, add(CFA_XSP16, literal(-7)))
          CFI R7 load(1, XDATA, add(CFA_XSP16, literal(-6)))
          CFI ?RET_LOW load(1, XDATA, add(CFA_XSP16, literal(-5)))
          CFI ?RET_HIGH load(1, XDATA, add(CFA_XSP16, literal(-4)))
          CFI ?BRET_EXT load(1, XDATA, add(CFA_XSP16, literal(-3)))
          CFI DPL0 load(1, XDATA, add(CFA_XSP16, literal(-2)))
          CFI DPH0 load(1, XDATA, add(CFA_XSP16, literal(-1)))
          CFI CFA_SP SP+-2
          CFI CFA_XSP16 add(XSP16, 21)
          CFI Block cfiCond409 Using cfiCommon0
          CFI (cfiCond409) Function ZDP_MgmtBindRsp
          CFI (cfiCond409) Conditional ??CrossCallReturnLabel_216
          CFI (cfiCond409) R6 load(1, XDATA, add(CFA_XSP16, literal(-22)))
          CFI (cfiCond409) VB load(1, XDATA, add(CFA_XSP16, literal(-21)))
          CFI (cfiCond409) V0 load(1, XDATA, add(CFA_XSP16, literal(-20)))
          CFI (cfiCond409) V1 load(1, XDATA, add(CFA_XSP16, literal(-19)))
          CFI (cfiCond409) V2 load(1, XDATA, add(CFA_XSP16, literal(-18)))
          CFI (cfiCond409) V3 load(1, XDATA, add(CFA_XSP16, literal(-17)))
          CFI (cfiCond409) V4 load(1, XDATA, add(CFA_XSP16, literal(-16)))
          CFI (cfiCond409) V5 load(1, XDATA, add(CFA_XSP16, literal(-15)))
          CFI (cfiCond409) V6 load(1, XDATA, add(CFA_XSP16, literal(-14)))
          CFI (cfiCond409) V7 load(1, XDATA, add(CFA_XSP16, literal(-13)))
          CFI (cfiCond409) V8 load(1, XDATA, add(CFA_XSP16, literal(-12)))
          CFI (cfiCond409) V9 load(1, XDATA, add(CFA_XSP16, literal(-11)))
          CFI (cfiCond409) V10 load(1, XDATA, add(CFA_XSP16, literal(-10)))
          CFI (cfiCond409) V11 load(1, XDATA, add(CFA_XSP16, literal(-9)))
          CFI (cfiCond409) V12 load(1, XDATA, add(CFA_XSP16, literal(-8)))
          CFI (cfiCond409) V13 load(1, XDATA, add(CFA_XSP16, literal(-7)))
          CFI (cfiCond409) R7 load(1, XDATA, add(CFA_XSP16, literal(-6)))
          CFI (cfiCond409) ?RET_LOW load(1, XDATA, add(CFA_XSP16, literal(-5)))
          CFI (cfiCond409) ?RET_HIGH load(1, XDATA, add(CFA_XSP16, literal(-4)))
          CFI (cfiCond409) ?BRET_EXT load(1, XDATA, add(CFA_XSP16, literal(-3)))
          CFI (cfiCond409) DPL0 load(1, XDATA, add(CFA_XSP16, literal(-2)))
          CFI (cfiCond409) DPH0 load(1, XDATA, add(CFA_XSP16, literal(-1)))
          CFI (cfiCond409) CFA_SP SP+-2
          CFI (cfiCond409) CFA_XSP16 add(XSP16, 23)
          CFI Block cfiCond410 Using cfiCommon0
          CFI (cfiCond410) Function ZDP_BindUnbindReq
          CFI (cfiCond410) Conditional ??CrossCallReturnLabel_217
          CFI (cfiCond410) R6 load(1, XDATA, add(CFA_XSP16, literal(-18)))
          CFI (cfiCond410) VB load(1, XDATA, add(CFA_XSP16, literal(-17)))
          CFI (cfiCond410) V0 load(1, XDATA, add(CFA_XSP16, literal(-16)))
          CFI (cfiCond410) V1 load(1, XDATA, add(CFA_XSP16, literal(-15)))
          CFI (cfiCond410) V2 load(1, XDATA, add(CFA_XSP16, literal(-14)))
          CFI (cfiCond410) V3 load(1, XDATA, add(CFA_XSP16, literal(-13)))
          CFI (cfiCond410) V4 load(1, XDATA, add(CFA_XSP16, literal(-12)))
          CFI (cfiCond410) V5 load(1, XDATA, add(CFA_XSP16, literal(-11)))
          CFI (cfiCond410) V6 load(1, XDATA, add(CFA_XSP16, literal(-10)))
          CFI (cfiCond410) V7 load(1, XDATA, add(CFA_XSP16, literal(-9)))
          CFI (cfiCond410) V8 load(1, XDATA, add(CFA_XSP16, literal(-8)))
          CFI (cfiCond410) V9 load(1, XDATA, add(CFA_XSP16, literal(-7)))
          CFI (cfiCond410) R7 load(1, XDATA, add(CFA_XSP16, literal(-6)))
          CFI (cfiCond410) ?RET_LOW load(1, XDATA, add(CFA_XSP16, literal(-5)))
          CFI (cfiCond410) ?RET_HIGH load(1, XDATA, add(CFA_XSP16, literal(-4)))
          CFI (cfiCond410) ?BRET_EXT load(1, XDATA, add(CFA_XSP16, literal(-3)))
          CFI (cfiCond410) DPL0 load(1, XDATA, add(CFA_XSP16, literal(-2)))
          CFI (cfiCond410) DPH0 load(1, XDATA, add(CFA_XSP16, literal(-1)))
          CFI (cfiCond410) CFA_SP SP+-2
          CFI (cfiCond410) CFA_XSP16 add(XSP16, 18)
          CFI Block cfiCond411 Using cfiCommon0
          CFI (cfiCond411) Function ZDP_MgmtBindRsp
          CFI (cfiCond411) Conditional ??CrossCallReturnLabel_218
          CFI (cfiCond411) R6 load(1, XDATA, add(CFA_XSP16, literal(-22)))
          CFI (cfiCond411) VB load(1, XDATA, add(CFA_XSP16, literal(-21)))
          CFI (cfiCond411) V0 load(1, XDATA, add(CFA_XSP16, literal(-20)))
          CFI (cfiCond411) V1 load(1, XDATA, add(CFA_XSP16, literal(-19)))
          CFI (cfiCond411) V2 load(1, XDATA, add(CFA_XSP16, literal(-18)))
          CFI (cfiCond411) V3 load(1, XDATA, add(CFA_XSP16, literal(-17)))
          CFI (cfiCond411) V4 load(1, XDATA, add(CFA_XSP16, literal(-16)))
          CFI (cfiCond411) V5 load(1, XDATA, add(CFA_XSP16, literal(-15)))
          CFI (cfiCond411) V6 load(1, XDATA, add(CFA_XSP16, literal(-14)))
          CFI (cfiCond411) V7 load(1, XDATA, add(CFA_XSP16, literal(-13)))
          CFI (cfiCond411) V8 load(1, XDATA, add(CFA_XSP16, literal(-12)))
          CFI (cfiCond411) V9 load(1, XDATA, add(CFA_XSP16, literal(-11)))
          CFI (cfiCond411) V10 load(1, XDATA, add(CFA_XSP16, literal(-10)))
          CFI (cfiCond411) V11 load(1, XDATA, add(CFA_XSP16, literal(-9)))
          CFI (cfiCond411) V12 load(1, XDATA, add(CFA_XSP16, literal(-8)))
          CFI (cfiCond411) V13 load(1, XDATA, add(CFA_XSP16, literal(-7)))
          CFI (cfiCond411) R7 load(1, XDATA, add(CFA_XSP16, literal(-6)))
          CFI (cfiCond411) ?RET_LOW load(1, XDATA, add(CFA_XSP16, literal(-5)))
          CFI (cfiCond411) ?RET_HIGH load(1, XDATA, add(CFA_XSP16, literal(-4)))
          CFI (cfiCond411) ?BRET_EXT load(1, XDATA, add(CFA_XSP16, literal(-3)))
          CFI (cfiCond411) DPL0 load(1, XDATA, add(CFA_XSP16, literal(-2)))
          CFI (cfiCond411) DPH0 load(1, XDATA, add(CFA_XSP16, literal(-1)))
          CFI (cfiCond411) CFA_SP SP+-2
          CFI (cfiCond411) CFA_XSP16 add(XSP16, 23)
          CFI Block cfiPicker412 Using cfiCommon1
          CFI (cfiPicker412) NoFunction
          CFI (cfiPicker412) Picker
        MOVX      @DPTR,A
        MOV       A,R2
        ADD       A,#0x4
        MOV       R2,A
        RET
          CFI EndBlock cfiCond408
          CFI EndBlock cfiCond409
          CFI EndBlock cfiCond410
          CFI EndBlock cfiCond411
          CFI EndBlock cfiPicker412

        RSEG BANKED_CODE:HUGECODE:NOROOT(0)
?Subroutine27:
          CFI Block cfiCond413 Using cfiCommon0
          CFI Function ZDP_NodeDescMsg
          CFI Conditional ??CrossCallReturnLabel_219
          CFI R6 load(1, XDATA, add(CFA_XSP16, literal(-10)))
          CFI VB load(1, XDATA, add(CFA_XSP16, literal(-9)))
          CFI V0 load(1, XDATA, add(CFA_XSP16, literal(-8)))
          CFI V1 load(1, XDATA, add(CFA_XSP16, literal(-7)))
          CFI R7 load(1, XDATA, add(CFA_XSP16, literal(-6)))
          CFI ?RET_LOW load(1, XDATA, add(CFA_XSP16, literal(-5)))
          CFI ?RET_HIGH load(1, XDATA, add(CFA_XSP16, literal(-4)))
          CFI ?BRET_EXT load(1, XDATA, add(CFA_XSP16, literal(-3)))
          CFI DPL0 load(1, XDATA, add(CFA_XSP16, literal(-2)))
          CFI DPH0 load(1, XDATA, add(CFA_XSP16, literal(-1)))
          CFI CFA_SP SP+-2
          CFI CFA_XSP16 add(XSP16, 10)
          CFI Block cfiCond414 Using cfiCommon0
          CFI (cfiCond414) Function ZDP_NodeDescMsg
          CFI (cfiCond414) Conditional ??CrossCallReturnLabel_220
          CFI (cfiCond414) R6 load(1, XDATA, add(CFA_XSP16, literal(-10)))
          CFI (cfiCond414) VB load(1, XDATA, add(CFA_XSP16, literal(-9)))
          CFI (cfiCond414) V0 load(1, XDATA, add(CFA_XSP16, literal(-8)))
          CFI (cfiCond414) V1 load(1, XDATA, add(CFA_XSP16, literal(-7)))
          CFI (cfiCond414) R7 load(1, XDATA, add(CFA_XSP16, literal(-6)))
          CFI (cfiCond414) ?RET_LOW load(1, XDATA, add(CFA_XSP16, literal(-5)))
          CFI (cfiCond414) ?RET_HIGH load(1, XDATA, add(CFA_XSP16, literal(-4)))
          CFI (cfiCond414) ?BRET_EXT load(1, XDATA, add(CFA_XSP16, literal(-3)))
          CFI (cfiCond414) DPL0 load(1, XDATA, add(CFA_XSP16, literal(-2)))
          CFI (cfiCond414) DPH0 load(1, XDATA, add(CFA_XSP16, literal(-1)))
          CFI (cfiCond414) CFA_SP SP+-2
          CFI (cfiCond414) CFA_XSP16 add(XSP16, 10)
          CFI Block cfiPicker415 Using cfiCommon1
          CFI (cfiPicker415) NoFunction
          CFI (cfiPicker415) Picker
        INC       DPTR
        INC       DPTR
          CFI EndBlock cfiCond413
          CFI EndBlock cfiCond414
          CFI EndBlock cfiPicker415
        REQUIRE ??Subroutine113_0
        ; // Fall through to label ??Subroutine113_0

        RSEG BANKED_CODE:HUGECODE:NOROOT(0)
??Subroutine113_0:
          CFI Block cfiCond416 Using cfiCommon0
          CFI Function ZDP_MgmtBindRsp
          CFI Conditional ??CrossCallReturnLabel_221
          CFI R6 load(1, XDATA, add(CFA_XSP16, literal(-22)))
          CFI VB load(1, XDATA, add(CFA_XSP16, literal(-21)))
          CFI V0 load(1, XDATA, add(CFA_XSP16, literal(-20)))
          CFI V1 load(1, XDATA, add(CFA_XSP16, literal(-19)))
          CFI V2 load(1, XDATA, add(CFA_XSP16, literal(-18)))
          CFI V3 load(1, XDATA, add(CFA_XSP16, literal(-17)))
          CFI V4 load(1, XDATA, add(CFA_XSP16, literal(-16)))
          CFI V5 load(1, XDATA, add(CFA_XSP16, literal(-15)))
          CFI V6 load(1, XDATA, add(CFA_XSP16, literal(-14)))
          CFI V7 load(1, XDATA, add(CFA_XSP16, literal(-13)))
          CFI V8 load(1, XDATA, add(CFA_XSP16, literal(-12)))
          CFI V9 load(1, XDATA, add(CFA_XSP16, literal(-11)))
          CFI V10 load(1, XDATA, add(CFA_XSP16, literal(-10)))
          CFI V11 load(1, XDATA, add(CFA_XSP16, literal(-9)))
          CFI V12 load(1, XDATA, add(CFA_XSP16, literal(-8)))
          CFI V13 load(1, XDATA, add(CFA_XSP16, literal(-7)))
          CFI R7 load(1, XDATA, add(CFA_XSP16, literal(-6)))
          CFI ?RET_LOW load(1, XDATA, add(CFA_XSP16, literal(-5)))
          CFI ?RET_HIGH load(1, XDATA, add(CFA_XSP16, literal(-4)))
          CFI ?BRET_EXT load(1, XDATA, add(CFA_XSP16, literal(-3)))
          CFI DPL0 load(1, XDATA, add(CFA_XSP16, literal(-2)))
          CFI DPH0 load(1, XDATA, add(CFA_XSP16, literal(-1)))
          CFI CFA_SP SP+-2
          CFI CFA_XSP16 add(XSP16, 23)
          CFI Block cfiCond417 Using cfiCommon0
          CFI (cfiCond417) Function ZDP_NodeDescMsg
          CFI (cfiCond417) Conditional ??CrossCallReturnLabel_219
          CFI (cfiCond417) R6 load(1, XDATA, add(CFA_XSP16, literal(-10)))
          CFI (cfiCond417) VB load(1, XDATA, add(CFA_XSP16, literal(-9)))
          CFI (cfiCond417) V0 load(1, XDATA, add(CFA_XSP16, literal(-8)))
          CFI (cfiCond417) V1 load(1, XDATA, add(CFA_XSP16, literal(-7)))
          CFI (cfiCond417) R7 load(1, XDATA, add(CFA_XSP16, literal(-6)))
          CFI (cfiCond417) ?RET_LOW load(1, XDATA, add(CFA_XSP16, literal(-5)))
          CFI (cfiCond417) ?RET_HIGH load(1, XDATA, add(CFA_XSP16, literal(-4)))
          CFI (cfiCond417) ?BRET_EXT load(1, XDATA, add(CFA_XSP16, literal(-3)))
          CFI (cfiCond417) DPL0 load(1, XDATA, add(CFA_XSP16, literal(-2)))
          CFI (cfiCond417) DPH0 load(1, XDATA, add(CFA_XSP16, literal(-1)))
          CFI (cfiCond417) CFA_SP SP+-2
          CFI (cfiCond417) CFA_XSP16 add(XSP16, 10)
          CFI Block cfiCond418 Using cfiCommon0
          CFI (cfiCond418) Function ZDP_NodeDescMsg
          CFI (cfiCond418) Conditional ??CrossCallReturnLabel_220
          CFI (cfiCond418) R6 load(1, XDATA, add(CFA_XSP16, literal(-10)))
          CFI (cfiCond418) VB load(1, XDATA, add(CFA_XSP16, literal(-9)))
          CFI (cfiCond418) V0 load(1, XDATA, add(CFA_XSP16, literal(-8)))
          CFI (cfiCond418) V1 load(1, XDATA, add(CFA_XSP16, literal(-7)))
          CFI (cfiCond418) R7 load(1, XDATA, add(CFA_XSP16, literal(-6)))
          CFI (cfiCond418) ?RET_LOW load(1, XDATA, add(CFA_XSP16, literal(-5)))
          CFI (cfiCond418) ?RET_HIGH load(1, XDATA, add(CFA_XSP16, literal(-4)))
          CFI (cfiCond418) ?BRET_EXT load(1, XDATA, add(CFA_XSP16, literal(-3)))
          CFI (cfiCond418) DPL0 load(1, XDATA, add(CFA_XSP16, literal(-2)))
          CFI (cfiCond418) DPH0 load(1, XDATA, add(CFA_XSP16, literal(-1)))
          CFI (cfiCond418) CFA_SP SP+-2
          CFI (cfiCond418) CFA_XSP16 add(XSP16, 10)
          CFI Block cfiPicker419 Using cfiCommon1
          CFI (cfiPicker419) NoFunction
          CFI (cfiPicker419) Picker
        INC       DPTR
          CFI EndBlock cfiCond416
          CFI EndBlock cfiCond417
          CFI EndBlock cfiCond418
          CFI EndBlock cfiPicker419
        REQUIRE ??Subroutine114_0
        ; // Fall through to label ??Subroutine114_0

        RSEG BANKED_CODE:HUGECODE:NOROOT(0)
??Subroutine114_0:
          CFI Block cfiCond420 Using cfiCommon0
          CFI Function ZDP_SendData
          CFI Conditional ??CrossCallReturnLabel_222
          CFI R6 load(1, XDATA, add(CFA_XSP16, literal(-12)))
          CFI VB load(1, XDATA, add(CFA_XSP16, literal(-11)))
          CFI V0 load(1, XDATA, add(CFA_XSP16, literal(-10)))
          CFI V1 load(1, XDATA, add(CFA_XSP16, literal(-9)))
          CFI V2 load(1, XDATA, add(CFA_XSP16, literal(-8)))
          CFI V3 load(1, XDATA, add(CFA_XSP16, literal(-7)))
          CFI R7 load(1, XDATA, add(CFA_XSP16, literal(-6)))
          CFI ?RET_LOW load(1, XDATA, add(CFA_XSP16, literal(-5)))
          CFI ?RET_HIGH load(1, XDATA, add(CFA_XSP16, literal(-4)))
          CFI ?BRET_EXT load(1, XDATA, add(CFA_XSP16, literal(-3)))
          CFI DPL0 load(1, XDATA, add(CFA_XSP16, literal(-2)))
          CFI DPH0 load(1, XDATA, add(CFA_XSP16, literal(-1)))
          CFI CFA_SP SP+-2
          CFI CFA_XSP16 add(XSP16, 12)
          CFI Block cfiCond421 Using cfiCommon0
          CFI (cfiCond421) Function ZDP_MgmtBindRsp
          CFI (cfiCond421) Conditional ??CrossCallReturnLabel_221
          CFI (cfiCond421) R6 load(1, XDATA, add(CFA_XSP16, literal(-22)))
          CFI (cfiCond421) VB load(1, XDATA, add(CFA_XSP16, literal(-21)))
          CFI (cfiCond421) V0 load(1, XDATA, add(CFA_XSP16, literal(-20)))
          CFI (cfiCond421) V1 load(1, XDATA, add(CFA_XSP16, literal(-19)))
          CFI (cfiCond421) V2 load(1, XDATA, add(CFA_XSP16, literal(-18)))
          CFI (cfiCond421) V3 load(1, XDATA, add(CFA_XSP16, literal(-17)))
          CFI (cfiCond421) V4 load(1, XDATA, add(CFA_XSP16, literal(-16)))
          CFI (cfiCond421) V5 load(1, XDATA, add(CFA_XSP16, literal(-15)))
          CFI (cfiCond421) V6 load(1, XDATA, add(CFA_XSP16, literal(-14)))
          CFI (cfiCond421) V7 load(1, XDATA, add(CFA_XSP16, literal(-13)))
          CFI (cfiCond421) V8 load(1, XDATA, add(CFA_XSP16, literal(-12)))
          CFI (cfiCond421) V9 load(1, XDATA, add(CFA_XSP16, literal(-11)))
          CFI (cfiCond421) V10 load(1, XDATA, add(CFA_XSP16, literal(-10)))
          CFI (cfiCond421) V11 load(1, XDATA, add(CFA_XSP16, literal(-9)))
          CFI (cfiCond421) V12 load(1, XDATA, add(CFA_XSP16, literal(-8)))
          CFI (cfiCond421) V13 load(1, XDATA, add(CFA_XSP16, literal(-7)))
          CFI (cfiCond421) R7 load(1, XDATA, add(CFA_XSP16, literal(-6)))
          CFI (cfiCond421) ?RET_LOW load(1, XDATA, add(CFA_XSP16, literal(-5)))
          CFI (cfiCond421) ?RET_HIGH load(1, XDATA, add(CFA_XSP16, literal(-4)))
          CFI (cfiCond421) ?BRET_EXT load(1, XDATA, add(CFA_XSP16, literal(-3)))
          CFI (cfiCond421) DPL0 load(1, XDATA, add(CFA_XSP16, literal(-2)))
          CFI (cfiCond421) DPH0 load(1, XDATA, add(CFA_XSP16, literal(-1)))
          CFI (cfiCond421) CFA_SP SP+-2
          CFI (cfiCond421) CFA_XSP16 add(XSP16, 23)
          CFI Block cfiCond422 Using cfiCommon0
          CFI (cfiCond422) Function ZDP_NodeDescMsg
          CFI (cfiCond422) Conditional ??CrossCallReturnLabel_219
          CFI (cfiCond422) R6 load(1, XDATA, add(CFA_XSP16, literal(-10)))
          CFI (cfiCond422) VB load(1, XDATA, add(CFA_XSP16, literal(-9)))
          CFI (cfiCond422) V0 load(1, XDATA, add(CFA_XSP16, literal(-8)))
          CFI (cfiCond422) V1 load(1, XDATA, add(CFA_XSP16, literal(-7)))
          CFI (cfiCond422) R7 load(1, XDATA, add(CFA_XSP16, literal(-6)))
          CFI (cfiCond422) ?RET_LOW load(1, XDATA, add(CFA_XSP16, literal(-5)))
          CFI (cfiCond422) ?RET_HIGH load(1, XDATA, add(CFA_XSP16, literal(-4)))
          CFI (cfiCond422) ?BRET_EXT load(1, XDATA, add(CFA_XSP16, literal(-3)))
          CFI (cfiCond422) DPL0 load(1, XDATA, add(CFA_XSP16, literal(-2)))
          CFI (cfiCond422) DPH0 load(1, XDATA, add(CFA_XSP16, literal(-1)))
          CFI (cfiCond422) CFA_SP SP+-2
          CFI (cfiCond422) CFA_XSP16 add(XSP16, 10)
          CFI Block cfiCond423 Using cfiCommon0
          CFI (cfiCond423) Function ZDP_NodeDescMsg
          CFI (cfiCond423) Conditional ??CrossCallReturnLabel_220
          CFI (cfiCond423) R6 load(1, XDATA, add(CFA_XSP16, literal(-10)))
          CFI (cfiCond423) VB load(1, XDATA, add(CFA_XSP16, literal(-9)))
          CFI (cfiCond423) V0 load(1, XDATA, add(CFA_XSP16, literal(-8)))
          CFI (cfiCond423) V1 load(1, XDATA, add(CFA_XSP16, literal(-7)))
          CFI (cfiCond423) R7 load(1, XDATA, add(CFA_XSP16, literal(-6)))
          CFI (cfiCond423) ?RET_LOW load(1, XDATA, add(CFA_XSP16, literal(-5)))
          CFI (cfiCond423) ?RET_HIGH load(1, XDATA, add(CFA_XSP16, literal(-4)))
          CFI (cfiCond423) ?BRET_EXT load(1, XDATA, add(CFA_XSP16, literal(-3)))
          CFI (cfiCond423) DPL0 load(1, XDATA, add(CFA_XSP16, literal(-2)))
          CFI (cfiCond423) DPH0 load(1, XDATA, add(CFA_XSP16, literal(-1)))
          CFI (cfiCond423) CFA_SP SP+-2
          CFI (cfiCond423) CFA_XSP16 add(XSP16, 10)
          CFI Block cfiPicker424 Using cfiCommon1
          CFI (cfiPicker424) NoFunction
          CFI (cfiPicker424) Picker
        LCALL     ?Subroutine82 & 0xFFFF
??CrossCallReturnLabel_225:
        RET
          CFI EndBlock cfiCond420
          CFI EndBlock cfiCond421
          CFI EndBlock cfiCond422
          CFI EndBlock cfiCond423
          CFI EndBlock cfiPicker424

        RSEG BANKED_CODE:HUGECODE:NOROOT(0)
?Subroutine82:
          CFI Block cfiCond425 Using cfiCommon0
          CFI Function ZDP_NodeDescMsg
          CFI Conditional ??CrossCallReturnLabel_223, ??CrossCallReturnLabel_157
          CFI R6 load(1, XDATA, add(CFA_XSP16, literal(-10)))
          CFI VB load(1, XDATA, add(CFA_XSP16, literal(-9)))
          CFI V0 load(1, XDATA, add(CFA_XSP16, literal(-8)))
          CFI V1 load(1, XDATA, add(CFA_XSP16, literal(-7)))
          CFI R7 load(1, XDATA, add(CFA_XSP16, literal(-6)))
          CFI ?RET_LOW load(1, XDATA, add(CFA_XSP16, literal(-5)))
          CFI ?RET_HIGH load(1, XDATA, add(CFA_XSP16, literal(-4)))
          CFI ?BRET_EXT load(1, XDATA, add(CFA_XSP16, literal(-3)))
          CFI DPL0 load(1, XDATA, add(CFA_XSP16, literal(-2)))
          CFI DPH0 load(1, XDATA, add(CFA_XSP16, literal(-1)))
          CFI CFA_SP SP+-4
          CFI CFA_XSP16 add(XSP16, 10)
          CFI Block cfiCond426 Using cfiCommon0
          CFI (cfiCond426) Function ZDP_NodeDescMsg
          CFI (cfiCond426) Conditional ??CrossCallReturnLabel_223, ??CrossCallReturnLabel_158
          CFI (cfiCond426) R6 load(1, XDATA, add(CFA_XSP16, literal(-10)))
          CFI (cfiCond426) VB load(1, XDATA, add(CFA_XSP16, literal(-9)))
          CFI (cfiCond426) V0 load(1, XDATA, add(CFA_XSP16, literal(-8)))
          CFI (cfiCond426) V1 load(1, XDATA, add(CFA_XSP16, literal(-7)))
          CFI (cfiCond426) R7 load(1, XDATA, add(CFA_XSP16, literal(-6)))
          CFI (cfiCond426) ?RET_LOW load(1, XDATA, add(CFA_XSP16, literal(-5)))
          CFI (cfiCond426) ?RET_HIGH load(1, XDATA, add(CFA_XSP16, literal(-4)))
          CFI (cfiCond426) ?BRET_EXT load(1, XDATA, add(CFA_XSP16, literal(-3)))
          CFI (cfiCond426) DPL0 load(1, XDATA, add(CFA_XSP16, literal(-2)))
          CFI (cfiCond426) DPH0 load(1, XDATA, add(CFA_XSP16, literal(-1)))
          CFI (cfiCond426) CFA_SP SP+-4
          CFI (cfiCond426) CFA_XSP16 add(XSP16, 10)
          CFI Block cfiCond427 Using cfiCommon0
          CFI (cfiCond427) Function ZDO_RegisterForZDOMsg
          CFI (cfiCond427) Conditional ??CrossCallReturnLabel_223, ??CrossCallReturnLabel_159
          CFI (cfiCond427) R6 load(1, XDATA, add(CFA_XSP16, literal(-14)))
          CFI (cfiCond427) VB load(1, XDATA, add(CFA_XSP16, literal(-13)))
          CFI (cfiCond427) V0 load(1, XDATA, add(CFA_XSP16, literal(-12)))
          CFI (cfiCond427) V1 load(1, XDATA, add(CFA_XSP16, literal(-11)))
          CFI (cfiCond427) V2 load(1, XDATA, add(CFA_XSP16, literal(-10)))
          CFI (cfiCond427) V3 load(1, XDATA, add(CFA_XSP16, literal(-9)))
          CFI (cfiCond427) V4 load(1, XDATA, add(CFA_XSP16, literal(-8)))
          CFI (cfiCond427) V5 load(1, XDATA, add(CFA_XSP16, literal(-7)))
          CFI (cfiCond427) R7 load(1, XDATA, add(CFA_XSP16, literal(-6)))
          CFI (cfiCond427) ?RET_LOW load(1, XDATA, add(CFA_XSP16, literal(-5)))
          CFI (cfiCond427) ?RET_HIGH load(1, XDATA, add(CFA_XSP16, literal(-4)))
          CFI (cfiCond427) ?BRET_EXT load(1, XDATA, add(CFA_XSP16, literal(-3)))
          CFI (cfiCond427) DPL0 load(1, XDATA, add(CFA_XSP16, literal(-2)))
          CFI (cfiCond427) DPH0 load(1, XDATA, add(CFA_XSP16, literal(-1)))
          CFI (cfiCond427) CFA_SP SP+-4
          CFI (cfiCond427) CFA_XSP16 add(XSP16, 14)
          CFI Block cfiCond428 Using cfiCommon0
          CFI (cfiCond428) Function ZDP_UserDescSet
          CFI (cfiCond428) Conditional ??CrossCallReturnLabel_224, ??CrossCallReturnLabel_0
          CFI (cfiCond428) R6 load(1, XDATA, add(CFA_XSP16, literal(-15)))
          CFI (cfiCond428) VB load(1, XDATA, add(CFA_XSP16, literal(-14)))
          CFI (cfiCond428) V0 load(1, XDATA, add(CFA_XSP16, literal(-13)))
          CFI (cfiCond428) V1 load(1, XDATA, add(CFA_XSP16, literal(-12)))
          CFI (cfiCond428) V2 load(1, XDATA, add(CFA_XSP16, literal(-11)))
          CFI (cfiCond428) V3 load(1, XDATA, add(CFA_XSP16, literal(-10)))
          CFI (cfiCond428) V4 load(1, XDATA, add(CFA_XSP16, literal(-9)))
          CFI (cfiCond428) V5 load(1, XDATA, add(CFA_XSP16, literal(-8)))
          CFI (cfiCond428) V6 load(1, XDATA, add(CFA_XSP16, literal(-7)))
          CFI (cfiCond428) R7 load(1, XDATA, add(CFA_XSP16, literal(-6)))
          CFI (cfiCond428) ?RET_LOW load(1, XDATA, add(CFA_XSP16, literal(-5)))
          CFI (cfiCond428) ?RET_HIGH load(1, XDATA, add(CFA_XSP16, literal(-4)))
          CFI (cfiCond428) ?BRET_EXT load(1, XDATA, add(CFA_XSP16, literal(-3)))
          CFI (cfiCond428) DPL0 load(1, XDATA, add(CFA_XSP16, literal(-2)))
          CFI (cfiCond428) DPH0 load(1, XDATA, add(CFA_XSP16, literal(-1)))
          CFI (cfiCond428) CFA_SP SP+-4
          CFI (cfiCond428) CFA_XSP16 add(XSP16, 15)
          CFI Block cfiCond429 Using cfiCommon0
          CFI (cfiCond429) Function ZDP_UserDescRsp
          CFI (cfiCond429) Conditional ??CrossCallReturnLabel_224, ??CrossCallReturnLabel_1
          CFI (cfiCond429) R6 load(1, XDATA, add(CFA_XSP16, literal(-18)))
          CFI (cfiCond429) VB load(1, XDATA, add(CFA_XSP16, literal(-17)))
          CFI (cfiCond429) V0 load(1, XDATA, add(CFA_XSP16, literal(-16)))
          CFI (cfiCond429) V1 load(1, XDATA, add(CFA_XSP16, literal(-15)))
          CFI (cfiCond429) V2 load(1, XDATA, add(CFA_XSP16, literal(-14)))
          CFI (cfiCond429) V3 load(1, XDATA, add(CFA_XSP16, literal(-13)))
          CFI (cfiCond429) V4 load(1, XDATA, add(CFA_XSP16, literal(-12)))
          CFI (cfiCond429) V5 load(1, XDATA, add(CFA_XSP16, literal(-11)))
          CFI (cfiCond429) V6 load(1, XDATA, add(CFA_XSP16, literal(-10)))
          CFI (cfiCond429) V7 load(1, XDATA, add(CFA_XSP16, literal(-9)))
          CFI (cfiCond429) V8 load(1, XDATA, add(CFA_XSP16, literal(-8)))
          CFI (cfiCond429) V9 load(1, XDATA, add(CFA_XSP16, literal(-7)))
          CFI (cfiCond429) R7 load(1, XDATA, add(CFA_XSP16, literal(-6)))
          CFI (cfiCond429) ?RET_LOW load(1, XDATA, add(CFA_XSP16, literal(-5)))
          CFI (cfiCond429) ?RET_HIGH load(1, XDATA, add(CFA_XSP16, literal(-4)))
          CFI (cfiCond429) ?BRET_EXT load(1, XDATA, add(CFA_XSP16, literal(-3)))
          CFI (cfiCond429) DPL0 load(1, XDATA, add(CFA_XSP16, literal(-2)))
          CFI (cfiCond429) DPH0 load(1, XDATA, add(CFA_XSP16, literal(-1)))
          CFI (cfiCond429) CFA_SP SP+-4
          CFI (cfiCond429) CFA_XSP16 add(XSP16, 19)
          CFI Block cfiCond430 Using cfiCommon0
          CFI (cfiCond430) Function ZDP_NodeDescMsg
          CFI (cfiCond430) Conditional ??CrossCallReturnLabel_225, ??CrossCallReturnLabel_219
          CFI (cfiCond430) R6 load(1, XDATA, add(CFA_XSP16, literal(-10)))
          CFI (cfiCond430) VB load(1, XDATA, add(CFA_XSP16, literal(-9)))
          CFI (cfiCond430) V0 load(1, XDATA, add(CFA_XSP16, literal(-8)))
          CFI (cfiCond430) V1 load(1, XDATA, add(CFA_XSP16, literal(-7)))
          CFI (cfiCond430) R7 load(1, XDATA, add(CFA_XSP16, literal(-6)))
          CFI (cfiCond430) ?RET_LOW load(1, XDATA, add(CFA_XSP16, literal(-5)))
          CFI (cfiCond430) ?RET_HIGH load(1, XDATA, add(CFA_XSP16, literal(-4)))
          CFI (cfiCond430) ?BRET_EXT load(1, XDATA, add(CFA_XSP16, literal(-3)))
          CFI (cfiCond430) DPL0 load(1, XDATA, add(CFA_XSP16, literal(-2)))
          CFI (cfiCond430) DPH0 load(1, XDATA, add(CFA_XSP16, literal(-1)))
          CFI (cfiCond430) CFA_SP SP+-4
          CFI (cfiCond430) CFA_XSP16 add(XSP16, 10)
          CFI Block cfiCond431 Using cfiCommon0
          CFI (cfiCond431) Function ZDP_NodeDescMsg
          CFI (cfiCond431) Conditional ??CrossCallReturnLabel_225, ??CrossCallReturnLabel_220
          CFI (cfiCond431) R6 load(1, XDATA, add(CFA_XSP16, literal(-10)))
          CFI (cfiCond431) VB load(1, XDATA, add(CFA_XSP16, literal(-9)))
          CFI (cfiCond431) V0 load(1, XDATA, add(CFA_XSP16, literal(-8)))
          CFI (cfiCond431) V1 load(1, XDATA, add(CFA_XSP16, literal(-7)))
          CFI (cfiCond431) R7 load(1, XDATA, add(CFA_XSP16, literal(-6)))
          CFI (cfiCond431) ?RET_LOW load(1, XDATA, add(CFA_XSP16, literal(-5)))
          CFI (cfiCond431) ?RET_HIGH load(1, XDATA, add(CFA_XSP16, literal(-4)))
          CFI (cfiCond431) ?BRET_EXT load(1, XDATA, add(CFA_XSP16, literal(-3)))
          CFI (cfiCond431) DPL0 load(1, XDATA, add(CFA_XSP16, literal(-2)))
          CFI (cfiCond431) DPH0 load(1, XDATA, add(CFA_XSP16, literal(-1)))
          CFI (cfiCond431) CFA_SP SP+-4
          CFI (cfiCond431) CFA_XSP16 add(XSP16, 10)
          CFI Block cfiCond432 Using cfiCommon0
          CFI (cfiCond432) Function ZDP_MgmtBindRsp
          CFI (cfiCond432) Conditional ??CrossCallReturnLabel_225, ??CrossCallReturnLabel_221
          CFI (cfiCond432) R6 load(1, XDATA, add(CFA_XSP16, literal(-22)))
          CFI (cfiCond432) VB load(1, XDATA, add(CFA_XSP16, literal(-21)))
          CFI (cfiCond432) V0 load(1, XDATA, add(CFA_XSP16, literal(-20)))
          CFI (cfiCond432) V1 load(1, XDATA, add(CFA_XSP16, literal(-19)))
          CFI (cfiCond432) V2 load(1, XDATA, add(CFA_XSP16, literal(-18)))
          CFI (cfiCond432) V3 load(1, XDATA, add(CFA_XSP16, literal(-17)))
          CFI (cfiCond432) V4 load(1, XDATA, add(CFA_XSP16, literal(-16)))
          CFI (cfiCond432) V5 load(1, XDATA, add(CFA_XSP16, literal(-15)))
          CFI (cfiCond432) V6 load(1, XDATA, add(CFA_XSP16, literal(-14)))
          CFI (cfiCond432) V7 load(1, XDATA, add(CFA_XSP16, literal(-13)))
          CFI (cfiCond432) V8 load(1, XDATA, add(CFA_XSP16, literal(-12)))
          CFI (cfiCond432) V9 load(1, XDATA, add(CFA_XSP16, literal(-11)))
          CFI (cfiCond432) V10 load(1, XDATA, add(CFA_XSP16, literal(-10)))
          CFI (cfiCond432) V11 load(1, XDATA, add(CFA_XSP16, literal(-9)))
          CFI (cfiCond432) V12 load(1, XDATA, add(CFA_XSP16, literal(-8)))
          CFI (cfiCond432) V13 load(1, XDATA, add(CFA_XSP16, literal(-7)))
          CFI (cfiCond432) R7 load(1, XDATA, add(CFA_XSP16, literal(-6)))
          CFI (cfiCond432) ?RET_LOW load(1, XDATA, add(CFA_XSP16, literal(-5)))
          CFI (cfiCond432) ?RET_HIGH load(1, XDATA, add(CFA_XSP16, literal(-4)))
          CFI (cfiCond432) ?BRET_EXT load(1, XDATA, add(CFA_XSP16, literal(-3)))
          CFI (cfiCond432) DPL0 load(1, XDATA, add(CFA_XSP16, literal(-2)))
          CFI (cfiCond432) DPH0 load(1, XDATA, add(CFA_XSP16, literal(-1)))
          CFI (cfiCond432) CFA_SP SP+-4
          CFI (cfiCond432) CFA_XSP16 add(XSP16, 23)
          CFI Block cfiCond433 Using cfiCommon0
          CFI (cfiCond433) Function ZDP_SendData
          CFI (cfiCond433) Conditional ??CrossCallReturnLabel_225, ??CrossCallReturnLabel_222
          CFI (cfiCond433) R6 load(1, XDATA, add(CFA_XSP16, literal(-12)))
          CFI (cfiCond433) VB load(1, XDATA, add(CFA_XSP16, literal(-11)))
          CFI (cfiCond433) V0 load(1, XDATA, add(CFA_XSP16, literal(-10)))
          CFI (cfiCond433) V1 load(1, XDATA, add(CFA_XSP16, literal(-9)))
          CFI (cfiCond433) V2 load(1, XDATA, add(CFA_XSP16, literal(-8)))
          CFI (cfiCond433) V3 load(1, XDATA, add(CFA_XSP16, literal(-7)))
          CFI (cfiCond433) R7 load(1, XDATA, add(CFA_XSP16, literal(-6)))
          CFI (cfiCond433) ?RET_LOW load(1, XDATA, add(CFA_XSP16, literal(-5)))
          CFI (cfiCond433) ?RET_HIGH load(1, XDATA, add(CFA_XSP16, literal(-4)))
          CFI (cfiCond433) ?BRET_EXT load(1, XDATA, add(CFA_XSP16, literal(-3)))
          CFI (cfiCond433) DPL0 load(1, XDATA, add(CFA_XSP16, literal(-2)))
          CFI (cfiCond433) DPH0 load(1, XDATA, add(CFA_XSP16, literal(-1)))
          CFI (cfiCond433) CFA_SP SP+-4
          CFI (cfiCond433) CFA_XSP16 add(XSP16, 12)
          CFI Block cfiPicker434 Using cfiCommon1
          CFI (cfiPicker434) NoFunction
          CFI (cfiPicker434) Picker
        LCALL     ?Subroutine89 & 0xFFFF
??CrossCallReturnLabel_228:
        INC       DPTR
        RET
          CFI EndBlock cfiCond425
          CFI EndBlock cfiCond426
          CFI EndBlock cfiCond427
          CFI EndBlock cfiCond428
          CFI EndBlock cfiCond429
          CFI EndBlock cfiCond430
          CFI EndBlock cfiCond431
          CFI EndBlock cfiCond432
          CFI EndBlock cfiCond433
          CFI EndBlock cfiPicker434

        RSEG BANKED_CODE:HUGECODE:NOROOT(0)
?Subroutine89:
          CFI Block cfiCond435 Using cfiCommon0
          CFI Function ZDP_NodeDescMsg
          CFI Conditional ??CrossCallReturnLabel_226, ??CrossCallReturnLabel_137, ??CrossCallReturnLabel_35
          CFI R6 load(1, XDATA, add(CFA_XSP16, literal(-10)))
          CFI VB load(1, XDATA, add(CFA_XSP16, literal(-9)))
          CFI V0 load(1, XDATA, add(CFA_XSP16, literal(-8)))
          CFI V1 load(1, XDATA, add(CFA_XSP16, literal(-7)))
          CFI R7 load(1, XDATA, add(CFA_XSP16, literal(-6)))
          CFI ?RET_LOW load(1, XDATA, add(CFA_XSP16, literal(-5)))
          CFI ?RET_HIGH load(1, XDATA, add(CFA_XSP16, literal(-4)))
          CFI ?BRET_EXT load(1, XDATA, add(CFA_XSP16, literal(-3)))
          CFI DPL0 load(1, XDATA, add(CFA_XSP16, literal(-2)))
          CFI DPH0 load(1, XDATA, add(CFA_XSP16, literal(-1)))
          CFI CFA_SP SP+-6
          CFI CFA_XSP16 add(XSP16, 10)
          CFI Block cfiCond436 Using cfiCommon0
          CFI (cfiCond436) Function ZDP_NodeDescMsg
          CFI (cfiCond436) Conditional ??CrossCallReturnLabel_226, ??CrossCallReturnLabel_137, ??CrossCallReturnLabel_36
          CFI (cfiCond436) R6 load(1, XDATA, add(CFA_XSP16, literal(-10)))
          CFI (cfiCond436) VB load(1, XDATA, add(CFA_XSP16, literal(-9)))
          CFI (cfiCond436) V0 load(1, XDATA, add(CFA_XSP16, literal(-8)))
          CFI (cfiCond436) V1 load(1, XDATA, add(CFA_XSP16, literal(-7)))
          CFI (cfiCond436) R7 load(1, XDATA, add(CFA_XSP16, literal(-6)))
          CFI (cfiCond436) ?RET_LOW load(1, XDATA, add(CFA_XSP16, literal(-5)))
          CFI (cfiCond436) ?RET_HIGH load(1, XDATA, add(CFA_XSP16, literal(-4)))
          CFI (cfiCond436) ?BRET_EXT load(1, XDATA, add(CFA_XSP16, literal(-3)))
          CFI (cfiCond436) DPL0 load(1, XDATA, add(CFA_XSP16, literal(-2)))
          CFI (cfiCond436) DPH0 load(1, XDATA, add(CFA_XSP16, literal(-1)))
          CFI (cfiCond436) CFA_SP SP+-6
          CFI (cfiCond436) CFA_XSP16 add(XSP16, 10)
          CFI Block cfiCond437 Using cfiCommon0
          CFI (cfiCond437) Function ZDP_NodeDescMsg
          CFI (cfiCond437) Conditional ??CrossCallReturnLabel_226, ??CrossCallReturnLabel_138, ??CrossCallReturnLabel_30
          CFI (cfiCond437) R6 load(1, XDATA, add(CFA_XSP16, literal(-10)))
          CFI (cfiCond437) VB load(1, XDATA, add(CFA_XSP16, literal(-9)))
          CFI (cfiCond437) V0 load(1, XDATA, add(CFA_XSP16, literal(-8)))
          CFI (cfiCond437) V1 load(1, XDATA, add(CFA_XSP16, literal(-7)))
          CFI (cfiCond437) R7 load(1, XDATA, add(CFA_XSP16, literal(-6)))
          CFI (cfiCond437) ?RET_LOW load(1, XDATA, add(CFA_XSP16, literal(-5)))
          CFI (cfiCond437) ?RET_HIGH load(1, XDATA, add(CFA_XSP16, literal(-4)))
          CFI (cfiCond437) ?BRET_EXT load(1, XDATA, add(CFA_XSP16, literal(-3)))
          CFI (cfiCond437) DPL0 load(1, XDATA, add(CFA_XSP16, literal(-2)))
          CFI (cfiCond437) DPH0 load(1, XDATA, add(CFA_XSP16, literal(-1)))
          CFI (cfiCond437) CFA_SP SP+-6
          CFI (cfiCond437) CFA_XSP16 add(XSP16, 10)
          CFI Block cfiCond438 Using cfiCommon0
          CFI (cfiCond438) Function ZDP_NodeDescMsg
          CFI (cfiCond438) Conditional ??CrossCallReturnLabel_226, ??CrossCallReturnLabel_138, ??CrossCallReturnLabel_31
          CFI (cfiCond438) R6 load(1, XDATA, add(CFA_XSP16, literal(-10)))
          CFI (cfiCond438) VB load(1, XDATA, add(CFA_XSP16, literal(-9)))
          CFI (cfiCond438) V0 load(1, XDATA, add(CFA_XSP16, literal(-8)))
          CFI (cfiCond438) V1 load(1, XDATA, add(CFA_XSP16, literal(-7)))
          CFI (cfiCond438) R7 load(1, XDATA, add(CFA_XSP16, literal(-6)))
          CFI (cfiCond438) ?RET_LOW load(1, XDATA, add(CFA_XSP16, literal(-5)))
          CFI (cfiCond438) ?RET_HIGH load(1, XDATA, add(CFA_XSP16, literal(-4)))
          CFI (cfiCond438) ?BRET_EXT load(1, XDATA, add(CFA_XSP16, literal(-3)))
          CFI (cfiCond438) DPL0 load(1, XDATA, add(CFA_XSP16, literal(-2)))
          CFI (cfiCond438) DPH0 load(1, XDATA, add(CFA_XSP16, literal(-1)))
          CFI (cfiCond438) CFA_SP SP+-6
          CFI (cfiCond438) CFA_XSP16 add(XSP16, 10)
          CFI Block cfiCond439 Using cfiCommon0
          CFI (cfiCond439) Function ZDP_PowerDescMsg
          CFI (cfiCond439) Conditional ??CrossCallReturnLabel_227, ??CrossCallReturnLabel_168
          CFI (cfiCond439) R6 load(1, XDATA, add(CFA_XSP16, literal(-10)))
          CFI (cfiCond439) VB load(1, XDATA, add(CFA_XSP16, literal(-9)))
          CFI (cfiCond439) V0 load(1, XDATA, add(CFA_XSP16, literal(-8)))
          CFI (cfiCond439) V1 load(1, XDATA, add(CFA_XSP16, literal(-7)))
          CFI (cfiCond439) R7 load(1, XDATA, add(CFA_XSP16, literal(-6)))
          CFI (cfiCond439) ?RET_LOW load(1, XDATA, add(CFA_XSP16, literal(-5)))
          CFI (cfiCond439) ?RET_HIGH load(1, XDATA, add(CFA_XSP16, literal(-4)))
          CFI (cfiCond439) ?BRET_EXT load(1, XDATA, add(CFA_XSP16, literal(-3)))
          CFI (cfiCond439) DPL0 load(1, XDATA, add(CFA_XSP16, literal(-2)))
          CFI (cfiCond439) DPH0 load(1, XDATA, add(CFA_XSP16, literal(-1)))
          CFI (cfiCond439) CFA_SP SP+-4
          CFI (cfiCond439) CFA_XSP16 add(XSP16, 10)
          CFI Block cfiCond440 Using cfiCommon0
          CFI (cfiCond440) Function ZDP_UserDescRsp
          CFI (cfiCond440) Conditional ??CrossCallReturnLabel_227, ??CrossCallReturnLabel_169
          CFI (cfiCond440) R6 load(1, XDATA, add(CFA_XSP16, literal(-18)))
          CFI (cfiCond440) VB load(1, XDATA, add(CFA_XSP16, literal(-17)))
          CFI (cfiCond440) V0 load(1, XDATA, add(CFA_XSP16, literal(-16)))
          CFI (cfiCond440) V1 load(1, XDATA, add(CFA_XSP16, literal(-15)))
          CFI (cfiCond440) V2 load(1, XDATA, add(CFA_XSP16, literal(-14)))
          CFI (cfiCond440) V3 load(1, XDATA, add(CFA_XSP16, literal(-13)))
          CFI (cfiCond440) V4 load(1, XDATA, add(CFA_XSP16, literal(-12)))
          CFI (cfiCond440) V5 load(1, XDATA, add(CFA_XSP16, literal(-11)))
          CFI (cfiCond440) V6 load(1, XDATA, add(CFA_XSP16, literal(-10)))
          CFI (cfiCond440) V7 load(1, XDATA, add(CFA_XSP16, literal(-9)))
          CFI (cfiCond440) V8 load(1, XDATA, add(CFA_XSP16, literal(-8)))
          CFI (cfiCond440) V9 load(1, XDATA, add(CFA_XSP16, literal(-7)))
          CFI (cfiCond440) R7 load(1, XDATA, add(CFA_XSP16, literal(-6)))
          CFI (cfiCond440) ?RET_LOW load(1, XDATA, add(CFA_XSP16, literal(-5)))
          CFI (cfiCond440) ?RET_HIGH load(1, XDATA, add(CFA_XSP16, literal(-4)))
          CFI (cfiCond440) ?BRET_EXT load(1, XDATA, add(CFA_XSP16, literal(-3)))
          CFI (cfiCond440) DPL0 load(1, XDATA, add(CFA_XSP16, literal(-2)))
          CFI (cfiCond440) DPH0 load(1, XDATA, add(CFA_XSP16, literal(-1)))
          CFI (cfiCond440) CFA_SP SP+-4
          CFI (cfiCond440) CFA_XSP16 add(XSP16, 19)
          CFI Block cfiCond441 Using cfiCommon0
          CFI (cfiCond441) Function ZDP_IncomingData
          CFI (cfiCond441) Conditional ??CrossCallReturnLabel_227, ??CrossCallReturnLabel_170
          CFI (cfiCond441) R6 load(1, XDATA, add(CFA_XSP16, literal(-10)))
          CFI (cfiCond441) VB load(1, XDATA, add(CFA_XSP16, literal(-9)))
          CFI (cfiCond441) V0 load(1, XDATA, add(CFA_XSP16, literal(-8)))
          CFI (cfiCond441) V1 load(1, XDATA, add(CFA_XSP16, literal(-7)))
          CFI (cfiCond441) R7 load(1, XDATA, add(CFA_XSP16, literal(-6)))
          CFI (cfiCond441) ?RET_LOW load(1, XDATA, add(CFA_XSP16, literal(-5)))
          CFI (cfiCond441) ?RET_HIGH load(1, XDATA, add(CFA_XSP16, literal(-4)))
          CFI (cfiCond441) ?BRET_EXT load(1, XDATA, add(CFA_XSP16, literal(-3)))
          CFI (cfiCond441) DPL0 load(1, XDATA, add(CFA_XSP16, literal(-2)))
          CFI (cfiCond441) DPH0 load(1, XDATA, add(CFA_XSP16, literal(-1)))
          CFI (cfiCond441) CFA_SP SP+-4
          CFI (cfiCond441) CFA_XSP16 add(XSP16, 33)
          CFI Block cfiCond442 Using cfiCommon0
          CFI (cfiCond442) Function ZDP_NodeDescMsg
          CFI (cfiCond442) Conditional ??CrossCallReturnLabel_228, ??CrossCallReturnLabel_223, ??CrossCallReturnLabel_157
          CFI (cfiCond442) R6 load(1, XDATA, add(CFA_XSP16, literal(-10)))
          CFI (cfiCond442) VB load(1, XDATA, add(CFA_XSP16, literal(-9)))
          CFI (cfiCond442) V0 load(1, XDATA, add(CFA_XSP16, literal(-8)))
          CFI (cfiCond442) V1 load(1, XDATA, add(CFA_XSP16, literal(-7)))
          CFI (cfiCond442) R7 load(1, XDATA, add(CFA_XSP16, literal(-6)))
          CFI (cfiCond442) ?RET_LOW load(1, XDATA, add(CFA_XSP16, literal(-5)))
          CFI (cfiCond442) ?RET_HIGH load(1, XDATA, add(CFA_XSP16, literal(-4)))
          CFI (cfiCond442) ?BRET_EXT load(1, XDATA, add(CFA_XSP16, literal(-3)))
          CFI (cfiCond442) DPL0 load(1, XDATA, add(CFA_XSP16, literal(-2)))
          CFI (cfiCond442) DPH0 load(1, XDATA, add(CFA_XSP16, literal(-1)))
          CFI (cfiCond442) CFA_SP SP+-6
          CFI (cfiCond442) CFA_XSP16 add(XSP16, 10)
          CFI Block cfiCond443 Using cfiCommon0
          CFI (cfiCond443) Function ZDP_NodeDescMsg
          CFI (cfiCond443) Conditional ??CrossCallReturnLabel_228, ??CrossCallReturnLabel_223, ??CrossCallReturnLabel_158
          CFI (cfiCond443) R6 load(1, XDATA, add(CFA_XSP16, literal(-10)))
          CFI (cfiCond443) VB load(1, XDATA, add(CFA_XSP16, literal(-9)))
          CFI (cfiCond443) V0 load(1, XDATA, add(CFA_XSP16, literal(-8)))
          CFI (cfiCond443) V1 load(1, XDATA, add(CFA_XSP16, literal(-7)))
          CFI (cfiCond443) R7 load(1, XDATA, add(CFA_XSP16, literal(-6)))
          CFI (cfiCond443) ?RET_LOW load(1, XDATA, add(CFA_XSP16, literal(-5)))
          CFI (cfiCond443) ?RET_HIGH load(1, XDATA, add(CFA_XSP16, literal(-4)))
          CFI (cfiCond443) ?BRET_EXT load(1, XDATA, add(CFA_XSP16, literal(-3)))
          CFI (cfiCond443) DPL0 load(1, XDATA, add(CFA_XSP16, literal(-2)))
          CFI (cfiCond443) DPH0 load(1, XDATA, add(CFA_XSP16, literal(-1)))
          CFI (cfiCond443) CFA_SP SP+-6
          CFI (cfiCond443) CFA_XSP16 add(XSP16, 10)
          CFI Block cfiCond444 Using cfiCommon0
          CFI (cfiCond444) Function ZDO_RegisterForZDOMsg
          CFI (cfiCond444) Conditional ??CrossCallReturnLabel_228, ??CrossCallReturnLabel_223, ??CrossCallReturnLabel_159
          CFI (cfiCond444) R6 load(1, XDATA, add(CFA_XSP16, literal(-14)))
          CFI (cfiCond444) VB load(1, XDATA, add(CFA_XSP16, literal(-13)))
          CFI (cfiCond444) V0 load(1, XDATA, add(CFA_XSP16, literal(-12)))
          CFI (cfiCond444) V1 load(1, XDATA, add(CFA_XSP16, literal(-11)))
          CFI (cfiCond444) V2 load(1, XDATA, add(CFA_XSP16, literal(-10)))
          CFI (cfiCond444) V3 load(1, XDATA, add(CFA_XSP16, literal(-9)))
          CFI (cfiCond444) V4 load(1, XDATA, add(CFA_XSP16, literal(-8)))
          CFI (cfiCond444) V5 load(1, XDATA, add(CFA_XSP16, literal(-7)))
          CFI (cfiCond444) R7 load(1, XDATA, add(CFA_XSP16, literal(-6)))
          CFI (cfiCond444) ?RET_LOW load(1, XDATA, add(CFA_XSP16, literal(-5)))
          CFI (cfiCond444) ?RET_HIGH load(1, XDATA, add(CFA_XSP16, literal(-4)))
          CFI (cfiCond444) ?BRET_EXT load(1, XDATA, add(CFA_XSP16, literal(-3)))
          CFI (cfiCond444) DPL0 load(1, XDATA, add(CFA_XSP16, literal(-2)))
          CFI (cfiCond444) DPH0 load(1, XDATA, add(CFA_XSP16, literal(-1)))
          CFI (cfiCond444) CFA_SP SP+-6
          CFI (cfiCond444) CFA_XSP16 add(XSP16, 14)
          CFI Block cfiCond445 Using cfiCommon0
          CFI (cfiCond445) Function ZDP_UserDescSet
          CFI (cfiCond445) Conditional ??CrossCallReturnLabel_228, ??CrossCallReturnLabel_224, ??CrossCallReturnLabel_0
          CFI (cfiCond445) R6 load(1, XDATA, add(CFA_XSP16, literal(-15)))
          CFI (cfiCond445) VB load(1, XDATA, add(CFA_XSP16, literal(-14)))
          CFI (cfiCond445) V0 load(1, XDATA, add(CFA_XSP16, literal(-13)))
          CFI (cfiCond445) V1 load(1, XDATA, add(CFA_XSP16, literal(-12)))
          CFI (cfiCond445) V2 load(1, XDATA, add(CFA_XSP16, literal(-11)))
          CFI (cfiCond445) V3 load(1, XDATA, add(CFA_XSP16, literal(-10)))
          CFI (cfiCond445) V4 load(1, XDATA, add(CFA_XSP16, literal(-9)))
          CFI (cfiCond445) V5 load(1, XDATA, add(CFA_XSP16, literal(-8)))
          CFI (cfiCond445) V6 load(1, XDATA, add(CFA_XSP16, literal(-7)))
          CFI (cfiCond445) R7 load(1, XDATA, add(CFA_XSP16, literal(-6)))
          CFI (cfiCond445) ?RET_LOW load(1, XDATA, add(CFA_XSP16, literal(-5)))
          CFI (cfiCond445) ?RET_HIGH load(1, XDATA, add(CFA_XSP16, literal(-4)))
          CFI (cfiCond445) ?BRET_EXT load(1, XDATA, add(CFA_XSP16, literal(-3)))
          CFI (cfiCond445) DPL0 load(1, XDATA, add(CFA_XSP16, literal(-2)))
          CFI (cfiCond445) DPH0 load(1, XDATA, add(CFA_XSP16, literal(-1)))
          CFI (cfiCond445) CFA_SP SP+-6
          CFI (cfiCond445) CFA_XSP16 add(XSP16, 15)
          CFI Block cfiCond446 Using cfiCommon0
          CFI (cfiCond446) Function ZDP_UserDescRsp
          CFI (cfiCond446) Conditional ??CrossCallReturnLabel_228, ??CrossCallReturnLabel_224, ??CrossCallReturnLabel_1
          CFI (cfiCond446) R6 load(1, XDATA, add(CFA_XSP16, literal(-18)))
          CFI (cfiCond446) VB load(1, XDATA, add(CFA_XSP16, literal(-17)))
          CFI (cfiCond446) V0 load(1, XDATA, add(CFA_XSP16, literal(-16)))
          CFI (cfiCond446) V1 load(1, XDATA, add(CFA_XSP16, literal(-15)))
          CFI (cfiCond446) V2 load(1, XDATA, add(CFA_XSP16, literal(-14)))
          CFI (cfiCond446) V3 load(1, XDATA, add(CFA_XSP16, literal(-13)))
          CFI (cfiCond446) V4 load(1, XDATA, add(CFA_XSP16, literal(-12)))
          CFI (cfiCond446) V5 load(1, XDATA, add(CFA_XSP16, literal(-11)))
          CFI (cfiCond446) V6 load(1, XDATA, add(CFA_XSP16, literal(-10)))
          CFI (cfiCond446) V7 load(1, XDATA, add(CFA_XSP16, literal(-9)))
          CFI (cfiCond446) V8 load(1, XDATA, add(CFA_XSP16, literal(-8)))
          CFI (cfiCond446) V9 load(1, XDATA, add(CFA_XSP16, literal(-7)))
          CFI (cfiCond446) R7 load(1, XDATA, add(CFA_XSP16, literal(-6)))
          CFI (cfiCond446) ?RET_LOW load(1, XDATA, add(CFA_XSP16, literal(-5)))
          CFI (cfiCond446) ?RET_HIGH load(1, XDATA, add(CFA_XSP16, literal(-4)))
          CFI (cfiCond446) ?BRET_EXT load(1, XDATA, add(CFA_XSP16, literal(-3)))
          CFI (cfiCond446) DPL0 load(1, XDATA, add(CFA_XSP16, literal(-2)))
          CFI (cfiCond446) DPH0 load(1, XDATA, add(CFA_XSP16, literal(-1)))
          CFI (cfiCond446) CFA_SP SP+-6
          CFI (cfiCond446) CFA_XSP16 add(XSP16, 19)
          CFI Block cfiCond447 Using cfiCommon0
          CFI (cfiCond447) Function ZDP_NodeDescMsg
          CFI (cfiCond447) Conditional ??CrossCallReturnLabel_228, ??CrossCallReturnLabel_225, ??CrossCallReturnLabel_219
          CFI (cfiCond447) R6 load(1, XDATA, add(CFA_XSP16, literal(-10)))
          CFI (cfiCond447) VB load(1, XDATA, add(CFA_XSP16, literal(-9)))
          CFI (cfiCond447) V0 load(1, XDATA, add(CFA_XSP16, literal(-8)))
          CFI (cfiCond447) V1 load(1, XDATA, add(CFA_XSP16, literal(-7)))
          CFI (cfiCond447) R7 load(1, XDATA, add(CFA_XSP16, literal(-6)))
          CFI (cfiCond447) ?RET_LOW load(1, XDATA, add(CFA_XSP16, literal(-5)))
          CFI (cfiCond447) ?RET_HIGH load(1, XDATA, add(CFA_XSP16, literal(-4)))
          CFI (cfiCond447) ?BRET_EXT load(1, XDATA, add(CFA_XSP16, literal(-3)))
          CFI (cfiCond447) DPL0 load(1, XDATA, add(CFA_XSP16, literal(-2)))
          CFI (cfiCond447) DPH0 load(1, XDATA, add(CFA_XSP16, literal(-1)))
          CFI (cfiCond447) CFA_SP SP+-6
          CFI (cfiCond447) CFA_XSP16 add(XSP16, 10)
          CFI Block cfiCond448 Using cfiCommon0
          CFI (cfiCond448) Function ZDP_NodeDescMsg
          CFI (cfiCond448) Conditional ??CrossCallReturnLabel_228, ??CrossCallReturnLabel_225, ??CrossCallReturnLabel_220
          CFI (cfiCond448) R6 load(1, XDATA, add(CFA_XSP16, literal(-10)))
          CFI (cfiCond448) VB load(1, XDATA, add(CFA_XSP16, literal(-9)))
          CFI (cfiCond448) V0 load(1, XDATA, add(CFA_XSP16, literal(-8)))
          CFI (cfiCond448) V1 load(1, XDATA, add(CFA_XSP16, literal(-7)))
          CFI (cfiCond448) R7 load(1, XDATA, add(CFA_XSP16, literal(-6)))
          CFI (cfiCond448) ?RET_LOW load(1, XDATA, add(CFA_XSP16, literal(-5)))
          CFI (cfiCond448) ?RET_HIGH load(1, XDATA, add(CFA_XSP16, literal(-4)))
          CFI (cfiCond448) ?BRET_EXT load(1, XDATA, add(CFA_XSP16, literal(-3)))
          CFI (cfiCond448) DPL0 load(1, XDATA, add(CFA_XSP16, literal(-2)))
          CFI (cfiCond448) DPH0 load(1, XDATA, add(CFA_XSP16, literal(-1)))
          CFI (cfiCond448) CFA_SP SP+-6
          CFI (cfiCond448) CFA_XSP16 add(XSP16, 10)
          CFI Block cfiCond449 Using cfiCommon0
          CFI (cfiCond449) Function ZDP_MgmtBindRsp
          CFI (cfiCond449) Conditional ??CrossCallReturnLabel_228, ??CrossCallReturnLabel_225, ??CrossCallReturnLabel_221
          CFI (cfiCond449) R6 load(1, XDATA, add(CFA_XSP16, literal(-22)))
          CFI (cfiCond449) VB load(1, XDATA, add(CFA_XSP16, literal(-21)))
          CFI (cfiCond449) V0 load(1, XDATA, add(CFA_XSP16, literal(-20)))
          CFI (cfiCond449) V1 load(1, XDATA, add(CFA_XSP16, literal(-19)))
          CFI (cfiCond449) V2 load(1, XDATA, add(CFA_XSP16, literal(-18)))
          CFI (cfiCond449) V3 load(1, XDATA, add(CFA_XSP16, literal(-17)))
          CFI (cfiCond449) V4 load(1, XDATA, add(CFA_XSP16, literal(-16)))
          CFI (cfiCond449) V5 load(1, XDATA, add(CFA_XSP16, literal(-15)))
          CFI (cfiCond449) V6 load(1, XDATA, add(CFA_XSP16, literal(-14)))
          CFI (cfiCond449) V7 load(1, XDATA, add(CFA_XSP16, literal(-13)))
          CFI (cfiCond449) V8 load(1, XDATA, add(CFA_XSP16, literal(-12)))
          CFI (cfiCond449) V9 load(1, XDATA, add(CFA_XSP16, literal(-11)))
          CFI (cfiCond449) V10 load(1, XDATA, add(CFA_XSP16, literal(-10)))
          CFI (cfiCond449) V11 load(1, XDATA, add(CFA_XSP16, literal(-9)))
          CFI (cfiCond449) V12 load(1, XDATA, add(CFA_XSP16, literal(-8)))
          CFI (cfiCond449) V13 load(1, XDATA, add(CFA_XSP16, literal(-7)))
          CFI (cfiCond449) R7 load(1, XDATA, add(CFA_XSP16, literal(-6)))
          CFI (cfiCond449) ?RET_LOW load(1, XDATA, add(CFA_XSP16, literal(-5)))
          CFI (cfiCond449) ?RET_HIGH load(1, XDATA, add(CFA_XSP16, literal(-4)))
          CFI (cfiCond449) ?BRET_EXT load(1, XDATA, add(CFA_XSP16, literal(-3)))
          CFI (cfiCond449) DPL0 load(1, XDATA, add(CFA_XSP16, literal(-2)))
          CFI (cfiCond449) DPH0 load(1, XDATA, add(CFA_XSP16, literal(-1)))
          CFI (cfiCond449) CFA_SP SP+-6
          CFI (cfiCond449) CFA_XSP16 add(XSP16, 23)
          CFI Block cfiCond450 Using cfiCommon0
          CFI (cfiCond450) Function ZDP_SendData
          CFI (cfiCond450) Conditional ??CrossCallReturnLabel_228, ??CrossCallReturnLabel_225, ??CrossCallReturnLabel_222
          CFI (cfiCond450) R6 load(1, XDATA, add(CFA_XSP16, literal(-12)))
          CFI (cfiCond450) VB load(1, XDATA, add(CFA_XSP16, literal(-11)))
          CFI (cfiCond450) V0 load(1, XDATA, add(CFA_XSP16, literal(-10)))
          CFI (cfiCond450) V1 load(1, XDATA, add(CFA_XSP16, literal(-9)))
          CFI (cfiCond450) V2 load(1, XDATA, add(CFA_XSP16, literal(-8)))
          CFI (cfiCond450) V3 load(1, XDATA, add(CFA_XSP16, literal(-7)))
          CFI (cfiCond450) R7 load(1, XDATA, add(CFA_XSP16, literal(-6)))
          CFI (cfiCond450) ?RET_LOW load(1, XDATA, add(CFA_XSP16, literal(-5)))
          CFI (cfiCond450) ?RET_HIGH load(1, XDATA, add(CFA_XSP16, literal(-4)))
          CFI (cfiCond450) ?BRET_EXT load(1, XDATA, add(CFA_XSP16, literal(-3)))
          CFI (cfiCond450) DPL0 load(1, XDATA, add(CFA_XSP16, literal(-2)))
          CFI (cfiCond450) DPH0 load(1, XDATA, add(CFA_XSP16, literal(-1)))
          CFI (cfiCond450) CFA_SP SP+-6
          CFI (cfiCond450) CFA_XSP16 add(XSP16, 12)
          CFI Block cfiCond451 Using cfiCommon0
          CFI (cfiCond451) Function ZDO_RegisterForZDOMsg
          CFI (cfiCond451) Conditional ??CrossCallReturnLabel_229
          CFI (cfiCond451) R6 load(1, XDATA, add(CFA_XSP16, literal(-14)))
          CFI (cfiCond451) VB load(1, XDATA, add(CFA_XSP16, literal(-13)))
          CFI (cfiCond451) V0 load(1, XDATA, add(CFA_XSP16, literal(-12)))
          CFI (cfiCond451) V1 load(1, XDATA, add(CFA_XSP16, literal(-11)))
          CFI (cfiCond451) V2 load(1, XDATA, add(CFA_XSP16, literal(-10)))
          CFI (cfiCond451) V3 load(1, XDATA, add(CFA_XSP16, literal(-9)))
          CFI (cfiCond451) V4 load(1, XDATA, add(CFA_XSP16, literal(-8)))
          CFI (cfiCond451) V5 load(1, XDATA, add(CFA_XSP16, literal(-7)))
          CFI (cfiCond451) R7 load(1, XDATA, add(CFA_XSP16, literal(-6)))
          CFI (cfiCond451) ?RET_LOW load(1, XDATA, add(CFA_XSP16, literal(-5)))
          CFI (cfiCond451) ?RET_HIGH load(1, XDATA, add(CFA_XSP16, literal(-4)))
          CFI (cfiCond451) ?BRET_EXT load(1, XDATA, add(CFA_XSP16, literal(-3)))
          CFI (cfiCond451) DPL0 load(1, XDATA, add(CFA_XSP16, literal(-2)))
          CFI (cfiCond451) DPH0 load(1, XDATA, add(CFA_XSP16, literal(-1)))
          CFI (cfiCond451) CFA_SP SP+-2
          CFI (cfiCond451) CFA_XSP16 add(XSP16, 14)
          CFI Block cfiPicker452 Using cfiCommon1
          CFI (cfiPicker452) NoFunction
          CFI (cfiPicker452) Picker
        MOVX      @DPTR,A
        ; Setup parameters for call to function osal_memcpy
        ; Setup parameters for call to function osal_memcpy
        MOV       DPL,R0
        MOV       DPH,R1
        RET
          CFI EndBlock cfiCond435
          CFI EndBlock cfiCond436
          CFI EndBlock cfiCond437
          CFI EndBlock cfiCond438
          CFI EndBlock cfiCond439
          CFI EndBlock cfiCond440
          CFI EndBlock cfiCond441
          CFI EndBlock cfiCond442
          CFI EndBlock cfiCond443
          CFI EndBlock cfiCond444
          CFI EndBlock cfiCond445
          CFI EndBlock cfiCond446
          CFI EndBlock cfiCond447
          CFI EndBlock cfiCond448
          CFI EndBlock cfiCond449
          CFI EndBlock cfiCond450
          CFI EndBlock cfiCond451
          CFI EndBlock cfiPicker452

        RSEG BANKED_CODE:HUGECODE:NOROOT(0)
?Subroutine22:
          CFI Block cfiCond453 Using cfiCommon0
          CFI Function ZDP_ParentAnnce
          CFI Conditional ??CrossCallReturnLabel_26
          CFI R6 load(1, XDATA, add(CFA_XSP16, literal(-22)))
          CFI VB load(1, XDATA, add(CFA_XSP16, literal(-21)))
          CFI V0 load(1, XDATA, add(CFA_XSP16, literal(-20)))
          CFI V1 load(1, XDATA, add(CFA_XSP16, literal(-19)))
          CFI V2 load(1, XDATA, add(CFA_XSP16, literal(-18)))
          CFI V3 load(1, XDATA, add(CFA_XSP16, literal(-17)))
          CFI V4 load(1, XDATA, add(CFA_XSP16, literal(-16)))
          CFI V5 load(1, XDATA, add(CFA_XSP16, literal(-15)))
          CFI V6 load(1, XDATA, add(CFA_XSP16, literal(-14)))
          CFI V7 load(1, XDATA, add(CFA_XSP16, literal(-13)))
          CFI V8 load(1, XDATA, add(CFA_XSP16, literal(-12)))
          CFI V9 load(1, XDATA, add(CFA_XSP16, literal(-11)))
          CFI V10 load(1, XDATA, add(CFA_XSP16, literal(-10)))
          CFI V11 load(1, XDATA, add(CFA_XSP16, literal(-9)))
          CFI V12 load(1, XDATA, add(CFA_XSP16, literal(-8)))
          CFI V13 load(1, XDATA, add(CFA_XSP16, literal(-7)))
          CFI R7 load(1, XDATA, add(CFA_XSP16, literal(-6)))
          CFI ?RET_LOW load(1, XDATA, add(CFA_XSP16, literal(-5)))
          CFI ?RET_HIGH load(1, XDATA, add(CFA_XSP16, literal(-4)))
          CFI ?BRET_EXT load(1, XDATA, add(CFA_XSP16, literal(-3)))
          CFI DPL0 load(1, XDATA, add(CFA_XSP16, literal(-2)))
          CFI DPH0 load(1, XDATA, add(CFA_XSP16, literal(-1)))
          CFI CFA_SP SP+-2
          CFI CFA_XSP16 add(XSP16, 22)
          CFI Block cfiCond454 Using cfiCommon0
          CFI (cfiCond454) Function ZDP_ParentAnnce
          CFI (cfiCond454) Conditional ??CrossCallReturnLabel_27
          CFI (cfiCond454) R6 load(1, XDATA, add(CFA_XSP16, literal(-22)))
          CFI (cfiCond454) VB load(1, XDATA, add(CFA_XSP16, literal(-21)))
          CFI (cfiCond454) V0 load(1, XDATA, add(CFA_XSP16, literal(-20)))
          CFI (cfiCond454) V1 load(1, XDATA, add(CFA_XSP16, literal(-19)))
          CFI (cfiCond454) V2 load(1, XDATA, add(CFA_XSP16, literal(-18)))
          CFI (cfiCond454) V3 load(1, XDATA, add(CFA_XSP16, literal(-17)))
          CFI (cfiCond454) V4 load(1, XDATA, add(CFA_XSP16, literal(-16)))
          CFI (cfiCond454) V5 load(1, XDATA, add(CFA_XSP16, literal(-15)))
          CFI (cfiCond454) V6 load(1, XDATA, add(CFA_XSP16, literal(-14)))
          CFI (cfiCond454) V7 load(1, XDATA, add(CFA_XSP16, literal(-13)))
          CFI (cfiCond454) V8 load(1, XDATA, add(CFA_XSP16, literal(-12)))
          CFI (cfiCond454) V9 load(1, XDATA, add(CFA_XSP16, literal(-11)))
          CFI (cfiCond454) V10 load(1, XDATA, add(CFA_XSP16, literal(-10)))
          CFI (cfiCond454) V11 load(1, XDATA, add(CFA_XSP16, literal(-9)))
          CFI (cfiCond454) V12 load(1, XDATA, add(CFA_XSP16, literal(-8)))
          CFI (cfiCond454) V13 load(1, XDATA, add(CFA_XSP16, literal(-7)))
          CFI (cfiCond454) R7 load(1, XDATA, add(CFA_XSP16, literal(-6)))
          CFI (cfiCond454) ?RET_LOW load(1, XDATA, add(CFA_XSP16, literal(-5)))
          CFI (cfiCond454) ?RET_HIGH load(1, XDATA, add(CFA_XSP16, literal(-4)))
          CFI (cfiCond454) ?BRET_EXT load(1, XDATA, add(CFA_XSP16, literal(-3)))
          CFI (cfiCond454) DPL0 load(1, XDATA, add(CFA_XSP16, literal(-2)))
          CFI (cfiCond454) DPH0 load(1, XDATA, add(CFA_XSP16, literal(-1)))
          CFI (cfiCond454) CFA_SP SP+-2
          CFI (cfiCond454) CFA_XSP16 add(XSP16, 22)
          CFI Block cfiCond455 Using cfiCommon0
          CFI (cfiCond455) Function ZDP_MgmtBindRsp
          CFI (cfiCond455) Conditional ??CrossCallReturnLabel_28
          CFI (cfiCond455) R6 load(1, XDATA, add(CFA_XSP16, literal(-22)))
          CFI (cfiCond455) VB load(1, XDATA, add(CFA_XSP16, literal(-21)))
          CFI (cfiCond455) V0 load(1, XDATA, add(CFA_XSP16, literal(-20)))
          CFI (cfiCond455) V1 load(1, XDATA, add(CFA_XSP16, literal(-19)))
          CFI (cfiCond455) V2 load(1, XDATA, add(CFA_XSP16, literal(-18)))
          CFI (cfiCond455) V3 load(1, XDATA, add(CFA_XSP16, literal(-17)))
          CFI (cfiCond455) V4 load(1, XDATA, add(CFA_XSP16, literal(-16)))
          CFI (cfiCond455) V5 load(1, XDATA, add(CFA_XSP16, literal(-15)))
          CFI (cfiCond455) V6 load(1, XDATA, add(CFA_XSP16, literal(-14)))
          CFI (cfiCond455) V7 load(1, XDATA, add(CFA_XSP16, literal(-13)))
          CFI (cfiCond455) V8 load(1, XDATA, add(CFA_XSP16, literal(-12)))
          CFI (cfiCond455) V9 load(1, XDATA, add(CFA_XSP16, literal(-11)))
          CFI (cfiCond455) V10 load(1, XDATA, add(CFA_XSP16, literal(-10)))
          CFI (cfiCond455) V11 load(1, XDATA, add(CFA_XSP16, literal(-9)))
          CFI (cfiCond455) V12 load(1, XDATA, add(CFA_XSP16, literal(-8)))
          CFI (cfiCond455) V13 load(1, XDATA, add(CFA_XSP16, literal(-7)))
          CFI (cfiCond455) R7 load(1, XDATA, add(CFA_XSP16, literal(-6)))
          CFI (cfiCond455) ?RET_LOW load(1, XDATA, add(CFA_XSP16, literal(-5)))
          CFI (cfiCond455) ?RET_HIGH load(1, XDATA, add(CFA_XSP16, literal(-4)))
          CFI (cfiCond455) ?BRET_EXT load(1, XDATA, add(CFA_XSP16, literal(-3)))
          CFI (cfiCond455) DPL0 load(1, XDATA, add(CFA_XSP16, literal(-2)))
          CFI (cfiCond455) DPH0 load(1, XDATA, add(CFA_XSP16, literal(-1)))
          CFI (cfiCond455) CFA_SP SP+-2
          CFI (cfiCond455) CFA_XSP16 add(XSP16, 23)
          CFI Block cfiCond456 Using cfiCommon0
          CFI (cfiCond456) Function ZDP_MgmtNwkUpdateNotify
          CFI (cfiCond456) Conditional ??CrossCallReturnLabel_29
          CFI (cfiCond456) R6 load(1, XDATA, add(CFA_XSP16, literal(-18)))
          CFI (cfiCond456) VB load(1, XDATA, add(CFA_XSP16, literal(-17)))
          CFI (cfiCond456) V0 load(1, XDATA, add(CFA_XSP16, literal(-16)))
          CFI (cfiCond456) V1 load(1, XDATA, add(CFA_XSP16, literal(-15)))
          CFI (cfiCond456) V2 load(1, XDATA, add(CFA_XSP16, literal(-14)))
          CFI (cfiCond456) V3 load(1, XDATA, add(CFA_XSP16, literal(-13)))
          CFI (cfiCond456) V4 load(1, XDATA, add(CFA_XSP16, literal(-12)))
          CFI (cfiCond456) V5 load(1, XDATA, add(CFA_XSP16, literal(-11)))
          CFI (cfiCond456) V6 load(1, XDATA, add(CFA_XSP16, literal(-10)))
          CFI (cfiCond456) V7 load(1, XDATA, add(CFA_XSP16, literal(-9)))
          CFI (cfiCond456) V8 load(1, XDATA, add(CFA_XSP16, literal(-8)))
          CFI (cfiCond456) V9 load(1, XDATA, add(CFA_XSP16, literal(-7)))
          CFI (cfiCond456) R7 load(1, XDATA, add(CFA_XSP16, literal(-6)))
          CFI (cfiCond456) ?RET_LOW load(1, XDATA, add(CFA_XSP16, literal(-5)))
          CFI (cfiCond456) ?RET_HIGH load(1, XDATA, add(CFA_XSP16, literal(-4)))
          CFI (cfiCond456) ?BRET_EXT load(1, XDATA, add(CFA_XSP16, literal(-3)))
          CFI (cfiCond456) DPL0 load(1, XDATA, add(CFA_XSP16, literal(-2)))
          CFI (cfiCond456) DPH0 load(1, XDATA, add(CFA_XSP16, literal(-1)))
          CFI (cfiCond456) CFA_SP SP+-2
          CFI (cfiCond456) CFA_XSP16 add(XSP16, 19)
          CFI Block cfiPicker457 Using cfiCommon1
          CFI (cfiPicker457) NoFunction
          CFI (cfiPicker457) Picker
        MOVX      @DPTR,A
        INC       DPTR
        MOV       R2,DPL
        MOV       R3,DPH
        RET
          CFI EndBlock cfiCond453
          CFI EndBlock cfiCond454
          CFI EndBlock cfiCond455
          CFI EndBlock cfiCond456
          CFI EndBlock cfiPicker457

        RSEG BANKED_CODE:HUGECODE:NOROOT(0)
?Subroutine14:
          CFI Block cfiCond458 Using cfiCommon0
          CFI Function ZDP_MgmtRtgRsp
          CFI Conditional ??CrossCallReturnLabel_8
          CFI R6 load(1, XDATA, add(CFA_XSP16, literal(-20)))
          CFI VB load(1, XDATA, add(CFA_XSP16, literal(-19)))
          CFI V0 load(1, XDATA, add(CFA_XSP16, literal(-18)))
          CFI V1 load(1, XDATA, add(CFA_XSP16, literal(-17)))
          CFI V2 load(1, XDATA, add(CFA_XSP16, literal(-16)))
          CFI V3 load(1, XDATA, add(CFA_XSP16, literal(-15)))
          CFI V4 load(1, XDATA, add(CFA_XSP16, literal(-14)))
          CFI V5 load(1, XDATA, add(CFA_XSP16, literal(-13)))
          CFI V6 load(1, XDATA, add(CFA_XSP16, literal(-12)))
          CFI V7 load(1, XDATA, add(CFA_XSP16, literal(-11)))
          CFI V8 load(1, XDATA, add(CFA_XSP16, literal(-10)))
          CFI V9 load(1, XDATA, add(CFA_XSP16, literal(-9)))
          CFI V10 load(1, XDATA, add(CFA_XSP16, literal(-8)))
          CFI V11 load(1, XDATA, add(CFA_XSP16, literal(-7)))
          CFI R7 load(1, XDATA, add(CFA_XSP16, literal(-6)))
          CFI ?RET_LOW load(1, XDATA, add(CFA_XSP16, literal(-5)))
          CFI ?RET_HIGH load(1, XDATA, add(CFA_XSP16, literal(-4)))
          CFI ?BRET_EXT load(1, XDATA, add(CFA_XSP16, literal(-3)))
          CFI DPL0 load(1, XDATA, add(CFA_XSP16, literal(-2)))
          CFI DPH0 load(1, XDATA, add(CFA_XSP16, literal(-1)))
          CFI CFA_SP SP+-2
          CFI CFA_XSP16 add(XSP16, 21)
          CFI Block cfiCond459 Using cfiCommon0
          CFI (cfiCond459) Function ZDP_MgmtBindRsp
          CFI (cfiCond459) Conditional ??CrossCallReturnLabel_9
          CFI (cfiCond459) R6 load(1, XDATA, add(CFA_XSP16, literal(-22)))
          CFI (cfiCond459) VB load(1, XDATA, add(CFA_XSP16, literal(-21)))
          CFI (cfiCond459) V0 load(1, XDATA, add(CFA_XSP16, literal(-20)))
          CFI (cfiCond459) V1 load(1, XDATA, add(CFA_XSP16, literal(-19)))
          CFI (cfiCond459) V2 load(1, XDATA, add(CFA_XSP16, literal(-18)))
          CFI (cfiCond459) V3 load(1, XDATA, add(CFA_XSP16, literal(-17)))
          CFI (cfiCond459) V4 load(1, XDATA, add(CFA_XSP16, literal(-16)))
          CFI (cfiCond459) V5 load(1, XDATA, add(CFA_XSP16, literal(-15)))
          CFI (cfiCond459) V6 load(1, XDATA, add(CFA_XSP16, literal(-14)))
          CFI (cfiCond459) V7 load(1, XDATA, add(CFA_XSP16, literal(-13)))
          CFI (cfiCond459) V8 load(1, XDATA, add(CFA_XSP16, literal(-12)))
          CFI (cfiCond459) V9 load(1, XDATA, add(CFA_XSP16, literal(-11)))
          CFI (cfiCond459) V10 load(1, XDATA, add(CFA_XSP16, literal(-10)))
          CFI (cfiCond459) V11 load(1, XDATA, add(CFA_XSP16, literal(-9)))
          CFI (cfiCond459) V12 load(1, XDATA, add(CFA_XSP16, literal(-8)))
          CFI (cfiCond459) V13 load(1, XDATA, add(CFA_XSP16, literal(-7)))
          CFI (cfiCond459) R7 load(1, XDATA, add(CFA_XSP16, literal(-6)))
          CFI (cfiCond459) ?RET_LOW load(1, XDATA, add(CFA_XSP16, literal(-5)))
          CFI (cfiCond459) ?RET_HIGH load(1, XDATA, add(CFA_XSP16, literal(-4)))
          CFI (cfiCond459) ?BRET_EXT load(1, XDATA, add(CFA_XSP16, literal(-3)))
          CFI (cfiCond459) DPL0 load(1, XDATA, add(CFA_XSP16, literal(-2)))
          CFI (cfiCond459) DPH0 load(1, XDATA, add(CFA_XSP16, literal(-1)))
          CFI (cfiCond459) CFA_SP SP+-2
          CFI (cfiCond459) CFA_XSP16 add(XSP16, 23)
          CFI Block cfiPicker460 Using cfiCommon1
          CFI (cfiPicker460) NoFunction
          CFI (cfiPicker460) Picker
        MOV       DPL,R4
        MOV       DPH,R5
        LCALL     ?Subroutine79 & 0xFFFF
??CrossCallReturnLabel_185:
        MOVX      @DPTR,A
        MOV       DPL,R4
        MOV       DPH,R5
        INC       DPTR
        LCALL     ?Subroutine79 & 0xFFFF
??CrossCallReturnLabel_186:
        INC       DPTR
        MOVX      @DPTR,A
        MOV       A,R2
        ADD       A,#0x2
        RET
          CFI EndBlock cfiCond458
          CFI EndBlock cfiCond459
          CFI EndBlock cfiPicker460
// 1831 
// 1832 /*********************************************************************
// 1833  * @fn          ZDP_MgmtNwkUpdateNotify
// 1834  *
// 1835  * @brief       This builds and send a Mgmt_NWK_Update_notify message. This
// 1836  *              function sends a unicast message.
// 1837  *
// 1838  * @param       dstAddr - destination address of the message
// 1839  * @param       status - message status (ZDP_SUCCESS or other)
// 1840  * @param       scannedChannels - List of channels scanned by the request
// 1841  * @param       totalTransmissions - Total transmissions
// 1842  * @param       transmissionFailures - Sum of transmission failures
// 1843  * @param       listCount - Number of records contained in the energyValues list
// 1844  * @param       energyValues - List of descriptors, one for each of ListCount,
// 1845  *                             of the enegry detect descriptors
// 1846  * @param       txOptions - Transmit options
// 1847  * @param       securityEnable - Security options
// 1848  *
// 1849  * @return      afStatus_t
// 1850  */

        RSEG BANKED_CODE:HUGECODE:NOROOT(0)
// 1851 afStatus_t ZDP_MgmtNwkUpdateNotify( uint8 TransSeq, zAddrType_t *dstAddr,
ZDP_MgmtNwkUpdateNotify:
          CFI Block cfiBlock461 Using cfiCommon0
          CFI Function ZDP_MgmtNwkUpdateNotify
        CODE
// 1852                                     uint8 status, uint32 scannedChannels,
// 1853                                     uint16 totalTransmissions, uint16 transmissionFailures,
// 1854                                     uint8 listCount, uint8 *energyValues, uint8 txOptions,
// 1855                                     uint8 securityEnable )
// 1856 {
        FUNCALL ZDP_MgmtNwkUpdateNotify, osal_mem_alloc
        LOCFRAME ISTACK, 0, STACK
        LOCFRAME PSTACK, 0, STACK
        LOCFRAME XSTACK, 19, STACK
        LOCFRAME IOVERLAY, 0, STATIC
        LOCFRAME DOVERLAY, 0, STATIC
        ARGFRAME ISTACK, 0, STACK
        ARGFRAME PSTACK, 0, STACK
        ARGFRAME XSTACK, 19, STACK
        ARGFRAME IOVERLAY, 0, STATIC
        ARGFRAME DOVERLAY, 0, STATIC
        FUNCALL ZDP_MgmtNwkUpdateNotify, osal_buffer_uint32
        LOCFRAME ISTACK, 0, STACK
        LOCFRAME PSTACK, 0, STACK
        LOCFRAME XSTACK, 23, STACK
        LOCFRAME IOVERLAY, 0, STATIC
        LOCFRAME DOVERLAY, 0, STATIC
        ARGFRAME ISTACK, 0, STACK
        ARGFRAME PSTACK, 0, STACK
        ARGFRAME XSTACK, 23, STACK
        ARGFRAME IOVERLAY, 0, STATIC
        ARGFRAME DOVERLAY, 0, STATIC
        FUNCALL ZDP_MgmtNwkUpdateNotify, osal_memcpy
        LOCFRAME ISTACK, 0, STACK
        LOCFRAME PSTACK, 0, STACK
        LOCFRAME XSTACK, 22, STACK
        LOCFRAME IOVERLAY, 0, STATIC
        LOCFRAME DOVERLAY, 0, STATIC
        ARGFRAME ISTACK, 0, STACK
        ARGFRAME PSTACK, 0, STACK
        ARGFRAME XSTACK, 22, STACK
        ARGFRAME IOVERLAY, 0, STATIC
        ARGFRAME DOVERLAY, 0, STATIC
        FUNCALL ZDP_MgmtNwkUpdateNotify, fillAndSend
        LOCFRAME ISTACK, 0, STACK
        LOCFRAME PSTACK, 0, STACK
        LOCFRAME XSTACK, 21, STACK
        LOCFRAME IOVERLAY, 0, STATIC
        LOCFRAME DOVERLAY, 0, STATIC
        ARGFRAME ISTACK, 0, STACK
        ARGFRAME PSTACK, 0, STACK
        ARGFRAME XSTACK, 21, STACK
        ARGFRAME IOVERLAY, 0, STATIC
        ARGFRAME DOVERLAY, 0, STATIC
        FUNCALL ZDP_MgmtNwkUpdateNotify, osal_mem_free
        LOCFRAME ISTACK, 0, STACK
        LOCFRAME PSTACK, 0, STACK
        LOCFRAME XSTACK, 19, STACK
        LOCFRAME IOVERLAY, 0, STATIC
        LOCFRAME DOVERLAY, 0, STATIC
        ARGFRAME ISTACK, 0, STACK
        ARGFRAME PSTACK, 0, STACK
        ARGFRAME XSTACK, 19, STACK
        ARGFRAME IOVERLAY, 0, STATIC
        ARGFRAME DOVERLAY, 0, STATIC
        REQUIRE ?V0
        REQUIRE ?V1
        REQUIRE ?V2
        REQUIRE ?V3
        REQUIRE ?V4
        REQUIRE ?V5
        REQUIRE ?V6
        REQUIRE ?V7
        REQUIRE ?V8
        REQUIRE ?V9
        MOV       A,#-0x12
        LCALL     ?BANKED_ENTER_XDATA
          CFI DPH0 load(1, XDATA, add(CFA_XSP16, literal(-1)))
          CFI DPL0 load(1, XDATA, add(CFA_XSP16, literal(-2)))
          CFI ?BRET_EXT load(1, XDATA, add(CFA_XSP16, literal(-3)))
          CFI ?RET_HIGH load(1, XDATA, add(CFA_XSP16, literal(-4)))
          CFI ?RET_LOW load(1, XDATA, add(CFA_XSP16, literal(-5)))
          CFI R7 load(1, XDATA, add(CFA_XSP16, literal(-6)))
          CFI V9 load(1, XDATA, add(CFA_XSP16, literal(-7)))
          CFI V8 load(1, XDATA, add(CFA_XSP16, literal(-8)))
          CFI V7 load(1, XDATA, add(CFA_XSP16, literal(-9)))
          CFI V6 load(1, XDATA, add(CFA_XSP16, literal(-10)))
          CFI V5 load(1, XDATA, add(CFA_XSP16, literal(-11)))
          CFI V4 load(1, XDATA, add(CFA_XSP16, literal(-12)))
          CFI V3 load(1, XDATA, add(CFA_XSP16, literal(-13)))
          CFI V2 load(1, XDATA, add(CFA_XSP16, literal(-14)))
          CFI V1 load(1, XDATA, add(CFA_XSP16, literal(-15)))
          CFI V0 load(1, XDATA, add(CFA_XSP16, literal(-16)))
          CFI VB load(1, XDATA, add(CFA_XSP16, literal(-17)))
          CFI R6 load(1, XDATA, add(CFA_XSP16, literal(-18)))
          CFI CFA_SP SP+0
          CFI CFA_XSP16 add(XSP16, 18)
        ; Saved register size: 18
        ; Auto size: 1
        MOV       A,#-0x1
        LCALL     ?ALLOC_XSTACK8
          CFI CFA_XSP16 add(XSP16, 19)
        MOV       A,R1
        MOV       DPL,?XSP + 0
        MOV       DPH,?XSP + 1
        MOVX      @DPTR,A
        MOV       ?V8,R2
        MOV       ?V9,R3
        MOV       ?V7,R4
        MOV       ?V0,R5
// 1857   uint8 *buf;
// 1858   uint8 *pBuf;
// 1859   uint8 len;
// 1860 
// 1861   (void)securityEnable;  // Intentionally unreferenced parameter
// 1862 
// 1863   // Status + ScannedChannels + totalTransmissions + transmissionFailures + ListCount + energyValues
// 1864   len = 1 + 4 + 2 + 2 + 1 + listCount;
        MOV       A,#0xa
        ADD       A,R5
        MOV       ?V1,A
// 1865 
// 1866   buf = osal_mem_alloc( len+1 ); // +1 for transaction ID
        ; Setup parameters for call to function osal_mem_alloc
        LCALL     ?Subroutine67 & 0xFFFF
??CrossCallReturnLabel_119:
        LCALL     `??osal_mem_alloc::?relay`; Banked call to: osal_mem_alloc
        MOV       ?V2,R2
        MOV       ?V3,R3
        MOV       R6,?V2
        MOV       R7,?V3
// 1867   if ( buf == NULL )
        MOV       A,R6
        ORL       A,R7
        JNZ       ??ZDP_MgmtNwkUpdateNotify_0
// 1868   {
// 1869     return afStatus_MEM_FAIL;
        MOV       R1,#0x10
        LJMP      ??ZDP_MgmtNwkUpdateNotify_1 & 0xFFFF
// 1870   }
// 1871 
// 1872   pBuf = buf+1;
??ZDP_MgmtNwkUpdateNotify_0:
        MOV       DPL,R6
        MOV       DPH,R7
        INC       DPTR
        MOV       ?V2,DPL
        MOV       ?V3,DPH
// 1873 
// 1874   *pBuf++ = status;
        MOV       A,?V7
        LCALL     ?Subroutine22 & 0xFFFF
// 1875 
// 1876   pBuf = osal_buffer_uint32( pBuf, scannedChannels );
??CrossCallReturnLabel_29:
        ; Setup parameters for call to function osal_buffer_uint32
        MOV       A,#0x13
        LCALL     ?XSTACK_DISP0_8
        LCALL     ?PUSH_XSTACK8_X_FOUR
          CFI CFA_XSP16 add(XSP16, 23)
        LCALL     `??osal_buffer_uint32::?relay`; Banked call to: osal_buffer_uint32
        MOV       A,#0x4
        LCALL     ?DEALLOC_XSTACK8
          CFI CFA_XSP16 add(XSP16, 19)
        MOV       A,#0x17
        LCALL     ?XSTACK_DISP0_8
        LCALL     ?Subroutine53 & 0xFFFF
// 1877 
// 1878   *pBuf++ = LO_UINT16( totalTransmissions );
??CrossCallReturnLabel_92:
        MOVX      @DPTR,A
// 1879   *pBuf++ = HI_UINT16( totalTransmissions );
        MOV       A,R1
        INC       DPTR
        MOVX      @DPTR,A
        MOV       A,#0x19
        LCALL     ?XSTACK_DISP0_8
        LCALL     ?Subroutine53 & 0xFFFF
// 1880 
// 1881   *pBuf++ = LO_UINT16( transmissionFailures );
??CrossCallReturnLabel_93:
        INC       DPTR
        INC       DPTR
        LCALL     ?Subroutine33 & 0xFFFF
// 1882   *pBuf++ = HI_UINT16( transmissionFailures );
??CrossCallReturnLabel_47:
        LCALL     ?Subroutine16 & 0xFFFF
// 1883 
// 1884   *pBuf++ = listCount;
??CrossCallReturnLabel_13:
        MOV       A,?V0
        MOVX      @DPTR,A
// 1885 
// 1886   if ( listCount > 0 )
        JZ        ??ZDP_MgmtNwkUpdateNotify_2
// 1887     osal_memcpy( pBuf, energyValues, listCount );
        ; Setup parameters for call to function osal_memcpy
        MOV       A,#0x1b
        LCALL     ?XSTACK_DISP0_8
        LCALL     ?Subroutine47 & 0xFFFF
??CrossCallReturnLabel_75:
        LCALL     ?PUSH_XSTACK_I_THREE
          CFI CFA_XSP16 add(XSP16, 22)
        MOV       R4,?V0
        MOV       R5,#0x0
        MOV       A,R2
        ADD       A,#0x5
        MOV       R2,A
        JNC       ??ZDP_MgmtNwkUpdateNotify_3
        INC       R3
??ZDP_MgmtNwkUpdateNotify_3:
        LCALL     `??osal_memcpy::?relay`; Banked call to: osal_memcpy
        MOV       A,#0x3
        LCALL     ?DEALLOC_XSTACK8
          CFI CFA_XSP16 add(XSP16, 19)
// 1888 
// 1889   FillAndSendBufferTxOptions( &TransSeq, dstAddr, Mgmt_NWK_Update_notify, len, buf, txOptions );
??ZDP_MgmtNwkUpdateNotify_2:
        MOV       DPTR,#ZDP_TmpBuf
        MOV       A,?V2
        MOVX      @DPTR,A
        INC       DPTR
        MOV       A,?V3
        MOVX      @DPTR,A
        MOV       A,#0x1d
        LCALL     ?XSTACK_DISP0_8
        MOVX      A,@DPTR
        MOV       DPTR,#ZDP_TxOptions
        MOVX      @DPTR,A
        ; Setup parameters for call to function fillAndSend
        MOV       ?V2,#0x38
        MOV       ?V3,#-0x80
        MOV       R0,#?V2
        LCALL     ?PUSH_XSTACK_I_TWO
          CFI CFA_XSP16 add(XSP16, 21)
        MOV       R1,?V1
        MOV       R4,?V8
        MOV       R5,?V9
        MOV       A,#0x2
        LCALL     ?XSTACK_DISP101_8
        LCALL     `??fillAndSend::?relay`; Banked call to: fillAndSend
        MOV       A,#0x2
        LCALL     ?DEALLOC_XSTACK8
          CFI CFA_XSP16 add(XSP16, 19)
        MOV       A,R1
        MOV       ?V1,A
        ; Setup parameters for call to function osal_mem_free
        MOV       A,R6
        MOV       R2,A
        MOV       A,R7
        MOV       R3,A
        LCALL     `??osal_mem_free::?relay`; Banked call to: osal_mem_free
        MOV       DPTR,#ZDP_TmpBuf
        MOV       A,#(ZDP_Buf + 1) & 0xff
        MOVX      @DPTR,A
        INC       DPTR
        MOV       A,#((ZDP_Buf + 1) >> 8) & 0xff
        MOVX      @DPTR,A
        MOV       DPTR,#ZDP_TxOptions
        CLR       A
        MOVX      @DPTR,A
        MOV       R1,?V1
??ZDP_MgmtNwkUpdateNotify_1:
        LJMP      ?Subroutine6 & 0xFFFF
// 1890 }
          CFI EndBlock cfiBlock461

        RSEG BANKED_CODE:HUGECODE:NOROOT(0)
?Subroutine53:
          CFI Block cfiCond462 Using cfiCommon0
          CFI Function ZDP_MgmtNwkUpdateNotify
          CFI Conditional ??CrossCallReturnLabel_92
          CFI R6 load(1, XDATA, add(CFA_XSP16, literal(-18)))
          CFI VB load(1, XDATA, add(CFA_XSP16, literal(-17)))
          CFI V0 load(1, XDATA, add(CFA_XSP16, literal(-16)))
          CFI V1 load(1, XDATA, add(CFA_XSP16, literal(-15)))
          CFI V2 load(1, XDATA, add(CFA_XSP16, literal(-14)))
          CFI V3 load(1, XDATA, add(CFA_XSP16, literal(-13)))
          CFI V4 load(1, XDATA, add(CFA_XSP16, literal(-12)))
          CFI V5 load(1, XDATA, add(CFA_XSP16, literal(-11)))
          CFI V6 load(1, XDATA, add(CFA_XSP16, literal(-10)))
          CFI V7 load(1, XDATA, add(CFA_XSP16, literal(-9)))
          CFI V8 load(1, XDATA, add(CFA_XSP16, literal(-8)))
          CFI V9 load(1, XDATA, add(CFA_XSP16, literal(-7)))
          CFI R7 load(1, XDATA, add(CFA_XSP16, literal(-6)))
          CFI ?RET_LOW load(1, XDATA, add(CFA_XSP16, literal(-5)))
          CFI ?RET_HIGH load(1, XDATA, add(CFA_XSP16, literal(-4)))
          CFI ?BRET_EXT load(1, XDATA, add(CFA_XSP16, literal(-3)))
          CFI DPL0 load(1, XDATA, add(CFA_XSP16, literal(-2)))
          CFI DPH0 load(1, XDATA, add(CFA_XSP16, literal(-1)))
          CFI CFA_SP SP+-2
          CFI CFA_XSP16 add(XSP16, 19)
          CFI Block cfiCond463 Using cfiCommon0
          CFI (cfiCond463) Function ZDP_MgmtNwkUpdateNotify
          CFI (cfiCond463) Conditional ??CrossCallReturnLabel_93
          CFI (cfiCond463) R6 load(1, XDATA, add(CFA_XSP16, literal(-18)))
          CFI (cfiCond463) VB load(1, XDATA, add(CFA_XSP16, literal(-17)))
          CFI (cfiCond463) V0 load(1, XDATA, add(CFA_XSP16, literal(-16)))
          CFI (cfiCond463) V1 load(1, XDATA, add(CFA_XSP16, literal(-15)))
          CFI (cfiCond463) V2 load(1, XDATA, add(CFA_XSP16, literal(-14)))
          CFI (cfiCond463) V3 load(1, XDATA, add(CFA_XSP16, literal(-13)))
          CFI (cfiCond463) V4 load(1, XDATA, add(CFA_XSP16, literal(-12)))
          CFI (cfiCond463) V5 load(1, XDATA, add(CFA_XSP16, literal(-11)))
          CFI (cfiCond463) V6 load(1, XDATA, add(CFA_XSP16, literal(-10)))
          CFI (cfiCond463) V7 load(1, XDATA, add(CFA_XSP16, literal(-9)))
          CFI (cfiCond463) V8 load(1, XDATA, add(CFA_XSP16, literal(-8)))
          CFI (cfiCond463) V9 load(1, XDATA, add(CFA_XSP16, literal(-7)))
          CFI (cfiCond463) R7 load(1, XDATA, add(CFA_XSP16, literal(-6)))
          CFI (cfiCond463) ?RET_LOW load(1, XDATA, add(CFA_XSP16, literal(-5)))
          CFI (cfiCond463) ?RET_HIGH load(1, XDATA, add(CFA_XSP16, literal(-4)))
          CFI (cfiCond463) ?BRET_EXT load(1, XDATA, add(CFA_XSP16, literal(-3)))
          CFI (cfiCond463) DPL0 load(1, XDATA, add(CFA_XSP16, literal(-2)))
          CFI (cfiCond463) DPH0 load(1, XDATA, add(CFA_XSP16, literal(-1)))
          CFI (cfiCond463) CFA_SP SP+-2
          CFI (cfiCond463) CFA_XSP16 add(XSP16, 19)
          CFI Block cfiPicker464 Using cfiCommon1
          CFI (cfiPicker464) NoFunction
          CFI (cfiPicker464) Picker
        LCALL     ?Subroutine72 & 0xFFFF
??CrossCallReturnLabel_130:
        RET
          CFI EndBlock cfiCond462
          CFI EndBlock cfiCond463
          CFI EndBlock cfiPicker464

        RSEG BANKED_CODE:HUGECODE:NOROOT(0)
?Subroutine72:
          CFI Block cfiCond465 Using cfiCommon0
          CFI Function ZDP_EPRsp
          CFI Conditional ??CrossCallReturnLabel_129, ??CrossCallReturnLabel_10
          CFI R6 load(1, XDATA, add(CFA_XSP16, literal(-15)))
          CFI VB load(1, XDATA, add(CFA_XSP16, literal(-14)))
          CFI V0 load(1, XDATA, add(CFA_XSP16, literal(-13)))
          CFI V1 load(1, XDATA, add(CFA_XSP16, literal(-12)))
          CFI V2 load(1, XDATA, add(CFA_XSP16, literal(-11)))
          CFI V3 load(1, XDATA, add(CFA_XSP16, literal(-10)))
          CFI V4 load(1, XDATA, add(CFA_XSP16, literal(-9)))
          CFI V5 load(1, XDATA, add(CFA_XSP16, literal(-8)))
          CFI V6 load(1, XDATA, add(CFA_XSP16, literal(-7)))
          CFI R7 load(1, XDATA, add(CFA_XSP16, literal(-6)))
          CFI ?RET_LOW load(1, XDATA, add(CFA_XSP16, literal(-5)))
          CFI ?RET_HIGH load(1, XDATA, add(CFA_XSP16, literal(-4)))
          CFI ?BRET_EXT load(1, XDATA, add(CFA_XSP16, literal(-3)))
          CFI DPL0 load(1, XDATA, add(CFA_XSP16, literal(-2)))
          CFI DPH0 load(1, XDATA, add(CFA_XSP16, literal(-1)))
          CFI CFA_SP SP+-4
          CFI CFA_XSP16 add(XSP16, 16)
          CFI Block cfiCond466 Using cfiCommon0
          CFI (cfiCond466) Function ZDP_EndDeviceBindReq
          CFI (cfiCond466) Conditional ??CrossCallReturnLabel_129, ??CrossCallReturnLabel_11
          CFI (cfiCond466) R6 load(1, XDATA, add(CFA_XSP16, literal(-18)))
          CFI (cfiCond466) VB load(1, XDATA, add(CFA_XSP16, literal(-17)))
          CFI (cfiCond466) V0 load(1, XDATA, add(CFA_XSP16, literal(-16)))
          CFI (cfiCond466) V1 load(1, XDATA, add(CFA_XSP16, literal(-15)))
          CFI (cfiCond466) V2 load(1, XDATA, add(CFA_XSP16, literal(-14)))
          CFI (cfiCond466) V3 load(1, XDATA, add(CFA_XSP16, literal(-13)))
          CFI (cfiCond466) V4 load(1, XDATA, add(CFA_XSP16, literal(-12)))
          CFI (cfiCond466) V5 load(1, XDATA, add(CFA_XSP16, literal(-11)))
          CFI (cfiCond466) V6 load(1, XDATA, add(CFA_XSP16, literal(-10)))
          CFI (cfiCond466) V7 load(1, XDATA, add(CFA_XSP16, literal(-9)))
          CFI (cfiCond466) V8 load(1, XDATA, add(CFA_XSP16, literal(-8)))
          CFI (cfiCond466) V9 load(1, XDATA, add(CFA_XSP16, literal(-7)))
          CFI (cfiCond466) R7 load(1, XDATA, add(CFA_XSP16, literal(-6)))
          CFI (cfiCond466) ?RET_LOW load(1, XDATA, add(CFA_XSP16, literal(-5)))
          CFI (cfiCond466) ?RET_HIGH load(1, XDATA, add(CFA_XSP16, literal(-4)))
          CFI (cfiCond466) ?BRET_EXT load(1, XDATA, add(CFA_XSP16, literal(-3)))
          CFI (cfiCond466) DPL0 load(1, XDATA, add(CFA_XSP16, literal(-2)))
          CFI (cfiCond466) DPH0 load(1, XDATA, add(CFA_XSP16, literal(-1)))
          CFI (cfiCond466) CFA_SP SP+-4
          CFI (cfiCond466) CFA_XSP16 add(XSP16, 18)
          CFI Block cfiCond467 Using cfiCommon0
          CFI (cfiCond467) Function ZDP_BindUnbindReq
          CFI (cfiCond467) Conditional ??CrossCallReturnLabel_129, ??CrossCallReturnLabel_12
          CFI (cfiCond467) R6 load(1, XDATA, add(CFA_XSP16, literal(-18)))
          CFI (cfiCond467) VB load(1, XDATA, add(CFA_XSP16, literal(-17)))
          CFI (cfiCond467) V0 load(1, XDATA, add(CFA_XSP16, literal(-16)))
          CFI (cfiCond467) V1 load(1, XDATA, add(CFA_XSP16, literal(-15)))
          CFI (cfiCond467) V2 load(1, XDATA, add(CFA_XSP16, literal(-14)))
          CFI (cfiCond467) V3 load(1, XDATA, add(CFA_XSP16, literal(-13)))
          CFI (cfiCond467) V4 load(1, XDATA, add(CFA_XSP16, literal(-12)))
          CFI (cfiCond467) V5 load(1, XDATA, add(CFA_XSP16, literal(-11)))
          CFI (cfiCond467) V6 load(1, XDATA, add(CFA_XSP16, literal(-10)))
          CFI (cfiCond467) V7 load(1, XDATA, add(CFA_XSP16, literal(-9)))
          CFI (cfiCond467) V8 load(1, XDATA, add(CFA_XSP16, literal(-8)))
          CFI (cfiCond467) V9 load(1, XDATA, add(CFA_XSP16, literal(-7)))
          CFI (cfiCond467) R7 load(1, XDATA, add(CFA_XSP16, literal(-6)))
          CFI (cfiCond467) ?RET_LOW load(1, XDATA, add(CFA_XSP16, literal(-5)))
          CFI (cfiCond467) ?RET_HIGH load(1, XDATA, add(CFA_XSP16, literal(-4)))
          CFI (cfiCond467) ?BRET_EXT load(1, XDATA, add(CFA_XSP16, literal(-3)))
          CFI (cfiCond467) DPL0 load(1, XDATA, add(CFA_XSP16, literal(-2)))
          CFI (cfiCond467) DPH0 load(1, XDATA, add(CFA_XSP16, literal(-1)))
          CFI (cfiCond467) CFA_SP SP+-4
          CFI (cfiCond467) CFA_XSP16 add(XSP16, 18)
          CFI Block cfiCond468 Using cfiCommon0
          CFI (cfiCond468) Function ZDP_MgmtNwkUpdateNotify
          CFI (cfiCond468) Conditional ??CrossCallReturnLabel_130, ??CrossCallReturnLabel_92
          CFI (cfiCond468) R6 load(1, XDATA, add(CFA_XSP16, literal(-18)))
          CFI (cfiCond468) VB load(1, XDATA, add(CFA_XSP16, literal(-17)))
          CFI (cfiCond468) V0 load(1, XDATA, add(CFA_XSP16, literal(-16)))
          CFI (cfiCond468) V1 load(1, XDATA, add(CFA_XSP16, literal(-15)))
          CFI (cfiCond468) V2 load(1, XDATA, add(CFA_XSP16, literal(-14)))
          CFI (cfiCond468) V3 load(1, XDATA, add(CFA_XSP16, literal(-13)))
          CFI (cfiCond468) V4 load(1, XDATA, add(CFA_XSP16, literal(-12)))
          CFI (cfiCond468) V5 load(1, XDATA, add(CFA_XSP16, literal(-11)))
          CFI (cfiCond468) V6 load(1, XDATA, add(CFA_XSP16, literal(-10)))
          CFI (cfiCond468) V7 load(1, XDATA, add(CFA_XSP16, literal(-9)))
          CFI (cfiCond468) V8 load(1, XDATA, add(CFA_XSP16, literal(-8)))
          CFI (cfiCond468) V9 load(1, XDATA, add(CFA_XSP16, literal(-7)))
          CFI (cfiCond468) R7 load(1, XDATA, add(CFA_XSP16, literal(-6)))
          CFI (cfiCond468) ?RET_LOW load(1, XDATA, add(CFA_XSP16, literal(-5)))
          CFI (cfiCond468) ?RET_HIGH load(1, XDATA, add(CFA_XSP16, literal(-4)))
          CFI (cfiCond468) ?BRET_EXT load(1, XDATA, add(CFA_XSP16, literal(-3)))
          CFI (cfiCond468) DPL0 load(1, XDATA, add(CFA_XSP16, literal(-2)))
          CFI (cfiCond468) DPH0 load(1, XDATA, add(CFA_XSP16, literal(-1)))
          CFI (cfiCond468) CFA_SP SP+-4
          CFI (cfiCond468) CFA_XSP16 add(XSP16, 19)
          CFI Block cfiCond469 Using cfiCommon0
          CFI (cfiCond469) Function ZDP_MgmtNwkUpdateNotify
          CFI (cfiCond469) Conditional ??CrossCallReturnLabel_130, ??CrossCallReturnLabel_93
          CFI (cfiCond469) R6 load(1, XDATA, add(CFA_XSP16, literal(-18)))
          CFI (cfiCond469) VB load(1, XDATA, add(CFA_XSP16, literal(-17)))
          CFI (cfiCond469) V0 load(1, XDATA, add(CFA_XSP16, literal(-16)))
          CFI (cfiCond469) V1 load(1, XDATA, add(CFA_XSP16, literal(-15)))
          CFI (cfiCond469) V2 load(1, XDATA, add(CFA_XSP16, literal(-14)))
          CFI (cfiCond469) V3 load(1, XDATA, add(CFA_XSP16, literal(-13)))
          CFI (cfiCond469) V4 load(1, XDATA, add(CFA_XSP16, literal(-12)))
          CFI (cfiCond469) V5 load(1, XDATA, add(CFA_XSP16, literal(-11)))
          CFI (cfiCond469) V6 load(1, XDATA, add(CFA_XSP16, literal(-10)))
          CFI (cfiCond469) V7 load(1, XDATA, add(CFA_XSP16, literal(-9)))
          CFI (cfiCond469) V8 load(1, XDATA, add(CFA_XSP16, literal(-8)))
          CFI (cfiCond469) V9 load(1, XDATA, add(CFA_XSP16, literal(-7)))
          CFI (cfiCond469) R7 load(1, XDATA, add(CFA_XSP16, literal(-6)))
          CFI (cfiCond469) ?RET_LOW load(1, XDATA, add(CFA_XSP16, literal(-5)))
          CFI (cfiCond469) ?RET_HIGH load(1, XDATA, add(CFA_XSP16, literal(-4)))
          CFI (cfiCond469) ?BRET_EXT load(1, XDATA, add(CFA_XSP16, literal(-3)))
          CFI (cfiCond469) DPL0 load(1, XDATA, add(CFA_XSP16, literal(-2)))
          CFI (cfiCond469) DPH0 load(1, XDATA, add(CFA_XSP16, literal(-1)))
          CFI (cfiCond469) CFA_SP SP+-4
          CFI (cfiCond469) CFA_XSP16 add(XSP16, 19)
          CFI Block cfiPicker470 Using cfiCommon1
          CFI (cfiPicker470) NoFunction
          CFI (cfiPicker470) Picker
        MOVX      A,@DPTR
        MOV       R0,A
        INC       DPTR
        MOVX      A,@DPTR
        MOV       R1,A
        MOV       A,R0
        MOV       DPL,R2
        MOV       DPH,R3
        RET
          CFI EndBlock cfiCond465
          CFI EndBlock cfiCond466
          CFI EndBlock cfiCond467
          CFI EndBlock cfiCond468
          CFI EndBlock cfiCond469
          CFI EndBlock cfiPicker470

        RSEG BANKED_CODE:HUGECODE:NOROOT(0)
?Subroutine47:
          CFI Block cfiCond471 Using cfiCommon0
          CFI Function ZDP_EPRsp
          CFI Conditional ??CrossCallReturnLabel_74
          CFI R6 load(1, XDATA, add(CFA_XSP16, literal(-15)))
          CFI VB load(1, XDATA, add(CFA_XSP16, literal(-14)))
          CFI V0 load(1, XDATA, add(CFA_XSP16, literal(-13)))
          CFI V1 load(1, XDATA, add(CFA_XSP16, literal(-12)))
          CFI V2 load(1, XDATA, add(CFA_XSP16, literal(-11)))
          CFI V3 load(1, XDATA, add(CFA_XSP16, literal(-10)))
          CFI V4 load(1, XDATA, add(CFA_XSP16, literal(-9)))
          CFI V5 load(1, XDATA, add(CFA_XSP16, literal(-8)))
          CFI V6 load(1, XDATA, add(CFA_XSP16, literal(-7)))
          CFI R7 load(1, XDATA, add(CFA_XSP16, literal(-6)))
          CFI ?RET_LOW load(1, XDATA, add(CFA_XSP16, literal(-5)))
          CFI ?RET_HIGH load(1, XDATA, add(CFA_XSP16, literal(-4)))
          CFI ?BRET_EXT load(1, XDATA, add(CFA_XSP16, literal(-3)))
          CFI DPL0 load(1, XDATA, add(CFA_XSP16, literal(-2)))
          CFI DPH0 load(1, XDATA, add(CFA_XSP16, literal(-1)))
          CFI CFA_SP SP+-2
          CFI CFA_XSP16 add(XSP16, 16)
          CFI Block cfiCond472 Using cfiCommon0
          CFI (cfiCond472) Function ZDP_MgmtNwkUpdateNotify
          CFI (cfiCond472) Conditional ??CrossCallReturnLabel_75
          CFI (cfiCond472) R6 load(1, XDATA, add(CFA_XSP16, literal(-18)))
          CFI (cfiCond472) VB load(1, XDATA, add(CFA_XSP16, literal(-17)))
          CFI (cfiCond472) V0 load(1, XDATA, add(CFA_XSP16, literal(-16)))
          CFI (cfiCond472) V1 load(1, XDATA, add(CFA_XSP16, literal(-15)))
          CFI (cfiCond472) V2 load(1, XDATA, add(CFA_XSP16, literal(-14)))
          CFI (cfiCond472) V3 load(1, XDATA, add(CFA_XSP16, literal(-13)))
          CFI (cfiCond472) V4 load(1, XDATA, add(CFA_XSP16, literal(-12)))
          CFI (cfiCond472) V5 load(1, XDATA, add(CFA_XSP16, literal(-11)))
          CFI (cfiCond472) V6 load(1, XDATA, add(CFA_XSP16, literal(-10)))
          CFI (cfiCond472) V7 load(1, XDATA, add(CFA_XSP16, literal(-9)))
          CFI (cfiCond472) V8 load(1, XDATA, add(CFA_XSP16, literal(-8)))
          CFI (cfiCond472) V9 load(1, XDATA, add(CFA_XSP16, literal(-7)))
          CFI (cfiCond472) R7 load(1, XDATA, add(CFA_XSP16, literal(-6)))
          CFI (cfiCond472) ?RET_LOW load(1, XDATA, add(CFA_XSP16, literal(-5)))
          CFI (cfiCond472) ?RET_HIGH load(1, XDATA, add(CFA_XSP16, literal(-4)))
          CFI (cfiCond472) ?BRET_EXT load(1, XDATA, add(CFA_XSP16, literal(-3)))
          CFI (cfiCond472) DPL0 load(1, XDATA, add(CFA_XSP16, literal(-2)))
          CFI (cfiCond472) DPH0 load(1, XDATA, add(CFA_XSP16, literal(-1)))
          CFI (cfiCond472) CFA_SP SP+-2
          CFI (cfiCond472) CFA_XSP16 add(XSP16, 19)
          CFI Block cfiPicker473 Using cfiCommon1
          CFI (cfiPicker473) NoFunction
          CFI (cfiPicker473) Picker
        MOVX      A,@DPTR
        MOV       ?V4,A
        INC       DPTR
        MOVX      A,@DPTR
        MOV       ?V5,A
        MOV       ?V6,#0x0
        MOV       R0,#?V4
        RET
          CFI EndBlock cfiCond471
          CFI EndBlock cfiCond472
          CFI EndBlock cfiPicker473

        RSEG BANKED_CODE:HUGECODE:NOROOT(0)
?Subroutine33:
          CFI Block cfiCond474 Using cfiCommon0
          CFI Function ZDP_MgmtNwkUpdateReq
          CFI Conditional ??CrossCallReturnLabel_46
          CFI R6 load(1, XDATA, add(CFA_XSP16, literal(-14)))
          CFI VB load(1, XDATA, add(CFA_XSP16, literal(-13)))
          CFI V0 load(1, XDATA, add(CFA_XSP16, literal(-12)))
          CFI V1 load(1, XDATA, add(CFA_XSP16, literal(-11)))
          CFI V2 load(1, XDATA, add(CFA_XSP16, literal(-10)))
          CFI V3 load(1, XDATA, add(CFA_XSP16, literal(-9)))
          CFI V4 load(1, XDATA, add(CFA_XSP16, literal(-8)))
          CFI V5 load(1, XDATA, add(CFA_XSP16, literal(-7)))
          CFI R7 load(1, XDATA, add(CFA_XSP16, literal(-6)))
          CFI ?RET_LOW load(1, XDATA, add(CFA_XSP16, literal(-5)))
          CFI ?RET_HIGH load(1, XDATA, add(CFA_XSP16, literal(-4)))
          CFI ?BRET_EXT load(1, XDATA, add(CFA_XSP16, literal(-3)))
          CFI DPL0 load(1, XDATA, add(CFA_XSP16, literal(-2)))
          CFI DPH0 load(1, XDATA, add(CFA_XSP16, literal(-1)))
          CFI CFA_SP SP+-2
          CFI CFA_XSP16 add(XSP16, 14)
          CFI Block cfiCond475 Using cfiCommon0
          CFI (cfiCond475) Function ZDP_MgmtNwkUpdateNotify
          CFI (cfiCond475) Conditional ??CrossCallReturnLabel_47
          CFI (cfiCond475) R6 load(1, XDATA, add(CFA_XSP16, literal(-18)))
          CFI (cfiCond475) VB load(1, XDATA, add(CFA_XSP16, literal(-17)))
          CFI (cfiCond475) V0 load(1, XDATA, add(CFA_XSP16, literal(-16)))
          CFI (cfiCond475) V1 load(1, XDATA, add(CFA_XSP16, literal(-15)))
          CFI (cfiCond475) V2 load(1, XDATA, add(CFA_XSP16, literal(-14)))
          CFI (cfiCond475) V3 load(1, XDATA, add(CFA_XSP16, literal(-13)))
          CFI (cfiCond475) V4 load(1, XDATA, add(CFA_XSP16, literal(-12)))
          CFI (cfiCond475) V5 load(1, XDATA, add(CFA_XSP16, literal(-11)))
          CFI (cfiCond475) V6 load(1, XDATA, add(CFA_XSP16, literal(-10)))
          CFI (cfiCond475) V7 load(1, XDATA, add(CFA_XSP16, literal(-9)))
          CFI (cfiCond475) V8 load(1, XDATA, add(CFA_XSP16, literal(-8)))
          CFI (cfiCond475) V9 load(1, XDATA, add(CFA_XSP16, literal(-7)))
          CFI (cfiCond475) R7 load(1, XDATA, add(CFA_XSP16, literal(-6)))
          CFI (cfiCond475) ?RET_LOW load(1, XDATA, add(CFA_XSP16, literal(-5)))
          CFI (cfiCond475) ?RET_HIGH load(1, XDATA, add(CFA_XSP16, literal(-4)))
          CFI (cfiCond475) ?BRET_EXT load(1, XDATA, add(CFA_XSP16, literal(-3)))
          CFI (cfiCond475) DPL0 load(1, XDATA, add(CFA_XSP16, literal(-2)))
          CFI (cfiCond475) DPH0 load(1, XDATA, add(CFA_XSP16, literal(-1)))
          CFI (cfiCond475) CFA_SP SP+-2
          CFI (cfiCond475) CFA_XSP16 add(XSP16, 19)
          CFI Block cfiPicker476 Using cfiCommon1
          CFI (cfiPicker476) NoFunction
          CFI (cfiPicker476) Picker
        LCALL     ?Subroutine85 & 0xFFFF
??CrossCallReturnLabel_144:
        INC       DPTR
        RET
          CFI EndBlock cfiCond474
          CFI EndBlock cfiCond475
          CFI EndBlock cfiPicker476

        RSEG BANKED_CODE:HUGECODE:NOROOT(0)
?Subroutine85:
          CFI Block cfiCond477 Using cfiCommon0
          CFI Function ZDP_EPRsp
          CFI Conditional ??CrossCallReturnLabel_143, ??CrossCallReturnLabel_10
          CFI R6 load(1, XDATA, add(CFA_XSP16, literal(-15)))
          CFI VB load(1, XDATA, add(CFA_XSP16, literal(-14)))
          CFI V0 load(1, XDATA, add(CFA_XSP16, literal(-13)))
          CFI V1 load(1, XDATA, add(CFA_XSP16, literal(-12)))
          CFI V2 load(1, XDATA, add(CFA_XSP16, literal(-11)))
          CFI V3 load(1, XDATA, add(CFA_XSP16, literal(-10)))
          CFI V4 load(1, XDATA, add(CFA_XSP16, literal(-9)))
          CFI V5 load(1, XDATA, add(CFA_XSP16, literal(-8)))
          CFI V6 load(1, XDATA, add(CFA_XSP16, literal(-7)))
          CFI R7 load(1, XDATA, add(CFA_XSP16, literal(-6)))
          CFI ?RET_LOW load(1, XDATA, add(CFA_XSP16, literal(-5)))
          CFI ?RET_HIGH load(1, XDATA, add(CFA_XSP16, literal(-4)))
          CFI ?BRET_EXT load(1, XDATA, add(CFA_XSP16, literal(-3)))
          CFI DPL0 load(1, XDATA, add(CFA_XSP16, literal(-2)))
          CFI DPH0 load(1, XDATA, add(CFA_XSP16, literal(-1)))
          CFI CFA_SP SP+-4
          CFI CFA_XSP16 add(XSP16, 16)
          CFI Block cfiCond478 Using cfiCommon0
          CFI (cfiCond478) Function ZDP_EndDeviceBindReq
          CFI (cfiCond478) Conditional ??CrossCallReturnLabel_143, ??CrossCallReturnLabel_11
          CFI (cfiCond478) R6 load(1, XDATA, add(CFA_XSP16, literal(-18)))
          CFI (cfiCond478) VB load(1, XDATA, add(CFA_XSP16, literal(-17)))
          CFI (cfiCond478) V0 load(1, XDATA, add(CFA_XSP16, literal(-16)))
          CFI (cfiCond478) V1 load(1, XDATA, add(CFA_XSP16, literal(-15)))
          CFI (cfiCond478) V2 load(1, XDATA, add(CFA_XSP16, literal(-14)))
          CFI (cfiCond478) V3 load(1, XDATA, add(CFA_XSP16, literal(-13)))
          CFI (cfiCond478) V4 load(1, XDATA, add(CFA_XSP16, literal(-12)))
          CFI (cfiCond478) V5 load(1, XDATA, add(CFA_XSP16, literal(-11)))
          CFI (cfiCond478) V6 load(1, XDATA, add(CFA_XSP16, literal(-10)))
          CFI (cfiCond478) V7 load(1, XDATA, add(CFA_XSP16, literal(-9)))
          CFI (cfiCond478) V8 load(1, XDATA, add(CFA_XSP16, literal(-8)))
          CFI (cfiCond478) V9 load(1, XDATA, add(CFA_XSP16, literal(-7)))
          CFI (cfiCond478) R7 load(1, XDATA, add(CFA_XSP16, literal(-6)))
          CFI (cfiCond478) ?RET_LOW load(1, XDATA, add(CFA_XSP16, literal(-5)))
          CFI (cfiCond478) ?RET_HIGH load(1, XDATA, add(CFA_XSP16, literal(-4)))
          CFI (cfiCond478) ?BRET_EXT load(1, XDATA, add(CFA_XSP16, literal(-3)))
          CFI (cfiCond478) DPL0 load(1, XDATA, add(CFA_XSP16, literal(-2)))
          CFI (cfiCond478) DPH0 load(1, XDATA, add(CFA_XSP16, literal(-1)))
          CFI (cfiCond478) CFA_SP SP+-4
          CFI (cfiCond478) CFA_XSP16 add(XSP16, 18)
          CFI Block cfiCond479 Using cfiCommon0
          CFI (cfiCond479) Function ZDP_BindUnbindReq
          CFI (cfiCond479) Conditional ??CrossCallReturnLabel_143, ??CrossCallReturnLabel_12
          CFI (cfiCond479) R6 load(1, XDATA, add(CFA_XSP16, literal(-18)))
          CFI (cfiCond479) VB load(1, XDATA, add(CFA_XSP16, literal(-17)))
          CFI (cfiCond479) V0 load(1, XDATA, add(CFA_XSP16, literal(-16)))
          CFI (cfiCond479) V1 load(1, XDATA, add(CFA_XSP16, literal(-15)))
          CFI (cfiCond479) V2 load(1, XDATA, add(CFA_XSP16, literal(-14)))
          CFI (cfiCond479) V3 load(1, XDATA, add(CFA_XSP16, literal(-13)))
          CFI (cfiCond479) V4 load(1, XDATA, add(CFA_XSP16, literal(-12)))
          CFI (cfiCond479) V5 load(1, XDATA, add(CFA_XSP16, literal(-11)))
          CFI (cfiCond479) V6 load(1, XDATA, add(CFA_XSP16, literal(-10)))
          CFI (cfiCond479) V7 load(1, XDATA, add(CFA_XSP16, literal(-9)))
          CFI (cfiCond479) V8 load(1, XDATA, add(CFA_XSP16, literal(-8)))
          CFI (cfiCond479) V9 load(1, XDATA, add(CFA_XSP16, literal(-7)))
          CFI (cfiCond479) R7 load(1, XDATA, add(CFA_XSP16, literal(-6)))
          CFI (cfiCond479) ?RET_LOW load(1, XDATA, add(CFA_XSP16, literal(-5)))
          CFI (cfiCond479) ?RET_HIGH load(1, XDATA, add(CFA_XSP16, literal(-4)))
          CFI (cfiCond479) ?BRET_EXT load(1, XDATA, add(CFA_XSP16, literal(-3)))
          CFI (cfiCond479) DPL0 load(1, XDATA, add(CFA_XSP16, literal(-2)))
          CFI (cfiCond479) DPH0 load(1, XDATA, add(CFA_XSP16, literal(-1)))
          CFI (cfiCond479) CFA_SP SP+-4
          CFI (cfiCond479) CFA_XSP16 add(XSP16, 18)
          CFI Block cfiCond480 Using cfiCommon0
          CFI (cfiCond480) Function ZDP_MgmtNwkUpdateReq
          CFI (cfiCond480) Conditional ??CrossCallReturnLabel_144, ??CrossCallReturnLabel_46
          CFI (cfiCond480) R6 load(1, XDATA, add(CFA_XSP16, literal(-14)))
          CFI (cfiCond480) VB load(1, XDATA, add(CFA_XSP16, literal(-13)))
          CFI (cfiCond480) V0 load(1, XDATA, add(CFA_XSP16, literal(-12)))
          CFI (cfiCond480) V1 load(1, XDATA, add(CFA_XSP16, literal(-11)))
          CFI (cfiCond480) V2 load(1, XDATA, add(CFA_XSP16, literal(-10)))
          CFI (cfiCond480) V3 load(1, XDATA, add(CFA_XSP16, literal(-9)))
          CFI (cfiCond480) V4 load(1, XDATA, add(CFA_XSP16, literal(-8)))
          CFI (cfiCond480) V5 load(1, XDATA, add(CFA_XSP16, literal(-7)))
          CFI (cfiCond480) R7 load(1, XDATA, add(CFA_XSP16, literal(-6)))
          CFI (cfiCond480) ?RET_LOW load(1, XDATA, add(CFA_XSP16, literal(-5)))
          CFI (cfiCond480) ?RET_HIGH load(1, XDATA, add(CFA_XSP16, literal(-4)))
          CFI (cfiCond480) ?BRET_EXT load(1, XDATA, add(CFA_XSP16, literal(-3)))
          CFI (cfiCond480) DPL0 load(1, XDATA, add(CFA_XSP16, literal(-2)))
          CFI (cfiCond480) DPH0 load(1, XDATA, add(CFA_XSP16, literal(-1)))
          CFI (cfiCond480) CFA_SP SP+-4
          CFI (cfiCond480) CFA_XSP16 add(XSP16, 14)
          CFI Block cfiCond481 Using cfiCommon0
          CFI (cfiCond481) Function ZDP_MgmtNwkUpdateNotify
          CFI (cfiCond481) Conditional ??CrossCallReturnLabel_144, ??CrossCallReturnLabel_47
          CFI (cfiCond481) R6 load(1, XDATA, add(CFA_XSP16, literal(-18)))
          CFI (cfiCond481) VB load(1, XDATA, add(CFA_XSP16, literal(-17)))
          CFI (cfiCond481) V0 load(1, XDATA, add(CFA_XSP16, literal(-16)))
          CFI (cfiCond481) V1 load(1, XDATA, add(CFA_XSP16, literal(-15)))
          CFI (cfiCond481) V2 load(1, XDATA, add(CFA_XSP16, literal(-14)))
          CFI (cfiCond481) V3 load(1, XDATA, add(CFA_XSP16, literal(-13)))
          CFI (cfiCond481) V4 load(1, XDATA, add(CFA_XSP16, literal(-12)))
          CFI (cfiCond481) V5 load(1, XDATA, add(CFA_XSP16, literal(-11)))
          CFI (cfiCond481) V6 load(1, XDATA, add(CFA_XSP16, literal(-10)))
          CFI (cfiCond481) V7 load(1, XDATA, add(CFA_XSP16, literal(-9)))
          CFI (cfiCond481) V8 load(1, XDATA, add(CFA_XSP16, literal(-8)))
          CFI (cfiCond481) V9 load(1, XDATA, add(CFA_XSP16, literal(-7)))
          CFI (cfiCond481) R7 load(1, XDATA, add(CFA_XSP16, literal(-6)))
          CFI (cfiCond481) ?RET_LOW load(1, XDATA, add(CFA_XSP16, literal(-5)))
          CFI (cfiCond481) ?RET_HIGH load(1, XDATA, add(CFA_XSP16, literal(-4)))
          CFI (cfiCond481) ?BRET_EXT load(1, XDATA, add(CFA_XSP16, literal(-3)))
          CFI (cfiCond481) DPL0 load(1, XDATA, add(CFA_XSP16, literal(-2)))
          CFI (cfiCond481) DPH0 load(1, XDATA, add(CFA_XSP16, literal(-1)))
          CFI (cfiCond481) CFA_SP SP+-4
          CFI (cfiCond481) CFA_XSP16 add(XSP16, 19)
          CFI Block cfiPicker482 Using cfiCommon1
          CFI (cfiPicker482) NoFunction
          CFI (cfiPicker482) Picker
        MOVX      @DPTR,A
        MOV       A,R1
        MOV       DPL,R2
        MOV       DPH,R3
        INC       DPTR
        INC       DPTR
        RET
          CFI EndBlock cfiCond477
          CFI EndBlock cfiCond478
          CFI EndBlock cfiCond479
          CFI EndBlock cfiCond480
          CFI EndBlock cfiCond481
          CFI EndBlock cfiPicker482
// 1891 
// 1892 /*********************************************************************
// 1893  * Functions to register for ZDO Over-the-air messages
// 1894  */
// 1895 
// 1896 /*********************************************************************
// 1897  * @fn          ZDO_RegisterForZDOMsg
// 1898  *
// 1899  * @brief       Call this function to register of an incoming over
// 1900  *              the air ZDO message - probably a response message
// 1901  *              but requests can also be received.
// 1902  *              Messages are delivered to the task with ZDO_CB_MSG
// 1903  *              as the message ID.
// 1904  *
// 1905  * @param       taskID - Where you would like the message delivered
// 1906  * @param       clusterID - What message?
// 1907  *                          ZDO_ALL_MSGS_CLUSTERID - all responses
// 1908  *                          and device announce
// 1909  *
// 1910  * @return      ZSuccess - successful, ZMemError if not
// 1911  */

        RSEG BANKED_CODE:HUGECODE:NOROOT(0)
// 1912 ZStatus_t ZDO_RegisterForZDOMsg( uint8 taskID, uint16 clusterID )
ZDO_RegisterForZDOMsg:
          CFI Block cfiBlock483 Using cfiCommon0
          CFI Function ZDO_RegisterForZDOMsg
        CODE
// 1913 {
        FUNCALL ZDO_RegisterForZDOMsg, osal_mem_alloc
        LOCFRAME ISTACK, 0, STACK
        LOCFRAME PSTACK, 0, STACK
        LOCFRAME XSTACK, 14, STACK
        LOCFRAME IOVERLAY, 0, STATIC
        LOCFRAME DOVERLAY, 0, STATIC
        ARGFRAME ISTACK, 0, STACK
        ARGFRAME PSTACK, 0, STACK
        ARGFRAME XSTACK, 14, STACK
        ARGFRAME IOVERLAY, 0, STATIC
        ARGFRAME DOVERLAY, 0, STATIC
        REQUIRE ?V0
        REQUIRE ?V1
        REQUIRE ?V2
        REQUIRE ?V4
        REQUIRE ?V5
        MOV       A,#-0xe
        LCALL     ?BANKED_ENTER_XDATA
          CFI DPH0 load(1, XDATA, add(CFA_XSP16, literal(-1)))
          CFI DPL0 load(1, XDATA, add(CFA_XSP16, literal(-2)))
          CFI ?BRET_EXT load(1, XDATA, add(CFA_XSP16, literal(-3)))
          CFI ?RET_HIGH load(1, XDATA, add(CFA_XSP16, literal(-4)))
          CFI ?RET_LOW load(1, XDATA, add(CFA_XSP16, literal(-5)))
          CFI R7 load(1, XDATA, add(CFA_XSP16, literal(-6)))
          CFI V5 load(1, XDATA, add(CFA_XSP16, literal(-7)))
          CFI V4 load(1, XDATA, add(CFA_XSP16, literal(-8)))
          CFI V3 load(1, XDATA, add(CFA_XSP16, literal(-9)))
          CFI V2 load(1, XDATA, add(CFA_XSP16, literal(-10)))
          CFI V1 load(1, XDATA, add(CFA_XSP16, literal(-11)))
          CFI V0 load(1, XDATA, add(CFA_XSP16, literal(-12)))
          CFI VB load(1, XDATA, add(CFA_XSP16, literal(-13)))
          CFI R6 load(1, XDATA, add(CFA_XSP16, literal(-14)))
          CFI CFA_SP SP+0
          CFI CFA_XSP16 add(XSP16, 14)
        ; Saved register size: 14
        ; Auto size: 0
        MOV       ?V2,R1
        MOV       ?V0,R2
        MOV       ?V1,R3
// 1914   ZDO_MsgCB_t *pList;
// 1915   ZDO_MsgCB_t *pLast;
// 1916   ZDO_MsgCB_t *pNew;
// 1917 
// 1918   // Look for duplicate
// 1919   pList = pLast = zdoMsgCBs;
        MOV       DPTR,#zdoMsgCBs
        LCALL     ?Subroutine50 & 0xFFFF
??CrossCallReturnLabel_87:
        MOV       A,R6
        MOV       R0,A
        MOV       A,R7
        SJMP      ??CrossCallReturnLabel_246
// 1920   while ( pList )
// 1921   {
// 1922     if ( pList->taskID == taskID && pList->clusterID == clusterID )
??ZDO_RegisterForZDOMsg_0:
        MOV       DPL,R0
        MOV       DPH,R1
        INC       DPTR
        INC       DPTR
        MOVX      A,@DPTR
        XRL       A,?V2
        JNZ       ??ZDO_RegisterForZDOMsg_1
        MOV       DPL,R0
        MOV       DPH,R1
        INC       DPTR
        INC       DPTR
        INC       DPTR
        MOVX      A,@DPTR
        XRL       A,?V0
        JNZ       ??ZDO_RegisterForZDOMsg_2
        INC       DPTR
        MOVX      A,@DPTR
        XRL       A,?V1
??ZDO_RegisterForZDOMsg_2:
        JZ        ??CrossCallReturnLabel_39
// 1923       return ( ZSuccess );
// 1924     pLast = pList;
??ZDO_RegisterForZDOMsg_1:
        MOV       A,R0
        MOV       R6,A
        MOV       A,R1
        MOV       R7,A
// 1925     pList = (ZDO_MsgCB_t *)pList->next;
        MOV       DPL,R0
        MOV       DPH,R1
        LCALL     ??Subroutine118_0 & 0xFFFF
// 1926   }
??CrossCallReturnLabel_246:
        MOV       R1,A
        MOV       A,R0
        ORL       A,R1
        JNZ       ??ZDO_RegisterForZDOMsg_0
// 1927 
// 1928   // Add to the list
// 1929   pNew = (ZDO_MsgCB_t *)osal_mem_alloc( sizeof ( ZDO_MsgCB_t ) );
        ; Setup parameters for call to function osal_mem_alloc
        MOV       R2,#0x5
        MOV       R3,#0x0
        LCALL     `??osal_mem_alloc::?relay`; Banked call to: osal_mem_alloc
        MOV       ?V4,R2
        MOV       ?V5,R3
        MOV       R0,?V4
        MOV       R1,?V5
// 1930   if ( pNew )
        MOV       A,R0
        ORL       A,R1
        JZ        ??ZDO_RegisterForZDOMsg_3
// 1931   {
// 1932     pNew->taskID = taskID;
        MOV       DPL,R0
        MOV       DPH,R1
        INC       DPTR
        INC       DPTR
        MOV       A,?V2
        LCALL     ??Subroutine98_0 & 0xFFFF
// 1933     pNew->clusterID = clusterID;
??CrossCallReturnLabel_159:
        MOV       A,?V0
        MOVX      @DPTR,A
        INC       DPTR
        MOV       A,?V1
        LCALL     ?Subroutine89 & 0xFFFF
// 1934     pNew->next = NULL;
??CrossCallReturnLabel_229:
        CLR       A
        MOVX      @DPTR,A
        INC       DPTR
        MOVX      @DPTR,A
// 1935     if ( zdoMsgCBs )
        MOV       DPTR,#zdoMsgCBs
        LCALL     ??Subroutine107_0 & 0xFFFF
??CrossCallReturnLabel_193:
        MOV       A,R2
        ORL       A,R3
        JZ        ??ZDO_RegisterForZDOMsg_4
// 1936     {
// 1937       pLast->next = pNew;
        MOV       DPL,R6
        MOV       DPH,R7
        SJMP      ??ZDO_RegisterForZDOMsg_5
// 1938     }
// 1939     else
// 1940       zdoMsgCBs = pNew;
??ZDO_RegisterForZDOMsg_4:
        MOV       DPTR,#zdoMsgCBs
??ZDO_RegisterForZDOMsg_5:
        LCALL     ?Subroutine28 & 0xFFFF
// 1941     return ( ZSuccess );
??CrossCallReturnLabel_39:
        MOV       R1,#0x0
        SJMP      ??ZDO_RegisterForZDOMsg_6
// 1942   }
// 1943   else
// 1944     return ( ZMemError );
??ZDO_RegisterForZDOMsg_3:
        MOV       R1,#0x10
??ZDO_RegisterForZDOMsg_6:
        LJMP      ??Subroutine93_0 & 0xFFFF
// 1945 }
          CFI EndBlock cfiBlock483

        RSEG BANKED_CODE:HUGECODE:NOROOT(0)
?Subroutine28:
          CFI Block cfiCond484 Using cfiCommon0
          CFI Function fillAndSend
          CFI Conditional ??CrossCallReturnLabel_37
          CFI R6 load(1, XDATA, add(CFA_XSP16, literal(-14)))
          CFI VB load(1, XDATA, add(CFA_XSP16, literal(-13)))
          CFI V0 load(1, XDATA, add(CFA_XSP16, literal(-12)))
          CFI V1 load(1, XDATA, add(CFA_XSP16, literal(-11)))
          CFI V2 load(1, XDATA, add(CFA_XSP16, literal(-10)))
          CFI V3 load(1, XDATA, add(CFA_XSP16, literal(-9)))
          CFI V4 load(1, XDATA, add(CFA_XSP16, literal(-8)))
          CFI V5 load(1, XDATA, add(CFA_XSP16, literal(-7)))
          CFI R7 load(1, XDATA, add(CFA_XSP16, literal(-6)))
          CFI ?RET_LOW load(1, XDATA, add(CFA_XSP16, literal(-5)))
          CFI ?RET_HIGH load(1, XDATA, add(CFA_XSP16, literal(-4)))
          CFI ?BRET_EXT load(1, XDATA, add(CFA_XSP16, literal(-3)))
          CFI DPL0 load(1, XDATA, add(CFA_XSP16, literal(-2)))
          CFI DPH0 load(1, XDATA, add(CFA_XSP16, literal(-1)))
          CFI CFA_SP SP+-2
          CFI CFA_XSP16 add(XSP16, 26)
          CFI Block cfiCond485 Using cfiCommon0
          CFI (cfiCond485) Function ZDP_MgmtRtgRsp
          CFI (cfiCond485) Conditional ??CrossCallReturnLabel_38
          CFI (cfiCond485) R6 load(1, XDATA, add(CFA_XSP16, literal(-20)))
          CFI (cfiCond485) VB load(1, XDATA, add(CFA_XSP16, literal(-19)))
          CFI (cfiCond485) V0 load(1, XDATA, add(CFA_XSP16, literal(-18)))
          CFI (cfiCond485) V1 load(1, XDATA, add(CFA_XSP16, literal(-17)))
          CFI (cfiCond485) V2 load(1, XDATA, add(CFA_XSP16, literal(-16)))
          CFI (cfiCond485) V3 load(1, XDATA, add(CFA_XSP16, literal(-15)))
          CFI (cfiCond485) V4 load(1, XDATA, add(CFA_XSP16, literal(-14)))
          CFI (cfiCond485) V5 load(1, XDATA, add(CFA_XSP16, literal(-13)))
          CFI (cfiCond485) V6 load(1, XDATA, add(CFA_XSP16, literal(-12)))
          CFI (cfiCond485) V7 load(1, XDATA, add(CFA_XSP16, literal(-11)))
          CFI (cfiCond485) V8 load(1, XDATA, add(CFA_XSP16, literal(-10)))
          CFI (cfiCond485) V9 load(1, XDATA, add(CFA_XSP16, literal(-9)))
          CFI (cfiCond485) V10 load(1, XDATA, add(CFA_XSP16, literal(-8)))
          CFI (cfiCond485) V11 load(1, XDATA, add(CFA_XSP16, literal(-7)))
          CFI (cfiCond485) R7 load(1, XDATA, add(CFA_XSP16, literal(-6)))
          CFI (cfiCond485) ?RET_LOW load(1, XDATA, add(CFA_XSP16, literal(-5)))
          CFI (cfiCond485) ?RET_HIGH load(1, XDATA, add(CFA_XSP16, literal(-4)))
          CFI (cfiCond485) ?BRET_EXT load(1, XDATA, add(CFA_XSP16, literal(-3)))
          CFI (cfiCond485) DPL0 load(1, XDATA, add(CFA_XSP16, literal(-2)))
          CFI (cfiCond485) DPH0 load(1, XDATA, add(CFA_XSP16, literal(-1)))
          CFI (cfiCond485) CFA_SP SP+-2
          CFI (cfiCond485) CFA_XSP16 add(XSP16, 21)
          CFI Block cfiCond486 Using cfiCommon0
          CFI (cfiCond486) Function ZDO_RegisterForZDOMsg
          CFI (cfiCond486) Conditional ??CrossCallReturnLabel_39
          CFI (cfiCond486) R6 load(1, XDATA, add(CFA_XSP16, literal(-14)))
          CFI (cfiCond486) VB load(1, XDATA, add(CFA_XSP16, literal(-13)))
          CFI (cfiCond486) V0 load(1, XDATA, add(CFA_XSP16, literal(-12)))
          CFI (cfiCond486) V1 load(1, XDATA, add(CFA_XSP16, literal(-11)))
          CFI (cfiCond486) V2 load(1, XDATA, add(CFA_XSP16, literal(-10)))
          CFI (cfiCond486) V3 load(1, XDATA, add(CFA_XSP16, literal(-9)))
          CFI (cfiCond486) V4 load(1, XDATA, add(CFA_XSP16, literal(-8)))
          CFI (cfiCond486) V5 load(1, XDATA, add(CFA_XSP16, literal(-7)))
          CFI (cfiCond486) R7 load(1, XDATA, add(CFA_XSP16, literal(-6)))
          CFI (cfiCond486) ?RET_LOW load(1, XDATA, add(CFA_XSP16, literal(-5)))
          CFI (cfiCond486) ?RET_HIGH load(1, XDATA, add(CFA_XSP16, literal(-4)))
          CFI (cfiCond486) ?BRET_EXT load(1, XDATA, add(CFA_XSP16, literal(-3)))
          CFI (cfiCond486) DPL0 load(1, XDATA, add(CFA_XSP16, literal(-2)))
          CFI (cfiCond486) DPH0 load(1, XDATA, add(CFA_XSP16, literal(-1)))
          CFI (cfiCond486) CFA_SP SP+-2
          CFI (cfiCond486) CFA_XSP16 add(XSP16, 14)
          CFI Block cfiCond487 Using cfiCommon0
          CFI (cfiCond487) Function ZDP_IncomingData
          CFI (cfiCond487) Conditional ??CrossCallReturnLabel_40
          CFI (cfiCond487) R6 load(1, XDATA, add(CFA_XSP16, literal(-10)))
          CFI (cfiCond487) VB load(1, XDATA, add(CFA_XSP16, literal(-9)))
          CFI (cfiCond487) V0 load(1, XDATA, add(CFA_XSP16, literal(-8)))
          CFI (cfiCond487) V1 load(1, XDATA, add(CFA_XSP16, literal(-7)))
          CFI (cfiCond487) R7 load(1, XDATA, add(CFA_XSP16, literal(-6)))
          CFI (cfiCond487) ?RET_LOW load(1, XDATA, add(CFA_XSP16, literal(-5)))
          CFI (cfiCond487) ?RET_HIGH load(1, XDATA, add(CFA_XSP16, literal(-4)))
          CFI (cfiCond487) ?BRET_EXT load(1, XDATA, add(CFA_XSP16, literal(-3)))
          CFI (cfiCond487) DPL0 load(1, XDATA, add(CFA_XSP16, literal(-2)))
          CFI (cfiCond487) DPH0 load(1, XDATA, add(CFA_XSP16, literal(-1)))
          CFI (cfiCond487) CFA_SP SP+-2
          CFI (cfiCond487) CFA_XSP16 add(XSP16, 33)
          CFI Block cfiCond488 Using cfiCommon0
          CFI (cfiCond488) Function ZDP_IncomingData
          CFI (cfiCond488) Conditional ??CrossCallReturnLabel_41
          CFI (cfiCond488) R6 load(1, XDATA, add(CFA_XSP16, literal(-10)))
          CFI (cfiCond488) VB load(1, XDATA, add(CFA_XSP16, literal(-9)))
          CFI (cfiCond488) V0 load(1, XDATA, add(CFA_XSP16, literal(-8)))
          CFI (cfiCond488) V1 load(1, XDATA, add(CFA_XSP16, literal(-7)))
          CFI (cfiCond488) R7 load(1, XDATA, add(CFA_XSP16, literal(-6)))
          CFI (cfiCond488) ?RET_LOW load(1, XDATA, add(CFA_XSP16, literal(-5)))
          CFI (cfiCond488) ?RET_HIGH load(1, XDATA, add(CFA_XSP16, literal(-4)))
          CFI (cfiCond488) ?BRET_EXT load(1, XDATA, add(CFA_XSP16, literal(-3)))
          CFI (cfiCond488) DPL0 load(1, XDATA, add(CFA_XSP16, literal(-2)))
          CFI (cfiCond488) DPH0 load(1, XDATA, add(CFA_XSP16, literal(-1)))
          CFI (cfiCond488) CFA_SP SP+-2
          CFI (cfiCond488) CFA_XSP16 add(XSP16, 33)
          CFI Block cfiCond489 Using cfiCommon0
          CFI (cfiCond489) Function ZDP_IncomingData
          CFI (cfiCond489) Conditional ??CrossCallReturnLabel_42
          CFI (cfiCond489) R6 load(1, XDATA, add(CFA_XSP16, literal(-10)))
          CFI (cfiCond489) VB load(1, XDATA, add(CFA_XSP16, literal(-9)))
          CFI (cfiCond489) V0 load(1, XDATA, add(CFA_XSP16, literal(-8)))
          CFI (cfiCond489) V1 load(1, XDATA, add(CFA_XSP16, literal(-7)))
          CFI (cfiCond489) R7 load(1, XDATA, add(CFA_XSP16, literal(-6)))
          CFI (cfiCond489) ?RET_LOW load(1, XDATA, add(CFA_XSP16, literal(-5)))
          CFI (cfiCond489) ?RET_HIGH load(1, XDATA, add(CFA_XSP16, literal(-4)))
          CFI (cfiCond489) ?BRET_EXT load(1, XDATA, add(CFA_XSP16, literal(-3)))
          CFI (cfiCond489) DPL0 load(1, XDATA, add(CFA_XSP16, literal(-2)))
          CFI (cfiCond489) DPH0 load(1, XDATA, add(CFA_XSP16, literal(-1)))
          CFI (cfiCond489) CFA_SP SP+-2
          CFI (cfiCond489) CFA_XSP16 add(XSP16, 33)
          CFI Block cfiCond490 Using cfiCommon0
          CFI (cfiCond490) Function ZDP_IncomingData
          CFI (cfiCond490) Conditional ??CrossCallReturnLabel_43
          CFI (cfiCond490) R6 load(1, XDATA, add(CFA_XSP16, literal(-10)))
          CFI (cfiCond490) VB load(1, XDATA, add(CFA_XSP16, literal(-9)))
          CFI (cfiCond490) V0 load(1, XDATA, add(CFA_XSP16, literal(-8)))
          CFI (cfiCond490) V1 load(1, XDATA, add(CFA_XSP16, literal(-7)))
          CFI (cfiCond490) R7 load(1, XDATA, add(CFA_XSP16, literal(-6)))
          CFI (cfiCond490) ?RET_LOW load(1, XDATA, add(CFA_XSP16, literal(-5)))
          CFI (cfiCond490) ?RET_HIGH load(1, XDATA, add(CFA_XSP16, literal(-4)))
          CFI (cfiCond490) ?BRET_EXT load(1, XDATA, add(CFA_XSP16, literal(-3)))
          CFI (cfiCond490) DPL0 load(1, XDATA, add(CFA_XSP16, literal(-2)))
          CFI (cfiCond490) DPH0 load(1, XDATA, add(CFA_XSP16, literal(-1)))
          CFI (cfiCond490) CFA_SP SP+-2
          CFI (cfiCond490) CFA_XSP16 add(XSP16, 33)
          CFI Block cfiPicker491 Using cfiCommon1
          CFI (cfiPicker491) NoFunction
          CFI (cfiPicker491) Picker
        MOV       A,R0
        MOVX      @DPTR,A
        INC       DPTR
        MOV       A,R1
        MOVX      @DPTR,A
        RET
          CFI EndBlock cfiCond484
          CFI EndBlock cfiCond485
          CFI EndBlock cfiCond486
          CFI EndBlock cfiCond487
          CFI EndBlock cfiCond488
          CFI EndBlock cfiCond489
          CFI EndBlock cfiCond490
          CFI EndBlock cfiPicker491
// 1946 
// 1947 /*********************************************************************
// 1948  * @fn          ZDO_RemoveRegisteredCB
// 1949  *
// 1950  * @brief       Call this function if you don't want to receive the
// 1951  *              incoming message.
// 1952  *
// 1953  * @param       taskID - Where the messages are being delivered.
// 1954  * @param       clusterID - What message?
// 1955  *
// 1956  * @return      ZSuccess - successful, ZFailure if not found
// 1957  */

        RSEG BANKED_CODE:HUGECODE:NOROOT(0)
// 1958 ZStatus_t ZDO_RemoveRegisteredCB( uint8 taskID, uint16 clusterID )
ZDO_RemoveRegisteredCB:
          CFI Block cfiBlock492 Using cfiCommon0
          CFI Function ZDO_RemoveRegisteredCB
        CODE
// 1959 {
        FUNCALL ZDO_RemoveRegisteredCB, osal_mem_free
        LOCFRAME ISTACK, 0, STACK
        LOCFRAME PSTACK, 0, STACK
        LOCFRAME XSTACK, 9, STACK
        LOCFRAME IOVERLAY, 0, STATIC
        LOCFRAME DOVERLAY, 0, STATIC
        ARGFRAME ISTACK, 0, STACK
        ARGFRAME PSTACK, 0, STACK
        ARGFRAME XSTACK, 9, STACK
        ARGFRAME IOVERLAY, 0, STATIC
        ARGFRAME DOVERLAY, 0, STATIC
        MOV       A,#-0x9
        LCALL     ?BANKED_ENTER_XDATA
          CFI DPH0 load(1, XDATA, add(CFA_XSP16, literal(-1)))
          CFI DPL0 load(1, XDATA, add(CFA_XSP16, literal(-2)))
          CFI ?BRET_EXT load(1, XDATA, add(CFA_XSP16, literal(-3)))
          CFI ?RET_HIGH load(1, XDATA, add(CFA_XSP16, literal(-4)))
          CFI ?RET_LOW load(1, XDATA, add(CFA_XSP16, literal(-5)))
          CFI R7 load(1, XDATA, add(CFA_XSP16, literal(-6)))
          CFI V0 load(1, XDATA, add(CFA_XSP16, literal(-7)))
          CFI VB load(1, XDATA, add(CFA_XSP16, literal(-8)))
          CFI R6 load(1, XDATA, add(CFA_XSP16, literal(-9)))
          CFI CFA_SP SP+0
          CFI CFA_XSP16 add(XSP16, 9)
        ; Saved register size: 9
        ; Auto size: 0
        MOV       A,R1
        MOV       R6,A
// 1960   ZDO_MsgCB_t *pList;
// 1961   ZDO_MsgCB_t *pLast = NULL;
        MOV       R4,#0x0
        MOV       R5,#0x0
// 1962 
// 1963   pList = zdoMsgCBs;
        MOV       DPTR,#zdoMsgCBs
        SJMP      ??ZDO_RemoveRegisteredCB_0
// 1964   while ( pList )
// 1965   {
// 1966     if ( pList->taskID == taskID && pList->clusterID == clusterID )
// 1967     {
// 1968       if ( pLast )
// 1969       {
// 1970         // remove this one from the linked list
// 1971         pLast->next = pList->next;
// 1972       }
// 1973       else if ( pList->next )
// 1974       {
// 1975         // remove the first one from the linked list
// 1976         zdoMsgCBs = pList->next;
// 1977       }
// 1978       else
// 1979       {
// 1980         // remove the only item from the list
// 1981         zdoMsgCBs = (ZDO_MsgCB_t *)NULL;
// 1982       }
// 1983       osal_mem_free( pList );
// 1984       return ( ZSuccess );
// 1985     }
// 1986     pLast = pList;
??ZDO_RemoveRegisteredCB_1:
        MOV       A,R0
        MOV       R4,A
        MOV       A,R1
        MOV       R5,A
// 1987     pList = pList->next;
        MOV       DPL,R0
        MOV       DPH,R1
??ZDO_RemoveRegisteredCB_0:
        LCALL     ??Subroutine100_0 & 0xFFFF
??CrossCallReturnLabel_160:
        ORL       A,R1
        JZ        ??ZDO_RemoveRegisteredCB_2
        MOV       DPL,R0
        MOV       DPH,R1
        INC       DPTR
        INC       DPTR
        MOVX      A,@DPTR
        XRL       A,R6
        JNZ       ??ZDO_RemoveRegisteredCB_1
        MOV       DPL,R0
        MOV       DPH,R1
        INC       DPTR
        INC       DPTR
        INC       DPTR
        MOVX      A,@DPTR
        XRL       A,R2
        JNZ       ??ZDO_RemoveRegisteredCB_3
        INC       DPTR
        MOVX      A,@DPTR
        XRL       A,R3
??ZDO_RemoveRegisteredCB_3:
        JNZ       ??ZDO_RemoveRegisteredCB_1
        MOV       DPL,R0
        MOV       DPH,R1
        LCALL     ??Subroutine107_0 & 0xFFFF
??CrossCallReturnLabel_194:
        MOV       A,R4
        ORL       A,R5
        JZ        ??ZDO_RemoveRegisteredCB_4
        MOV       DPL,R4
        MOV       DPH,R5
        SJMP      ??ZDO_RemoveRegisteredCB_5
??ZDO_RemoveRegisteredCB_4:
        MOV       A,R2
        ORL       A,R3
        MOV       DPTR,#zdoMsgCBs
        JZ        ??ZDO_RemoveRegisteredCB_6
??ZDO_RemoveRegisteredCB_5:
        MOV       A,R2
        MOVX      @DPTR,A
        INC       DPTR
        MOV       A,R3
        SJMP      ??ZDO_RemoveRegisteredCB_7
??ZDO_RemoveRegisteredCB_6:
        CLR       A
        MOVX      @DPTR,A
        INC       DPTR
??ZDO_RemoveRegisteredCB_7:
        MOVX      @DPTR,A
        ; Setup parameters for call to function osal_mem_free
        MOV       A,R0
        MOV       R2,A
        MOV       A,R1
        MOV       R3,A
        LCALL     `??osal_mem_free::?relay`; Banked call to: osal_mem_free
        MOV       R1,#0x0
        SJMP      ??ZDO_RemoveRegisteredCB_8
// 1988   }
// 1989 
// 1990   return ( ZFailure );
??ZDO_RemoveRegisteredCB_2:
        MOV       R1,#0x1
??ZDO_RemoveRegisteredCB_8:
        LJMP      ?Subroutine7 & 0xFFFF
// 1991 }
          CFI EndBlock cfiBlock492
// 1992 
// 1993 /*********************************************************************
// 1994  * @fn          ZDO_SendMsgCBs
// 1995  *
// 1996  * @brief       This function sends messages to registered tasks.
// 1997  *              Local to ZDO and shouldn't be called outside of ZDO.
// 1998  *
// 1999  * @param       inMsg - incoming message
// 2000  *
// 2001  * @return      TRUE if sent to at least 1 task, FALSE if not
// 2002  */

        RSEG BANKED_CODE:HUGECODE:NOROOT(0)
// 2003 uint8 ZDO_SendMsgCBs( zdoIncomingMsg_t *inMsg )
ZDO_SendMsgCBs:
          CFI Block cfiBlock493 Using cfiCommon0
          CFI Function ZDO_SendMsgCBs
        CODE
// 2004 {
        FUNCALL ZDO_SendMsgCBs, osal_msg_allocate
        LOCFRAME ISTACK, 0, STACK
        LOCFRAME PSTACK, 0, STACK
        LOCFRAME XSTACK, 18, STACK
        LOCFRAME IOVERLAY, 0, STATIC
        LOCFRAME DOVERLAY, 0, STATIC
        ARGFRAME ISTACK, 0, STACK
        ARGFRAME PSTACK, 0, STACK
        ARGFRAME XSTACK, 18, STACK
        ARGFRAME IOVERLAY, 0, STATIC
        ARGFRAME DOVERLAY, 0, STATIC
        FUNCALL ZDO_SendMsgCBs, osal_memcpy
        LOCFRAME ISTACK, 0, STACK
        LOCFRAME PSTACK, 0, STACK
        LOCFRAME XSTACK, 21, STACK
        LOCFRAME IOVERLAY, 0, STATIC
        LOCFRAME DOVERLAY, 0, STATIC
        ARGFRAME ISTACK, 0, STACK
        ARGFRAME PSTACK, 0, STACK
        ARGFRAME XSTACK, 21, STACK
        ARGFRAME IOVERLAY, 0, STATIC
        ARGFRAME DOVERLAY, 0, STATIC
        FUNCALL ZDO_SendMsgCBs, osal_memcpy
        LOCFRAME ISTACK, 0, STACK
        LOCFRAME PSTACK, 0, STACK
        LOCFRAME XSTACK, 21, STACK
        LOCFRAME IOVERLAY, 0, STATIC
        LOCFRAME DOVERLAY, 0, STATIC
        ARGFRAME ISTACK, 0, STACK
        ARGFRAME PSTACK, 0, STACK
        ARGFRAME XSTACK, 21, STACK
        ARGFRAME IOVERLAY, 0, STATIC
        ARGFRAME DOVERLAY, 0, STATIC
        FUNCALL ZDO_SendMsgCBs, osal_msg_send
        LOCFRAME ISTACK, 0, STACK
        LOCFRAME PSTACK, 0, STACK
        LOCFRAME XSTACK, 18, STACK
        LOCFRAME IOVERLAY, 0, STATIC
        LOCFRAME DOVERLAY, 0, STATIC
        ARGFRAME ISTACK, 0, STACK
        ARGFRAME PSTACK, 0, STACK
        ARGFRAME XSTACK, 18, STACK
        ARGFRAME IOVERLAY, 0, STATIC
        ARGFRAME DOVERLAY, 0, STATIC
        REQUIRE ?V0
        REQUIRE ?V1
        REQUIRE ?V2
        REQUIRE ?V3
        REQUIRE ?V4
        REQUIRE ?V5
        REQUIRE ?V6
        REQUIRE ?V7
        REQUIRE ?V8
        REQUIRE ?V9
        MOV       A,#-0x12
        LCALL     ?BANKED_ENTER_XDATA
          CFI DPH0 load(1, XDATA, add(CFA_XSP16, literal(-1)))
          CFI DPL0 load(1, XDATA, add(CFA_XSP16, literal(-2)))
          CFI ?BRET_EXT load(1, XDATA, add(CFA_XSP16, literal(-3)))
          CFI ?RET_HIGH load(1, XDATA, add(CFA_XSP16, literal(-4)))
          CFI ?RET_LOW load(1, XDATA, add(CFA_XSP16, literal(-5)))
          CFI R7 load(1, XDATA, add(CFA_XSP16, literal(-6)))
          CFI V9 load(1, XDATA, add(CFA_XSP16, literal(-7)))
          CFI V8 load(1, XDATA, add(CFA_XSP16, literal(-8)))
          CFI V7 load(1, XDATA, add(CFA_XSP16, literal(-9)))
          CFI V6 load(1, XDATA, add(CFA_XSP16, literal(-10)))
          CFI V5 load(1, XDATA, add(CFA_XSP16, literal(-11)))
          CFI V4 load(1, XDATA, add(CFA_XSP16, literal(-12)))
          CFI V3 load(1, XDATA, add(CFA_XSP16, literal(-13)))
          CFI V2 load(1, XDATA, add(CFA_XSP16, literal(-14)))
          CFI V1 load(1, XDATA, add(CFA_XSP16, literal(-15)))
          CFI V0 load(1, XDATA, add(CFA_XSP16, literal(-16)))
          CFI VB load(1, XDATA, add(CFA_XSP16, literal(-17)))
          CFI R6 load(1, XDATA, add(CFA_XSP16, literal(-18)))
          CFI CFA_SP SP+0
          CFI CFA_XSP16 add(XSP16, 18)
        ; Saved register size: 18
        ; Auto size: 0
        MOV       ?V2,R2
        MOV       ?V3,R3
// 2005   uint8 ret = FALSE;
        MOV       ?V4,#0x0
// 2006   ZDO_MsgCB_t *pList = zdoMsgCBs;
        MOV       DPTR,#zdoMsgCBs
        LCALL     ??Subroutine97_0 & 0xFFFF
??CrossCallReturnLabel_152:
        MOV       A,R2
        ADD       A,#0x10
        MOV       ?V8,A
        CLR       A
        ADDC      A,?V3
        MOV       ?V9,A
        LJMP      ??CrossCallReturnLabel_153 & 0xFFFF
// 2007   while ( pList )
// 2008   {
// 2009     if ( (pList->clusterID == inMsg->clusterID)
// 2010        || ((pList->clusterID == ZDO_ALL_MSGS_CLUSTERID)
// 2011            && ((inMsg->clusterID & ZDO_RESPONSE_BIT) || (inMsg->clusterID == Device_annce))) )
??ZDO_SendMsgCBs_0:
        MOV       A,?V2
        ADD       A,#0xc
        MOV       DPL,A
        CLR       A
        ADDC      A,?V3
        MOV       DPH,A
        LCALL     ??Subroutine117_0 & 0xFFFF
??CrossCallReturnLabel_238:
        MOV       DPL,?V0
        MOV       DPH,?V1
        INC       DPTR
        INC       DPTR
        INC       DPTR
        LCALL     ??Subroutine107_0 & 0xFFFF
??CrossCallReturnLabel_195:
        MOV       A,R0
        XRL       A,R2
        JNZ       ??ZDO_SendMsgCBs_1
        MOV       A,R1
        XRL       A,R3
??ZDO_SendMsgCBs_1:
        JZ        ??ZDO_SendMsgCBs_2
        MOV       A,#-0x1
        XRL       A,R2
        JNZ       ??ZDO_SendMsgCBs_3
        MOV       A,#-0x1
        XRL       A,R3
??ZDO_SendMsgCBs_3:
        JZ        $+5
        LJMP      ??ZDO_SendMsgCBs_4 & 0xFFFF
        MOV       A,R1
        ANL       A,#0x80
        JNZ       ??ZDO_SendMsgCBs_2
        MOV       A,#0x13
        XRL       A,R0
        ORL       A,R1
        JZ        $+5
        LJMP      ??ZDO_SendMsgCBs_4 & 0xFFFF
// 2012     {
// 2013       zdoIncomingMsg_t *msgPtr;
// 2014 
// 2015       // Send the address to the task
// 2016       msgPtr = (zdoIncomingMsg_t *)osal_msg_allocate( sizeof( zdoIncomingMsg_t ) + inMsg->asduLen );
??ZDO_SendMsgCBs_2:
        ; Setup parameters for call to function osal_msg_allocate
        MOV       DPL,?V8
        MOV       DPH,?V9
        MOVX      A,@DPTR
        ADD       A,#0x17
        MOV       R2,A
        CLR       A
        ADDC      A,#0x0
        MOV       R3,A
        LCALL     `??osal_msg_allocate::?relay`; Banked call to: osal_msg_allocate
        MOV       ?V6,R2
        MOV       ?V7,R3
        MOV       R6,?V6
        MOV       R7,?V7
// 2017       if ( msgPtr )
        MOV       A,R6
        ORL       A,R7
        JZ        ??ZDO_SendMsgCBs_4
// 2018       {
// 2019         // copy struct
// 2020         osal_memcpy( msgPtr, inMsg, sizeof( zdoIncomingMsg_t ));
        ; Setup parameters for call to function osal_memcpy
        MOV       ?V4,?V2
        MOV       ?V5,?V3
        MOV       ?V6,#0x0
        MOV       R0,#?V4
        LCALL     ?PUSH_XSTACK_I_THREE
          CFI CFA_XSP16 add(XSP16, 21)
        MOV       R4,#0x17
        MOV       R5,#0x0
        LCALL     `??osal_memcpy::?relay`; Banked call to: osal_memcpy
        MOV       A,#0x3
        LCALL     ?DEALLOC_XSTACK8
          CFI CFA_XSP16 add(XSP16, 18)
// 2021 
// 2022         if ( inMsg->asduLen )
        MOV       DPL,?V8
        MOV       DPH,?V9
        MOVX      A,@DPTR
        JZ        ??ZDO_SendMsgCBs_5
// 2023         {
// 2024           msgPtr->asdu = (byte*)(((byte*)msgPtr) + sizeof( zdoIncomingMsg_t ));
        MOV       A,R6
        ADD       A,#0x17
        MOV       R2,A
        CLR       A
        ADDC      A,R7
        MOV       R3,A
        MOV       A,R6
        ADD       A,#0x13
        MOV       DPL,A
        CLR       A
        ADDC      A,R7
        MOV       DPH,A
        MOV       A,R2
        MOVX      @DPTR,A
        INC       DPTR
        MOV       A,R3
        MOVX      @DPTR,A
// 2025           osal_memcpy( msgPtr->asdu, inMsg->asdu, inMsg->asduLen );
        ; Setup parameters for call to function osal_memcpy
        MOV       A,?V2
        ADD       A,#0x13
        MOV       DPL,A
        CLR       A
        ADDC      A,?V3
        MOV       DPH,A
        MOVX      A,@DPTR
        MOV       ?V4,A
        INC       DPTR
        MOVX      A,@DPTR
        MOV       ?V5,A
        MOV       R0,#?V4
        LCALL     ?PUSH_XSTACK_I_THREE
          CFI CFA_XSP16 add(XSP16, 21)
        MOV       DPL,?V8
        MOV       DPH,?V9
        MOVX      A,@DPTR
        MOV       R4,A
        MOV       R5,#0x0
        LCALL     `??osal_memcpy::?relay`; Banked call to: osal_memcpy
        MOV       A,#0x3
        LCALL     ?DEALLOC_XSTACK8
          CFI CFA_XSP16 add(XSP16, 18)
// 2026         }
// 2027 
// 2028         msgPtr->hdr.event = ZDO_CB_MSG;
??ZDO_SendMsgCBs_5:
        MOV       DPL,R6
        MOV       DPH,R7
        MOV       A,#-0x2d
        MOVX      @DPTR,A
// 2029         osal_msg_send( pList->taskID, (uint8 *)msgPtr );
        ; Setup parameters for call to function osal_msg_send
        MOV       A,R6
        MOV       R2,A
        MOV       A,R7
        MOV       R3,A
        MOV       DPL,?V0
        MOV       DPH,?V1
        INC       DPTR
        INC       DPTR
        MOVX      A,@DPTR
        MOV       R1,A
        LCALL     `??osal_msg_send::?relay`; Banked call to: osal_msg_send
// 2030         ret = TRUE;
        MOV       ?V4,#0x1
// 2031       }
// 2032     }
// 2033     pList = (ZDO_MsgCB_t *)pList->next;
??ZDO_SendMsgCBs_4:
        MOV       DPL,?V0
        MOV       DPH,?V1
        LCALL     ??Subroutine97_0 & 0xFFFF
// 2034   }
??CrossCallReturnLabel_153:
        MOV       A,?V0
        ORL       A,?V1
        JZ        $+5
        LJMP      ??ZDO_SendMsgCBs_0 & 0xFFFF
// 2035   return ( ret );
        MOV       R1,?V4
        LJMP      ??Subroutine104_0 & 0xFFFF
// 2036 }
          CFI EndBlock cfiBlock493
// 2037 
// 2038 /*********************************************************************
// 2039  * Incoming message processor
// 2040  */
// 2041 
// 2042 /*********************************************************************
// 2043  * @fn          ZDP_IncomingData
// 2044  *
// 2045  * @brief       This function indicates the transfer of a data PDU (ASDU)
// 2046  *              from the APS sub-layer to the ZDO.
// 2047  *
// 2048  * @param       pData - Incoming Message
// 2049  *
// 2050  * @return      none
// 2051  */

        RSEG BANKED_CODE:HUGECODE:NOROOT(0)
// 2052 void ZDP_IncomingData( afIncomingMSGPacket_t *pData )
ZDP_IncomingData:
          CFI Block cfiBlock494 Using cfiCommon0
          CFI Function ZDP_IncomingData
        CODE
// 2053 {
        FUNCALL ZDP_IncomingData, ZDO_SendMsgCBs
        LOCFRAME ISTACK, 0, STACK
        LOCFRAME PSTACK, 0, STACK
        LOCFRAME XSTACK, 33, STACK
        LOCFRAME IOVERLAY, 0, STATIC
        LOCFRAME DOVERLAY, 0, STATIC
        ARGFRAME ISTACK, 0, STACK
        ARGFRAME PSTACK, 0, STACK
        ARGFRAME XSTACK, 33, STACK
        ARGFRAME IOVERLAY, 0, STATIC
        ARGFRAME DOVERLAY, 0, STATIC
        FUNCALL ZDP_IncomingData, ZDApp_InMsgCB
        LOCFRAME ISTACK, 0, STACK
        LOCFRAME PSTACK, 0, STACK
        LOCFRAME XSTACK, 33, STACK
        LOCFRAME IOVERLAY, 0, STATIC
        LOCFRAME DOVERLAY, 0, STATIC
        ARGFRAME ISTACK, 0, STACK
        ARGFRAME PSTACK, 0, STACK
        ARGFRAME XSTACK, 33, STACK
        ARGFRAME IOVERLAY, 0, STATIC
        ARGFRAME DOVERLAY, 0, STATIC
        REQUIRE ?V0
        REQUIRE ?V1
        MOV       A,#-0xa
        LCALL     ?BANKED_ENTER_XDATA
          CFI DPH0 load(1, XDATA, add(CFA_XSP16, literal(-1)))
          CFI DPL0 load(1, XDATA, add(CFA_XSP16, literal(-2)))
          CFI ?BRET_EXT load(1, XDATA, add(CFA_XSP16, literal(-3)))
          CFI ?RET_HIGH load(1, XDATA, add(CFA_XSP16, literal(-4)))
          CFI ?RET_LOW load(1, XDATA, add(CFA_XSP16, literal(-5)))
          CFI R7 load(1, XDATA, add(CFA_XSP16, literal(-6)))
          CFI V1 load(1, XDATA, add(CFA_XSP16, literal(-7)))
          CFI V0 load(1, XDATA, add(CFA_XSP16, literal(-8)))
          CFI VB load(1, XDATA, add(CFA_XSP16, literal(-9)))
          CFI R6 load(1, XDATA, add(CFA_XSP16, literal(-10)))
          CFI CFA_SP SP+0
          CFI CFA_XSP16 add(XSP16, 10)
        ; Saved register size: 10
        ; Auto size: 23
        MOV       A,#-0x17
        LCALL     ?ALLOC_XSTACK8
          CFI CFA_XSP16 add(XSP16, 33)
// 2054   uint8 x = 0;
        MOV       R6,#0x0
// 2055   uint8 handled;
// 2056   zdoIncomingMsg_t inMsg;
// 2057 
// 2058   inMsg.srcAddr.addrMode = Addr16Bit;
        MOV       A,#0xa
        LCALL     ?XSTACK_DISP0_8
        MOV       A,#0x2
        LCALL     ?Subroutine16 & 0xFFFF
// 2059   inMsg.srcAddr.addr.shortAddr = pData->srcAddr.addr.shortAddr;
??CrossCallReturnLabel_14:
        INC       DPTR
        INC       DPTR
        LCALL     ??Subroutine117_0 & 0xFFFF
??CrossCallReturnLabel_239:
        MOV       A,#0x2
        LCALL     ?XSTACK_DISP0_8
        LCALL     ?Subroutine28 & 0xFFFF
// 2060   inMsg.wasBroadcast = pData->wasBroadcast;
??CrossCallReturnLabel_40:
        MOV       A,R2
        ADD       A,#0x15
        MOV       DPL,A
        CLR       A
        ADDC      A,R3
        MOV       DPH,A
        MOVX      A,@DPTR
        PUSH      A
          CFI CFA_SP SP+-1
        MOV       A,#0xb
        LCALL     ?XSTACK_DISP0_8
        POP       A
          CFI CFA_SP SP+0
        LCALL     ?Subroutine16 & 0xFFFF
// 2061   inMsg.clusterID = pData->clusterId;
??CrossCallReturnLabel_15:
        LCALL     ??Subroutine117_0 & 0xFFFF
??CrossCallReturnLabel_240:
        MOV       A,#0xc
        LCALL     ?XSTACK_DISP0_8
        LCALL     ?Subroutine28 & 0xFFFF
// 2062   inMsg.SecurityUse = pData->SecurityUse;
??CrossCallReturnLabel_41:
        MOV       A,R2
        ADD       A,#0x19
        MOV       DPL,A
        CLR       A
        ADDC      A,R3
        MOV       DPH,A
        MOVX      A,@DPTR
        PUSH      A
          CFI CFA_SP SP+-1
        MOV       A,#0xe
        LCALL     ?XSTACK_DISP0_8
        POP       A
          CFI CFA_SP SP+0
        MOVX      @DPTR,A
// 2063 
// 2064   inMsg.asduLen = pData->cmd.DataLength-1;
        MOV       A,R2
        ADD       A,#0x20
        MOV       DPL,A
        CLR       A
        ADDC      A,R3
        MOV       DPH,A
        MOVX      A,@DPTR
        DEC       A
        PUSH      A
          CFI CFA_SP SP+-1
        MOV       A,#0x10
        LCALL     ?XSTACK_DISP0_8
        POP       A
          CFI CFA_SP SP+0
        MOVX      @DPTR,A
// 2065   inMsg.asdu = pData->cmd.Data+1;
        MOV       A,R2
        ADD       A,#0x22
        MOV       R0,A
        CLR       A
        ADDC      A,R3
        MOV       R1,A
        MOV       DPL,R0
        MOV       DPH,R1
        MOVX      A,@DPTR
        ADD       A,#0x1
        MOV       R4,A
        INC       DPTR
        MOVX      A,@DPTR
        ADDC      A,#0x0
        MOV       R5,A
        MOV       A,#0x13
        LCALL     ?XSTACK_DISP0_8
        MOV       A,R4
        MOVX      @DPTR,A
        INC       DPTR
        MOV       A,R5
        LCALL     ??Subroutine101_0 & 0xFFFF
// 2066   inMsg.TransSeq = pData->cmd.Data[0];
??CrossCallReturnLabel_170:
        LCALL     ??Subroutine103_0 & 0xFFFF
??CrossCallReturnLabel_174:
        MOVX      A,@DPTR
        PUSH      A
          CFI CFA_SP SP+-1
        MOV       A,#0xf
        LCALL     ?XSTACK_DISP0_8
        POP       A
          CFI CFA_SP SP+0
        MOVX      @DPTR,A
// 2067   inMsg.macDestAddr = pData->macDestAddr;
        MOV       A,R2
        ADD       A,#0x12
        MOV       DPL,A
        CLR       A
        ADDC      A,R3
        MOV       DPH,A
        LCALL     ??Subroutine117_0 & 0xFFFF
??CrossCallReturnLabel_241:
        MOV       A,#0x11
        LCALL     ?XSTACK_DISP0_8
        LCALL     ?Subroutine28 & 0xFFFF
// 2068   inMsg.macSrcAddr = pData->macSrcAddr;
??CrossCallReturnLabel_42:
        MOV       A,R2
        ADD       A,#0x24
        MOV       DPL,A
        CLR       A
        ADDC      A,R3
        MOV       DPH,A
        LCALL     ??Subroutine117_0 & 0xFFFF
??CrossCallReturnLabel_242:
        MOV       A,#0x15
        LCALL     ?XSTACK_DISP0_8
        LCALL     ?Subroutine28 & 0xFFFF
// 2069 
// 2070   handled = ZDO_SendMsgCBs( &inMsg );
??CrossCallReturnLabel_43:
        ; Setup parameters for call to function ZDO_SendMsgCBs
        MOV       R2,?XSP + 0
        MOV       R3,?XSP + 1
        LCALL     `??ZDO_SendMsgCBs::?relay`; Banked call to: ZDO_SendMsgCBs
        MOV       A,R1
        MOV       R4,A
        SJMP      ??ZDP_IncomingData_0
// 2071 
// 2072 #if (defined MT_ZDO_CB_FUNC)
// 2073 #if !defined MT_TASK
// 2074   if (zgZdoDirectCB)
// 2075 #endif
// 2076   {
// 2077     MT_ZdoDirectCB( pData, &inMsg );
// 2078   }
// 2079 #endif
// 2080 
// 2081   while ( zdpMsgProcs[x].clusterID != 0xFFFF )
// 2082   {
// 2083     if ( zdpMsgProcs[x].clusterID == inMsg.clusterID )
// 2084     {
// 2085       zdpMsgProcs[x].pFn( &inMsg );
// 2086       return;
// 2087     }
// 2088     x++;
??ZDP_IncomingData_1:
        INC       R6
??ZDP_IncomingData_0:
        MOV       A,R6
        MOV       ?V0,A
        MOV       ?V1,#0x0
        MOV       A,#0x2
        MOV       R0,#?V0
        LCALL     ?S_SHL
        MOV       A,#zdpMsgProcs & 0xff
        ADD       A,?V0
        MOV       R0,A
        MOV       A,#(zdpMsgProcs >> 8) & 0xff
        ADDC      A,?V1
        MOV       R1,A
        MOV       DPL,R0
        MOV       DPH,R1
        CLR       A
        MOVC      A,@A+DPTR
        PUSH      A
          CFI CFA_SP SP+-1
        MOV       A,#0x1
        MOVC      A,@A+DPTR
        MOV       DPH,A
        POP       DPL
          CFI CFA_SP SP+0
        MOV       R2,DPL
        MOV       R3,DPH
        MOV       A,#-0x1
        XRL       A,R2
        JNZ       ??ZDP_IncomingData_2
        MOV       A,#-0x1
        XRL       A,R3
??ZDP_IncomingData_2:
        JZ        ??ZDP_IncomingData_3
        MOV       A,#0xc
        LCALL     ?XSTACK_DISP0_8
        MOVX      A,@DPTR
        XRL       A,R2
        JNZ       ??ZDP_IncomingData_4
        INC       DPTR
        MOVX      A,@DPTR
        XRL       A,R3
??ZDP_IncomingData_4:
        JNZ       ??ZDP_IncomingData_1
        ; Setup parameters for indirect call
        MOV       R2,?XSP + 0
        MOV       R3,?XSP + 1
        MOV       DPL,R0
        MOV       DPH,R1
        INC       DPTR
        INC       DPTR
        CLR       A
        MOVC      A,@A+DPTR
        PUSH      A
          CFI CFA_SP SP+-1
        MOV       A,#0x1
        MOVC      A,@A+DPTR
        MOV       DPH,A
        POP       DPL
          CFI CFA_SP SP+0
        LCALL     ?CALL_IND
        SJMP      ??ZDP_IncomingData_5
// 2089   }
// 2090 
// 2091   // Handle unhandled messages
// 2092   if ( !handled )
??ZDP_IncomingData_3:
        MOV       A,R4
        JNZ       ??ZDP_IncomingData_5
// 2093     ZDApp_InMsgCB( &inMsg );
        ; Setup parameters for call to function ZDApp_InMsgCB
        MOV       R2,?XSP + 0
        MOV       R3,?XSP + 1
        LCALL     `??ZDApp_InMsgCB::?relay`; Banked call to: ZDApp_InMsgCB
// 2094 }
??ZDP_IncomingData_5:
        MOV       A,#0x17
        LJMP      ??Subroutine95_0 & 0xFFFF
          CFI EndBlock cfiBlock494

        RSEG BANKED_CODE:HUGECODE:NOROOT(0)
?Subroutine57:
          CFI Block cfiCond495 Using cfiCommon0
          CFI Function ZDP_UserDescSet
          CFI Conditional ??CrossCallReturnLabel_230
          CFI R6 load(1, XDATA, add(CFA_XSP16, literal(-15)))
          CFI VB load(1, XDATA, add(CFA_XSP16, literal(-14)))
          CFI V0 load(1, XDATA, add(CFA_XSP16, literal(-13)))
          CFI V1 load(1, XDATA, add(CFA_XSP16, literal(-12)))
          CFI V2 load(1, XDATA, add(CFA_XSP16, literal(-11)))
          CFI V3 load(1, XDATA, add(CFA_XSP16, literal(-10)))
          CFI V4 load(1, XDATA, add(CFA_XSP16, literal(-9)))
          CFI V5 load(1, XDATA, add(CFA_XSP16, literal(-8)))
          CFI V6 load(1, XDATA, add(CFA_XSP16, literal(-7)))
          CFI R7 load(1, XDATA, add(CFA_XSP16, literal(-6)))
          CFI ?RET_LOW load(1, XDATA, add(CFA_XSP16, literal(-5)))
          CFI ?RET_HIGH load(1, XDATA, add(CFA_XSP16, literal(-4)))
          CFI ?BRET_EXT load(1, XDATA, add(CFA_XSP16, literal(-3)))
          CFI DPL0 load(1, XDATA, add(CFA_XSP16, literal(-2)))
          CFI DPH0 load(1, XDATA, add(CFA_XSP16, literal(-1)))
          CFI CFA_SP SP+-2
          CFI CFA_XSP16 add(XSP16, 15)
          CFI Block cfiCond496 Using cfiCommon0
          CFI (cfiCond496) Function ZDP_UserDescRsp
          CFI (cfiCond496) Conditional ??CrossCallReturnLabel_231
          CFI (cfiCond496) R6 load(1, XDATA, add(CFA_XSP16, literal(-18)))
          CFI (cfiCond496) VB load(1, XDATA, add(CFA_XSP16, literal(-17)))
          CFI (cfiCond496) V0 load(1, XDATA, add(CFA_XSP16, literal(-16)))
          CFI (cfiCond496) V1 load(1, XDATA, add(CFA_XSP16, literal(-15)))
          CFI (cfiCond496) V2 load(1, XDATA, add(CFA_XSP16, literal(-14)))
          CFI (cfiCond496) V3 load(1, XDATA, add(CFA_XSP16, literal(-13)))
          CFI (cfiCond496) V4 load(1, XDATA, add(CFA_XSP16, literal(-12)))
          CFI (cfiCond496) V5 load(1, XDATA, add(CFA_XSP16, literal(-11)))
          CFI (cfiCond496) V6 load(1, XDATA, add(CFA_XSP16, literal(-10)))
          CFI (cfiCond496) V7 load(1, XDATA, add(CFA_XSP16, literal(-9)))
          CFI (cfiCond496) V8 load(1, XDATA, add(CFA_XSP16, literal(-8)))
          CFI (cfiCond496) V9 load(1, XDATA, add(CFA_XSP16, literal(-7)))
          CFI (cfiCond496) R7 load(1, XDATA, add(CFA_XSP16, literal(-6)))
          CFI (cfiCond496) ?RET_LOW load(1, XDATA, add(CFA_XSP16, literal(-5)))
          CFI (cfiCond496) ?RET_HIGH load(1, XDATA, add(CFA_XSP16, literal(-4)))
          CFI (cfiCond496) ?BRET_EXT load(1, XDATA, add(CFA_XSP16, literal(-3)))
          CFI (cfiCond496) DPL0 load(1, XDATA, add(CFA_XSP16, literal(-2)))
          CFI (cfiCond496) DPH0 load(1, XDATA, add(CFA_XSP16, literal(-1)))
          CFI (cfiCond496) CFA_SP SP+-2
          CFI (cfiCond496) CFA_XSP16 add(XSP16, 19)
          CFI Block cfiPicker497 Using cfiCommon1
          CFI (cfiPicker497) NoFunction
          CFI (cfiPicker497) Picker
        MOV       A,R2
        MOV       R6,A
        MOV       A,R3
          CFI EndBlock cfiCond495
          CFI EndBlock cfiCond496
          CFI EndBlock cfiPicker497
        REQUIRE ??Subroutine115_0
        ; // Fall through to label ??Subroutine115_0

        RSEG BANKED_CODE:HUGECODE:NOROOT(0)
??Subroutine115_0:
          CFI Block cfiCond498 Using cfiCommon0
          CFI Function ZDP_IEEEAddrReq
          CFI Conditional ??CrossCallReturnLabel_232
          CFI R6 load(1, XDATA, add(CFA_XSP16, literal(-10)))
          CFI VB load(1, XDATA, add(CFA_XSP16, literal(-9)))
          CFI V0 load(1, XDATA, add(CFA_XSP16, literal(-8)))
          CFI V1 load(1, XDATA, add(CFA_XSP16, literal(-7)))
          CFI R7 load(1, XDATA, add(CFA_XSP16, literal(-6)))
          CFI ?RET_LOW load(1, XDATA, add(CFA_XSP16, literal(-5)))
          CFI ?RET_HIGH load(1, XDATA, add(CFA_XSP16, literal(-4)))
          CFI ?BRET_EXT load(1, XDATA, add(CFA_XSP16, literal(-3)))
          CFI DPL0 load(1, XDATA, add(CFA_XSP16, literal(-2)))
          CFI DPH0 load(1, XDATA, add(CFA_XSP16, literal(-1)))
          CFI CFA_SP SP+-2
          CFI CFA_XSP16 add(XSP16, 19)
          CFI Block cfiCond499 Using cfiCommon0
          CFI (cfiCond499) Function ZDP_UserDescSet
          CFI (cfiCond499) Conditional ??CrossCallReturnLabel_230
          CFI (cfiCond499) R6 load(1, XDATA, add(CFA_XSP16, literal(-15)))
          CFI (cfiCond499) VB load(1, XDATA, add(CFA_XSP16, literal(-14)))
          CFI (cfiCond499) V0 load(1, XDATA, add(CFA_XSP16, literal(-13)))
          CFI (cfiCond499) V1 load(1, XDATA, add(CFA_XSP16, literal(-12)))
          CFI (cfiCond499) V2 load(1, XDATA, add(CFA_XSP16, literal(-11)))
          CFI (cfiCond499) V3 load(1, XDATA, add(CFA_XSP16, literal(-10)))
          CFI (cfiCond499) V4 load(1, XDATA, add(CFA_XSP16, literal(-9)))
          CFI (cfiCond499) V5 load(1, XDATA, add(CFA_XSP16, literal(-8)))
          CFI (cfiCond499) V6 load(1, XDATA, add(CFA_XSP16, literal(-7)))
          CFI (cfiCond499) R7 load(1, XDATA, add(CFA_XSP16, literal(-6)))
          CFI (cfiCond499) ?RET_LOW load(1, XDATA, add(CFA_XSP16, literal(-5)))
          CFI (cfiCond499) ?RET_HIGH load(1, XDATA, add(CFA_XSP16, literal(-4)))
          CFI (cfiCond499) ?BRET_EXT load(1, XDATA, add(CFA_XSP16, literal(-3)))
          CFI (cfiCond499) DPL0 load(1, XDATA, add(CFA_XSP16, literal(-2)))
          CFI (cfiCond499) DPH0 load(1, XDATA, add(CFA_XSP16, literal(-1)))
          CFI (cfiCond499) CFA_SP SP+-2
          CFI (cfiCond499) CFA_XSP16 add(XSP16, 15)
          CFI Block cfiCond500 Using cfiCommon0
          CFI (cfiCond500) Function ZDP_UserDescRsp
          CFI (cfiCond500) Conditional ??CrossCallReturnLabel_231
          CFI (cfiCond500) R6 load(1, XDATA, add(CFA_XSP16, literal(-18)))
          CFI (cfiCond500) VB load(1, XDATA, add(CFA_XSP16, literal(-17)))
          CFI (cfiCond500) V0 load(1, XDATA, add(CFA_XSP16, literal(-16)))
          CFI (cfiCond500) V1 load(1, XDATA, add(CFA_XSP16, literal(-15)))
          CFI (cfiCond500) V2 load(1, XDATA, add(CFA_XSP16, literal(-14)))
          CFI (cfiCond500) V3 load(1, XDATA, add(CFA_XSP16, literal(-13)))
          CFI (cfiCond500) V4 load(1, XDATA, add(CFA_XSP16, literal(-12)))
          CFI (cfiCond500) V5 load(1, XDATA, add(CFA_XSP16, literal(-11)))
          CFI (cfiCond500) V6 load(1, XDATA, add(CFA_XSP16, literal(-10)))
          CFI (cfiCond500) V7 load(1, XDATA, add(CFA_XSP16, literal(-9)))
          CFI (cfiCond500) V8 load(1, XDATA, add(CFA_XSP16, literal(-8)))
          CFI (cfiCond500) V9 load(1, XDATA, add(CFA_XSP16, literal(-7)))
          CFI (cfiCond500) R7 load(1, XDATA, add(CFA_XSP16, literal(-6)))
          CFI (cfiCond500) ?RET_LOW load(1, XDATA, add(CFA_XSP16, literal(-5)))
          CFI (cfiCond500) ?RET_HIGH load(1, XDATA, add(CFA_XSP16, literal(-4)))
          CFI (cfiCond500) ?BRET_EXT load(1, XDATA, add(CFA_XSP16, literal(-3)))
          CFI (cfiCond500) DPL0 load(1, XDATA, add(CFA_XSP16, literal(-2)))
          CFI (cfiCond500) DPH0 load(1, XDATA, add(CFA_XSP16, literal(-1)))
          CFI (cfiCond500) CFA_SP SP+-2
          CFI (cfiCond500) CFA_XSP16 add(XSP16, 19)
          CFI Block cfiPicker501 Using cfiCommon1
          CFI (cfiPicker501) NoFunction
          CFI (cfiPicker501) Picker
        MOV       R7,A
          CFI EndBlock cfiCond498
          CFI EndBlock cfiCond499
          CFI EndBlock cfiCond500
          CFI EndBlock cfiPicker501
        REQUIRE ??Subroutine116_0
        ; // Fall through to label ??Subroutine116_0

        RSEG BANKED_CODE:HUGECODE:NOROOT(0)
??Subroutine116_0:
          CFI Block cfiCond502 Using cfiCommon0
          CFI Function ZDP_MatchDescReq
          CFI Conditional ??CrossCallReturnLabel_243
          CFI R6 load(1, XDATA, add(CFA_XSP16, literal(-14)))
          CFI VB load(1, XDATA, add(CFA_XSP16, literal(-13)))
          CFI V0 load(1, XDATA, add(CFA_XSP16, literal(-12)))
          CFI V1 load(1, XDATA, add(CFA_XSP16, literal(-11)))
          CFI V2 load(1, XDATA, add(CFA_XSP16, literal(-10)))
          CFI V3 load(1, XDATA, add(CFA_XSP16, literal(-9)))
          CFI V4 load(1, XDATA, add(CFA_XSP16, literal(-8)))
          CFI V5 load(1, XDATA, add(CFA_XSP16, literal(-7)))
          CFI R7 load(1, XDATA, add(CFA_XSP16, literal(-6)))
          CFI ?RET_LOW load(1, XDATA, add(CFA_XSP16, literal(-5)))
          CFI ?RET_HIGH load(1, XDATA, add(CFA_XSP16, literal(-4)))
          CFI ?BRET_EXT load(1, XDATA, add(CFA_XSP16, literal(-3)))
          CFI DPL0 load(1, XDATA, add(CFA_XSP16, literal(-2)))
          CFI DPH0 load(1, XDATA, add(CFA_XSP16, literal(-1)))
          CFI CFA_SP SP+-2
          CFI CFA_XSP16 add(XSP16, 14)
          CFI Block cfiCond503 Using cfiCommon0
          CFI (cfiCond503) Function ZDP_ServerDiscReq
          CFI (cfiCond503) Conditional ??CrossCallReturnLabel_244
          CFI (cfiCond503) R6 load(1, XDATA, add(CFA_XSP16, literal(-10)))
          CFI (cfiCond503) VB load(1, XDATA, add(CFA_XSP16, literal(-9)))
          CFI (cfiCond503) V0 load(1, XDATA, add(CFA_XSP16, literal(-8)))
          CFI (cfiCond503) V1 load(1, XDATA, add(CFA_XSP16, literal(-7)))
          CFI (cfiCond503) R7 load(1, XDATA, add(CFA_XSP16, literal(-6)))
          CFI (cfiCond503) ?RET_LOW load(1, XDATA, add(CFA_XSP16, literal(-5)))
          CFI (cfiCond503) ?RET_HIGH load(1, XDATA, add(CFA_XSP16, literal(-4)))
          CFI (cfiCond503) ?BRET_EXT load(1, XDATA, add(CFA_XSP16, literal(-3)))
          CFI (cfiCond503) DPL0 load(1, XDATA, add(CFA_XSP16, literal(-2)))
          CFI (cfiCond503) DPH0 load(1, XDATA, add(CFA_XSP16, literal(-1)))
          CFI (cfiCond503) CFA_SP SP+-2
          CFI (cfiCond503) CFA_XSP16 add(XSP16, 19)
          CFI Block cfiCond504 Using cfiCommon0
          CFI (cfiCond504) Function ZDP_SimpleDescMsg
          CFI (cfiCond504) Conditional ??CrossCallReturnLabel_245
          CFI (cfiCond504) R6 load(1, XDATA, add(CFA_XSP16, literal(-20)))
          CFI (cfiCond504) VB load(1, XDATA, add(CFA_XSP16, literal(-19)))
          CFI (cfiCond504) V0 load(1, XDATA, add(CFA_XSP16, literal(-18)))
          CFI (cfiCond504) V1 load(1, XDATA, add(CFA_XSP16, literal(-17)))
          CFI (cfiCond504) V2 load(1, XDATA, add(CFA_XSP16, literal(-16)))
          CFI (cfiCond504) V3 load(1, XDATA, add(CFA_XSP16, literal(-15)))
          CFI (cfiCond504) V4 load(1, XDATA, add(CFA_XSP16, literal(-14)))
          CFI (cfiCond504) V5 load(1, XDATA, add(CFA_XSP16, literal(-13)))
          CFI (cfiCond504) V6 load(1, XDATA, add(CFA_XSP16, literal(-12)))
          CFI (cfiCond504) V7 load(1, XDATA, add(CFA_XSP16, literal(-11)))
          CFI (cfiCond504) V8 load(1, XDATA, add(CFA_XSP16, literal(-10)))
          CFI (cfiCond504) V9 load(1, XDATA, add(CFA_XSP16, literal(-9)))
          CFI (cfiCond504) V10 load(1, XDATA, add(CFA_XSP16, literal(-8)))
          CFI (cfiCond504) V11 load(1, XDATA, add(CFA_XSP16, literal(-7)))
          CFI (cfiCond504) R7 load(1, XDATA, add(CFA_XSP16, literal(-6)))
          CFI (cfiCond504) ?RET_LOW load(1, XDATA, add(CFA_XSP16, literal(-5)))
          CFI (cfiCond504) ?RET_HIGH load(1, XDATA, add(CFA_XSP16, literal(-4)))
          CFI (cfiCond504) ?BRET_EXT load(1, XDATA, add(CFA_XSP16, literal(-3)))
          CFI (cfiCond504) DPL0 load(1, XDATA, add(CFA_XSP16, literal(-2)))
          CFI (cfiCond504) DPH0 load(1, XDATA, add(CFA_XSP16, literal(-1)))
          CFI (cfiCond504) CFA_SP SP+-2
          CFI (cfiCond504) CFA_XSP16 add(XSP16, 20)
          CFI Block cfiCond505 Using cfiCommon0
          CFI (cfiCond505) Function ZDP_IEEEAddrReq
          CFI (cfiCond505) Conditional ??CrossCallReturnLabel_232
          CFI (cfiCond505) R6 load(1, XDATA, add(CFA_XSP16, literal(-10)))
          CFI (cfiCond505) VB load(1, XDATA, add(CFA_XSP16, literal(-9)))
          CFI (cfiCond505) V0 load(1, XDATA, add(CFA_XSP16, literal(-8)))
          CFI (cfiCond505) V1 load(1, XDATA, add(CFA_XSP16, literal(-7)))
          CFI (cfiCond505) R7 load(1, XDATA, add(CFA_XSP16, literal(-6)))
          CFI (cfiCond505) ?RET_LOW load(1, XDATA, add(CFA_XSP16, literal(-5)))
          CFI (cfiCond505) ?RET_HIGH load(1, XDATA, add(CFA_XSP16, literal(-4)))
          CFI (cfiCond505) ?BRET_EXT load(1, XDATA, add(CFA_XSP16, literal(-3)))
          CFI (cfiCond505) DPL0 load(1, XDATA, add(CFA_XSP16, literal(-2)))
          CFI (cfiCond505) DPH0 load(1, XDATA, add(CFA_XSP16, literal(-1)))
          CFI (cfiCond505) CFA_SP SP+-2
          CFI (cfiCond505) CFA_XSP16 add(XSP16, 19)
          CFI Block cfiCond506 Using cfiCommon0
          CFI (cfiCond506) Function ZDP_UserDescSet
          CFI (cfiCond506) Conditional ??CrossCallReturnLabel_230
          CFI (cfiCond506) R6 load(1, XDATA, add(CFA_XSP16, literal(-15)))
          CFI (cfiCond506) VB load(1, XDATA, add(CFA_XSP16, literal(-14)))
          CFI (cfiCond506) V0 load(1, XDATA, add(CFA_XSP16, literal(-13)))
          CFI (cfiCond506) V1 load(1, XDATA, add(CFA_XSP16, literal(-12)))
          CFI (cfiCond506) V2 load(1, XDATA, add(CFA_XSP16, literal(-11)))
          CFI (cfiCond506) V3 load(1, XDATA, add(CFA_XSP16, literal(-10)))
          CFI (cfiCond506) V4 load(1, XDATA, add(CFA_XSP16, literal(-9)))
          CFI (cfiCond506) V5 load(1, XDATA, add(CFA_XSP16, literal(-8)))
          CFI (cfiCond506) V6 load(1, XDATA, add(CFA_XSP16, literal(-7)))
          CFI (cfiCond506) R7 load(1, XDATA, add(CFA_XSP16, literal(-6)))
          CFI (cfiCond506) ?RET_LOW load(1, XDATA, add(CFA_XSP16, literal(-5)))
          CFI (cfiCond506) ?RET_HIGH load(1, XDATA, add(CFA_XSP16, literal(-4)))
          CFI (cfiCond506) ?BRET_EXT load(1, XDATA, add(CFA_XSP16, literal(-3)))
          CFI (cfiCond506) DPL0 load(1, XDATA, add(CFA_XSP16, literal(-2)))
          CFI (cfiCond506) DPH0 load(1, XDATA, add(CFA_XSP16, literal(-1)))
          CFI (cfiCond506) CFA_SP SP+-2
          CFI (cfiCond506) CFA_XSP16 add(XSP16, 15)
          CFI Block cfiCond507 Using cfiCommon0
          CFI (cfiCond507) Function ZDP_UserDescRsp
          CFI (cfiCond507) Conditional ??CrossCallReturnLabel_231
          CFI (cfiCond507) R6 load(1, XDATA, add(CFA_XSP16, literal(-18)))
          CFI (cfiCond507) VB load(1, XDATA, add(CFA_XSP16, literal(-17)))
          CFI (cfiCond507) V0 load(1, XDATA, add(CFA_XSP16, literal(-16)))
          CFI (cfiCond507) V1 load(1, XDATA, add(CFA_XSP16, literal(-15)))
          CFI (cfiCond507) V2 load(1, XDATA, add(CFA_XSP16, literal(-14)))
          CFI (cfiCond507) V3 load(1, XDATA, add(CFA_XSP16, literal(-13)))
          CFI (cfiCond507) V4 load(1, XDATA, add(CFA_XSP16, literal(-12)))
          CFI (cfiCond507) V5 load(1, XDATA, add(CFA_XSP16, literal(-11)))
          CFI (cfiCond507) V6 load(1, XDATA, add(CFA_XSP16, literal(-10)))
          CFI (cfiCond507) V7 load(1, XDATA, add(CFA_XSP16, literal(-9)))
          CFI (cfiCond507) V8 load(1, XDATA, add(CFA_XSP16, literal(-8)))
          CFI (cfiCond507) V9 load(1, XDATA, add(CFA_XSP16, literal(-7)))
          CFI (cfiCond507) R7 load(1, XDATA, add(CFA_XSP16, literal(-6)))
          CFI (cfiCond507) ?RET_LOW load(1, XDATA, add(CFA_XSP16, literal(-5)))
          CFI (cfiCond507) ?RET_HIGH load(1, XDATA, add(CFA_XSP16, literal(-4)))
          CFI (cfiCond507) ?BRET_EXT load(1, XDATA, add(CFA_XSP16, literal(-3)))
          CFI (cfiCond507) DPL0 load(1, XDATA, add(CFA_XSP16, literal(-2)))
          CFI (cfiCond507) DPH0 load(1, XDATA, add(CFA_XSP16, literal(-1)))
          CFI (cfiCond507) CFA_SP SP+-2
          CFI (cfiCond507) CFA_XSP16 add(XSP16, 19)
          CFI Block cfiPicker508 Using cfiCommon1
          CFI (cfiPicker508) NoFunction
          CFI (cfiPicker508) Picker
        MOV       DPTR,#ZDP_TmpBuf
          CFI EndBlock cfiCond502
          CFI EndBlock cfiCond503
          CFI EndBlock cfiCond504
          CFI EndBlock cfiCond505
          CFI EndBlock cfiCond506
          CFI EndBlock cfiCond507
          CFI EndBlock cfiPicker508
        REQUIRE ??Subroutine117_0
        ; // Fall through to label ??Subroutine117_0

        RSEG BANKED_CODE:HUGECODE:NOROOT(0)
??Subroutine117_0:
          CFI Block cfiCond509 Using cfiCommon0
          CFI Function ZDP_SendData
          CFI Conditional ??CrossCallReturnLabel_233
          CFI R6 load(1, XDATA, add(CFA_XSP16, literal(-12)))
          CFI VB load(1, XDATA, add(CFA_XSP16, literal(-11)))
          CFI V0 load(1, XDATA, add(CFA_XSP16, literal(-10)))
          CFI V1 load(1, XDATA, add(CFA_XSP16, literal(-9)))
          CFI V2 load(1, XDATA, add(CFA_XSP16, literal(-8)))
          CFI V3 load(1, XDATA, add(CFA_XSP16, literal(-7)))
          CFI R7 load(1, XDATA, add(CFA_XSP16, literal(-6)))
          CFI ?RET_LOW load(1, XDATA, add(CFA_XSP16, literal(-5)))
          CFI ?RET_HIGH load(1, XDATA, add(CFA_XSP16, literal(-4)))
          CFI ?BRET_EXT load(1, XDATA, add(CFA_XSP16, literal(-3)))
          CFI DPL0 load(1, XDATA, add(CFA_XSP16, literal(-2)))
          CFI DPH0 load(1, XDATA, add(CFA_XSP16, literal(-1)))
          CFI CFA_SP SP+-2
          CFI CFA_XSP16 add(XSP16, 12)
          CFI Block cfiCond510 Using cfiCommon0
          CFI (cfiCond510) Function ZDP_UserDescRsp
          CFI (cfiCond510) Conditional ??CrossCallReturnLabel_234
          CFI (cfiCond510) R6 load(1, XDATA, add(CFA_XSP16, literal(-18)))
          CFI (cfiCond510) VB load(1, XDATA, add(CFA_XSP16, literal(-17)))
          CFI (cfiCond510) V0 load(1, XDATA, add(CFA_XSP16, literal(-16)))
          CFI (cfiCond510) V1 load(1, XDATA, add(CFA_XSP16, literal(-15)))
          CFI (cfiCond510) V2 load(1, XDATA, add(CFA_XSP16, literal(-14)))
          CFI (cfiCond510) V3 load(1, XDATA, add(CFA_XSP16, literal(-13)))
          CFI (cfiCond510) V4 load(1, XDATA, add(CFA_XSP16, literal(-12)))
          CFI (cfiCond510) V5 load(1, XDATA, add(CFA_XSP16, literal(-11)))
          CFI (cfiCond510) V6 load(1, XDATA, add(CFA_XSP16, literal(-10)))
          CFI (cfiCond510) V7 load(1, XDATA, add(CFA_XSP16, literal(-9)))
          CFI (cfiCond510) V8 load(1, XDATA, add(CFA_XSP16, literal(-8)))
          CFI (cfiCond510) V9 load(1, XDATA, add(CFA_XSP16, literal(-7)))
          CFI (cfiCond510) R7 load(1, XDATA, add(CFA_XSP16, literal(-6)))
          CFI (cfiCond510) ?RET_LOW load(1, XDATA, add(CFA_XSP16, literal(-5)))
          CFI (cfiCond510) ?RET_HIGH load(1, XDATA, add(CFA_XSP16, literal(-4)))
          CFI (cfiCond510) ?BRET_EXT load(1, XDATA, add(CFA_XSP16, literal(-3)))
          CFI (cfiCond510) DPL0 load(1, XDATA, add(CFA_XSP16, literal(-2)))
          CFI (cfiCond510) DPH0 load(1, XDATA, add(CFA_XSP16, literal(-1)))
          CFI (cfiCond510) CFA_SP SP+-2
          CFI (cfiCond510) CFA_XSP16 add(XSP16, 19)
          CFI Block cfiCond511 Using cfiCommon0
          CFI (cfiCond511) Function ZDP_GenericRsp
          CFI (cfiCond511) Conditional ??CrossCallReturnLabel_235
          CFI (cfiCond511) R6 load(1, XDATA, add(CFA_XSP16, literal(-9)))
          CFI (cfiCond511) VB load(1, XDATA, add(CFA_XSP16, literal(-8)))
          CFI (cfiCond511) V0 load(1, XDATA, add(CFA_XSP16, literal(-7)))
          CFI (cfiCond511) R7 load(1, XDATA, add(CFA_XSP16, literal(-6)))
          CFI (cfiCond511) ?RET_LOW load(1, XDATA, add(CFA_XSP16, literal(-5)))
          CFI (cfiCond511) ?RET_HIGH load(1, XDATA, add(CFA_XSP16, literal(-4)))
          CFI (cfiCond511) ?BRET_EXT load(1, XDATA, add(CFA_XSP16, literal(-3)))
          CFI (cfiCond511) DPL0 load(1, XDATA, add(CFA_XSP16, literal(-2)))
          CFI (cfiCond511) DPH0 load(1, XDATA, add(CFA_XSP16, literal(-1)))
          CFI (cfiCond511) CFA_SP SP+-2
          CFI (cfiCond511) CFA_XSP16 add(XSP16, 10)
          CFI Block cfiCond512 Using cfiCommon0
          CFI (cfiCond512) Function ZDP_EndDeviceBindReq
          CFI (cfiCond512) Conditional ??CrossCallReturnLabel_236
          CFI (cfiCond512) R6 load(1, XDATA, add(CFA_XSP16, literal(-18)))
          CFI (cfiCond512) VB load(1, XDATA, add(CFA_XSP16, literal(-17)))
          CFI (cfiCond512) V0 load(1, XDATA, add(CFA_XSP16, literal(-16)))
          CFI (cfiCond512) V1 load(1, XDATA, add(CFA_XSP16, literal(-15)))
          CFI (cfiCond512) V2 load(1, XDATA, add(CFA_XSP16, literal(-14)))
          CFI (cfiCond512) V3 load(1, XDATA, add(CFA_XSP16, literal(-13)))
          CFI (cfiCond512) V4 load(1, XDATA, add(CFA_XSP16, literal(-12)))
          CFI (cfiCond512) V5 load(1, XDATA, add(CFA_XSP16, literal(-11)))
          CFI (cfiCond512) V6 load(1, XDATA, add(CFA_XSP16, literal(-10)))
          CFI (cfiCond512) V7 load(1, XDATA, add(CFA_XSP16, literal(-9)))
          CFI (cfiCond512) V8 load(1, XDATA, add(CFA_XSP16, literal(-8)))
          CFI (cfiCond512) V9 load(1, XDATA, add(CFA_XSP16, literal(-7)))
          CFI (cfiCond512) R7 load(1, XDATA, add(CFA_XSP16, literal(-6)))
          CFI (cfiCond512) ?RET_LOW load(1, XDATA, add(CFA_XSP16, literal(-5)))
          CFI (cfiCond512) ?RET_HIGH load(1, XDATA, add(CFA_XSP16, literal(-4)))
          CFI (cfiCond512) ?BRET_EXT load(1, XDATA, add(CFA_XSP16, literal(-3)))
          CFI (cfiCond512) DPL0 load(1, XDATA, add(CFA_XSP16, literal(-2)))
          CFI (cfiCond512) DPH0 load(1, XDATA, add(CFA_XSP16, literal(-1)))
          CFI (cfiCond512) CFA_SP SP+-2
          CFI (cfiCond512) CFA_XSP16 add(XSP16, 18)
          CFI Block cfiCond513 Using cfiCommon0
          CFI (cfiCond513) Function ZDP_MgmtPermitJoinReq
          CFI (cfiCond513) Conditional ??CrossCallReturnLabel_237
          CFI (cfiCond513) R6 load(1, XDATA, add(CFA_XSP16, literal(-12)))
          CFI (cfiCond513) VB load(1, XDATA, add(CFA_XSP16, literal(-11)))
          CFI (cfiCond513) V0 load(1, XDATA, add(CFA_XSP16, literal(-10)))
          CFI (cfiCond513) V1 load(1, XDATA, add(CFA_XSP16, literal(-9)))
          CFI (cfiCond513) V2 load(1, XDATA, add(CFA_XSP16, literal(-8)))
          CFI (cfiCond513) V3 load(1, XDATA, add(CFA_XSP16, literal(-7)))
          CFI (cfiCond513) R7 load(1, XDATA, add(CFA_XSP16, literal(-6)))
          CFI (cfiCond513) ?RET_LOW load(1, XDATA, add(CFA_XSP16, literal(-5)))
          CFI (cfiCond513) ?RET_HIGH load(1, XDATA, add(CFA_XSP16, literal(-4)))
          CFI (cfiCond513) ?BRET_EXT load(1, XDATA, add(CFA_XSP16, literal(-3)))
          CFI (cfiCond513) DPL0 load(1, XDATA, add(CFA_XSP16, literal(-2)))
          CFI (cfiCond513) DPH0 load(1, XDATA, add(CFA_XSP16, literal(-1)))
          CFI (cfiCond513) CFA_SP SP+-2
          CFI (cfiCond513) CFA_XSP16 add(XSP16, 21)
          CFI Block cfiCond514 Using cfiCommon0
          CFI (cfiCond514) Function ZDO_SendMsgCBs
          CFI (cfiCond514) Conditional ??CrossCallReturnLabel_238
          CFI (cfiCond514) R6 load(1, XDATA, add(CFA_XSP16, literal(-18)))
          CFI (cfiCond514) VB load(1, XDATA, add(CFA_XSP16, literal(-17)))
          CFI (cfiCond514) V0 load(1, XDATA, add(CFA_XSP16, literal(-16)))
          CFI (cfiCond514) V1 load(1, XDATA, add(CFA_XSP16, literal(-15)))
          CFI (cfiCond514) V2 load(1, XDATA, add(CFA_XSP16, literal(-14)))
          CFI (cfiCond514) V3 load(1, XDATA, add(CFA_XSP16, literal(-13)))
          CFI (cfiCond514) V4 load(1, XDATA, add(CFA_XSP16, literal(-12)))
          CFI (cfiCond514) V5 load(1, XDATA, add(CFA_XSP16, literal(-11)))
          CFI (cfiCond514) V6 load(1, XDATA, add(CFA_XSP16, literal(-10)))
          CFI (cfiCond514) V7 load(1, XDATA, add(CFA_XSP16, literal(-9)))
          CFI (cfiCond514) V8 load(1, XDATA, add(CFA_XSP16, literal(-8)))
          CFI (cfiCond514) V9 load(1, XDATA, add(CFA_XSP16, literal(-7)))
          CFI (cfiCond514) R7 load(1, XDATA, add(CFA_XSP16, literal(-6)))
          CFI (cfiCond514) ?RET_LOW load(1, XDATA, add(CFA_XSP16, literal(-5)))
          CFI (cfiCond514) ?RET_HIGH load(1, XDATA, add(CFA_XSP16, literal(-4)))
          CFI (cfiCond514) ?BRET_EXT load(1, XDATA, add(CFA_XSP16, literal(-3)))
          CFI (cfiCond514) DPL0 load(1, XDATA, add(CFA_XSP16, literal(-2)))
          CFI (cfiCond514) DPH0 load(1, XDATA, add(CFA_XSP16, literal(-1)))
          CFI (cfiCond514) CFA_SP SP+-2
          CFI (cfiCond514) CFA_XSP16 add(XSP16, 18)
          CFI Block cfiCond515 Using cfiCommon0
          CFI (cfiCond515) Function ZDP_IncomingData
          CFI (cfiCond515) Conditional ??CrossCallReturnLabel_239
          CFI (cfiCond515) R6 load(1, XDATA, add(CFA_XSP16, literal(-10)))
          CFI (cfiCond515) VB load(1, XDATA, add(CFA_XSP16, literal(-9)))
          CFI (cfiCond515) V0 load(1, XDATA, add(CFA_XSP16, literal(-8)))
          CFI (cfiCond515) V1 load(1, XDATA, add(CFA_XSP16, literal(-7)))
          CFI (cfiCond515) R7 load(1, XDATA, add(CFA_XSP16, literal(-6)))
          CFI (cfiCond515) ?RET_LOW load(1, XDATA, add(CFA_XSP16, literal(-5)))
          CFI (cfiCond515) ?RET_HIGH load(1, XDATA, add(CFA_XSP16, literal(-4)))
          CFI (cfiCond515) ?BRET_EXT load(1, XDATA, add(CFA_XSP16, literal(-3)))
          CFI (cfiCond515) DPL0 load(1, XDATA, add(CFA_XSP16, literal(-2)))
          CFI (cfiCond515) DPH0 load(1, XDATA, add(CFA_XSP16, literal(-1)))
          CFI (cfiCond515) CFA_SP SP+-2
          CFI (cfiCond515) CFA_XSP16 add(XSP16, 33)
          CFI Block cfiCond516 Using cfiCommon0
          CFI (cfiCond516) Function ZDP_IncomingData
          CFI (cfiCond516) Conditional ??CrossCallReturnLabel_240
          CFI (cfiCond516) R6 load(1, XDATA, add(CFA_XSP16, literal(-10)))
          CFI (cfiCond516) VB load(1, XDATA, add(CFA_XSP16, literal(-9)))
          CFI (cfiCond516) V0 load(1, XDATA, add(CFA_XSP16, literal(-8)))
          CFI (cfiCond516) V1 load(1, XDATA, add(CFA_XSP16, literal(-7)))
          CFI (cfiCond516) R7 load(1, XDATA, add(CFA_XSP16, literal(-6)))
          CFI (cfiCond516) ?RET_LOW load(1, XDATA, add(CFA_XSP16, literal(-5)))
          CFI (cfiCond516) ?RET_HIGH load(1, XDATA, add(CFA_XSP16, literal(-4)))
          CFI (cfiCond516) ?BRET_EXT load(1, XDATA, add(CFA_XSP16, literal(-3)))
          CFI (cfiCond516) DPL0 load(1, XDATA, add(CFA_XSP16, literal(-2)))
          CFI (cfiCond516) DPH0 load(1, XDATA, add(CFA_XSP16, literal(-1)))
          CFI (cfiCond516) CFA_SP SP+-2
          CFI (cfiCond516) CFA_XSP16 add(XSP16, 33)
          CFI Block cfiCond517 Using cfiCommon0
          CFI (cfiCond517) Function ZDP_IncomingData
          CFI (cfiCond517) Conditional ??CrossCallReturnLabel_241
          CFI (cfiCond517) R6 load(1, XDATA, add(CFA_XSP16, literal(-10)))
          CFI (cfiCond517) VB load(1, XDATA, add(CFA_XSP16, literal(-9)))
          CFI (cfiCond517) V0 load(1, XDATA, add(CFA_XSP16, literal(-8)))
          CFI (cfiCond517) V1 load(1, XDATA, add(CFA_XSP16, literal(-7)))
          CFI (cfiCond517) R7 load(1, XDATA, add(CFA_XSP16, literal(-6)))
          CFI (cfiCond517) ?RET_LOW load(1, XDATA, add(CFA_XSP16, literal(-5)))
          CFI (cfiCond517) ?RET_HIGH load(1, XDATA, add(CFA_XSP16, literal(-4)))
          CFI (cfiCond517) ?BRET_EXT load(1, XDATA, add(CFA_XSP16, literal(-3)))
          CFI (cfiCond517) DPL0 load(1, XDATA, add(CFA_XSP16, literal(-2)))
          CFI (cfiCond517) DPH0 load(1, XDATA, add(CFA_XSP16, literal(-1)))
          CFI (cfiCond517) CFA_SP SP+-2
          CFI (cfiCond517) CFA_XSP16 add(XSP16, 33)
          CFI Block cfiCond518 Using cfiCommon0
          CFI (cfiCond518) Function ZDP_IncomingData
          CFI (cfiCond518) Conditional ??CrossCallReturnLabel_242
          CFI (cfiCond518) R6 load(1, XDATA, add(CFA_XSP16, literal(-10)))
          CFI (cfiCond518) VB load(1, XDATA, add(CFA_XSP16, literal(-9)))
          CFI (cfiCond518) V0 load(1, XDATA, add(CFA_XSP16, literal(-8)))
          CFI (cfiCond518) V1 load(1, XDATA, add(CFA_XSP16, literal(-7)))
          CFI (cfiCond518) R7 load(1, XDATA, add(CFA_XSP16, literal(-6)))
          CFI (cfiCond518) ?RET_LOW load(1, XDATA, add(CFA_XSP16, literal(-5)))
          CFI (cfiCond518) ?RET_HIGH load(1, XDATA, add(CFA_XSP16, literal(-4)))
          CFI (cfiCond518) ?BRET_EXT load(1, XDATA, add(CFA_XSP16, literal(-3)))
          CFI (cfiCond518) DPL0 load(1, XDATA, add(CFA_XSP16, literal(-2)))
          CFI (cfiCond518) DPH0 load(1, XDATA, add(CFA_XSP16, literal(-1)))
          CFI (cfiCond518) CFA_SP SP+-2
          CFI (cfiCond518) CFA_XSP16 add(XSP16, 33)
          CFI Block cfiCond519 Using cfiCommon0
          CFI (cfiCond519) Function ZDP_MatchDescReq
          CFI (cfiCond519) Conditional ??CrossCallReturnLabel_243
          CFI (cfiCond519) R6 load(1, XDATA, add(CFA_XSP16, literal(-14)))
          CFI (cfiCond519) VB load(1, XDATA, add(CFA_XSP16, literal(-13)))
          CFI (cfiCond519) V0 load(1, XDATA, add(CFA_XSP16, literal(-12)))
          CFI (cfiCond519) V1 load(1, XDATA, add(CFA_XSP16, literal(-11)))
          CFI (cfiCond519) V2 load(1, XDATA, add(CFA_XSP16, literal(-10)))
          CFI (cfiCond519) V3 load(1, XDATA, add(CFA_XSP16, literal(-9)))
          CFI (cfiCond519) V4 load(1, XDATA, add(CFA_XSP16, literal(-8)))
          CFI (cfiCond519) V5 load(1, XDATA, add(CFA_XSP16, literal(-7)))
          CFI (cfiCond519) R7 load(1, XDATA, add(CFA_XSP16, literal(-6)))
          CFI (cfiCond519) ?RET_LOW load(1, XDATA, add(CFA_XSP16, literal(-5)))
          CFI (cfiCond519) ?RET_HIGH load(1, XDATA, add(CFA_XSP16, literal(-4)))
          CFI (cfiCond519) ?BRET_EXT load(1, XDATA, add(CFA_XSP16, literal(-3)))
          CFI (cfiCond519) DPL0 load(1, XDATA, add(CFA_XSP16, literal(-2)))
          CFI (cfiCond519) DPH0 load(1, XDATA, add(CFA_XSP16, literal(-1)))
          CFI (cfiCond519) CFA_SP SP+-2
          CFI (cfiCond519) CFA_XSP16 add(XSP16, 14)
          CFI Block cfiCond520 Using cfiCommon0
          CFI (cfiCond520) Function ZDP_ServerDiscReq
          CFI (cfiCond520) Conditional ??CrossCallReturnLabel_244
          CFI (cfiCond520) R6 load(1, XDATA, add(CFA_XSP16, literal(-10)))
          CFI (cfiCond520) VB load(1, XDATA, add(CFA_XSP16, literal(-9)))
          CFI (cfiCond520) V0 load(1, XDATA, add(CFA_XSP16, literal(-8)))
          CFI (cfiCond520) V1 load(1, XDATA, add(CFA_XSP16, literal(-7)))
          CFI (cfiCond520) R7 load(1, XDATA, add(CFA_XSP16, literal(-6)))
          CFI (cfiCond520) ?RET_LOW load(1, XDATA, add(CFA_XSP16, literal(-5)))
          CFI (cfiCond520) ?RET_HIGH load(1, XDATA, add(CFA_XSP16, literal(-4)))
          CFI (cfiCond520) ?BRET_EXT load(1, XDATA, add(CFA_XSP16, literal(-3)))
          CFI (cfiCond520) DPL0 load(1, XDATA, add(CFA_XSP16, literal(-2)))
          CFI (cfiCond520) DPH0 load(1, XDATA, add(CFA_XSP16, literal(-1)))
          CFI (cfiCond520) CFA_SP SP+-2
          CFI (cfiCond520) CFA_XSP16 add(XSP16, 19)
          CFI Block cfiCond521 Using cfiCommon0
          CFI (cfiCond521) Function ZDP_SimpleDescMsg
          CFI (cfiCond521) Conditional ??CrossCallReturnLabel_245
          CFI (cfiCond521) R6 load(1, XDATA, add(CFA_XSP16, literal(-20)))
          CFI (cfiCond521) VB load(1, XDATA, add(CFA_XSP16, literal(-19)))
          CFI (cfiCond521) V0 load(1, XDATA, add(CFA_XSP16, literal(-18)))
          CFI (cfiCond521) V1 load(1, XDATA, add(CFA_XSP16, literal(-17)))
          CFI (cfiCond521) V2 load(1, XDATA, add(CFA_XSP16, literal(-16)))
          CFI (cfiCond521) V3 load(1, XDATA, add(CFA_XSP16, literal(-15)))
          CFI (cfiCond521) V4 load(1, XDATA, add(CFA_XSP16, literal(-14)))
          CFI (cfiCond521) V5 load(1, XDATA, add(CFA_XSP16, literal(-13)))
          CFI (cfiCond521) V6 load(1, XDATA, add(CFA_XSP16, literal(-12)))
          CFI (cfiCond521) V7 load(1, XDATA, add(CFA_XSP16, literal(-11)))
          CFI (cfiCond521) V8 load(1, XDATA, add(CFA_XSP16, literal(-10)))
          CFI (cfiCond521) V9 load(1, XDATA, add(CFA_XSP16, literal(-9)))
          CFI (cfiCond521) V10 load(1, XDATA, add(CFA_XSP16, literal(-8)))
          CFI (cfiCond521) V11 load(1, XDATA, add(CFA_XSP16, literal(-7)))
          CFI (cfiCond521) R7 load(1, XDATA, add(CFA_XSP16, literal(-6)))
          CFI (cfiCond521) ?RET_LOW load(1, XDATA, add(CFA_XSP16, literal(-5)))
          CFI (cfiCond521) ?RET_HIGH load(1, XDATA, add(CFA_XSP16, literal(-4)))
          CFI (cfiCond521) ?BRET_EXT load(1, XDATA, add(CFA_XSP16, literal(-3)))
          CFI (cfiCond521) DPL0 load(1, XDATA, add(CFA_XSP16, literal(-2)))
          CFI (cfiCond521) DPH0 load(1, XDATA, add(CFA_XSP16, literal(-1)))
          CFI (cfiCond521) CFA_SP SP+-2
          CFI (cfiCond521) CFA_XSP16 add(XSP16, 20)
          CFI Block cfiCond522 Using cfiCommon0
          CFI (cfiCond522) Function ZDP_IEEEAddrReq
          CFI (cfiCond522) Conditional ??CrossCallReturnLabel_232
          CFI (cfiCond522) R6 load(1, XDATA, add(CFA_XSP16, literal(-10)))
          CFI (cfiCond522) VB load(1, XDATA, add(CFA_XSP16, literal(-9)))
          CFI (cfiCond522) V0 load(1, XDATA, add(CFA_XSP16, literal(-8)))
          CFI (cfiCond522) V1 load(1, XDATA, add(CFA_XSP16, literal(-7)))
          CFI (cfiCond522) R7 load(1, XDATA, add(CFA_XSP16, literal(-6)))
          CFI (cfiCond522) ?RET_LOW load(1, XDATA, add(CFA_XSP16, literal(-5)))
          CFI (cfiCond522) ?RET_HIGH load(1, XDATA, add(CFA_XSP16, literal(-4)))
          CFI (cfiCond522) ?BRET_EXT load(1, XDATA, add(CFA_XSP16, literal(-3)))
          CFI (cfiCond522) DPL0 load(1, XDATA, add(CFA_XSP16, literal(-2)))
          CFI (cfiCond522) DPH0 load(1, XDATA, add(CFA_XSP16, literal(-1)))
          CFI (cfiCond522) CFA_SP SP+-2
          CFI (cfiCond522) CFA_XSP16 add(XSP16, 19)
          CFI Block cfiCond523 Using cfiCommon0
          CFI (cfiCond523) Function ZDP_UserDescSet
          CFI (cfiCond523) Conditional ??CrossCallReturnLabel_230
          CFI (cfiCond523) R6 load(1, XDATA, add(CFA_XSP16, literal(-15)))
          CFI (cfiCond523) VB load(1, XDATA, add(CFA_XSP16, literal(-14)))
          CFI (cfiCond523) V0 load(1, XDATA, add(CFA_XSP16, literal(-13)))
          CFI (cfiCond523) V1 load(1, XDATA, add(CFA_XSP16, literal(-12)))
          CFI (cfiCond523) V2 load(1, XDATA, add(CFA_XSP16, literal(-11)))
          CFI (cfiCond523) V3 load(1, XDATA, add(CFA_XSP16, literal(-10)))
          CFI (cfiCond523) V4 load(1, XDATA, add(CFA_XSP16, literal(-9)))
          CFI (cfiCond523) V5 load(1, XDATA, add(CFA_XSP16, literal(-8)))
          CFI (cfiCond523) V6 load(1, XDATA, add(CFA_XSP16, literal(-7)))
          CFI (cfiCond523) R7 load(1, XDATA, add(CFA_XSP16, literal(-6)))
          CFI (cfiCond523) ?RET_LOW load(1, XDATA, add(CFA_XSP16, literal(-5)))
          CFI (cfiCond523) ?RET_HIGH load(1, XDATA, add(CFA_XSP16, literal(-4)))
          CFI (cfiCond523) ?BRET_EXT load(1, XDATA, add(CFA_XSP16, literal(-3)))
          CFI (cfiCond523) DPL0 load(1, XDATA, add(CFA_XSP16, literal(-2)))
          CFI (cfiCond523) DPH0 load(1, XDATA, add(CFA_XSP16, literal(-1)))
          CFI (cfiCond523) CFA_SP SP+-2
          CFI (cfiCond523) CFA_XSP16 add(XSP16, 15)
          CFI Block cfiCond524 Using cfiCommon0
          CFI (cfiCond524) Function ZDP_UserDescRsp
          CFI (cfiCond524) Conditional ??CrossCallReturnLabel_231
          CFI (cfiCond524) R6 load(1, XDATA, add(CFA_XSP16, literal(-18)))
          CFI (cfiCond524) VB load(1, XDATA, add(CFA_XSP16, literal(-17)))
          CFI (cfiCond524) V0 load(1, XDATA, add(CFA_XSP16, literal(-16)))
          CFI (cfiCond524) V1 load(1, XDATA, add(CFA_XSP16, literal(-15)))
          CFI (cfiCond524) V2 load(1, XDATA, add(CFA_XSP16, literal(-14)))
          CFI (cfiCond524) V3 load(1, XDATA, add(CFA_XSP16, literal(-13)))
          CFI (cfiCond524) V4 load(1, XDATA, add(CFA_XSP16, literal(-12)))
          CFI (cfiCond524) V5 load(1, XDATA, add(CFA_XSP16, literal(-11)))
          CFI (cfiCond524) V6 load(1, XDATA, add(CFA_XSP16, literal(-10)))
          CFI (cfiCond524) V7 load(1, XDATA, add(CFA_XSP16, literal(-9)))
          CFI (cfiCond524) V8 load(1, XDATA, add(CFA_XSP16, literal(-8)))
          CFI (cfiCond524) V9 load(1, XDATA, add(CFA_XSP16, literal(-7)))
          CFI (cfiCond524) R7 load(1, XDATA, add(CFA_XSP16, literal(-6)))
          CFI (cfiCond524) ?RET_LOW load(1, XDATA, add(CFA_XSP16, literal(-5)))
          CFI (cfiCond524) ?RET_HIGH load(1, XDATA, add(CFA_XSP16, literal(-4)))
          CFI (cfiCond524) ?BRET_EXT load(1, XDATA, add(CFA_XSP16, literal(-3)))
          CFI (cfiCond524) DPL0 load(1, XDATA, add(CFA_XSP16, literal(-2)))
          CFI (cfiCond524) DPH0 load(1, XDATA, add(CFA_XSP16, literal(-1)))
          CFI (cfiCond524) CFA_SP SP+-2
          CFI (cfiCond524) CFA_XSP16 add(XSP16, 19)
          CFI Block cfiPicker525 Using cfiCommon1
          CFI (cfiPicker525) NoFunction
          CFI (cfiPicker525) Picker
        LCALL     ??Subroutine118_0 & 0xFFFF
??CrossCallReturnLabel_252:
        MOV       R1,A
        RET
          CFI EndBlock cfiCond509
          CFI EndBlock cfiCond510
          CFI EndBlock cfiCond511
          CFI EndBlock cfiCond512
          CFI EndBlock cfiCond513
          CFI EndBlock cfiCond514
          CFI EndBlock cfiCond515
          CFI EndBlock cfiCond516
          CFI EndBlock cfiCond517
          CFI EndBlock cfiCond518
          CFI EndBlock cfiCond519
          CFI EndBlock cfiCond520
          CFI EndBlock cfiCond521
          CFI EndBlock cfiCond522
          CFI EndBlock cfiCond523
          CFI EndBlock cfiCond524
          CFI EndBlock cfiPicker525

        RSEG BANKED_CODE:HUGECODE:NOROOT(0)
?Subroutine76:
          CFI Block cfiCond526 Using cfiCommon0
          CFI Function ZDP_NWKAddrOfInterestReq
          CFI Conditional ??CrossCallReturnLabel_251, ??CrossCallReturnLabel_16
          CFI R6 load(1, XDATA, add(CFA_XSP16, literal(-10)))
          CFI VB load(1, XDATA, add(CFA_XSP16, literal(-9)))
          CFI V0 load(1, XDATA, add(CFA_XSP16, literal(-8)))
          CFI V1 load(1, XDATA, add(CFA_XSP16, literal(-7)))
          CFI R7 load(1, XDATA, add(CFA_XSP16, literal(-6)))
          CFI ?RET_LOW load(1, XDATA, add(CFA_XSP16, literal(-5)))
          CFI ?RET_HIGH load(1, XDATA, add(CFA_XSP16, literal(-4)))
          CFI ?BRET_EXT load(1, XDATA, add(CFA_XSP16, literal(-3)))
          CFI DPL0 load(1, XDATA, add(CFA_XSP16, literal(-2)))
          CFI DPH0 load(1, XDATA, add(CFA_XSP16, literal(-1)))
          CFI CFA_SP SP+-4
          CFI CFA_XSP16 add(XSP16, 10)
          CFI Block cfiCond527 Using cfiCommon0
          CFI (cfiCond527) Function ZDP_SimpleDescReq
          CFI (cfiCond527) Conditional ??CrossCallReturnLabel_251, ??CrossCallReturnLabel_17
          CFI (cfiCond527) R6 load(1, XDATA, add(CFA_XSP16, literal(-10)))
          CFI (cfiCond527) VB load(1, XDATA, add(CFA_XSP16, literal(-9)))
          CFI (cfiCond527) V0 load(1, XDATA, add(CFA_XSP16, literal(-8)))
          CFI (cfiCond527) V1 load(1, XDATA, add(CFA_XSP16, literal(-7)))
          CFI (cfiCond527) R7 load(1, XDATA, add(CFA_XSP16, literal(-6)))
          CFI (cfiCond527) ?RET_LOW load(1, XDATA, add(CFA_XSP16, literal(-5)))
          CFI (cfiCond527) ?RET_HIGH load(1, XDATA, add(CFA_XSP16, literal(-4)))
          CFI (cfiCond527) ?BRET_EXT load(1, XDATA, add(CFA_XSP16, literal(-3)))
          CFI (cfiCond527) DPL0 load(1, XDATA, add(CFA_XSP16, literal(-2)))
          CFI (cfiCond527) DPH0 load(1, XDATA, add(CFA_XSP16, literal(-1)))
          CFI (cfiCond527) CFA_SP SP+-4
          CFI (cfiCond527) CFA_XSP16 add(XSP16, 10)
          CFI Block cfiCond528 Using cfiCommon0
          CFI (cfiCond528) Function ZDP_DeviceAnnce
          CFI (cfiCond528) Conditional ??CrossCallReturnLabel_249
          CFI (cfiCond528) R6 load(1, XDATA, add(CFA_XSP16, literal(-10)))
          CFI (cfiCond528) VB load(1, XDATA, add(CFA_XSP16, literal(-9)))
          CFI (cfiCond528) V0 load(1, XDATA, add(CFA_XSP16, literal(-8)))
          CFI (cfiCond528) V1 load(1, XDATA, add(CFA_XSP16, literal(-7)))
          CFI (cfiCond528) R7 load(1, XDATA, add(CFA_XSP16, literal(-6)))
          CFI (cfiCond528) ?RET_LOW load(1, XDATA, add(CFA_XSP16, literal(-5)))
          CFI (cfiCond528) ?RET_HIGH load(1, XDATA, add(CFA_XSP16, literal(-4)))
          CFI (cfiCond528) ?BRET_EXT load(1, XDATA, add(CFA_XSP16, literal(-3)))
          CFI (cfiCond528) DPL0 load(1, XDATA, add(CFA_XSP16, literal(-2)))
          CFI (cfiCond528) DPH0 load(1, XDATA, add(CFA_XSP16, literal(-1)))
          CFI (cfiCond528) CFA_SP SP+-2
          CFI (cfiCond528) CFA_XSP16 add(XSP16, 19)
          CFI Block cfiCond529 Using cfiCommon0
          CFI (cfiCond529) Function ZDP_MgmtDirectJoinReq
          CFI (cfiCond529) Conditional ??CrossCallReturnLabel_250
          CFI (cfiCond529) R6 load(1, XDATA, add(CFA_XSP16, literal(-12)))
          CFI (cfiCond529) VB load(1, XDATA, add(CFA_XSP16, literal(-11)))
          CFI (cfiCond529) V0 load(1, XDATA, add(CFA_XSP16, literal(-10)))
          CFI (cfiCond529) V1 load(1, XDATA, add(CFA_XSP16, literal(-9)))
          CFI (cfiCond529) V2 load(1, XDATA, add(CFA_XSP16, literal(-8)))
          CFI (cfiCond529) V3 load(1, XDATA, add(CFA_XSP16, literal(-7)))
          CFI (cfiCond529) R7 load(1, XDATA, add(CFA_XSP16, literal(-6)))
          CFI (cfiCond529) ?RET_LOW load(1, XDATA, add(CFA_XSP16, literal(-5)))
          CFI (cfiCond529) ?RET_HIGH load(1, XDATA, add(CFA_XSP16, literal(-4)))
          CFI (cfiCond529) ?BRET_EXT load(1, XDATA, add(CFA_XSP16, literal(-3)))
          CFI (cfiCond529) DPL0 load(1, XDATA, add(CFA_XSP16, literal(-2)))
          CFI (cfiCond529) DPH0 load(1, XDATA, add(CFA_XSP16, literal(-1)))
          CFI (cfiCond529) CFA_SP SP+-2
          CFI (cfiCond529) CFA_XSP16 add(XSP16, 12)
          CFI Block cfiPicker530 Using cfiCommon1
          CFI (cfiPicker530) NoFunction
          CFI (cfiPicker530) Picker
        MOV       DPTR,#ZDP_TmpBuf
          CFI EndBlock cfiCond526
          CFI EndBlock cfiCond527
          CFI EndBlock cfiCond528
          CFI EndBlock cfiCond529
          CFI EndBlock cfiPicker530
        REQUIRE ??Subroutine118_0
        ; // Fall through to label ??Subroutine118_0

        RSEG BANKED_CODE:HUGECODE:NOROOT(0)
??Subroutine118_0:
          CFI Block cfiCond531 Using cfiCommon0
          CFI Function fillAndSend
          CFI Conditional ??CrossCallReturnLabel_248, ??CrossCallReturnLabel_76
          CFI R6 load(1, XDATA, add(CFA_XSP16, literal(-14)))
          CFI VB load(1, XDATA, add(CFA_XSP16, literal(-13)))
          CFI V0 load(1, XDATA, add(CFA_XSP16, literal(-12)))
          CFI V1 load(1, XDATA, add(CFA_XSP16, literal(-11)))
          CFI V2 load(1, XDATA, add(CFA_XSP16, literal(-10)))
          CFI V3 load(1, XDATA, add(CFA_XSP16, literal(-9)))
          CFI V4 load(1, XDATA, add(CFA_XSP16, literal(-8)))
          CFI V5 load(1, XDATA, add(CFA_XSP16, literal(-7)))
          CFI R7 load(1, XDATA, add(CFA_XSP16, literal(-6)))
          CFI ?RET_LOW load(1, XDATA, add(CFA_XSP16, literal(-5)))
          CFI ?RET_HIGH load(1, XDATA, add(CFA_XSP16, literal(-4)))
          CFI ?BRET_EXT load(1, XDATA, add(CFA_XSP16, literal(-3)))
          CFI DPL0 load(1, XDATA, add(CFA_XSP16, literal(-2)))
          CFI DPH0 load(1, XDATA, add(CFA_XSP16, literal(-1)))
          CFI CFA_SP SP+-4
          CFI CFA_XSP16 add(XSP16, 26)
          CFI Block cfiCond532 Using cfiCommon0
          CFI (cfiCond532) Function ZDP_NwkAddrReq
          CFI (cfiCond532) Conditional ??CrossCallReturnLabel_248, ??CrossCallReturnLabel_77
          CFI (cfiCond532) R6 load(1, XDATA, add(CFA_XSP16, literal(-12)))
          CFI (cfiCond532) VB load(1, XDATA, add(CFA_XSP16, literal(-11)))
          CFI (cfiCond532) V0 load(1, XDATA, add(CFA_XSP16, literal(-10)))
          CFI (cfiCond532) V1 load(1, XDATA, add(CFA_XSP16, literal(-9)))
          CFI (cfiCond532) V2 load(1, XDATA, add(CFA_XSP16, literal(-8)))
          CFI (cfiCond532) V3 load(1, XDATA, add(CFA_XSP16, literal(-7)))
          CFI (cfiCond532) R7 load(1, XDATA, add(CFA_XSP16, literal(-6)))
          CFI (cfiCond532) ?RET_LOW load(1, XDATA, add(CFA_XSP16, literal(-5)))
          CFI (cfiCond532) ?RET_HIGH load(1, XDATA, add(CFA_XSP16, literal(-4)))
          CFI (cfiCond532) ?BRET_EXT load(1, XDATA, add(CFA_XSP16, literal(-3)))
          CFI (cfiCond532) DPL0 load(1, XDATA, add(CFA_XSP16, literal(-2)))
          CFI (cfiCond532) DPH0 load(1, XDATA, add(CFA_XSP16, literal(-1)))
          CFI (cfiCond532) CFA_SP SP+-4
          CFI (cfiCond532) CFA_XSP16 add(XSP16, 21)
          CFI Block cfiCond533 Using cfiCommon0
          CFI (cfiCond533) Function ZDP_UserDescSet
          CFI (cfiCond533) Conditional ??CrossCallReturnLabel_247, ??CrossCallReturnLabel_60
          CFI (cfiCond533) R6 load(1, XDATA, add(CFA_XSP16, literal(-15)))
          CFI (cfiCond533) VB load(1, XDATA, add(CFA_XSP16, literal(-14)))
          CFI (cfiCond533) V0 load(1, XDATA, add(CFA_XSP16, literal(-13)))
          CFI (cfiCond533) V1 load(1, XDATA, add(CFA_XSP16, literal(-12)))
          CFI (cfiCond533) V2 load(1, XDATA, add(CFA_XSP16, literal(-11)))
          CFI (cfiCond533) V3 load(1, XDATA, add(CFA_XSP16, literal(-10)))
          CFI (cfiCond533) V4 load(1, XDATA, add(CFA_XSP16, literal(-9)))
          CFI (cfiCond533) V5 load(1, XDATA, add(CFA_XSP16, literal(-8)))
          CFI (cfiCond533) V6 load(1, XDATA, add(CFA_XSP16, literal(-7)))
          CFI (cfiCond533) R7 load(1, XDATA, add(CFA_XSP16, literal(-6)))
          CFI (cfiCond533) ?RET_LOW load(1, XDATA, add(CFA_XSP16, literal(-5)))
          CFI (cfiCond533) ?RET_HIGH load(1, XDATA, add(CFA_XSP16, literal(-4)))
          CFI (cfiCond533) ?BRET_EXT load(1, XDATA, add(CFA_XSP16, literal(-3)))
          CFI (cfiCond533) DPL0 load(1, XDATA, add(CFA_XSP16, literal(-2)))
          CFI (cfiCond533) DPH0 load(1, XDATA, add(CFA_XSP16, literal(-1)))
          CFI (cfiCond533) CFA_SP SP+-4
          CFI (cfiCond533) CFA_XSP16 add(XSP16, 15)
          CFI Block cfiCond534 Using cfiCommon0
          CFI (cfiCond534) Function ZDP_NodeDescMsg
          CFI (cfiCond534) Conditional ??CrossCallReturnLabel_247, ??CrossCallReturnLabel_61
          CFI (cfiCond534) R6 load(1, XDATA, add(CFA_XSP16, literal(-10)))
          CFI (cfiCond534) VB load(1, XDATA, add(CFA_XSP16, literal(-9)))
          CFI (cfiCond534) V0 load(1, XDATA, add(CFA_XSP16, literal(-8)))
          CFI (cfiCond534) V1 load(1, XDATA, add(CFA_XSP16, literal(-7)))
          CFI (cfiCond534) R7 load(1, XDATA, add(CFA_XSP16, literal(-6)))
          CFI (cfiCond534) ?RET_LOW load(1, XDATA, add(CFA_XSP16, literal(-5)))
          CFI (cfiCond534) ?RET_HIGH load(1, XDATA, add(CFA_XSP16, literal(-4)))
          CFI (cfiCond534) ?BRET_EXT load(1, XDATA, add(CFA_XSP16, literal(-3)))
          CFI (cfiCond534) DPL0 load(1, XDATA, add(CFA_XSP16, literal(-2)))
          CFI (cfiCond534) DPH0 load(1, XDATA, add(CFA_XSP16, literal(-1)))
          CFI (cfiCond534) CFA_SP SP+-4
          CFI (cfiCond534) CFA_XSP16 add(XSP16, 10)
          CFI Block cfiCond535 Using cfiCommon0
          CFI (cfiCond535) Function ZDP_PowerDescMsg
          CFI (cfiCond535) Conditional ??CrossCallReturnLabel_247, ??CrossCallReturnLabel_62
          CFI (cfiCond535) R6 load(1, XDATA, add(CFA_XSP16, literal(-10)))
          CFI (cfiCond535) VB load(1, XDATA, add(CFA_XSP16, literal(-9)))
          CFI (cfiCond535) V0 load(1, XDATA, add(CFA_XSP16, literal(-8)))
          CFI (cfiCond535) V1 load(1, XDATA, add(CFA_XSP16, literal(-7)))
          CFI (cfiCond535) R7 load(1, XDATA, add(CFA_XSP16, literal(-6)))
          CFI (cfiCond535) ?RET_LOW load(1, XDATA, add(CFA_XSP16, literal(-5)))
          CFI (cfiCond535) ?RET_HIGH load(1, XDATA, add(CFA_XSP16, literal(-4)))
          CFI (cfiCond535) ?BRET_EXT load(1, XDATA, add(CFA_XSP16, literal(-3)))
          CFI (cfiCond535) DPL0 load(1, XDATA, add(CFA_XSP16, literal(-2)))
          CFI (cfiCond535) DPH0 load(1, XDATA, add(CFA_XSP16, literal(-1)))
          CFI (cfiCond535) CFA_SP SP+-4
          CFI (cfiCond535) CFA_XSP16 add(XSP16, 10)
          CFI Block cfiCond536 Using cfiCommon0
          CFI (cfiCond536) Function ZDO_RegisterForZDOMsg
          CFI (cfiCond536) Conditional ??CrossCallReturnLabel_246
          CFI (cfiCond536) R6 load(1, XDATA, add(CFA_XSP16, literal(-14)))
          CFI (cfiCond536) VB load(1, XDATA, add(CFA_XSP16, literal(-13)))
          CFI (cfiCond536) V0 load(1, XDATA, add(CFA_XSP16, literal(-12)))
          CFI (cfiCond536) V1 load(1, XDATA, add(CFA_XSP16, literal(-11)))
          CFI (cfiCond536) V2 load(1, XDATA, add(CFA_XSP16, literal(-10)))
          CFI (cfiCond536) V3 load(1, XDATA, add(CFA_XSP16, literal(-9)))
          CFI (cfiCond536) V4 load(1, XDATA, add(CFA_XSP16, literal(-8)))
          CFI (cfiCond536) V5 load(1, XDATA, add(CFA_XSP16, literal(-7)))
          CFI (cfiCond536) R7 load(1, XDATA, add(CFA_XSP16, literal(-6)))
          CFI (cfiCond536) ?RET_LOW load(1, XDATA, add(CFA_XSP16, literal(-5)))
          CFI (cfiCond536) ?RET_HIGH load(1, XDATA, add(CFA_XSP16, literal(-4)))
          CFI (cfiCond536) ?BRET_EXT load(1, XDATA, add(CFA_XSP16, literal(-3)))
          CFI (cfiCond536) DPL0 load(1, XDATA, add(CFA_XSP16, literal(-2)))
          CFI (cfiCond536) DPH0 load(1, XDATA, add(CFA_XSP16, literal(-1)))
          CFI (cfiCond536) CFA_SP SP+-2
          CFI (cfiCond536) CFA_XSP16 add(XSP16, 14)
          CFI Block cfiCond537 Using cfiCommon0
          CFI (cfiCond537) Function ZDP_UserDescSet
          CFI (cfiCond537) Conditional ??CrossCallReturnLabel_252, ??CrossCallReturnLabel_230
          CFI (cfiCond537) R6 load(1, XDATA, add(CFA_XSP16, literal(-15)))
          CFI (cfiCond537) VB load(1, XDATA, add(CFA_XSP16, literal(-14)))
          CFI (cfiCond537) V0 load(1, XDATA, add(CFA_XSP16, literal(-13)))
          CFI (cfiCond537) V1 load(1, XDATA, add(CFA_XSP16, literal(-12)))
          CFI (cfiCond537) V2 load(1, XDATA, add(CFA_XSP16, literal(-11)))
          CFI (cfiCond537) V3 load(1, XDATA, add(CFA_XSP16, literal(-10)))
          CFI (cfiCond537) V4 load(1, XDATA, add(CFA_XSP16, literal(-9)))
          CFI (cfiCond537) V5 load(1, XDATA, add(CFA_XSP16, literal(-8)))
          CFI (cfiCond537) V6 load(1, XDATA, add(CFA_XSP16, literal(-7)))
          CFI (cfiCond537) R7 load(1, XDATA, add(CFA_XSP16, literal(-6)))
          CFI (cfiCond537) ?RET_LOW load(1, XDATA, add(CFA_XSP16, literal(-5)))
          CFI (cfiCond537) ?RET_HIGH load(1, XDATA, add(CFA_XSP16, literal(-4)))
          CFI (cfiCond537) ?BRET_EXT load(1, XDATA, add(CFA_XSP16, literal(-3)))
          CFI (cfiCond537) DPL0 load(1, XDATA, add(CFA_XSP16, literal(-2)))
          CFI (cfiCond537) DPH0 load(1, XDATA, add(CFA_XSP16, literal(-1)))
          CFI (cfiCond537) CFA_SP SP+-4
          CFI (cfiCond537) CFA_XSP16 add(XSP16, 15)
          CFI Block cfiCond538 Using cfiCommon0
          CFI (cfiCond538) Function ZDP_UserDescRsp
          CFI (cfiCond538) Conditional ??CrossCallReturnLabel_252, ??CrossCallReturnLabel_231
          CFI (cfiCond538) R6 load(1, XDATA, add(CFA_XSP16, literal(-18)))
          CFI (cfiCond538) VB load(1, XDATA, add(CFA_XSP16, literal(-17)))
          CFI (cfiCond538) V0 load(1, XDATA, add(CFA_XSP16, literal(-16)))
          CFI (cfiCond538) V1 load(1, XDATA, add(CFA_XSP16, literal(-15)))
          CFI (cfiCond538) V2 load(1, XDATA, add(CFA_XSP16, literal(-14)))
          CFI (cfiCond538) V3 load(1, XDATA, add(CFA_XSP16, literal(-13)))
          CFI (cfiCond538) V4 load(1, XDATA, add(CFA_XSP16, literal(-12)))
          CFI (cfiCond538) V5 load(1, XDATA, add(CFA_XSP16, literal(-11)))
          CFI (cfiCond538) V6 load(1, XDATA, add(CFA_XSP16, literal(-10)))
          CFI (cfiCond538) V7 load(1, XDATA, add(CFA_XSP16, literal(-9)))
          CFI (cfiCond538) V8 load(1, XDATA, add(CFA_XSP16, literal(-8)))
          CFI (cfiCond538) V9 load(1, XDATA, add(CFA_XSP16, literal(-7)))
          CFI (cfiCond538) R7 load(1, XDATA, add(CFA_XSP16, literal(-6)))
          CFI (cfiCond538) ?RET_LOW load(1, XDATA, add(CFA_XSP16, literal(-5)))
          CFI (cfiCond538) ?RET_HIGH load(1, XDATA, add(CFA_XSP16, literal(-4)))
          CFI (cfiCond538) ?BRET_EXT load(1, XDATA, add(CFA_XSP16, literal(-3)))
          CFI (cfiCond538) DPL0 load(1, XDATA, add(CFA_XSP16, literal(-2)))
          CFI (cfiCond538) DPH0 load(1, XDATA, add(CFA_XSP16, literal(-1)))
          CFI (cfiCond538) CFA_SP SP+-4
          CFI (cfiCond538) CFA_XSP16 add(XSP16, 19)
          CFI Block cfiCond539 Using cfiCommon0
          CFI (cfiCond539) Function ZDP_IEEEAddrReq
          CFI (cfiCond539) Conditional ??CrossCallReturnLabel_252, ??CrossCallReturnLabel_232
          CFI (cfiCond539) R6 load(1, XDATA, add(CFA_XSP16, literal(-10)))
          CFI (cfiCond539) VB load(1, XDATA, add(CFA_XSP16, literal(-9)))
          CFI (cfiCond539) V0 load(1, XDATA, add(CFA_XSP16, literal(-8)))
          CFI (cfiCond539) V1 load(1, XDATA, add(CFA_XSP16, literal(-7)))
          CFI (cfiCond539) R7 load(1, XDATA, add(CFA_XSP16, literal(-6)))
          CFI (cfiCond539) ?RET_LOW load(1, XDATA, add(CFA_XSP16, literal(-5)))
          CFI (cfiCond539) ?RET_HIGH load(1, XDATA, add(CFA_XSP16, literal(-4)))
          CFI (cfiCond539) ?BRET_EXT load(1, XDATA, add(CFA_XSP16, literal(-3)))
          CFI (cfiCond539) DPL0 load(1, XDATA, add(CFA_XSP16, literal(-2)))
          CFI (cfiCond539) DPH0 load(1, XDATA, add(CFA_XSP16, literal(-1)))
          CFI (cfiCond539) CFA_SP SP+-4
          CFI (cfiCond539) CFA_XSP16 add(XSP16, 19)
          CFI Block cfiCond540 Using cfiCommon0
          CFI (cfiCond540) Function ZDP_MatchDescReq
          CFI (cfiCond540) Conditional ??CrossCallReturnLabel_252, ??CrossCallReturnLabel_243
          CFI (cfiCond540) R6 load(1, XDATA, add(CFA_XSP16, literal(-14)))
          CFI (cfiCond540) VB load(1, XDATA, add(CFA_XSP16, literal(-13)))
          CFI (cfiCond540) V0 load(1, XDATA, add(CFA_XSP16, literal(-12)))
          CFI (cfiCond540) V1 load(1, XDATA, add(CFA_XSP16, literal(-11)))
          CFI (cfiCond540) V2 load(1, XDATA, add(CFA_XSP16, literal(-10)))
          CFI (cfiCond540) V3 load(1, XDATA, add(CFA_XSP16, literal(-9)))
          CFI (cfiCond540) V4 load(1, XDATA, add(CFA_XSP16, literal(-8)))
          CFI (cfiCond540) V5 load(1, XDATA, add(CFA_XSP16, literal(-7)))
          CFI (cfiCond540) R7 load(1, XDATA, add(CFA_XSP16, literal(-6)))
          CFI (cfiCond540) ?RET_LOW load(1, XDATA, add(CFA_XSP16, literal(-5)))
          CFI (cfiCond540) ?RET_HIGH load(1, XDATA, add(CFA_XSP16, literal(-4)))
          CFI (cfiCond540) ?BRET_EXT load(1, XDATA, add(CFA_XSP16, literal(-3)))
          CFI (cfiCond540) DPL0 load(1, XDATA, add(CFA_XSP16, literal(-2)))
          CFI (cfiCond540) DPH0 load(1, XDATA, add(CFA_XSP16, literal(-1)))
          CFI (cfiCond540) CFA_SP SP+-4
          CFI (cfiCond540) CFA_XSP16 add(XSP16, 14)
          CFI Block cfiCond541 Using cfiCommon0
          CFI (cfiCond541) Function ZDP_ServerDiscReq
          CFI (cfiCond541) Conditional ??CrossCallReturnLabel_252, ??CrossCallReturnLabel_244
          CFI (cfiCond541) R6 load(1, XDATA, add(CFA_XSP16, literal(-10)))
          CFI (cfiCond541) VB load(1, XDATA, add(CFA_XSP16, literal(-9)))
          CFI (cfiCond541) V0 load(1, XDATA, add(CFA_XSP16, literal(-8)))
          CFI (cfiCond541) V1 load(1, XDATA, add(CFA_XSP16, literal(-7)))
          CFI (cfiCond541) R7 load(1, XDATA, add(CFA_XSP16, literal(-6)))
          CFI (cfiCond541) ?RET_LOW load(1, XDATA, add(CFA_XSP16, literal(-5)))
          CFI (cfiCond541) ?RET_HIGH load(1, XDATA, add(CFA_XSP16, literal(-4)))
          CFI (cfiCond541) ?BRET_EXT load(1, XDATA, add(CFA_XSP16, literal(-3)))
          CFI (cfiCond541) DPL0 load(1, XDATA, add(CFA_XSP16, literal(-2)))
          CFI (cfiCond541) DPH0 load(1, XDATA, add(CFA_XSP16, literal(-1)))
          CFI (cfiCond541) CFA_SP SP+-4
          CFI (cfiCond541) CFA_XSP16 add(XSP16, 19)
          CFI Block cfiCond542 Using cfiCommon0
          CFI (cfiCond542) Function ZDP_SimpleDescMsg
          CFI (cfiCond542) Conditional ??CrossCallReturnLabel_252, ??CrossCallReturnLabel_245
          CFI (cfiCond542) R6 load(1, XDATA, add(CFA_XSP16, literal(-20)))
          CFI (cfiCond542) VB load(1, XDATA, add(CFA_XSP16, literal(-19)))
          CFI (cfiCond542) V0 load(1, XDATA, add(CFA_XSP16, literal(-18)))
          CFI (cfiCond542) V1 load(1, XDATA, add(CFA_XSP16, literal(-17)))
          CFI (cfiCond542) V2 load(1, XDATA, add(CFA_XSP16, literal(-16)))
          CFI (cfiCond542) V3 load(1, XDATA, add(CFA_XSP16, literal(-15)))
          CFI (cfiCond542) V4 load(1, XDATA, add(CFA_XSP16, literal(-14)))
          CFI (cfiCond542) V5 load(1, XDATA, add(CFA_XSP16, literal(-13)))
          CFI (cfiCond542) V6 load(1, XDATA, add(CFA_XSP16, literal(-12)))
          CFI (cfiCond542) V7 load(1, XDATA, add(CFA_XSP16, literal(-11)))
          CFI (cfiCond542) V8 load(1, XDATA, add(CFA_XSP16, literal(-10)))
          CFI (cfiCond542) V9 load(1, XDATA, add(CFA_XSP16, literal(-9)))
          CFI (cfiCond542) V10 load(1, XDATA, add(CFA_XSP16, literal(-8)))
          CFI (cfiCond542) V11 load(1, XDATA, add(CFA_XSP16, literal(-7)))
          CFI (cfiCond542) R7 load(1, XDATA, add(CFA_XSP16, literal(-6)))
          CFI (cfiCond542) ?RET_LOW load(1, XDATA, add(CFA_XSP16, literal(-5)))
          CFI (cfiCond542) ?RET_HIGH load(1, XDATA, add(CFA_XSP16, literal(-4)))
          CFI (cfiCond542) ?BRET_EXT load(1, XDATA, add(CFA_XSP16, literal(-3)))
          CFI (cfiCond542) DPL0 load(1, XDATA, add(CFA_XSP16, literal(-2)))
          CFI (cfiCond542) DPH0 load(1, XDATA, add(CFA_XSP16, literal(-1)))
          CFI (cfiCond542) CFA_SP SP+-4
          CFI (cfiCond542) CFA_XSP16 add(XSP16, 20)
          CFI Block cfiCond543 Using cfiCommon0
          CFI (cfiCond543) Function ZDP_SendData
          CFI (cfiCond543) Conditional ??CrossCallReturnLabel_252, ??CrossCallReturnLabel_233
          CFI (cfiCond543) R6 load(1, XDATA, add(CFA_XSP16, literal(-12)))
          CFI (cfiCond543) VB load(1, XDATA, add(CFA_XSP16, literal(-11)))
          CFI (cfiCond543) V0 load(1, XDATA, add(CFA_XSP16, literal(-10)))
          CFI (cfiCond543) V1 load(1, XDATA, add(CFA_XSP16, literal(-9)))
          CFI (cfiCond543) V2 load(1, XDATA, add(CFA_XSP16, literal(-8)))
          CFI (cfiCond543) V3 load(1, XDATA, add(CFA_XSP16, literal(-7)))
          CFI (cfiCond543) R7 load(1, XDATA, add(CFA_XSP16, literal(-6)))
          CFI (cfiCond543) ?RET_LOW load(1, XDATA, add(CFA_XSP16, literal(-5)))
          CFI (cfiCond543) ?RET_HIGH load(1, XDATA, add(CFA_XSP16, literal(-4)))
          CFI (cfiCond543) ?BRET_EXT load(1, XDATA, add(CFA_XSP16, literal(-3)))
          CFI (cfiCond543) DPL0 load(1, XDATA, add(CFA_XSP16, literal(-2)))
          CFI (cfiCond543) DPH0 load(1, XDATA, add(CFA_XSP16, literal(-1)))
          CFI (cfiCond543) CFA_SP SP+-4
          CFI (cfiCond543) CFA_XSP16 add(XSP16, 12)
          CFI Block cfiCond544 Using cfiCommon0
          CFI (cfiCond544) Function ZDP_UserDescRsp
          CFI (cfiCond544) Conditional ??CrossCallReturnLabel_252, ??CrossCallReturnLabel_234
          CFI (cfiCond544) R6 load(1, XDATA, add(CFA_XSP16, literal(-18)))
          CFI (cfiCond544) VB load(1, XDATA, add(CFA_XSP16, literal(-17)))
          CFI (cfiCond544) V0 load(1, XDATA, add(CFA_XSP16, literal(-16)))
          CFI (cfiCond544) V1 load(1, XDATA, add(CFA_XSP16, literal(-15)))
          CFI (cfiCond544) V2 load(1, XDATA, add(CFA_XSP16, literal(-14)))
          CFI (cfiCond544) V3 load(1, XDATA, add(CFA_XSP16, literal(-13)))
          CFI (cfiCond544) V4 load(1, XDATA, add(CFA_XSP16, literal(-12)))
          CFI (cfiCond544) V5 load(1, XDATA, add(CFA_XSP16, literal(-11)))
          CFI (cfiCond544) V6 load(1, XDATA, add(CFA_XSP16, literal(-10)))
          CFI (cfiCond544) V7 load(1, XDATA, add(CFA_XSP16, literal(-9)))
          CFI (cfiCond544) V8 load(1, XDATA, add(CFA_XSP16, literal(-8)))
          CFI (cfiCond544) V9 load(1, XDATA, add(CFA_XSP16, literal(-7)))
          CFI (cfiCond544) R7 load(1, XDATA, add(CFA_XSP16, literal(-6)))
          CFI (cfiCond544) ?RET_LOW load(1, XDATA, add(CFA_XSP16, literal(-5)))
          CFI (cfiCond544) ?RET_HIGH load(1, XDATA, add(CFA_XSP16, literal(-4)))
          CFI (cfiCond544) ?BRET_EXT load(1, XDATA, add(CFA_XSP16, literal(-3)))
          CFI (cfiCond544) DPL0 load(1, XDATA, add(CFA_XSP16, literal(-2)))
          CFI (cfiCond544) DPH0 load(1, XDATA, add(CFA_XSP16, literal(-1)))
          CFI (cfiCond544) CFA_SP SP+-4
          CFI (cfiCond544) CFA_XSP16 add(XSP16, 19)
          CFI Block cfiCond545 Using cfiCommon0
          CFI (cfiCond545) Function ZDP_GenericRsp
          CFI (cfiCond545) Conditional ??CrossCallReturnLabel_252, ??CrossCallReturnLabel_235
          CFI (cfiCond545) R6 load(1, XDATA, add(CFA_XSP16, literal(-9)))
          CFI (cfiCond545) VB load(1, XDATA, add(CFA_XSP16, literal(-8)))
          CFI (cfiCond545) V0 load(1, XDATA, add(CFA_XSP16, literal(-7)))
          CFI (cfiCond545) R7 load(1, XDATA, add(CFA_XSP16, literal(-6)))
          CFI (cfiCond545) ?RET_LOW load(1, XDATA, add(CFA_XSP16, literal(-5)))
          CFI (cfiCond545) ?RET_HIGH load(1, XDATA, add(CFA_XSP16, literal(-4)))
          CFI (cfiCond545) ?BRET_EXT load(1, XDATA, add(CFA_XSP16, literal(-3)))
          CFI (cfiCond545) DPL0 load(1, XDATA, add(CFA_XSP16, literal(-2)))
          CFI (cfiCond545) DPH0 load(1, XDATA, add(CFA_XSP16, literal(-1)))
          CFI (cfiCond545) CFA_SP SP+-4
          CFI (cfiCond545) CFA_XSP16 add(XSP16, 10)
          CFI Block cfiCond546 Using cfiCommon0
          CFI (cfiCond546) Function ZDP_EndDeviceBindReq
          CFI (cfiCond546) Conditional ??CrossCallReturnLabel_252, ??CrossCallReturnLabel_236
          CFI (cfiCond546) R6 load(1, XDATA, add(CFA_XSP16, literal(-18)))
          CFI (cfiCond546) VB load(1, XDATA, add(CFA_XSP16, literal(-17)))
          CFI (cfiCond546) V0 load(1, XDATA, add(CFA_XSP16, literal(-16)))
          CFI (cfiCond546) V1 load(1, XDATA, add(CFA_XSP16, literal(-15)))
          CFI (cfiCond546) V2 load(1, XDATA, add(CFA_XSP16, literal(-14)))
          CFI (cfiCond546) V3 load(1, XDATA, add(CFA_XSP16, literal(-13)))
          CFI (cfiCond546) V4 load(1, XDATA, add(CFA_XSP16, literal(-12)))
          CFI (cfiCond546) V5 load(1, XDATA, add(CFA_XSP16, literal(-11)))
          CFI (cfiCond546) V6 load(1, XDATA, add(CFA_XSP16, literal(-10)))
          CFI (cfiCond546) V7 load(1, XDATA, add(CFA_XSP16, literal(-9)))
          CFI (cfiCond546) V8 load(1, XDATA, add(CFA_XSP16, literal(-8)))
          CFI (cfiCond546) V9 load(1, XDATA, add(CFA_XSP16, literal(-7)))
          CFI (cfiCond546) R7 load(1, XDATA, add(CFA_XSP16, literal(-6)))
          CFI (cfiCond546) ?RET_LOW load(1, XDATA, add(CFA_XSP16, literal(-5)))
          CFI (cfiCond546) ?RET_HIGH load(1, XDATA, add(CFA_XSP16, literal(-4)))
          CFI (cfiCond546) ?BRET_EXT load(1, XDATA, add(CFA_XSP16, literal(-3)))
          CFI (cfiCond546) DPL0 load(1, XDATA, add(CFA_XSP16, literal(-2)))
          CFI (cfiCond546) DPH0 load(1, XDATA, add(CFA_XSP16, literal(-1)))
          CFI (cfiCond546) CFA_SP SP+-4
          CFI (cfiCond546) CFA_XSP16 add(XSP16, 18)
          CFI Block cfiCond547 Using cfiCommon0
          CFI (cfiCond547) Function ZDP_MgmtPermitJoinReq
          CFI (cfiCond547) Conditional ??CrossCallReturnLabel_252, ??CrossCallReturnLabel_237
          CFI (cfiCond547) R6 load(1, XDATA, add(CFA_XSP16, literal(-12)))
          CFI (cfiCond547) VB load(1, XDATA, add(CFA_XSP16, literal(-11)))
          CFI (cfiCond547) V0 load(1, XDATA, add(CFA_XSP16, literal(-10)))
          CFI (cfiCond547) V1 load(1, XDATA, add(CFA_XSP16, literal(-9)))
          CFI (cfiCond547) V2 load(1, XDATA, add(CFA_XSP16, literal(-8)))
          CFI (cfiCond547) V3 load(1, XDATA, add(CFA_XSP16, literal(-7)))
          CFI (cfiCond547) R7 load(1, XDATA, add(CFA_XSP16, literal(-6)))
          CFI (cfiCond547) ?RET_LOW load(1, XDATA, add(CFA_XSP16, literal(-5)))
          CFI (cfiCond547) ?RET_HIGH load(1, XDATA, add(CFA_XSP16, literal(-4)))
          CFI (cfiCond547) ?BRET_EXT load(1, XDATA, add(CFA_XSP16, literal(-3)))
          CFI (cfiCond547) DPL0 load(1, XDATA, add(CFA_XSP16, literal(-2)))
          CFI (cfiCond547) DPH0 load(1, XDATA, add(CFA_XSP16, literal(-1)))
          CFI (cfiCond547) CFA_SP SP+-4
          CFI (cfiCond547) CFA_XSP16 add(XSP16, 21)
          CFI Block cfiCond548 Using cfiCommon0
          CFI (cfiCond548) Function ZDO_SendMsgCBs
          CFI (cfiCond548) Conditional ??CrossCallReturnLabel_252, ??CrossCallReturnLabel_238
          CFI (cfiCond548) R6 load(1, XDATA, add(CFA_XSP16, literal(-18)))
          CFI (cfiCond548) VB load(1, XDATA, add(CFA_XSP16, literal(-17)))
          CFI (cfiCond548) V0 load(1, XDATA, add(CFA_XSP16, literal(-16)))
          CFI (cfiCond548) V1 load(1, XDATA, add(CFA_XSP16, literal(-15)))
          CFI (cfiCond548) V2 load(1, XDATA, add(CFA_XSP16, literal(-14)))
          CFI (cfiCond548) V3 load(1, XDATA, add(CFA_XSP16, literal(-13)))
          CFI (cfiCond548) V4 load(1, XDATA, add(CFA_XSP16, literal(-12)))
          CFI (cfiCond548) V5 load(1, XDATA, add(CFA_XSP16, literal(-11)))
          CFI (cfiCond548) V6 load(1, XDATA, add(CFA_XSP16, literal(-10)))
          CFI (cfiCond548) V7 load(1, XDATA, add(CFA_XSP16, literal(-9)))
          CFI (cfiCond548) V8 load(1, XDATA, add(CFA_XSP16, literal(-8)))
          CFI (cfiCond548) V9 load(1, XDATA, add(CFA_XSP16, literal(-7)))
          CFI (cfiCond548) R7 load(1, XDATA, add(CFA_XSP16, literal(-6)))
          CFI (cfiCond548) ?RET_LOW load(1, XDATA, add(CFA_XSP16, literal(-5)))
          CFI (cfiCond548) ?RET_HIGH load(1, XDATA, add(CFA_XSP16, literal(-4)))
          CFI (cfiCond548) ?BRET_EXT load(1, XDATA, add(CFA_XSP16, literal(-3)))
          CFI (cfiCond548) DPL0 load(1, XDATA, add(CFA_XSP16, literal(-2)))
          CFI (cfiCond548) DPH0 load(1, XDATA, add(CFA_XSP16, literal(-1)))
          CFI (cfiCond548) CFA_SP SP+-4
          CFI (cfiCond548) CFA_XSP16 add(XSP16, 18)
          CFI Block cfiCond549 Using cfiCommon0
          CFI (cfiCond549) Function ZDP_IncomingData
          CFI (cfiCond549) Conditional ??CrossCallReturnLabel_252, ??CrossCallReturnLabel_239
          CFI (cfiCond549) R6 load(1, XDATA, add(CFA_XSP16, literal(-10)))
          CFI (cfiCond549) VB load(1, XDATA, add(CFA_XSP16, literal(-9)))
          CFI (cfiCond549) V0 load(1, XDATA, add(CFA_XSP16, literal(-8)))
          CFI (cfiCond549) V1 load(1, XDATA, add(CFA_XSP16, literal(-7)))
          CFI (cfiCond549) R7 load(1, XDATA, add(CFA_XSP16, literal(-6)))
          CFI (cfiCond549) ?RET_LOW load(1, XDATA, add(CFA_XSP16, literal(-5)))
          CFI (cfiCond549) ?RET_HIGH load(1, XDATA, add(CFA_XSP16, literal(-4)))
          CFI (cfiCond549) ?BRET_EXT load(1, XDATA, add(CFA_XSP16, literal(-3)))
          CFI (cfiCond549) DPL0 load(1, XDATA, add(CFA_XSP16, literal(-2)))
          CFI (cfiCond549) DPH0 load(1, XDATA, add(CFA_XSP16, literal(-1)))
          CFI (cfiCond549) CFA_SP SP+-4
          CFI (cfiCond549) CFA_XSP16 add(XSP16, 33)
          CFI Block cfiCond550 Using cfiCommon0
          CFI (cfiCond550) Function ZDP_IncomingData
          CFI (cfiCond550) Conditional ??CrossCallReturnLabel_252, ??CrossCallReturnLabel_240
          CFI (cfiCond550) R6 load(1, XDATA, add(CFA_XSP16, literal(-10)))
          CFI (cfiCond550) VB load(1, XDATA, add(CFA_XSP16, literal(-9)))
          CFI (cfiCond550) V0 load(1, XDATA, add(CFA_XSP16, literal(-8)))
          CFI (cfiCond550) V1 load(1, XDATA, add(CFA_XSP16, literal(-7)))
          CFI (cfiCond550) R7 load(1, XDATA, add(CFA_XSP16, literal(-6)))
          CFI (cfiCond550) ?RET_LOW load(1, XDATA, add(CFA_XSP16, literal(-5)))
          CFI (cfiCond550) ?RET_HIGH load(1, XDATA, add(CFA_XSP16, literal(-4)))
          CFI (cfiCond550) ?BRET_EXT load(1, XDATA, add(CFA_XSP16, literal(-3)))
          CFI (cfiCond550) DPL0 load(1, XDATA, add(CFA_XSP16, literal(-2)))
          CFI (cfiCond550) DPH0 load(1, XDATA, add(CFA_XSP16, literal(-1)))
          CFI (cfiCond550) CFA_SP SP+-4
          CFI (cfiCond550) CFA_XSP16 add(XSP16, 33)
          CFI Block cfiCond551 Using cfiCommon0
          CFI (cfiCond551) Function ZDP_IncomingData
          CFI (cfiCond551) Conditional ??CrossCallReturnLabel_252, ??CrossCallReturnLabel_241
          CFI (cfiCond551) R6 load(1, XDATA, add(CFA_XSP16, literal(-10)))
          CFI (cfiCond551) VB load(1, XDATA, add(CFA_XSP16, literal(-9)))
          CFI (cfiCond551) V0 load(1, XDATA, add(CFA_XSP16, literal(-8)))
          CFI (cfiCond551) V1 load(1, XDATA, add(CFA_XSP16, literal(-7)))
          CFI (cfiCond551) R7 load(1, XDATA, add(CFA_XSP16, literal(-6)))
          CFI (cfiCond551) ?RET_LOW load(1, XDATA, add(CFA_XSP16, literal(-5)))
          CFI (cfiCond551) ?RET_HIGH load(1, XDATA, add(CFA_XSP16, literal(-4)))
          CFI (cfiCond551) ?BRET_EXT load(1, XDATA, add(CFA_XSP16, literal(-3)))
          CFI (cfiCond551) DPL0 load(1, XDATA, add(CFA_XSP16, literal(-2)))
          CFI (cfiCond551) DPH0 load(1, XDATA, add(CFA_XSP16, literal(-1)))
          CFI (cfiCond551) CFA_SP SP+-4
          CFI (cfiCond551) CFA_XSP16 add(XSP16, 33)
          CFI Block cfiCond552 Using cfiCommon0
          CFI (cfiCond552) Function ZDP_IncomingData
          CFI (cfiCond552) Conditional ??CrossCallReturnLabel_252, ??CrossCallReturnLabel_242
          CFI (cfiCond552) R6 load(1, XDATA, add(CFA_XSP16, literal(-10)))
          CFI (cfiCond552) VB load(1, XDATA, add(CFA_XSP16, literal(-9)))
          CFI (cfiCond552) V0 load(1, XDATA, add(CFA_XSP16, literal(-8)))
          CFI (cfiCond552) V1 load(1, XDATA, add(CFA_XSP16, literal(-7)))
          CFI (cfiCond552) R7 load(1, XDATA, add(CFA_XSP16, literal(-6)))
          CFI (cfiCond552) ?RET_LOW load(1, XDATA, add(CFA_XSP16, literal(-5)))
          CFI (cfiCond552) ?RET_HIGH load(1, XDATA, add(CFA_XSP16, literal(-4)))
          CFI (cfiCond552) ?BRET_EXT load(1, XDATA, add(CFA_XSP16, literal(-3)))
          CFI (cfiCond552) DPL0 load(1, XDATA, add(CFA_XSP16, literal(-2)))
          CFI (cfiCond552) DPH0 load(1, XDATA, add(CFA_XSP16, literal(-1)))
          CFI (cfiCond552) CFA_SP SP+-4
          CFI (cfiCond552) CFA_XSP16 add(XSP16, 33)
          CFI Block cfiCond553 Using cfiCommon0
          CFI (cfiCond553) Function ZDP_NWKAddrOfInterestReq
          CFI (cfiCond553) Conditional ??CrossCallReturnLabel_251, ??CrossCallReturnLabel_16
          CFI (cfiCond553) R6 load(1, XDATA, add(CFA_XSP16, literal(-10)))
          CFI (cfiCond553) VB load(1, XDATA, add(CFA_XSP16, literal(-9)))
          CFI (cfiCond553) V0 load(1, XDATA, add(CFA_XSP16, literal(-8)))
          CFI (cfiCond553) V1 load(1, XDATA, add(CFA_XSP16, literal(-7)))
          CFI (cfiCond553) R7 load(1, XDATA, add(CFA_XSP16, literal(-6)))
          CFI (cfiCond553) ?RET_LOW load(1, XDATA, add(CFA_XSP16, literal(-5)))
          CFI (cfiCond553) ?RET_HIGH load(1, XDATA, add(CFA_XSP16, literal(-4)))
          CFI (cfiCond553) ?BRET_EXT load(1, XDATA, add(CFA_XSP16, literal(-3)))
          CFI (cfiCond553) DPL0 load(1, XDATA, add(CFA_XSP16, literal(-2)))
          CFI (cfiCond553) DPH0 load(1, XDATA, add(CFA_XSP16, literal(-1)))
          CFI (cfiCond553) CFA_SP SP+-4
          CFI (cfiCond553) CFA_XSP16 add(XSP16, 10)
          CFI Block cfiCond554 Using cfiCommon0
          CFI (cfiCond554) Function ZDP_SimpleDescReq
          CFI (cfiCond554) Conditional ??CrossCallReturnLabel_251, ??CrossCallReturnLabel_17
          CFI (cfiCond554) R6 load(1, XDATA, add(CFA_XSP16, literal(-10)))
          CFI (cfiCond554) VB load(1, XDATA, add(CFA_XSP16, literal(-9)))
          CFI (cfiCond554) V0 load(1, XDATA, add(CFA_XSP16, literal(-8)))
          CFI (cfiCond554) V1 load(1, XDATA, add(CFA_XSP16, literal(-7)))
          CFI (cfiCond554) R7 load(1, XDATA, add(CFA_XSP16, literal(-6)))
          CFI (cfiCond554) ?RET_LOW load(1, XDATA, add(CFA_XSP16, literal(-5)))
          CFI (cfiCond554) ?RET_HIGH load(1, XDATA, add(CFA_XSP16, literal(-4)))
          CFI (cfiCond554) ?BRET_EXT load(1, XDATA, add(CFA_XSP16, literal(-3)))
          CFI (cfiCond554) DPL0 load(1, XDATA, add(CFA_XSP16, literal(-2)))
          CFI (cfiCond554) DPH0 load(1, XDATA, add(CFA_XSP16, literal(-1)))
          CFI (cfiCond554) CFA_SP SP+-4
          CFI (cfiCond554) CFA_XSP16 add(XSP16, 10)
          CFI Block cfiCond555 Using cfiCommon0
          CFI (cfiCond555) Function ZDP_DeviceAnnce
          CFI (cfiCond555) Conditional ??CrossCallReturnLabel_249
          CFI (cfiCond555) R6 load(1, XDATA, add(CFA_XSP16, literal(-10)))
          CFI (cfiCond555) VB load(1, XDATA, add(CFA_XSP16, literal(-9)))
          CFI (cfiCond555) V0 load(1, XDATA, add(CFA_XSP16, literal(-8)))
          CFI (cfiCond555) V1 load(1, XDATA, add(CFA_XSP16, literal(-7)))
          CFI (cfiCond555) R7 load(1, XDATA, add(CFA_XSP16, literal(-6)))
          CFI (cfiCond555) ?RET_LOW load(1, XDATA, add(CFA_XSP16, literal(-5)))
          CFI (cfiCond555) ?RET_HIGH load(1, XDATA, add(CFA_XSP16, literal(-4)))
          CFI (cfiCond555) ?BRET_EXT load(1, XDATA, add(CFA_XSP16, literal(-3)))
          CFI (cfiCond555) DPL0 load(1, XDATA, add(CFA_XSP16, literal(-2)))
          CFI (cfiCond555) DPH0 load(1, XDATA, add(CFA_XSP16, literal(-1)))
          CFI (cfiCond555) CFA_SP SP+-2
          CFI (cfiCond555) CFA_XSP16 add(XSP16, 19)
          CFI Block cfiCond556 Using cfiCommon0
          CFI (cfiCond556) Function ZDP_MgmtDirectJoinReq
          CFI (cfiCond556) Conditional ??CrossCallReturnLabel_250
          CFI (cfiCond556) R6 load(1, XDATA, add(CFA_XSP16, literal(-12)))
          CFI (cfiCond556) VB load(1, XDATA, add(CFA_XSP16, literal(-11)))
          CFI (cfiCond556) V0 load(1, XDATA, add(CFA_XSP16, literal(-10)))
          CFI (cfiCond556) V1 load(1, XDATA, add(CFA_XSP16, literal(-9)))
          CFI (cfiCond556) V2 load(1, XDATA, add(CFA_XSP16, literal(-8)))
          CFI (cfiCond556) V3 load(1, XDATA, add(CFA_XSP16, literal(-7)))
          CFI (cfiCond556) R7 load(1, XDATA, add(CFA_XSP16, literal(-6)))
          CFI (cfiCond556) ?RET_LOW load(1, XDATA, add(CFA_XSP16, literal(-5)))
          CFI (cfiCond556) ?RET_HIGH load(1, XDATA, add(CFA_XSP16, literal(-4)))
          CFI (cfiCond556) ?BRET_EXT load(1, XDATA, add(CFA_XSP16, literal(-3)))
          CFI (cfiCond556) DPL0 load(1, XDATA, add(CFA_XSP16, literal(-2)))
          CFI (cfiCond556) DPH0 load(1, XDATA, add(CFA_XSP16, literal(-1)))
          CFI (cfiCond556) CFA_SP SP+-2
          CFI (cfiCond556) CFA_XSP16 add(XSP16, 12)
          CFI Block cfiPicker557 Using cfiCommon1
          CFI (cfiPicker557) NoFunction
          CFI (cfiPicker557) Picker
        MOVX      A,@DPTR
        MOV       R0,A
        INC       DPTR
        MOVX      A,@DPTR
        RET
          CFI EndBlock cfiCond531
          CFI EndBlock cfiCond532
          CFI EndBlock cfiCond533
          CFI EndBlock cfiCond534
          CFI EndBlock cfiCond535
          CFI EndBlock cfiCond536
          CFI EndBlock cfiCond537
          CFI EndBlock cfiCond538
          CFI EndBlock cfiCond539
          CFI EndBlock cfiCond540
          CFI EndBlock cfiCond541
          CFI EndBlock cfiCond542
          CFI EndBlock cfiCond543
          CFI EndBlock cfiCond544
          CFI EndBlock cfiCond545
          CFI EndBlock cfiCond546
          CFI EndBlock cfiCond547
          CFI EndBlock cfiCond548
          CFI EndBlock cfiCond549
          CFI EndBlock cfiCond550
          CFI EndBlock cfiCond551
          CFI EndBlock cfiCond552
          CFI EndBlock cfiCond553
          CFI EndBlock cfiCond554
          CFI EndBlock cfiCond555
          CFI EndBlock cfiCond556
          CFI EndBlock cfiPicker557

        RSEG BANKED_CODE:HUGECODE:NOROOT(0)
?Subroutine16:
          CFI Block cfiCond558 Using cfiCommon0
          CFI Function ZDP_MgmtNwkUpdateNotify
          CFI Conditional ??CrossCallReturnLabel_13
          CFI R6 load(1, XDATA, add(CFA_XSP16, literal(-18)))
          CFI VB load(1, XDATA, add(CFA_XSP16, literal(-17)))
          CFI V0 load(1, XDATA, add(CFA_XSP16, literal(-16)))
          CFI V1 load(1, XDATA, add(CFA_XSP16, literal(-15)))
          CFI V2 load(1, XDATA, add(CFA_XSP16, literal(-14)))
          CFI V3 load(1, XDATA, add(CFA_XSP16, literal(-13)))
          CFI V4 load(1, XDATA, add(CFA_XSP16, literal(-12)))
          CFI V5 load(1, XDATA, add(CFA_XSP16, literal(-11)))
          CFI V6 load(1, XDATA, add(CFA_XSP16, literal(-10)))
          CFI V7 load(1, XDATA, add(CFA_XSP16, literal(-9)))
          CFI V8 load(1, XDATA, add(CFA_XSP16, literal(-8)))
          CFI V9 load(1, XDATA, add(CFA_XSP16, literal(-7)))
          CFI R7 load(1, XDATA, add(CFA_XSP16, literal(-6)))
          CFI ?RET_LOW load(1, XDATA, add(CFA_XSP16, literal(-5)))
          CFI ?RET_HIGH load(1, XDATA, add(CFA_XSP16, literal(-4)))
          CFI ?BRET_EXT load(1, XDATA, add(CFA_XSP16, literal(-3)))
          CFI DPL0 load(1, XDATA, add(CFA_XSP16, literal(-2)))
          CFI DPH0 load(1, XDATA, add(CFA_XSP16, literal(-1)))
          CFI CFA_SP SP+-2
          CFI CFA_XSP16 add(XSP16, 19)
          CFI Block cfiCond559 Using cfiCommon0
          CFI (cfiCond559) Function ZDP_IncomingData
          CFI (cfiCond559) Conditional ??CrossCallReturnLabel_14
          CFI (cfiCond559) R6 load(1, XDATA, add(CFA_XSP16, literal(-10)))
          CFI (cfiCond559) VB load(1, XDATA, add(CFA_XSP16, literal(-9)))
          CFI (cfiCond559) V0 load(1, XDATA, add(CFA_XSP16, literal(-8)))
          CFI (cfiCond559) V1 load(1, XDATA, add(CFA_XSP16, literal(-7)))
          CFI (cfiCond559) R7 load(1, XDATA, add(CFA_XSP16, literal(-6)))
          CFI (cfiCond559) ?RET_LOW load(1, XDATA, add(CFA_XSP16, literal(-5)))
          CFI (cfiCond559) ?RET_HIGH load(1, XDATA, add(CFA_XSP16, literal(-4)))
          CFI (cfiCond559) ?BRET_EXT load(1, XDATA, add(CFA_XSP16, literal(-3)))
          CFI (cfiCond559) DPL0 load(1, XDATA, add(CFA_XSP16, literal(-2)))
          CFI (cfiCond559) DPH0 load(1, XDATA, add(CFA_XSP16, literal(-1)))
          CFI (cfiCond559) CFA_SP SP+-2
          CFI (cfiCond559) CFA_XSP16 add(XSP16, 33)
          CFI Block cfiCond560 Using cfiCommon0
          CFI (cfiCond560) Function ZDP_IncomingData
          CFI (cfiCond560) Conditional ??CrossCallReturnLabel_15
          CFI (cfiCond560) R6 load(1, XDATA, add(CFA_XSP16, literal(-10)))
          CFI (cfiCond560) VB load(1, XDATA, add(CFA_XSP16, literal(-9)))
          CFI (cfiCond560) V0 load(1, XDATA, add(CFA_XSP16, literal(-8)))
          CFI (cfiCond560) V1 load(1, XDATA, add(CFA_XSP16, literal(-7)))
          CFI (cfiCond560) R7 load(1, XDATA, add(CFA_XSP16, literal(-6)))
          CFI (cfiCond560) ?RET_LOW load(1, XDATA, add(CFA_XSP16, literal(-5)))
          CFI (cfiCond560) ?RET_HIGH load(1, XDATA, add(CFA_XSP16, literal(-4)))
          CFI (cfiCond560) ?BRET_EXT load(1, XDATA, add(CFA_XSP16, literal(-3)))
          CFI (cfiCond560) DPL0 load(1, XDATA, add(CFA_XSP16, literal(-2)))
          CFI (cfiCond560) DPH0 load(1, XDATA, add(CFA_XSP16, literal(-1)))
          CFI (cfiCond560) CFA_SP SP+-2
          CFI (cfiCond560) CFA_XSP16 add(XSP16, 33)
          CFI Block cfiPicker561 Using cfiCommon1
          CFI (cfiPicker561) NoFunction
          CFI (cfiPicker561) Picker
        LCALL     ?Subroutine86 & 0xFFFF
??CrossCallReturnLabel_146:
        INC       DPTR
        RET
          CFI EndBlock cfiCond558
          CFI EndBlock cfiCond559
          CFI EndBlock cfiCond560
          CFI EndBlock cfiPicker561

        RSEG XDATA_ID:CODE:NOROOT(0)
`?<Initializer for ZDP_TmpBuf>`:
        DATA16
        DW ZDP_Buf + 1H

        RSEG XDATA_ROM_C:CONST:REORDER:NOROOT(0)
        DATA32
__Constant_a:
        DD 10

        RSEG BANK_RELAYS:CODE:REORDER:NOROOT(0)
`??fillAndSend::?relay`:
        CODE
        LCALL   ?BDISPATCH
        DATA24
        DC24    fillAndSend

        RSEG BANK_RELAYS:CODE:REORDER:NOROOT(0)
`??ZDP_SendData::?relay`:
        CODE
        LCALL   ?BDISPATCH
        DATA24
        DC24    ZDP_SendData

        RSEG BANK_RELAYS:CODE:REORDER:NOROOT(0)
`??ZDP_NWKAddrOfInterestReq::?relay`:
        CODE
        LCALL   ?BDISPATCH
        DATA24
        DC24    ZDP_NWKAddrOfInterestReq

        RSEG BANK_RELAYS:CODE:REORDER:NOROOT(0)
`??ZDP_NwkAddrReq::?relay`:
        CODE
        LCALL   ?BDISPATCH
        DATA24
        DC24    ZDP_NwkAddrReq

        RSEG BANK_RELAYS:CODE:REORDER:NOROOT(0)
`??ZDP_IEEEAddrReq::?relay`:
        CODE
        LCALL   ?BDISPATCH
        DATA24
        DC24    ZDP_IEEEAddrReq

        RSEG BANK_RELAYS:CODE:REORDER:NOROOT(0)
`??ZDP_MatchDescReq::?relay`:
        CODE
        LCALL   ?BDISPATCH
        DATA24
        DC24    ZDP_MatchDescReq

        RSEG BANK_RELAYS:CODE:REORDER:NOROOT(0)
`??ZDP_SimpleDescReq::?relay`:
        CODE
        LCALL   ?BDISPATCH
        DATA24
        DC24    ZDP_SimpleDescReq

        RSEG BANK_RELAYS:CODE:REORDER:NOROOT(0)
`??ZDP_UserDescSet::?relay`:
        CODE
        LCALL   ?BDISPATCH
        DATA24
        DC24    ZDP_UserDescSet

        RSEG BANK_RELAYS:CODE:REORDER:NOROOT(0)
`??ZDP_ServerDiscReq::?relay`:
        CODE
        LCALL   ?BDISPATCH
        DATA24
        DC24    ZDP_ServerDiscReq

        RSEG BANK_RELAYS:CODE:REORDER:NOROOT(0)
`??ZDP_DeviceAnnce::?relay`:
        CODE
        LCALL   ?BDISPATCH
        DATA24
        DC24    ZDP_DeviceAnnce

        RSEG BANK_RELAYS:CODE:REORDER:NOROOT(0)
`??ZDP_ParentAnnce::?relay`:
        CODE
        LCALL   ?BDISPATCH
        DATA24
        DC24    ZDP_ParentAnnce

        RSEG BANK_RELAYS:CODE:REORDER:NOROOT(0)
`??zdpProcessAddrReq::?relay`:
        CODE
        LCALL   ?BDISPATCH
        DATA24
        DC24    zdpProcessAddrReq

        RSEG BANK_RELAYS:CODE:REORDER:NOROOT(0)
`??ZDP_NodeDescMsg::?relay`:
        CODE
        LCALL   ?BDISPATCH
        DATA24
        DC24    ZDP_NodeDescMsg

        RSEG BANK_RELAYS:CODE:REORDER:NOROOT(0)
`??ZDP_PowerDescMsg::?relay`:
        CODE
        LCALL   ?BDISPATCH
        DATA24
        DC24    ZDP_PowerDescMsg

        RSEG BANK_RELAYS:CODE:REORDER:NOROOT(0)
`??ZDP_SimpleDescMsg::?relay`:
        CODE
        LCALL   ?BDISPATCH
        DATA24
        DC24    ZDP_SimpleDescMsg

        RSEG BANK_RELAYS:CODE:REORDER:NOROOT(0)
`??ZDP_EPRsp::?relay`:
        CODE
        LCALL   ?BDISPATCH
        DATA24
        DC24    ZDP_EPRsp

        RSEG BANK_RELAYS:CODE:REORDER:NOROOT(0)
`??ZDP_UserDescRsp::?relay`:
        CODE
        LCALL   ?BDISPATCH
        DATA24
        DC24    ZDP_UserDescRsp

        RSEG BANK_RELAYS:CODE:REORDER:NOROOT(0)
`??ZDP_ServerDiscRsp::?relay`:
        CODE
        LCALL   ?BDISPATCH
        DATA24
        DC24    ZDP_ServerDiscRsp

        RSEG BANK_RELAYS:CODE:REORDER:NOROOT(0)
`??ZDP_GenericRsp::?relay`:
        CODE
        LCALL   ?BDISPATCH
        DATA24
        DC24    ZDP_GenericRsp

        RSEG BANK_RELAYS:CODE:REORDER:NOROOT(0)
`??ZDP_EndDeviceBindReq::?relay`:
        CODE
        LCALL   ?BDISPATCH
        DATA24
        DC24    ZDP_EndDeviceBindReq

        RSEG BANK_RELAYS:CODE:REORDER:NOROOT(0)
`??ZDP_BindUnbindReq::?relay`:
        CODE
        LCALL   ?BDISPATCH
        DATA24
        DC24    ZDP_BindUnbindReq

        RSEG BANK_RELAYS:CODE:REORDER:NOROOT(0)
`??ZDP_MgmtNwkDiscReq::?relay`:
        CODE
        LCALL   ?BDISPATCH
        DATA24
        DC24    ZDP_MgmtNwkDiscReq

        RSEG BANK_RELAYS:CODE:REORDER:NOROOT(0)
`??ZDP_MgmtDirectJoinReq::?relay`:
        CODE
        LCALL   ?BDISPATCH
        DATA24
        DC24    ZDP_MgmtDirectJoinReq

        RSEG BANK_RELAYS:CODE:REORDER:NOROOT(0)
`??ZDP_MgmtPermitJoinReq::?relay`:
        CODE
        LCALL   ?BDISPATCH
        DATA24
        DC24    ZDP_MgmtPermitJoinReq

        RSEG BANK_RELAYS:CODE:REORDER:NOROOT(0)
`??ZDP_MgmtLeaveReq::?relay`:
        CODE
        LCALL   ?BDISPATCH
        DATA24
        DC24    ZDP_MgmtLeaveReq

        RSEG BANK_RELAYS:CODE:REORDER:NOROOT(0)
`??ZDP_MgmtNwkUpdateReq::?relay`:
        CODE
        LCALL   ?BDISPATCH
        DATA24
        DC24    ZDP_MgmtNwkUpdateReq

        RSEG BANK_RELAYS:CODE:REORDER:NOROOT(0)
`??ZDP_MgmtNwkDiscRsp::?relay`:
        CODE
        LCALL   ?BDISPATCH
        DATA24
        DC24    ZDP_MgmtNwkDiscRsp

        RSEG BANK_RELAYS:CODE:REORDER:NOROOT(0)
`??ZDP_MgmtLqiRsp::?relay`:
        CODE
        LCALL   ?BDISPATCH
        DATA24
        DC24    ZDP_MgmtLqiRsp

        RSEG BANK_RELAYS:CODE:REORDER:NOROOT(0)
`??ZDP_MgmtRtgRsp::?relay`:
        CODE
        LCALL   ?BDISPATCH
        DATA24
        DC24    ZDP_MgmtRtgRsp

        RSEG BANK_RELAYS:CODE:REORDER:NOROOT(0)
`??ZDP_MgmtBindRsp::?relay`:
        CODE
        LCALL   ?BDISPATCH
        DATA24
        DC24    ZDP_MgmtBindRsp

        RSEG BANK_RELAYS:CODE:REORDER:NOROOT(0)
`??ZDP_MgmtNwkUpdateNotify::?relay`:
        CODE
        LCALL   ?BDISPATCH
        DATA24
        DC24    ZDP_MgmtNwkUpdateNotify

        RSEG BANK_RELAYS:CODE:REORDER:NOROOT(0)
`??ZDO_RegisterForZDOMsg::?relay`:
        CODE
        LCALL   ?BDISPATCH
        DATA24
        DC24    ZDO_RegisterForZDOMsg

        RSEG BANK_RELAYS:CODE:REORDER:NOROOT(0)
`??ZDO_RemoveRegisteredCB::?relay`:
        CODE
        LCALL   ?BDISPATCH
        DATA24
        DC24    ZDO_RemoveRegisteredCB

        RSEG BANK_RELAYS:CODE:REORDER:NOROOT(0)
`??ZDO_SendMsgCBs::?relay`:
        CODE
        LCALL   ?BDISPATCH
        DATA24
        DC24    ZDO_SendMsgCBs

        RSEG BANK_RELAYS:CODE:REORDER:NOROOT(0)
`??ZDP_IncomingData::?relay`:
        CODE
        LCALL   ?BDISPATCH
        DATA24
        DC24    ZDP_IncomingData

        END
// 2095 
// 2096 /*********************************************************************
// 2097 *********************************************************************/
// 2098 
// 
// 7 073 bytes in segment BANKED_CODE
//   210 bytes in segment BANK_RELAYS
//    53 bytes in segment CODE_C
//     2 bytes in segment XDATA_I
//     2 bytes in segment XDATA_ID
//     4 bytes in segment XDATA_ROM_C
//    85 bytes in segment XDATA_Z
// 
//   265 bytes of CODE     memory
//     0 bytes of CONST    memory (+ 4 bytes shared)
// 7 073 bytes of HUGECODE memory
//    87 bytes of XDATA    memory
//
//Errors: none
//Warnings: none
